
DASH.elf:     file format elf32-littleriscv
DASH.elf
architecture: riscv:rv32, flags 0x00000112:
EXEC_P, HAS_SYMS, D_PAGED
start address 0x00000000

Program Header:
    LOAD off    0x00001000 vaddr 0x00000000 paddr 0x00000000 align 2**12
         filesz 0x00008c68 memsz 0x00008c68 flags r-x
    LOAD off    0x0000a000 vaddr 0x20000000 paddr 0x00008c68 align 2**12
         filesz 0x000005c0 memsz 0x00001a24 flags rw-
    LOAD off    0x0000a800 vaddr 0x20004800 paddr 0x20004800 align 2**12
         filesz 0x00000000 memsz 0x00000800 flags rw-

Sections:
Idx Name          Size      VMA       LMA       File off  Algn
  0 .init         00000038  00000000  00000000  00001000  2**1
                  CONTENTS, ALLOC, LOAD, READONLY, CODE
  1 .vector       00000108  00000038  00000038  00001038  2**1
                  CONTENTS, ALLOC, LOAD, READONLY, CODE
  2 .text         00008a68  00000200  00000200  00001200  2**8
                  CONTENTS, ALLOC, LOAD, READONLY, CODE
  3 .fini         00000000  00008c68  00008c68  0000a5c0  2**0
                  CONTENTS, ALLOC, LOAD, CODE
  4 .dalign       00000000  20000000  20000000  0000a5c0  2**0
                  CONTENTS
  5 .dlalign      00000000  00008c68  00008c68  0000a5c0  2**0
                  CONTENTS
  6 .data         000005c0  20000000  00008c68  0000a000  2**2
                  CONTENTS, ALLOC, LOAD, DATA
  7 .bss          00001464  200005c0  00009228  0000a5c0  2**2
                  ALLOC
  8 .stack        00000800  20004800  20004800  0000a800  2**0
                  ALLOC
  9 .debug_info   0003d321  00000000  00000000  0000a5c0  2**0
                  CONTENTS, READONLY, DEBUGGING
 10 .debug_abbrev 00009993  00000000  00000000  000478e1  2**0
                  CONTENTS, READONLY, DEBUGGING
 11 .debug_loc    0000f83b  00000000  00000000  00051274  2**0
                  CONTENTS, READONLY, DEBUGGING
 12 .debug_aranges 00001a28  00000000  00000000  00060ab0  2**3
                  CONTENTS, READONLY, DEBUGGING
 13 .debug_ranges 00002770  00000000  00000000  000624d8  2**3
                  CONTENTS, READONLY, DEBUGGING
 14 .debug_line   000285eb  00000000  00000000  00064c48  2**0
                  CONTENTS, READONLY, DEBUGGING
 15 .debug_str    00009841  00000000  00000000  0008d233  2**0
                  CONTENTS, READONLY, DEBUGGING
 16 .comment      00000033  00000000  00000000  00096a74  2**0
                  CONTENTS, READONLY
 17 .debug_frame  000051b0  00000000  00000000  00096aa8  2**2
                  CONTENTS, READONLY, DEBUGGING
 18 .stab         00000084  00000000  00000000  0009bc58  2**2
                  CONTENTS, READONLY, DEBUGGING
 19 .stabstr      00000117  00000000  00000000  0009bcdc  2**0
                  CONTENTS, READONLY, DEBUGGING
SYMBOL TABLE:
00000000 l    d  .init	00000000 .init
00000038 l    d  .vector	00000000 .vector
00000200 l    d  .text	00000000 .text
00008c68 l    d  .fini	00000000 .fini
20000000 l    d  .dalign	00000000 .dalign
00008c68 l    d  .dlalign	00000000 .dlalign
20000000 l    d  .data	00000000 .data
200005c0 l    d  .bss	00000000 .bss
20004800 l    d  .stack	00000000 .stack
00000000 l    d  .debug_info	00000000 .debug_info
00000000 l    d  .debug_abbrev	00000000 .debug_abbrev
00000000 l    d  .debug_loc	00000000 .debug_loc
00000000 l    d  .debug_aranges	00000000 .debug_aranges
00000000 l    d  .debug_ranges	00000000 .debug_ranges
00000000 l    d  .debug_line	00000000 .debug_line
00000000 l    d  .debug_str	00000000 .debug_str
00000000 l    d  .comment	00000000 .comment
00000000 l    d  .debug_frame	00000000 .debug_frame
00000000 l    d  .stab	00000000 .stab
00000000 l    d  .stabstr	00000000 .stabstr
00000000 l    df *ABS*	00000000 ./Startup/startup_ch32v20x_D6.o
00000038 l       .vector	00000000 _vector_base
00000000 l    df *ABS*	00000000 ./FreeRTOS/portable/GCC/RISC-V/portASM.o
0000025c l       .text	00000000 processed_source
00000428 l       .text	00000000 chip_specific_stack_frame
00000000 l    df *ABS*	00000000 DataModel.c
20000664 l     O .bss	0000021c DATA_MODEL_REGISTER
200005c0 l     O .bss	00000001 data_init
00000000 l    df *ABS*	00000000 ch32v20x_it.c
00000000 l    df *ABS*	00000000 dash_draw.c
200005c4 l     O .bss	00000004 ErrorRegister
200005c8 l     O .bss	00000004 pProcessTaskHandle
00000000 l    df *ABS*	00000000 init.c
00000000 l    df *ABS*	00000000 inputs.c
20000880 l     O .bss	0000000a ADC_OLD_RAW
2000088c l     O .bss	00000014 OurVData
200005cc l     O .bss	00000004 pInputsTaskHandle
200005d0 l     O .bss	00000004 pTaskToNotifykHandle
200005d4 l     O .bss	00000004 xHigherPriorityTaskWoken.7242
00000000 l    df *ABS*	00000000 led.c
200008a0 l     O .bss	0000000a SPI1_DATA
200005d8 l     O .bss	00000008 SPI2_DATA
00000000 l    df *ABS*	00000000 main.c
00000000 l    df *ABS*	00000000 system_ch32v20x.c
00000000 l    df *ABS*	00000000 system_init.c
00001874 l     F .text	000001f4 StartDefaultTask
200008ac l     O .bss	00000200 InputsTaskBuffer
20000aac l     O .bss	0000005c InputsTaskControlBlock
20000b08 l     O .bss	00000400 ProcessTaskBuffer
20000f08 l     O .bss	0000005c ProcessTaskControlBlock
20000f64 l     O .bss	00000200 defaultTaskBuffer
20001164 l     O .bss	0000005c defaultTaskControlBlock
200011c0 l     O .bss	00000200 uxIdleTaskStack
200013c0 l     O .bss	00000200 uxTimerTaskStack
200015c0 l     O .bss	0000005c xIdleTaskTCB
2000161c l     O .bss	0000005c xTimerTaskTCB
200005e0 l     O .bss	00000004 DeafaultTaskFSM
00000000 l    df *ABS*	00000000 ch32v20x_adc.c
00000000 l    df *ABS*	00000000 ch32v20x_bkp.c
00000000 l    df *ABS*	00000000 ch32v20x_can.c
00000000 l    df *ABS*	00000000 ch32v20x_dma.c
00000000 l    df *ABS*	00000000 ch32v20x_gpio.c
00000000 l    df *ABS*	00000000 ch32v20x_i2c.c
00000000 l    df *ABS*	00000000 ch32v20x_misc.c
00000000 l    df *ABS*	00000000 ch32v20x_pwr.c
00000000 l    df *ABS*	00000000 ch32v20x_rcc.c
20000010 l     O .data	00000010 APBAHBPrescTable
20000584 l     O .data	00000004 ADCPrescTable
00000000 l    df *ABS*	00000000 ch32v20x_rtc.c
00000000 l    df *ABS*	00000000 ch32v20x_spi.c
00000000 l    df *ABS*	00000000 ch32v20x_tim.c
00000000 l    df *ABS*	00000000 ch32v20x_usart.c
00000000 l    df *ABS*	00000000 hw_lib_adc.c
20001698 l     O .bss	0000000e muRawVData
200016a8 l     O .bss	0000000a xAinData
200005ec l     O .bss	00000002 usCurMaxIndex
00000000 l    df *ABS*	00000000 hw_lib_din.c
200016b4 l     O .bss	00000054 xDinConfig
00000000 l    df *ABS*	00000000 hw_lib_eeprom.c
20001708 l     O .bss	00000028 Dev
00000000 l    df *ABS*	00000000 hal_adc.c
00008224 l     O .text	00000012 ADC_chennel_ref
200005ee l     O .bss	00000002 Calibrattion_Val
00000000 l    df *ABS*	00000000 hal_can.c
20001730 l     O .bss	0000000c CAN
00000000 l    df *ABS*	00000000 hal_dma.c
00000000 l    df *ABS*	00000000 hal_gpio.c
00000000 l    df *ABS*	00000000 hal_i2c.c
00003998 l     F .text	0000008e I2C_Master_TransmitIT
00003a26 l     F .text	000000a2 I2C_Master_ReviceIT
00003ac8 l     F .text	000001d6 I2C_FSM
00000000 l    df *ABS*	00000000 hal_rtc.c
200005f4 l     O .bss	00000004 func
00000000 l    df *ABS*	00000000 hal_spi.c
00000000 l    df *ABS*	00000000 hal_timers.c
000040a2 l     F .text	00000048 vTimerInitRCC
20001778 l     O .bss	0000003c config
00008284 l     O .text	00000014 timers
200005ac l     O .data	00000003 CSWTCH.0
00000000 l    df *ABS*	00000000 hal_wdt.c
00000000 l    df *ABS*	00000000 heap_4.c
00004430 l     F .text	0000004c prvInsertBlockIntoFreeList
200005f8 l     O .bss	00000004 pxEnd
200005fc l     O .bss	00000004 xBlockAllocatedBit
20000600 l     O .bss	00000004 xFreeBytesRemaining
20000604 l     O .bss	00000004 xNumberOfSuccessfulFrees
20000608 l     O .bss	00000008 xStart
00000000 l    df *ABS*	00000000 port.c
20000588 l     O .data	00000004 uxCriticalNesting
00000000 l    df *ABS*	00000000 list.c
00000000 l    df *ABS*	00000000 queue.c
00004740 l     F .text	0000001e prvIsQueueEmpty
0000475e l     F .text	00000028 prvCopyDataFromQueue
00004786 l     F .text	00000076 prvUnlockQueue
00000000 l    df *ABS*	00000000 tasks.c
00004b96 l     F .text	00000002 prvIdleTask
00004b98 l     F .text	00000116 prvAddNewTaskToReadyList
00004cae l     F .text	00000024 prvResetNextTaskUnblockTime
00004cd2 l     F .text	000000c8 prvInitialiseNewTask.isra.2
00004d9a l     F .text	000000ac prvAddCurrentTaskToDelayedList
200017f4 l     O .bss	0000012c pxReadyTasksLists
20001920 l     O .bss	00000014 xDelayedTaskList1
20001934 l     O .bss	00000014 xDelayedTaskList2
20001948 l     O .bss	00000014 xPendingReadyList
2000195c l     O .bss	00000014 xSuspendedTaskList
20000614 l     O .bss	00000004 pxDelayedTaskList
20000618 l     O .bss	00000004 pxOverflowDelayedTaskList
2000061c l     O .bss	00000004 uxCurrentNumberOfTasks
20000620 l     O .bss	00000004 uxSchedulerSuspended
20000624 l     O .bss	00000004 uxTaskNumber
20000628 l     O .bss	00000004 uxTopReadyPriority
2000062c l     O .bss	00000004 xNextTaskUnblockTime
20000630 l     O .bss	00000004 xNumOfOverflows
20000634 l     O .bss	00000004 xPendedTicks
20000638 l     O .bss	00000004 xSchedulerRunning
2000063c l     O .bss	00000004 xTickCount
20000640 l     O .bss	00000004 xYieldPending
00000000 l    df *ABS*	00000000 timers.c
00005bde l     F .text	00000076 prvCheckForValidListAndQueue
00005c54 l     F .text	00000046 prvInsertTimerInActiveList
00005c9a l     F .text	0000002a prvReloadTimer
00005cc4 l     F .text	00000046 prvProcessExpiredTimer
00005d0a l     F .text	00000030 prvSwitchTimerLists
00005d3a l     F .text	00000198 prvTimerTask
20001970 l     O .bss	00000040 ucStaticTimerQueueStorage.5818
200019b0 l     O .bss	00000014 xActiveTimerList1
200019c4 l     O .bss	00000014 xActiveTimerList2
200019d8 l     O .bss	00000048 xStaticTimerQueue.5817
20000644 l     O .bss	00000004 pxCurrentTimerList
20000648 l     O .bss	00000004 pxOverflowTimerList
2000064c l     O .bss	00000004 xLastTime.5774
20000650 l     O .bss	00000004 xTimerQueue
20000654 l     O .bss	00000004 xTimerTaskHandle
00000000 l    df *ABS*	00000000 filters.c
00000000 l    df *ABS*	00000000 debug.c
20000658 l     O .bss	00000002 p_ms
2000065a l     O .bss	00000001 p_us
20000590 l     O .data	00000004 curbrk.4668
00000000 l    df *ABS*	00000000 core_riscv.c
00000000 l    df *ABS*	00000000 CO_ODinterface.c
000060b8 l     F .text	00000004 OD_readDisabled
00006160 l     F .text	00000004 OD_writeDisabled
00000000 l    df *ABS*	00000000 addsf3.c
00000000 l    df *ABS*	00000000 divsf3.c
00000000 l    df *ABS*	00000000 mulsf3.c
00000000 l    df *ABS*	00000000 fixunssfsi.c
00000000 l    df *ABS*	00000000 floatsisf.c
00000000 l    df *ABS*	00000000 floatunsisf.c
00000000 l    df *ABS*	00000000 libgcc2.c
00000000 l    df *ABS*	00000000 memcpy.c
00000000 l    df *ABS*	00000000 nano-mallocr.c
00000000 l    df *ABS*	00000000 nano-mallocr.c
00000000 l    df *ABS*	00000000 printf.c
00000000 l    df *ABS*	00000000 puts.c
00000000 l    df *ABS*	00000000 sbrkr.c
00000000 l    df *ABS*	00000000 wbuf.c
00000000 l    df *ABS*	00000000 wsetup.c
00000000 l    df *ABS*	00000000 fflush.c
00000000 l    df *ABS*	00000000 findfp.c
0000746e l     F .text	00000066 std
00000000 l    df *ABS*	00000000 fwalk.c
00000000 l    df *ABS*	00000000 makebuf.c
00000000 l    df *ABS*	00000000 mlock.c
00000000 l    df *ABS*	00000000 nano-vfprintf.c
0000778c l     F .text	00000028 __sfputc_r
00000000 l    df *ABS*	00000000 nano-vfprintf_i.c
00000000 l    df *ABS*	00000000 stdio.c
00000000 l    df *ABS*	00000000 writer.c
00000000 l    df *ABS*	00000000 closer.c
00000000 l    df *ABS*	00000000 fstatr.c
00000000 l    df *ABS*	00000000 isattyr.c
00000000 l    df *ABS*	00000000 lseekr.c
00000000 l    df *ABS*	00000000 memchr.c
00000000 l    df *ABS*	00000000 readr.c
00000000 l    df *ABS*	00000000 close.c
00000000 l    df *ABS*	00000000 fstat.c
00000000 l    df *ABS*	00000000 isatty.c
00000000 l    df *ABS*	00000000 lseek.c
00000000 l    df *ABS*	00000000 read.c
00000000 l    df *ABS*	00000000 OD.c
20000020 l     O .data	000002b8 ODList
000083b0 l     O .text	0000065c ODObjs
200005a0 l     O .data	00000008 _OD
00000000 l    df *ABS*	00000000 libgcc2.c
00000000 l    df *ABS*	00000000 impure.c
20000520 l     O .data	00000060 impure_data
00000000 l    df *ABS*	00000000 reent.c
0000166a g     F .text	00000048 vLedProcess
00002d4a g     F .text	00000016 TIM_TimeBaseStructInit
00001b3e  w      .text	00000000 EXTI2_IRQHandler
00007f6e g     F .text	00000030 _isatty_r
0000700a g     F .text	000000d4 _puts_r
00007f9e g     F .text	00000034 _lseek_r
00002196 g     F .text	00000014 DMA_Cmd
00001a98 g     F .text	00000084 vSYStaskInit
00003432 g     F .text	00000172 HAL_DMAInitIT
00004684 g     F .text	00000042 vPortExitCritical
00006fca g     F .text	00000040 printf
20000d80 g       .data	00000000 __global_pointer$
000004f6 g     F .text	00000028 .hidden __riscv_save_8
000021ce g     F .text	0000000a DMA_GetITStatus
00001b64  w      .text	00000000 TIM1_CC_IRQHandler
00002582 g     F .text	00000008 I2C_ReceiveData
00007ea0 g     F .text	00000030 __sseek
00007526 g     F .text	0000006c __sinit
0000711c g     F .text	000000bc __swbuf_r
00000aec g     F .text	00000066 HardFault_Handler
000020ca g     F .text	00000094 CAN_ClearITPendingBit
00004b3a g     F .text	0000005c vQueueWaitForMessageRestricted
000028da g     F .text	00000012 RTC_EnterConfigMode
000074de g     F .text	00000048 __sfmoreglue
0000778a g     F .text	00000002 __malloc_unlock
00006256 g     F .text	0000002e OD_set_value
00000614 g     F .text	00000012 setReg16
00001cca g     F .text	00000012 ADC_DMACmd
00002962 g     F .text	00000014 RTC_ClearFlag
00000542 g     F .text	0000000c .hidden __riscv_restore_3
000065ee g     F .text	000002ae .hidden __divsf3
00002dca g     F .text	0000000e TIM_OC1PreloadConfig
000045f2 g     F .text	0000007c SysTick_Handler
00001cee g     F .text	0000000a ADC_StartCalibration
000025f8 g     F .text	000000aa NVIC_Init
00001b30  w      .text	00000000 PVD_IRQHandler
00001de8 g     F .text	0000001c ADC_GetITStatus
00000aaa g     F .text	00000012 vIncrementSystemCounters
0000144a g     F .text	00000002 vSetInitBrigth
00005ba0 g     F .text	0000003e ulTaskGenericNotifyValueClear
0000052e g     F .text	00000020 .hidden __riscv_restore_10
000029a0 g     F .text	00000036 SPI_I2S_DeInit
00000aea g     F .text	00000002 NMI_Handler
00001b40  w      .text	00000000 EXTI3_IRQHandler
000004f6 g     F .text	00000028 .hidden __riscv_save_11
00003422 g     F .text	00000010 HAL_DMA_SetCounter
0000442e g     F .text	00000002 HAL_WDTReset
20000610 g     O .bss	00000004 pxCurrentTCB
20001678 g     O .bss	0000001e ADC1_IN_Buffer
00002f10 g     F .text	0000000a USART_GetFlagStatus
00007f3c g     F .text	00000032 _fstat_r
00001188 g     F .text	00000048 ADC1_Event
00006164 g     F .text	000000f2 OD_getSub
20001a20 g     O .bss	00000004 errno
200005c0 g       .bss	00000000 _sbss
00000800 g       *ABS*	00000000 __stack_size
00001dd0 g     F .text	00000018 ADC_ExternalTrigConvCmd
00005fe4 g     F .text	0000005a USART_Printf_Init
00003944 g     F .text	0000003c HAL_InitGpioAF
0000215e g     F .text	00000038 DMA_Init
00005560 g     F .text	00000016 vTaskInternalSetTimeOutState
00000542 g     F .text	0000000c .hidden __riscv_restore_2
00001556 g     F .text	00000090 SetSEG
200002d8 g     O .data	00000044 OD_
000030c2 g     F .text	00000034 eEEPROMRd
00002872 g     F .text	00000020 RCC_BackupResetCmd
00003406 g     F .text	0000000e HAL_DMA_Enable
00000c4c g     F .text	00000026 vRGBOff
00004562 g     F .text	00000090 xPortStartScheduler
00002d78 g     F .text	00000016 TIM_CtrlPWMOutputs
0000256c g     F .text	00000012 I2C_ITConfig
00006d84 g     F .text	000000b2 memcpy
000053b6 g     F .text	00000048 vTaskPlaceOnEventList
000035a4 g     F .text	00000064 HAL_ADC_StartDMA
00001cba g     F .text	00000010 ADC_Cmd
00003ed0 g     F .text	000000b0 HAL_RTC_IT_Init
000074d4 g     F .text	0000000a _cleanup_r
0000230a g     F .text	000000f2 GPIO_PinRemapConfig
00004524  w    F .text	0000003e vPortSetupTimerInterrupt
00000626 g     F .text	000003de DataModel_Init
00001b3a  w      .text	00000000 EXTI0_IRQHandler
00005f48 g     F .text	00000030 vRCFilter
00003e38 g     F .text	0000004c I2C2_EV_IRQHandler
00002d60 g     F .text	00000018 TIM_Cmd
000070de g     F .text	0000000c puts
0000447c g     F .text	000000a8 vPortFree
00002dfc g     F .text	00000016 TIM_OC4PreloadConfig
20000580 g     O .data	00000004 SystemCoreClock
20005000 g       .stack	00000000 __freertos_irq_stack_top
00001e04 g     F .text	0000000a ADC_ClearITPendingBit
0000802e g     F .text	00000010 _fstat
00000038 g       .init	00000000 _einit
00002e2a g     F .text	0000000c TIM_ClearITPendingBit
000021bc g     F .text	00000004 DMA_SetCurrDataCounter
00002a4a g     F .text	0000000c SPI_I2S_ClearFlag
000027fa g     F .text	0000001e RCC_APB2PeriphClockCmd
000004ee g     F .text	00000030 .hidden __riscv_save_12
00003124 g     F .text	0000000e HAL_ADC_CommonConfig
00000ed8 g     F .text	0000016c vRedrawTask
00000b52 g     F .text	00000026 ADC1_2_IRQHandler
0000565a g     F .text	000000b8 ulTaskGenericNotifyTake
000021e0 g     F .text	000000fa GPIO_Init
000026b8 g     F .text	00000012 RCC_ADCCLKConfig
00001b28  w      .text	00000000 Break_Point_Handler
0000052e g     F .text	00000020 .hidden __riscv_restore_11
200005e8 g     O .bss	00000004 NVIC_Priority_Group
00001b74  w      .text	00000000 SPI1_IRQHandler
00001cdc g     F .text	0000000a ADC_ResetCalibration
00002ef2 g     F .text	00000016 USART_Cmd
000070ea g     F .text	00000032 _sbrk_r
00001b32  w      .text	00000000 TAMPER_IRQHandler
0000051e g     F .text	0000000c .hidden __riscv_save_1
000013bc g     F .text	0000003e SPI2_DMA_Callback
00001044 g     F .text	00000144 vInit_DeviceConfig
00000542 g     F .text	0000000c .hidden __riscv_restore_0
00002c4a g     F .text	00000094 TIM_OC3Init
00007fea g     F .text	00000034 _read_r
000046ec g     F .text	00000006 vListInitialiseItem
000026ca g     F .text	00000028 RCC_LSEConfig
00000504 g     F .text	0000001a .hidden __riscv_save_7
0000496e g     F .text	00000160 xQueueReceive
000026fe g     F .text	00000020 RCC_RTCCLKCmd
200017b4 g     O .bss	00000040 xQueueRegistry
000046d2 g     F .text	00000006 vPortClearInterruptMask
000021d8 g     F .text	00000008 DMA_ClearITPendingBit
00001a80 g     F .text	00000018 vApplicationGetTimerTaskMemory
00002a56 g     F .text	0000008a TIM_DeInit
00002818 g     F .text	0000001e RCC_APB1PeriphClockCmd
00002034 g     F .text	00000056 CAN_GetFlagStatus
00003c9e g     F .text	00000102 InitI2CDMA
00001b24  w      .text	00000000 Ecall_M_Mode_Handler
20004800 g       .stack	00000000 _heap_end
000013fa g     F .text	00000050 SetBarState
00001384 g     F .text	00000038 SPI1_DMA_Callback
0000803e g     F .text	00000010 _isatty
00000a9c g     F .text	0000000e getReg8
200005b4 g     O .data	00000004 _global_impure_ptr
00000538 g     F .text	00000016 .hidden __riscv_restore_5
000005f6 g     F .text	0000001e setReg32
00002a40 g     F .text	0000000a SPI_I2S_GetFlagStatus
000027dc g     F .text	0000001e RCC_AHBPeriphClockCmd
0000373a g     F .text	00000064 DMA1_Channel4_IRQHandler
00001d18 g     F .text	000000b8 ADC_RegularChannelConfig
00003fe4 g     F .text	00000098 HAL_SPI_InitDMA
00002f5a g     F .text	00000024 xGetDIN
0000257e g     F .text	00000004 I2C_SendData
0000607c g     F .text	0000002a _sbrk
20000598 g     O .data	00000008 OD_PERSIST_COMM
000046d8 g     F .text	00000014 vListInitialise
000011d0 g     F .text	0000000a getInputsTaskHandle
00002904 g     F .text	0000002a RTC_SetPrescaler
000023fc g     F .text	000000f2 I2C_Init
000021c0 g     F .text	0000000e DMA_GetFlagStatus
20000594 g     O .data	00000004 OD
00000538 g     F .text	00000016 .hidden __riscv_restore_6
00001b7c  w      .text	00000000 USART3_IRQHandler
00004f98 g     F .text	0000000a xTaskGetTickCount
000026a2 g     F .text	00000016 PWR_BackupAccessCmd
00003f80 g     F .text	00000064 RTC_IRQHandler
00001cf8 g     F .text	00000008 ADC_GetCalibrationStatus
20001a24 g       .bss	00000000 _ebss
0000379e g     F .text	00000068 DMA1_Channel7_IRQHandler
00002b4a g     F .text	0000006a TIM_OC1Init
00001d00 g     F .text	00000018 ADC_SoftwareStartConvCmd
00003008 g     F .text	0000000a xGetEEPROM
00002dee g     F .text	0000000e TIM_OC3PreloadConfig
00001ce6 g     F .text	00000008 ADC_GetResetCalibrationStatus
00003340 g     F .text	00000064 CAN1_RX1_IRQHandler
00005f78 g     F .text	00000032 Delay_Init
0000293e g     F .text	00000024 RTC_WaitForSynchro
00002892 g     F .text	0000002e RCC_GetFlagStatus
00002020 g     F .text	00000014 BKP_DeInit
2000031c g     O .data	00000034 OD_RAM
00005474 g     F .text	000000ec xTaskRemoveFromEventList
000022da g     F .text	00000018 GPIO_SetBits
000040ea g     F .text	00000074 TIM4_IRQHandler
00002db0 g     F .text	0000001a TIM_ARRPreloadConfig
000004f6 g     F .text	00000028 .hidden __riscv_save_9
00000c98 g     F .text	000000be vRGBMode
00003806 g     F .text	00000012 HAL_InitGpioLib
00002f7e g     F .text	00000072 xGetRPM
00002506 g     F .text	0000001a I2C_GenerateSTART
00008bcc g     O .text	00000020 __sf_fake_stderr
00000504 g     F .text	0000001a .hidden __riscv_save_4
00000b82 g     F .text	000000ca getODValue
000015fa g     F .text	00000070 vLedDriverStart
000012f8 g     F .text	0000008c vInputsTask
00003da0 g     F .text	0000004c I2C1_EV_IRQHandler
200005b0 g     O .data	00000004 xISRStackTop
00002e12 g     F .text	00000018 TIM_GetITStatus
000060bc g     F .text	00000050 OD_readOriginal
00001b84  w      .text	00000000 USBHD_IRQHandler
20000350 g     O .data	000001d0 OD_ROM
0000271e g     F .text	000000be RCC_GetClocksFreq
00001b4e  w      .text	00000000 DMA1_Channel6_IRQHandler
00006d16 g     F .text	0000006e .hidden __clzsi2
0000610c g     F .text	00000054 OD_writeOriginal
000077b4 g     F .text	00000042 __sfputs_r
00001b88  w      .text	00000000 UART4_IRQHandler
00007fd2 g     F .text	00000018 memchr
00002e36 g     F .text	000000bc USART_Init
00005576 g     F .text	000000b2 xTaskCheckForTimeOut
00006e36 g     F .text	000000b0 _free_r
0000415e g     F .text	00000074 TIM3_IRQHandler
00001b38  w      .text	00000000 RCC_IRQHandler
00002f1a g     F .text	00000036 vAINInit
0000051e g     F .text	0000000c .hidden __riscv_save_3
0000208a g     F .text	00000040 CAN_ClearFlag
00001b62  w      .text	00000000 TIM1_TRG_COM_IRQHandler
00005712 g     F .text	000000e6 xTaskGenericNotifyWait
00003608 g     F .text	00000064 DMA1_Channel1_IRQHandler
00000000 g       .init	00000000 _start
00004f88 g     F .text	00000010 vTaskSuspendAll
20000000 g     O .data	00000010 AHBPrescTable
000025b0 g     F .text	00000032 I2C_GetFlagStatus
0000804e g     F .text	00000010 _lseek
00002dd8 g     F .text	00000016 TIM_OC2PreloadConfig
000026f2 g     F .text	0000000c RCC_RTCCLKConfig
00006b82 g     F .text	000000c6 .hidden __floatsisf
00004720 g     F .text	00000020 uxListRemove
00001b7e  w      .text	00000000 EXTI15_10_IRQHandler
00002d8e g     F .text	00000012 TIM_ITConfig
00002bb4 g     F .text	00000096 TIM_OC2Init
00008070 g     O .text	00000050 CalPoint
00004e46 g     F .text	000000a6 xTaskCreateStatic
00002f50 g     F .text	0000000a getADC1Buffer
00001b8a  w      .text	00000000 DMA1_Channel8_IRQHandler
00000c72 g     F .text	00000026 vGetEdgeData
0000531c g     F .text	0000009a vTaskSwitchContext
000038ce g     F .text	00000028 HAL_InitGpioOut
000048c0 g     F .text	000000ae xQueueGenericCreateStatic
000024ee g     F .text	00000018 I2C_Cmd
000053fe g     F .text	00000076 vTaskPlaceOnEventListRestricted
00002976 g     F .text	00000020 RTC_GetITStatus
000022f2 g     F .text	00000018 GPIO_ResetBits
000060ac g     F .text	00000006 __get_MCAUSE
00007f0c g     F .text	00000030 _close_r
000025e2 g     F .text	0000000c I2C_ClearFlag
20000000 g       .dalign	00000000 _data_vma
00000a7e g     F .text	0000001e getReg32
00001a68 g     F .text	00000018 vApplicationGetIdleTaskMemory
00002cde g     F .text	0000006c TIM_OC4Init
200005e4 g     O .bss	00000001 MCU_Version
000071d8 g     F .text	000000fe __swsetup_r
00001b5c  w      .text	00000000 EXTI9_5_IRQHandler
00007592 g     F .text	000000a0 __sfp
0000423e g     F .text	0000004e HW_TIMER_BaseTimerInit
000004f6 g     F .text	00000028 .hidden __riscv_save_10
00007e2c g     F .text	0000002c __sread
0000258a g     F .text	00000012 I2C_Send7bitAddress
00007788 g     F .text	00000002 __malloc_lock
00000538 g     F .text	00000016 .hidden __riscv_restore_4
000060b2 g     F .text	00000006 __get_MTVAL
0000052e g     F .text	00000020 .hidden __riscv_restore_8
000030f6 g     F .text	0000002e Get_ConversionVal
000060a6 g     F .text	00000006 __get_MEPC
00007408 g     F .text	00000066 _fflush_r
00000504 g     F .text	0000001a .hidden __riscv_save_6
00001b76  w      .text	00000000 SPI2_IRQHandler
00000a6a g     F .text	00000014 getReg16
00004336 g     F .text	000000f8 HAL_TIMER_PWMTimersInit
00008bec g     O .text	00000020 __sf_fake_stdin
000057f8 g     F .text	000001b4 xTaskGenericNotify
0000407c g     F .text	00000010 HAL_SPI_RXOveleyClear
0000054e g     F .text	000000a8 memset
0000052e g     F .text	00000020 .hidden __riscv_restore_9
00000538 g     F .text	00000016 .hidden __riscv_restore_7
000016b2 g     F .text	00000042 main
0000408c g     F .text	00000016 HAL_SPI_GetBusy
000046f2 g     F .text	0000002e vListInsert
0000428c g     F .text	000000aa HAL_TIMER_InitIt
00007ed0 g     F .text	00000006 __sclose
00005ed2 g     F .text	00000076 xTimerCreateTimerTask
00002a2e g     F .text	00000012 SPI_I2S_DMACmd
00006ee6 g     F .text	000000e4 _malloc_r
00002da0 g     F .text	00000010 TIM_InternalClockConfig
00001e26 g     F .text	000001fa Get_CalibrationValue
000036d4 g     F .text	00000066 DMA1_Channel5_IRQHandler
00005634 g     F .text	0000000a xTaskGetCurrentTaskHandle
00001b42  w      .text	00000000 EXTI4_IRQHandler
00005faa g     F .text	0000003a Delay_Ms
000032de g     F .text	00000062 USB_LP_CAN1_RX0_IRQHandler
0000689c g     F .text	00000290 .hidden __mulsf3
00001e0e g     F .text	00000018 ADC_BufferCmd
00002a14 g     F .text	0000001a SPI_Cmd
000014ec g     F .text	0000006a SetSegDirect
00000e18 g     F .text	0000005a vBarWindowMode
000016f4 g     F .text	000000ee SystemInit
000059ac g     F .text	000001f4 xTaskGenericNotifyFromISR
00006fca g     F .text	00000040 iprintf
0000514e g     F .text	00000168 xTaskResumeAll
2000058c g     O .data	00000004 uxTopUsedPriority
00003208 g     F .text	000000d6 USB_HP_CAN1_TX_IRQHandler
00008acc g     O .text	00000100 .hidden __clz_tab
000046c6 g     F .text	0000000c xPortSetInterruptMask
00004eec g     F .text	0000009c vTaskStartScheduler
00000000 g       .init	00000000 _sinit
00000abc g     F .text	0000002a vSaveData
00001b86  w      .text	00000000 USBHDWakeUp_IRQHandler
00007ed6 g     F .text	00000036 _write_r
00002ff0 g     F .text	00000018 vInitEEPROM
00000300 g       .text	00000000 xPortStartFirstTask
0000366c g     F .text	00000068 DMA1_Channel3_IRQHandler
00000ae6 g     F .text	00000004 getOdometr
00007a7e g     F .text	0000010c _printf_common
200005a8 g     O .data	00000004 _impure_ptr
00001b60  w      .text	00000000 TIM1_UP_IRQHandler
000072d6 g     F .text	00000132 __sflush_r
00001b2e  w      .text	00000000 WWDG_IRQHandler
00003980 g     F .text	0000000c HAL_SetBit
0000391c g     F .text	00000028 HAL_InitGpioIn
00002854 g     F .text	0000001e RCC_APB1PeriphResetCmd
00001b26  w      .text	00000000 Ecall_U_Mode_Handler
00005628 g     F .text	0000000c vTaskMissedYield
000021aa g     F .text	00000012 DMA_ITConfig
000041d2 g     F .text	0000006c TIM2_IRQHandler
20005000 g       .stack	00000000 _eusrstack
0000051e g     F .text	0000000c .hidden __riscv_save_2
00000200 g       .text	00000000 SW_Handler
00004ace g     F .text	0000006c vQueueAddToRegistry
000011da g     F .text	00000058 ADC1_Init
00004fa2 g     F .text	000001ac xTaskIncrementTick
00001c1e g     F .text	00000046 ADC_DeInit
00000e72 g     F .text	00000066 vBarMode
00001b5e  w      .text	00000000 TIM1_BRK_IRQHandler
0000769c g     F .text	00000058 __swhatbuf_r
00001c64 g     F .text	00000056 ADC_Init
00002f08 g     F .text	00000008 USART_SendData
00001232 g     F .text	00000092 ADC_FSM
00001b3c  w      .text	00000000 EXTI1_IRQHandler
0000292e g     F .text	00000010 RTC_WaitForLastTask
0000259c g     F .text	00000014 I2C_ReadRegister
00000504 g     F .text	0000001a .hidden __riscv_save_5
000047fc g     F .text	000000c4 xQueueGenericReset
0000603e g     F .text	0000003e _write
200005c0 g       .data	00000000 _edata
20001a24 g       .bss	00000000 _end
00002ae0 g     F .text	0000006a TIM_TimeBaseInit
00001b80  w      .text	00000000 RTCAlarm_IRQHandler
000012c4 g     F .text	0000000c GetAIN
00003012 g     F .text	000000b0 eEEPROMWr
00008c68 g       .dlalign	00000000 _data_lma
0000144c g     F .text	000000a0 SetRGB
000012d0 g     F .text	00000028 InputsNotifyTaskToInit
00001b7a  w      .text	00000000 USART2_IRQHandler
00007e58 g     F .text	00000048 __swrite
000081c4 g     O .text	0000000a DigitMask
000028ec g     F .text	00000018 RTC_ExitConfigMode
000077f6 g     F .text	00000288 _vfiprintf_r
00007632 g     F .text	0000006a _fwalk_reent
000017e2 g     F .text	00000092 SystemCoreClockUpdate
00006c48 g     F .text	000000ce .hidden __floatunsisf
00000a04 g     F .text	0000000e setReg8
00002996 g     F .text	0000000a RTC_ClearITPendingBit
200005f0 g     O .bss	00000004 pEEPROM
00003e84 g     F .text	0000004c I2C2_ER_IRQHandler
000052b6 g     F .text	00000066 vTaskDelay
00001b46  w      .text	00000000 DMA1_Channel2_IRQHandler
00008c0c g     O .text	00000020 __sf_fake_stdout
00002554 g     F .text	00000018 I2C_DualAddressCmd
000028c0 g     F .text	0000001a RTC_ITConfig
0000052a g     F .text	00000024 .hidden __riscv_restore_12
0000563e g     F .text	0000001c xTaskGetSchedulerState
000015e6 g     F .text	00000014 SetBigSeg
00001b1e g     F .text	00000002 vSYSeventInit
0000805e g     F .text	00000010 _read
00001b8c  w      .text	00000000 handle_reset
000033a4 g     F .text	00000062 CAN1_SCE_IRQHandler
00006b2c g     F .text	00000056 .hidden __fixunssfsi
00001b36  w      .text	00000000 FLASH_IRQHandler
0000051e g     F .text	0000000c .hidden __riscv_save_0
00001b1c g     F .text	00000002 vSYSqueueInit
00000d56 g     F .text	000000c2 vBarColorMode
00001b78  w      .text	00000000 USART1_IRQHandler
000076f4 g     F .text	00000094 __smakebuf_r
0000253a g     F .text	0000001a I2C_AcknowledgeConfig
00000400 g       .text	00000000 pxPortInitialiseStack
00007b8a g     F .text	000002a2 _printf_i
20000660 g     O .bss	00000004 __malloc_sbrk_start
00000b78 g     F .text	0000000a xProcessTaskHandle
00002836 g     F .text	0000001e RCC_APB2PeriphResetCmd
00002520 g     F .text	0000001a I2C_GenerateSTOP
00003dec g     F .text	0000004c I2C1_ER_IRQHandler
000029d6 g     F .text	0000003e SPI_Init
000025ee g     F .text	0000000a NVIC_PriorityGroupConfig
0000466e g     F .text	00000016 vPortEnterCritical
000038f6 g     F .text	00000026 HAL_InitGpioAIN
00003414 g     F .text	0000000e HAL_DMA_Disable
2000065c g     O .bss	00000004 __malloc_free_list
00003132 g     F .text	000000d6 HAL_ADC_ContiniusScanCinvertionDMA
20001758 g     O .bss	00000020 InitPort
00000542 g     F .text	0000000c .hidden __riscv_restore_1
000077f6 g     F .text	00000288 _vfprintf_r
00003818 g     F .text	000000b6 HAL_InitGpioRCC
00000a12 g     F .text	00000058 setReg
2000173c g     O .bss	0000001c DMA_CALLback
0000398c g     F .text	0000000c HAL_ResetBit
00006284 g     F .text	0000036a .hidden __addsf3
00001b82  w      .text	00000000 USBWakeUp_IRQHandler
0000801e g     F .text	00000010 _close



Disassembly of section .init:

00000000 <_sinit>:
   0:	38d0106f          	j	1b8c <handle_reset>
   4:	00000013          	nop
   8:	00000013          	nop
   c:	00000013          	nop
  10:	00000013          	nop
  14:	00000013          	nop
  18:	00000013          	nop
  1c:	00000013          	nop
  20:	00000013          	nop
  24:	00000013          	nop
  28:	00000013          	nop
  2c:	00000013          	nop
  30:	00000013          	nop
  34:	00100073          	ebreak

Disassembly of section .vector:

00000038 <_vector_base>:
	...
  40:	0aea                	slli	s5,s5,0x1a
  42:	0000                	unimp
  44:	0aec                	addi	a1,sp,348
  46:	0000                	unimp
  48:	0000                	unimp
  4a:	0000                	unimp
  4c:	1b24                	addi	s1,sp,440
	...
  56:	0000                	unimp
  58:	1b26                	slli	s6,s6,0x29
  5a:	0000                	unimp
  5c:	1b28                	addi	a0,sp,440
	...
  66:	0000                	unimp
  68:	45f2                	lw	a1,28(sp)
  6a:	0000                	unimp
  6c:	0000                	unimp
  6e:	0000                	unimp
  70:	0200                	addi	s0,sp,256
  72:	0000                	unimp
  74:	0000                	unimp
  76:	0000                	unimp
  78:	1b2e                	slli	s6,s6,0x2b
  7a:	0000                	unimp
  7c:	1b30                	addi	a2,sp,440
  7e:	0000                	unimp
  80:	1b32                	slli	s6,s6,0x2c
  82:	0000                	unimp
  84:	3f80                	lbu	s0,25(a5)
  86:	0000                	unimp
  88:	1b36                	slli	s6,s6,0x2d
  8a:	0000                	unimp
  8c:	1b38                	addi	a4,sp,440
  8e:	0000                	unimp
  90:	1b3a                	slli	s6,s6,0x2e
  92:	0000                	unimp
  94:	1b3c                	addi	a5,sp,440
  96:	0000                	unimp
  98:	1b3e                	slli	s6,s6,0x2f
  9a:	0000                	unimp
  9c:	1b40                	addi	s0,sp,436
  9e:	0000                	unimp
  a0:	1b42                	slli	s6,s6,0x30
  a2:	0000                	unimp
  a4:	3608                	lbu	a0,9(a2)
  a6:	0000                	unimp
  a8:	1b46                	slli	s6,s6,0x31
  aa:	0000                	unimp
  ac:	366c                	lbu	a1,15(a2)
  ae:	0000                	unimp
  b0:	373a                	lhu	a4,42(a4)
  b2:	0000                	unimp
  b4:	36d4                	lbu	a3,13(a3)
  b6:	0000                	unimp
  b8:	1b4e                	slli	s6,s6,0x33
  ba:	0000                	unimp
  bc:	379e                	lhu	a5,40(a5)
  be:	0000                	unimp
  c0:	0b52                	slli	s6,s6,0x14
  c2:	0000                	unimp
  c4:	3208                	lbu	a0,1(a2)
  c6:	0000                	unimp
  c8:	32de                	lhu	a5,36(a3)
  ca:	0000                	unimp
  cc:	3340                	lbu	s0,5(a4)
  ce:	0000                	unimp
  d0:	33a4                	lbu	s1,3(a5)
  d2:	0000                	unimp
  d4:	1b5c                	addi	a5,sp,436
  d6:	0000                	unimp
  d8:	1b5e                	slli	s6,s6,0x37
  da:	0000                	unimp
  dc:	1b60                	addi	s0,sp,444
  de:	0000                	unimp
  e0:	1b62                	slli	s6,s6,0x38
  e2:	0000                	unimp
  e4:	1b64                	addi	s1,sp,444
  e6:	0000                	unimp
  e8:	41d2                	lw	gp,20(sp)
  ea:	0000                	unimp
  ec:	415e                	lw	sp,212(sp)
  ee:	0000                	unimp
  f0:	40ea                	lw	ra,152(sp)
  f2:	0000                	unimp
  f4:	3da0                	lbu	s0,27(a1)
  f6:	0000                	unimp
  f8:	3dec                	lbu	a1,31(a1)
  fa:	0000                	unimp
  fc:	3e38                	lbu	a4,27(a2)
  fe:	0000                	unimp
 100:	3e84                	lbu	s1,25(a3)
 102:	0000                	unimp
 104:	1b74                	addi	a3,sp,444
 106:	0000                	unimp
 108:	1b76                	slli	s6,s6,0x3d
 10a:	0000                	unimp
 10c:	1b78                	addi	a4,sp,444
 10e:	0000                	unimp
 110:	1b7a                	slli	s6,s6,0x3e
 112:	0000                	unimp
 114:	1b7c                	addi	a5,sp,444
 116:	0000                	unimp
 118:	1b7e                	slli	s6,s6,0x3f
 11a:	0000                	unimp
 11c:	1b80                	addi	s0,sp,496
 11e:	0000                	unimp
 120:	1b82                	slli	s7,s7,0x20
 122:	0000                	unimp
 124:	1b84                	addi	s1,sp,496
 126:	0000                	unimp
 128:	1b86                	slli	s7,s7,0x21
 12a:	0000                	unimp
 12c:	1b88                	addi	a0,sp,496
 12e:	0000                	unimp
 130:	1b8a                	slli	s7,s7,0x22
	...

Disassembly of section .text:

00000200 <SW_Handler>:
     200:	f8810113          	addi	sp,sp,-120
     204:	c206                	sw	ra,4(sp)
     206:	c416                	sw	t0,8(sp)
     208:	c61a                	sw	t1,12(sp)
     20a:	c81e                	sw	t2,16(sp)
     20c:	ca22                	sw	s0,20(sp)
     20e:	cc26                	sw	s1,24(sp)
     210:	ce2a                	sw	a0,28(sp)
     212:	d02e                	sw	a1,32(sp)
     214:	d232                	sw	a2,36(sp)
     216:	d436                	sw	a3,40(sp)
     218:	d63a                	sw	a4,44(sp)
     21a:	d83e                	sw	a5,48(sp)
     21c:	da42                	sw	a6,52(sp)
     21e:	dc46                	sw	a7,56(sp)
     220:	de4a                	sw	s2,60(sp)
     222:	c0ce                	sw	s3,64(sp)
     224:	c2d2                	sw	s4,68(sp)
     226:	c4d6                	sw	s5,72(sp)
     228:	c6da                	sw	s6,76(sp)
     22a:	c8de                	sw	s7,80(sp)
     22c:	cae2                	sw	s8,84(sp)
     22e:	cce6                	sw	s9,88(sp)
     230:	ceea                	sw	s10,92(sp)
     232:	d0ee                	sw	s11,96(sp)
     234:	d2f2                	sw	t3,100(sp)
     236:	d4f6                	sw	t4,104(sp)
     238:	d6fa                	sw	t5,108(sp)
     23a:	d8fe                	sw	t6,112(sp)
     23c:	300022f3          	csrr	t0,mstatus
     240:	da96                	sw	t0,116(sp)
     242:	20000297          	auipc	t0,0x20000
     246:	3ce2a283          	lw	t0,974(t0) # 20000610 <pxCurrentTCB>
     24a:	0022a023          	sw	sp,0(t0)
     24e:	341025f3          	csrr	a1,mepc
     252:	c02e                	sw	a1,0(sp)
     254:	8301a103          	lw	sp,-2000(gp) # 200005b0 <xISRStackTop>
     258:	0c4050ef          	jal	ra,531c <vTaskSwitchContext>

0000025c <processed_source>:
     25c:	20000317          	auipc	t1,0x20000
     260:	3b432303          	lw	t1,948(t1) # 20000610 <pxCurrentTCB>
     264:	00032103          	lw	sp,0(t1)
     268:	4282                	lw	t0,0(sp)
     26a:	34129073          	csrw	mepc,t0
     26e:	52d6                	lw	t0,116(sp)
     270:	30029073          	csrw	mstatus,t0
     274:	4092                	lw	ra,4(sp)
     276:	42a2                	lw	t0,8(sp)
     278:	4332                	lw	t1,12(sp)
     27a:	43c2                	lw	t2,16(sp)
     27c:	4452                	lw	s0,20(sp)
     27e:	44e2                	lw	s1,24(sp)
     280:	4572                	lw	a0,28(sp)
     282:	5582                	lw	a1,32(sp)
     284:	5612                	lw	a2,36(sp)
     286:	56a2                	lw	a3,40(sp)
     288:	5732                	lw	a4,44(sp)
     28a:	57c2                	lw	a5,48(sp)
     28c:	5852                	lw	a6,52(sp)
     28e:	58e2                	lw	a7,56(sp)
     290:	5972                	lw	s2,60(sp)
     292:	4986                	lw	s3,64(sp)
     294:	4a16                	lw	s4,68(sp)
     296:	4aa6                	lw	s5,72(sp)
     298:	4b36                	lw	s6,76(sp)
     29a:	4bc6                	lw	s7,80(sp)
     29c:	4c56                	lw	s8,84(sp)
     29e:	4ce6                	lw	s9,88(sp)
     2a0:	4d76                	lw	s10,92(sp)
     2a2:	5d86                	lw	s11,96(sp)
     2a4:	5e16                	lw	t3,100(sp)
     2a6:	5ea6                	lw	t4,104(sp)
     2a8:	5f36                	lw	t5,108(sp)
     2aa:	5fc6                	lw	t6,112(sp)
     2ac:	07810113          	addi	sp,sp,120
     2b0:	30200073          	mret
     2b4:	00000013          	nop
     2b8:	00000013          	nop
     2bc:	00000013          	nop
     2c0:	00000013          	nop
     2c4:	00000013          	nop
     2c8:	00000013          	nop
     2cc:	00000013          	nop
     2d0:	00000013          	nop
     2d4:	00000013          	nop
     2d8:	00000013          	nop
     2dc:	00000013          	nop
     2e0:	00000013          	nop
     2e4:	00000013          	nop
     2e8:	00000013          	nop
     2ec:	00000013          	nop
     2f0:	00000013          	nop
     2f4:	00000013          	nop
     2f8:	00000013          	nop
     2fc:	00000013          	nop

00000300 <xPortStartFirstTask>:
     300:	8301a283          	lw	t0,-2000(gp) # 200005b0 <xISRStackTop>
     304:	e0028293          	addi	t0,t0,-512
     308:	34029073          	csrw	mscratch,t0
     30c:	20000117          	auipc	sp,0x20000
     310:	30412103          	lw	sp,772(sp) # 20000610 <pxCurrentTCB>
     314:	4102                	lw	sp,0(sp)
     316:	4082                	lw	ra,0(sp)
     318:	4332                	lw	t1,12(sp)
     31a:	43c2                	lw	t2,16(sp)
     31c:	4452                	lw	s0,20(sp)
     31e:	44e2                	lw	s1,24(sp)
     320:	4572                	lw	a0,28(sp)
     322:	5582                	lw	a1,32(sp)
     324:	5612                	lw	a2,36(sp)
     326:	56a2                	lw	a3,40(sp)
     328:	5732                	lw	a4,44(sp)
     32a:	57c2                	lw	a5,48(sp)
     32c:	5852                	lw	a6,52(sp)
     32e:	58e2                	lw	a7,56(sp)
     330:	5972                	lw	s2,60(sp)
     332:	4986                	lw	s3,64(sp)
     334:	4a16                	lw	s4,68(sp)
     336:	4aa6                	lw	s5,72(sp)
     338:	4b36                	lw	s6,76(sp)
     33a:	4bc6                	lw	s7,80(sp)
     33c:	4c56                	lw	s8,84(sp)
     33e:	4ce6                	lw	s9,88(sp)
     340:	4d76                	lw	s10,92(sp)
     342:	5d86                	lw	s11,96(sp)
     344:	5e16                	lw	t3,100(sp)
     346:	5ea6                	lw	t4,104(sp)
     348:	5f36                	lw	t5,108(sp)
     34a:	5fc6                	lw	t6,112(sp)
     34c:	52d6                	lw	t0,116(sp)
     34e:	02a1                	addi	t0,t0,8
     350:	30029073          	csrw	mstatus,t0
     354:	42a2                	lw	t0,8(sp)
     356:	07810113          	addi	sp,sp,120
     35a:	8082                	ret
     35c:	00000013          	nop
     360:	00000013          	nop
     364:	00000013          	nop
     368:	00000013          	nop
     36c:	00000013          	nop
     370:	00000013          	nop
     374:	00000013          	nop
     378:	00000013          	nop
     37c:	00000013          	nop
     380:	00000013          	nop
     384:	00000013          	nop
     388:	00000013          	nop
     38c:	00000013          	nop
     390:	00000013          	nop
     394:	00000013          	nop
     398:	00000013          	nop
     39c:	00000013          	nop
     3a0:	00000013          	nop
     3a4:	00000013          	nop
     3a8:	00000013          	nop
     3ac:	00000013          	nop
     3b0:	00000013          	nop
     3b4:	00000013          	nop
     3b8:	00000013          	nop
     3bc:	00000013          	nop
     3c0:	00000013          	nop
     3c4:	00000013          	nop
     3c8:	00000013          	nop
     3cc:	00000013          	nop
     3d0:	00000013          	nop
     3d4:	00000013          	nop
     3d8:	00000013          	nop
     3dc:	00000013          	nop
     3e0:	00000013          	nop
     3e4:	00000013          	nop
     3e8:	00000013          	nop
     3ec:	00000013          	nop
     3f0:	00000013          	nop
     3f4:	00000013          	nop
     3f8:	00000013          	nop
     3fc:	00000013          	nop

00000400 <pxPortInitialiseStack>:
     400:	300022f3          	csrr	t0,mstatus
     404:	ff72f293          	andi	t0,t0,-9
     408:	18800313          	li	t1,392
     40c:	0312                	slli	t1,t1,0x4
     40e:	0062e2b3          	or	t0,t0,t1
     412:	1571                	addi	a0,a0,-4
     414:	00552023          	sw	t0,0(a0)
     418:	fa850513          	addi	a0,a0,-88
     41c:	c110                	sw	a2,0(a0)
     41e:	1521                	addi	a0,a0,-24
     420:	00052023          	sw	zero,0(a0)
     424:	00000293          	li	t0,0

00000428 <chip_specific_stack_frame>:
     428:	00028763          	beqz	t0,436 <chip_specific_stack_frame+0xe>
     42c:	1571                	addi	a0,a0,-4
     42e:	00052023          	sw	zero,0(a0)
     432:	12fd                	addi	t0,t0,-1
     434:	bfd5                	j	428 <chip_specific_stack_frame>
     436:	1571                	addi	a0,a0,-4
     438:	c10c                	sw	a1,0(a0)
     43a:	8082                	ret
	...

000004ee <__riscv_save_12>:
     4ee:	7139                	addi	sp,sp,-64
     4f0:	4301                	li	t1,0
     4f2:	c66e                	sw	s11,12(sp)
     4f4:	a019                	j	4fa <__riscv_save_10+0x4>

000004f6 <__riscv_save_10>:
     4f6:	7139                	addi	sp,sp,-64
     4f8:	5341                	li	t1,-16
     4fa:	c86a                	sw	s10,16(sp)
     4fc:	ca66                	sw	s9,20(sp)
     4fe:	cc62                	sw	s8,24(sp)
     500:	ce5e                	sw	s7,28(sp)
     502:	a019                	j	508 <__riscv_save_4+0x4>

00000504 <__riscv_save_4>:
     504:	7139                	addi	sp,sp,-64
     506:	5301                	li	t1,-32
     508:	d05a                	sw	s6,32(sp)
     50a:	d256                	sw	s5,36(sp)
     50c:	d452                	sw	s4,40(sp)
     50e:	d64e                	sw	s3,44(sp)
     510:	d84a                	sw	s2,48(sp)
     512:	da26                	sw	s1,52(sp)
     514:	dc22                	sw	s0,56(sp)
     516:	de06                	sw	ra,60(sp)
     518:	40610133          	sub	sp,sp,t1
     51c:	8282                	jr	t0

0000051e <__riscv_save_0>:
     51e:	1141                	addi	sp,sp,-16
     520:	c04a                	sw	s2,0(sp)
     522:	c226                	sw	s1,4(sp)
     524:	c422                	sw	s0,8(sp)
     526:	c606                	sw	ra,12(sp)
     528:	8282                	jr	t0

0000052a <__riscv_restore_12>:
     52a:	4db2                	lw	s11,12(sp)
     52c:	0141                	addi	sp,sp,16

0000052e <__riscv_restore_10>:
     52e:	4d02                	lw	s10,0(sp)
     530:	4c92                	lw	s9,4(sp)
     532:	4c22                	lw	s8,8(sp)
     534:	4bb2                	lw	s7,12(sp)
     536:	0141                	addi	sp,sp,16

00000538 <__riscv_restore_4>:
     538:	4b02                	lw	s6,0(sp)
     53a:	4a92                	lw	s5,4(sp)
     53c:	4a22                	lw	s4,8(sp)
     53e:	49b2                	lw	s3,12(sp)
     540:	0141                	addi	sp,sp,16

00000542 <__riscv_restore_0>:
     542:	4902                	lw	s2,0(sp)
     544:	4492                	lw	s1,4(sp)
     546:	4422                	lw	s0,8(sp)
     548:	40b2                	lw	ra,12(sp)
     54a:	0141                	addi	sp,sp,16
     54c:	8082                	ret

0000054e <memset>:
     54e:	433d                	li	t1,15
     550:	872a                	mv	a4,a0
     552:	02c37363          	bgeu	t1,a2,578 <memset+0x2a>
     556:	00f77793          	andi	a5,a4,15
     55a:	efbd                	bnez	a5,5d8 <memset+0x8a>
     55c:	e5ad                	bnez	a1,5c6 <memset+0x78>
     55e:	ff067693          	andi	a3,a2,-16
     562:	8a3d                	andi	a2,a2,15
     564:	96ba                	add	a3,a3,a4
     566:	c30c                	sw	a1,0(a4)
     568:	c34c                	sw	a1,4(a4)
     56a:	c70c                	sw	a1,8(a4)
     56c:	c74c                	sw	a1,12(a4)
     56e:	0741                	addi	a4,a4,16
     570:	fed76be3          	bltu	a4,a3,566 <memset+0x18>
     574:	e211                	bnez	a2,578 <memset+0x2a>
     576:	8082                	ret
     578:	40c306b3          	sub	a3,t1,a2
     57c:	068a                	slli	a3,a3,0x2
     57e:	00000297          	auipc	t0,0x0
     582:	9696                	add	a3,a3,t0
     584:	00a68067          	jr	10(a3)
     588:	00b70723          	sb	a1,14(a4)
     58c:	00b706a3          	sb	a1,13(a4)
     590:	00b70623          	sb	a1,12(a4)
     594:	00b705a3          	sb	a1,11(a4)
     598:	00b70523          	sb	a1,10(a4)
     59c:	00b704a3          	sb	a1,9(a4)
     5a0:	00b70423          	sb	a1,8(a4)
     5a4:	00b703a3          	sb	a1,7(a4)
     5a8:	00b70323          	sb	a1,6(a4)
     5ac:	00b702a3          	sb	a1,5(a4)
     5b0:	00b70223          	sb	a1,4(a4)
     5b4:	00b701a3          	sb	a1,3(a4)
     5b8:	00b70123          	sb	a1,2(a4)
     5bc:	00b700a3          	sb	a1,1(a4)
     5c0:	00b70023          	sb	a1,0(a4)
     5c4:	8082                	ret
     5c6:	0ff5f593          	andi	a1,a1,255
     5ca:	00859693          	slli	a3,a1,0x8
     5ce:	8dd5                	or	a1,a1,a3
     5d0:	01059693          	slli	a3,a1,0x10
     5d4:	8dd5                	or	a1,a1,a3
     5d6:	b761                	j	55e <memset+0x10>
     5d8:	00279693          	slli	a3,a5,0x2
     5dc:	00000297          	auipc	t0,0x0
     5e0:	9696                	add	a3,a3,t0
     5e2:	8286                	mv	t0,ra
     5e4:	fa8680e7          	jalr	-88(a3)
     5e8:	8096                	mv	ra,t0
     5ea:	17c1                	addi	a5,a5,-16
     5ec:	8f1d                	sub	a4,a4,a5
     5ee:	963e                	add	a2,a2,a5
     5f0:	f8c374e3          	bgeu	t1,a2,578 <memset+0x2a>
     5f4:	b7a5                	j	55c <memset+0xe>

000005f6 <setReg32>:
     5f6:	200007b7          	lui	a5,0x20000
     5fa:	66478793          	addi	a5,a5,1636 # 20000664 <DATA_MODEL_REGISTER>
     5fe:	953e                	add	a0,a0,a5
     600:	0085d793          	srli	a5,a1,0x8
     604:	a10c                	sb	a1,0(a0)
     606:	b11c                	sb	a5,1(a0)
     608:	0105d793          	srli	a5,a1,0x10
     60c:	81e1                	srli	a1,a1,0x18
     60e:	a13c                	sb	a5,2(a0)
     610:	b12c                	sb	a1,3(a0)
     612:	8082                	ret

00000614 <setReg16>:
     614:	200007b7          	lui	a5,0x20000
     618:	66478793          	addi	a5,a5,1636 # 20000664 <DATA_MODEL_REGISTER>
     61c:	953e                	add	a0,a0,a5
     61e:	a10c                	sb	a1,0(a0)
     620:	81a1                	srli	a1,a1,0x8
     622:	b10c                	sb	a1,1(a0)
     624:	8082                	ret

00000626 <DataModel_Init>:
     626:	ed1ff2ef          	jal	t0,4f6 <__riscv_save_10>
     62a:	20000937          	lui	s2,0x20000
     62e:	21c00613          	li	a2,540
     632:	4581                	li	a1,0
     634:	66490513          	addi	a0,s2,1636 # 20000664 <DATA_MODEL_REGISTER>
     638:	3f19                	jal	54e <memset>
     63a:	4681                	li	a3,0
     63c:	20600613          	li	a2,518
     640:	66490593          	addi	a1,s2,1636
     644:	4501                	li	a0,0
     646:	27d020ef          	jal	ra,30c2 <eEEPROMRd>
     64a:	3a051c63          	bnez	a0,a02 <__stack_size+0x202>
     64e:	66490413          	addi	s0,s2,1636
     652:	2018                	lbu	a4,0(s0)
     654:	07400793          	li	a5,116
     658:	24f70763          	beq	a4,a5,8a6 <__stack_size+0xa6>
     65c:	6485                	lui	s1,0x1
     65e:	f7448793          	addi	a5,s1,-140 # f74 <vRedrawTask+0x9c>
     662:	a01e                	sh	a5,0(s0)
     664:	47bd                	li	a5,15
     666:	a03c                	sb	a5,2(s0)
     668:	4789                	li	a5,2
     66a:	a05e                	sh	a5,4(s0)
     66c:	47d9                	li	a5,22
     66e:	1cf40ba3          	sb	a5,471(s0)
     672:	6789                	lui	a5,0x2
     674:	40178793          	addi	a5,a5,1025 # 2401 <I2C_Init+0x5>
     678:	a47e                	sh	a5,14(s0)
     67a:	050007b7          	lui	a5,0x5000
     67e:	c81c                	sw	a5,16(s0)
     680:	240007b7          	lui	a5,0x24000
     684:	c85c                	sw	a5,20(s0)
     686:	50000793          	li	a5,1280
     68a:	cc1c                	sw	a5,24(s0)
     68c:	1c040c23          	sb	zero,472(s0)
     690:	020007b7          	lui	a5,0x2000
     694:	00042e23          	sw	zero,28(s0)
     698:	02042023          	sw	zero,32(s0)
     69c:	02042223          	sw	zero,36(s0)
     6a0:	02042423          	sw	zero,40(s0)
     6a4:	02042623          	sw	zero,44(s0)
     6a8:	02042823          	sw	zero,48(s0)
     6ac:	02042a23          	sw	zero,52(s0)
     6b0:	02042c23          	sw	zero,56(s0)
     6b4:	02042e23          	sw	zero,60(s0)
     6b8:	04042023          	sw	zero,64(s0)
     6bc:	04042223          	sw	zero,68(s0)
     6c0:	04042423          	sw	zero,72(s0)
     6c4:	04042623          	sw	zero,76(s0)
     6c8:	04042823          	sw	zero,80(s0)
     6cc:	04042a23          	sw	zero,84(s0)
     6d0:	04042c23          	sw	zero,88(s0)
     6d4:	04042e23          	sw	zero,92(s0)
     6d8:	06042023          	sw	zero,96(s0)
     6dc:	06042223          	sw	zero,100(s0)
     6e0:	06042423          	sw	zero,104(s0)
     6e4:	06042623          	sw	zero,108(s0)
     6e8:	06042823          	sw	zero,112(s0)
     6ec:	06042a23          	sw	zero,116(s0)
     6f0:	06042c23          	sw	zero,120(s0)
     6f4:	10078693          	addi	a3,a5,256 # 2000100 <_data_lma+0x1ff7498>
     6f8:	0af42423          	sw	a5,168(s0)
     6fc:	0af42a23          	sw	a5,180(s0)
     700:	033607b7          	lui	a5,0x3360
     704:	10078793          	addi	a5,a5,256 # 3360100 <_data_lma+0x3357498>
     708:	0cf42823          	sw	a5,208(s0)
     70c:	02f307b7          	lui	a5,0x2f30
     710:	03f78793          	addi	a5,a5,63 # 2f3003f <_data_lma+0x2f273d7>
     714:	0cf42a23          	sw	a5,212(s0)
     718:	000607b7          	lui	a5,0x60
     71c:	0f378793          	addi	a5,a5,243 # 600f3 <_data_lma+0x5748b>
     720:	0cf42c23          	sw	a5,216(s0)
     724:	00cf07b7          	lui	a5,0xcf0
     728:	0db78793          	addi	a5,a5,219 # cf00db <_data_lma+0xce7473>
     72c:	0cf42e23          	sw	a5,220(s0)
     730:	00ed07b7          	lui	a5,0xed0
     734:	20000713          	li	a4,512
     738:	0e678793          	addi	a5,a5,230 # ed00e6 <_data_lma+0xec747e>
     73c:	4581                	li	a1,0
     73e:	4515                	li	a0,5
     740:	0ef42023          	sw	a5,224(s0)
     744:	0ad42623          	sw	a3,172(s0)
     748:	0ae42823          	sw	a4,176(s0)
     74c:	0ad42c23          	sw	a3,184(s0)
     750:	0ae42e23          	sw	a4,188(s0)
     754:	06042e23          	sw	zero,124(s0)
     758:	08042023          	sw	zero,128(s0)
     75c:	08042223          	sw	zero,132(s0)
     760:	08042423          	sw	zero,136(s0)
     764:	08042623          	sw	zero,140(s0)
     768:	08042823          	sw	zero,144(s0)
     76c:	08042a23          	sw	zero,148(s0)
     770:	08042c23          	sw	zero,152(s0)
     774:	08042e23          	sw	zero,156(s0)
     778:	0a042023          	sw	zero,160(s0)
     77c:	0a042223          	sw	zero,164(s0)
     780:	0c042023          	sw	zero,192(s0)
     784:	0c042223          	sw	zero,196(s0)
     788:	0c042423          	sw	zero,200(s0)
     78c:	0c042623          	sw	zero,204(s0)
     790:	359d                	jal	5f6 <setReg32>
     792:	4581                	li	a1,0
     794:	4525                	li	a0,9
     796:	3585                	jal	5f6 <setReg32>
     798:	31348493          	addi	s1,s1,787
     79c:	47cd                	li	a5,19
     79e:	6a21                	lui	s4,0x8
     7a0:	0e941223          	sh	s1,228(s0)
     7a4:	0ef40323          	sb	a5,230(s0)
     7a8:	070a0a13          	addi	s4,s4,112 # 8070 <CalPoint>
     7ac:	0e700493          	li	s1,231
     7b0:	4ba9                	li	s7,10
     7b2:	13300b13          	li	s6,307
     7b6:	000a5983          	lhu	s3,0(s4)
     7ba:	8526                	mv	a0,s1
     7bc:	0a11                	addi	s4,s4,4
     7be:	037989b3          	mul	s3,s3,s7
     7c2:	09c2                	slli	s3,s3,0x10
     7c4:	0109d993          	srli	s3,s3,0x10
     7c8:	85ce                	mv	a1,s3
     7ca:	35a9                	jal	614 <setReg16>
     7cc:	ffea5a83          	lhu	s5,-2(s4)
     7d0:	00248513          	addi	a0,s1,2
     7d4:	0542                	slli	a0,a0,0x10
     7d6:	85d6                	mv	a1,s5
     7d8:	8141                	srli	a0,a0,0x10
     7da:	3d2d                	jal	614 <setReg16>
     7dc:	05048513          	addi	a0,s1,80
     7e0:	0542                	slli	a0,a0,0x10
     7e2:	85ce                	mv	a1,s3
     7e4:	8141                	srli	a0,a0,0x10
     7e6:	353d                	jal	614 <setReg16>
     7e8:	05248513          	addi	a0,s1,82
     7ec:	0542                	slli	a0,a0,0x10
     7ee:	85d6                	mv	a1,s5
     7f0:	8141                	srli	a0,a0,0x10
     7f2:	350d                	jal	614 <setReg16>
     7f4:	0a048513          	addi	a0,s1,160
     7f8:	0542                	slli	a0,a0,0x10
     7fa:	85ce                	mv	a1,s3
     7fc:	8141                	srli	a0,a0,0x10
     7fe:	3d19                	jal	614 <setReg16>
     800:	0a248513          	addi	a0,s1,162
     804:	0491                	addi	s1,s1,4
     806:	0542                	slli	a0,a0,0x10
     808:	04c2                	slli	s1,s1,0x10
     80a:	85d6                	mv	a1,s5
     80c:	8141                	srli	a0,a0,0x10
     80e:	80c1                	srli	s1,s1,0x10
     810:	3511                	jal	614 <setReg16>
     812:	fb6492e3          	bne	s1,s6,7b6 <DataModel_Init+0x190>
     816:	03e807b7          	lui	a5,0x3e80
     81a:	3e878793          	addi	a5,a5,1000 # 3e803e8 <_data_lma+0x3e77780>
     81e:	4581                	li	a1,0
     820:	1dc00513          	li	a0,476
     824:	1cf42c23          	sw	a5,472(s0)
     828:	33f9                	jal	5f6 <setReg32>
     82a:	4581                	li	a1,0
     82c:	1e000513          	li	a0,480
     830:	33d9                	jal	5f6 <setReg32>
     832:	4581                	li	a1,0
     834:	1e400513          	li	a0,484
     838:	3b7d                	jal	5f6 <setReg32>
     83a:	4581                	li	a1,0
     83c:	1e800513          	li	a0,488
     840:	3b5d                	jal	5f6 <setReg32>
     842:	4581                	li	a1,0
     844:	1ec00513          	li	a0,492
     848:	337d                	jal	5f6 <setReg32>
     84a:	4581                	li	a1,0
     84c:	1f000513          	li	a0,496
     850:	335d                	jal	5f6 <setReg32>
     852:	4581                	li	a1,0
     854:	1f400513          	li	a0,500
     858:	3b79                	jal	5f6 <setReg32>
     85a:	4581                	li	a1,0
     85c:	1f800513          	li	a0,504
     860:	3b59                	jal	5f6 <setReg32>
     862:	4581                	li	a1,0
     864:	1fc00513          	li	a0,508
     868:	3379                	jal	5f6 <setReg32>
     86a:	4581                	li	a1,0
     86c:	20000513          	li	a0,512
     870:	3359                	jal	5f6 <setReg32>
     872:	10000793          	li	a5,256
     876:	4681                	li	a3,0
     878:	20600613          	li	a2,518
     87c:	66490593          	addi	a1,s2,1636
     880:	4501                	li	a0,0
     882:	20f41223          	sh	a5,516(s0)
     886:	78c020ef          	jal	ra,3012 <eEEPROMWr>
     88a:	20600613          	li	a2,518
     88e:	4581                	li	a1,0
     890:	66490513          	addi	a0,s2,1636
     894:	396d                	jal	54e <memset>
     896:	4681                	li	a3,0
     898:	20600613          	li	a2,518
     89c:	66490593          	addi	a1,s2,1636
     8a0:	4501                	li	a0,0
     8a2:	021020ef          	jal	ra,30c2 <eEEPROMRd>
     8a6:	200007b7          	lui	a5,0x20000
     8aa:	4705                	li	a4,1
     8ac:	5ce78023          	sb	a4,1472(a5) # 200005c0 <_edata>
     8b0:	8141a783          	lw	a5,-2028(gp) # 20000594 <OD>
     8b4:	4705                	li	a4,1
     8b6:	4685                	li	a3,1
     8b8:	43c8                	lw	a0,4(a5)
     8ba:	00440613          	addi	a2,s0,4
     8be:	4581                	li	a1,0
     8c0:	26450513          	addi	a0,a0,612
     8c4:	193050ef          	jal	ra,6256 <OD_set_value>
     8c8:	0d240993          	addi	s3,s0,210
     8cc:	4909                	li	s2,2
     8ce:	4a2d                	li	s4,11
     8d0:	8141a783          	lw	a5,-2028(gp) # 20000594 <OD>
     8d4:	85ca                	mv	a1,s2
     8d6:	0905                	addi	s2,s2,1
     8d8:	43c8                	lw	a0,4(a5)
     8da:	864e                	mv	a2,s3
     8dc:	4705                	li	a4,1
     8de:	4689                	li	a3,2
     8e0:	18050513          	addi	a0,a0,384
     8e4:	0ff97913          	andi	s2,s2,255
     8e8:	16f050ef          	jal	ra,6256 <OD_set_value>
     8ec:	0989                	addi	s3,s3,2
     8ee:	ff4911e3          	bne	s2,s4,8d0 <__stack_size+0xd0>
     8f2:	8141a783          	lw	a5,-2028(gp) # 20000594 <OD>
     8f6:	4705                	li	a4,1
     8f8:	4689                	li	a3,2
     8fa:	43c8                	lw	a0,4(a5)
     8fc:	00f40613          	addi	a2,s0,15
     900:	4599                	li	a1,6
     902:	24050513          	addi	a0,a0,576
     906:	151050ef          	jal	ra,6256 <OD_set_value>
     90a:	8141a783          	lw	a5,-2028(gp) # 20000594 <OD>
     90e:	4705                	li	a4,1
     910:	4689                	li	a3,2
     912:	43c8                	lw	a0,4(a5)
     914:	01140613          	addi	a2,s0,17
     918:	4595                	li	a1,5
     91a:	24050513          	addi	a0,a0,576
     91e:	139050ef          	jal	ra,6256 <OD_set_value>
     922:	8141a783          	lw	a5,-2028(gp) # 20000594 <OD>
     926:	4705                	li	a4,1
     928:	4689                	li	a3,2
     92a:	43c8                	lw	a0,4(a5)
     92c:	01340613          	addi	a2,s0,19
     930:	4585                	li	a1,1
     932:	24050513          	addi	a0,a0,576
     936:	121050ef          	jal	ra,6256 <OD_set_value>
     93a:	8141a783          	lw	a5,-2028(gp) # 20000594 <OD>
     93e:	4705                	li	a4,1
     940:	4689                	li	a3,2
     942:	43c8                	lw	a0,4(a5)
     944:	01540613          	addi	a2,s0,21
     948:	4589                	li	a1,2
     94a:	24050513          	addi	a0,a0,576
     94e:	109050ef          	jal	ra,6256 <OD_set_value>
     952:	8141a783          	lw	a5,-2028(gp) # 20000594 <OD>
     956:	4705                	li	a4,1
     958:	4689                	li	a3,2
     95a:	43c8                	lw	a0,4(a5)
     95c:	01740613          	addi	a2,s0,23
     960:	458d                	li	a1,3
     962:	24050513          	addi	a0,a0,576
     966:	0f1050ef          	jal	ra,6256 <OD_set_value>
     96a:	8141a783          	lw	a5,-2028(gp) # 20000594 <OD>
     96e:	4705                	li	a4,1
     970:	4689                	li	a3,2
     972:	43c8                	lw	a0,4(a5)
     974:	01940613          	addi	a2,s0,25
     978:	4591                	li	a1,4
     97a:	24050513          	addi	a0,a0,576
     97e:	0d9050ef          	jal	ra,6256 <OD_set_value>
     982:	4905                	li	s2,1
     984:	0c240b93          	addi	s7,s0,194
     988:	4c31                	li	s8,12
     98a:	4c9d                	li	s9,7
     98c:	4b3d                	li	s6,15
     98e:	03890ab3          	mul	s5,s2,s8
     992:	8141a783          	lw	a5,-2028(gp) # 20000594 <OD>
     996:	4705                	li	a4,1
     998:	4685                	li	a3,1
     99a:	43c8                	lw	a0,4(a5)
     99c:	012b8633          	add	a2,s7,s2
     9a0:	0ff97593          	andi	a1,s2,255
     9a4:	18c50513          	addi	a0,a0,396
     9a8:	0af050ef          	jal	ra,6256 <OD_set_value>
     9ac:	01b40a13          	addi	s4,s0,27
     9b0:	18ca8a93          	addi	s5,s5,396
     9b4:	4985                	li	s3,1
     9b6:	8141a783          	lw	a5,-2028(gp) # 20000594 <OD>
     9ba:	8652                	mv	a2,s4
     9bc:	0ff9f593          	andi	a1,s3,255
     9c0:	43c8                	lw	a0,4(a5)
     9c2:	4705                	li	a4,1
     9c4:	4689                	li	a3,2
     9c6:	9556                	add	a0,a0,s5
     9c8:	0985                	addi	s3,s3,1
     9ca:	08d050ef          	jal	ra,6256 <OD_set_value>
     9ce:	0a09                	addi	s4,s4,2
     9d0:	ff9993e3          	bne	s3,s9,9b6 <__stack_size+0x1b6>
     9d4:	0905                	addi	s2,s2,1
     9d6:	fb691ce3          	bne	s2,s6,98e <__stack_size+0x18e>
     9da:	8141a783          	lw	a5,-2028(gp) # 20000594 <OD>
     9de:	4705                	li	a4,1
     9e0:	4685                	li	a3,1
     9e2:	43c8                	lw	a0,4(a5)
     9e4:	0d140613          	addi	a2,s0,209
     9e8:	45bd                	li	a1,15
     9ea:	18c50513          	addi	a0,a0,396
     9ee:	069050ef          	jal	ra,6256 <OD_set_value>
     9f2:	300c                	lbu	a1,1(s0)
     9f4:	4501                	li	a0,0
     9f6:	255000ef          	jal	ra,144a <vSetInitBrigth>
     9fa:	202c                	lbu	a1,2(s0)
     9fc:	4505                	li	a0,1
     9fe:	24d000ef          	jal	ra,144a <vSetInitBrigth>
     a02:	b635                	j	52e <__riscv_restore_10>

00000a04 <setReg8>:
     a04:	200007b7          	lui	a5,0x20000
     a08:	66478793          	addi	a5,a5,1636 # 20000664 <DATA_MODEL_REGISTER>
     a0c:	953e                	add	a0,a0,a5
     a0e:	a10c                	sb	a1,0(a0)
     a10:	8082                	ret

00000a12 <setReg>:
     a12:	4789                	li	a5,2
     a14:	02f60163          	beq	a2,a5,a36 <setReg+0x24>
     a18:	4791                	li	a5,4
     a1a:	02f60863          	beq	a2,a5,a4a <setReg+0x38>
     a1e:	4785                	li	a5,1
     a20:	00f61963          	bne	a2,a5,a32 <setReg+0x20>
     a24:	2198                	lbu	a4,0(a1)
     a26:	200007b7          	lui	a5,0x20000
     a2a:	66478793          	addi	a5,a5,1636 # 20000664 <DATA_MODEL_REGISTER>
     a2e:	953e                	add	a0,a0,a5
     a30:	a118                	sb	a4,0(a0)
     a32:	4501                	li	a0,0
     a34:	8082                	ret
     a36:	219a                	lhu	a4,0(a1)
     a38:	200007b7          	lui	a5,0x20000
     a3c:	66478793          	addi	a5,a5,1636 # 20000664 <DATA_MODEL_REGISTER>
     a40:	953e                	add	a0,a0,a5
     a42:	a118                	sb	a4,0(a0)
     a44:	8321                	srli	a4,a4,0x8
     a46:	b118                	sb	a4,1(a0)
     a48:	b7ed                	j	a32 <setReg+0x20>
     a4a:	4198                	lw	a4,0(a1)
     a4c:	200007b7          	lui	a5,0x20000
     a50:	66478793          	addi	a5,a5,1636 # 20000664 <DATA_MODEL_REGISTER>
     a54:	953e                	add	a0,a0,a5
     a56:	00875793          	srli	a5,a4,0x8
     a5a:	a118                	sb	a4,0(a0)
     a5c:	b11c                	sb	a5,1(a0)
     a5e:	01075793          	srli	a5,a4,0x10
     a62:	8361                	srli	a4,a4,0x18
     a64:	a13c                	sb	a5,2(a0)
     a66:	b138                	sb	a4,3(a0)
     a68:	b7e9                	j	a32 <setReg+0x20>

00000a6a <getReg16>:
     a6a:	200007b7          	lui	a5,0x20000
     a6e:	66478793          	addi	a5,a5,1636 # 20000664 <DATA_MODEL_REGISTER>
     a72:	97aa                	add	a5,a5,a0
     a74:	3398                	lbu	a4,1(a5)
     a76:	2388                	lbu	a0,0(a5)
     a78:	0722                	slli	a4,a4,0x8
     a7a:	8d59                	or	a0,a0,a4
     a7c:	8082                	ret

00000a7e <getReg32>:
     a7e:	200007b7          	lui	a5,0x20000
     a82:	66478793          	addi	a5,a5,1636 # 20000664 <DATA_MODEL_REGISTER>
     a86:	97aa                	add	a5,a5,a0
     a88:	2388                	lbu	a0,0(a5)
     a8a:	23b8                	lbu	a4,2(a5)
     a8c:	8f49                	or	a4,a4,a0
     a8e:	3388                	lbu	a0,1(a5)
     a90:	0522                	slli	a0,a0,0x8
     a92:	8f49                	or	a4,a4,a0
     a94:	33a8                	lbu	a0,3(a5)
     a96:	0562                	slli	a0,a0,0x18
     a98:	8d59                	or	a0,a0,a4
     a9a:	8082                	ret

00000a9c <getReg8>:
     a9c:	200007b7          	lui	a5,0x20000
     aa0:	66478793          	addi	a5,a5,1636 # 20000664 <DATA_MODEL_REGISTER>
     aa4:	953e                	add	a0,a0,a5
     aa6:	2108                	lbu	a0,0(a0)
     aa8:	8082                	ret

00000aaa <vIncrementSystemCounters>:
     aaa:	a75ff2ef          	jal	t0,51e <__riscv_save_0>
     aae:	4515                	li	a0,5
     ab0:	37f9                	jal	a7e <getReg32>
     ab2:	00150593          	addi	a1,a0,1
     ab6:	4515                	li	a0,5
     ab8:	3e3d                	jal	5f6 <setReg32>
     aba:	b461                	j	542 <__riscv_restore_0>

00000abc <vSaveData>:
     abc:	a63ff2ef          	jal	t0,51e <__riscv_save_0>
     ac0:	200005b7          	lui	a1,0x20000
     ac4:	66458593          	addi	a1,a1,1636 # 20000664 <DATA_MODEL_REGISTER>
     ac8:	000584a3          	sb	zero,9(a1)
     acc:	00058523          	sb	zero,10(a1)
     ad0:	000585a3          	sb	zero,11(a1)
     ad4:	00058623          	sb	zero,12(a1)
     ad8:	4681                	li	a3,0
     ada:	4621                	li	a2,8
     adc:	0595                	addi	a1,a1,5
     ade:	4515                	li	a0,5
     ae0:	532020ef          	jal	ra,3012 <eEEPROMWr>
     ae4:	bcb9                	j	542 <__riscv_restore_0>

00000ae6 <getOdometr>:
     ae6:	4501                	li	a0,0
     ae8:	8082                	ret

00000aea <NMI_Handler>:
     aea:	a001                	j	aea <NMI_Handler>

00000aec <HardFault_Handler>:
     aec:	7139                	addi	sp,sp,-64
     aee:	d62a                	sw	a0,44(sp)
     af0:	00008537          	lui	a0,0x8
     af4:	0c050513          	addi	a0,a0,192 # 80c0 <CalPoint+0x50>
     af8:	de06                	sw	ra,60(sp)
     afa:	dc16                	sw	t0,56(sp)
     afc:	da1a                	sw	t1,52(sp)
     afe:	d81e                	sw	t2,48(sp)
     b00:	d232                	sw	a2,36(sp)
     b02:	d036                	sw	a3,32(sp)
     b04:	ce3a                	sw	a4,28(sp)
     b06:	cc3e                	sw	a5,24(sp)
     b08:	ca42                	sw	a6,20(sp)
     b0a:	c846                	sw	a7,16(sp)
     b0c:	c672                	sw	t3,12(sp)
     b0e:	c476                	sw	t4,8(sp)
     b10:	c27a                	sw	t5,4(sp)
     b12:	c07e                	sw	t6,0(sp)
     b14:	d42e                	sw	a1,40(sp)
     b16:	5c8060ef          	jal	ra,70de <puts>
     b1a:	58c050ef          	jal	ra,60a6 <__get_MEPC>
     b1e:	85aa                	mv	a1,a0
     b20:	00008537          	lui	a0,0x8
     b24:	0d450513          	addi	a0,a0,212 # 80d4 <CalPoint+0x64>
     b28:	4a2060ef          	jal	ra,6fca <iprintf>
     b2c:	580050ef          	jal	ra,60ac <__get_MCAUSE>
     b30:	85aa                	mv	a1,a0
     b32:	00008537          	lui	a0,0x8
     b36:	0e450513          	addi	a0,a0,228 # 80e4 <CalPoint+0x74>
     b3a:	490060ef          	jal	ra,6fca <iprintf>
     b3e:	574050ef          	jal	ra,60b2 <__get_MTVAL>
     b42:	85aa                	mv	a1,a0
     b44:	00008537          	lui	a0,0x8
     b48:	0f450513          	addi	a0,a0,244 # 80f4 <CalPoint+0x84>
     b4c:	47e060ef          	jal	ra,6fca <iprintf>
     b50:	a001                	j	b50 <HardFault_Handler+0x64>

00000b52 <ADC1_2_IRQHandler>:
     b52:	9cdff2ef          	jal	t0,51e <__riscv_save_0>
     b56:	40012437          	lui	s0,0x40012
     b5a:	14000593          	li	a1,320
     b5e:	40040513          	addi	a0,s0,1024 # 40012400 <__freertos_irq_stack_top+0x2000d400>
     b62:	286010ef          	jal	ra,1de8 <ADC_GetITStatus>
     b66:	c901                	beqz	a0,b76 <ADC1_2_IRQHandler+0x24>
     b68:	3f91                	jal	abc <vSaveData>
     b6a:	14000593          	li	a1,320
     b6e:	40040513          	addi	a0,s0,1024
     b72:	292010ef          	jal	ra,1e04 <ADC_ClearITPendingBit>
     b76:	b2f1                	j	542 <__riscv_restore_0>

00000b78 <xProcessTaskHandle>:
     b78:	20000537          	lui	a0,0x20000
     b7c:	5c850513          	addi	a0,a0,1480 # 200005c8 <pProcessTaskHandle>
     b80:	8082                	ret

00000b82 <getODValue>:
     b82:	fff50793          	addi	a5,a0,-1
     b86:	476d                	li	a4,27
     b88:	0cf76063          	bltu	a4,a5,c48 <getODValue+0xc6>
     b8c:	993ff2ef          	jal	t0,51e <__riscv_save_0>
     b90:	6721                	lui	a4,0x8
     b92:	078a                	slli	a5,a5,0x2
     b94:	10470713          	addi	a4,a4,260 # 8104 <CalPoint+0x94>
     b98:	97ba                	add	a5,a5,a4
     b9a:	439c                	lw	a5,0(a5)
     b9c:	1141                	addi	sp,sp,-16
     b9e:	8782                	jr	a5
     ba0:	20750513          	addi	a0,a0,519
     ba4:	0542                	slli	a0,a0,0x10
     ba6:	8141                	srli	a0,a0,0x10
     ba8:	3dd5                	jal	a9c <getReg8>
     baa:	0141                	addi	sp,sp,16
     bac:	ba59                	j	542 <__riscv_restore_0>
     bae:	20750513          	addi	a0,a0,519
     bb2:	0542                	slli	a0,a0,0x10
     bb4:	8141                	srli	a0,a0,0x10
     bb6:	3d55                	jal	a6a <getReg16>
     bb8:	bfcd                	j	baa <getODValue+0x28>
     bba:	1539                	addi	a0,a0,-18
     bbc:	708000ef          	jal	ra,12c4 <GetAIN>
     bc0:	47a9                	li	a5,10
     bc2:	02f54533          	div	a0,a0,a5
     bc6:	0542                	slli	a0,a0,0x10
     bc8:	8141                	srli	a0,a0,0x10
     bca:	b7c5                	j	baa <getODValue+0x28>
     bcc:	00e10593          	addi	a1,sp,14
     bd0:	4501                	li	a0,0
     bd2:	3ac020ef          	jal	ra,2f7e <xGetRPM>
     bd6:	1d800513          	li	a0,472
     bda:	3d41                	jal	a6a <getReg16>
     bdc:	84aa                	mv	s1,a0
     bde:	8728                	lhu	a0,14(sp)
     be0:	7a3050ef          	jal	ra,6b82 <__floatsisf>
     be4:	842a                	mv	s0,a0
     be6:	8526                	mv	a0,s1
     be8:	060060ef          	jal	ra,6c48 <__floatunsisf>
     bec:	000087b7          	lui	a5,0x8
     bf0:	1747a583          	lw	a1,372(a5) # 8174 <CalPoint+0x104>
     bf4:	1fb050ef          	jal	ra,65ee <__divsf3>
     bf8:	85aa                	mv	a1,a0
     bfa:	8522                	mv	a0,s0
     bfc:	4a1050ef          	jal	ra,689c <__mulsf3>
     c00:	000087b7          	lui	a5,0x8
     c04:	1787a583          	lw	a1,376(a5) # 8178 <CalPoint+0x108>
     c08:	495050ef          	jal	ra,689c <__mulsf3>
     c0c:	721050ef          	jal	ra,6b2c <__fixunssfsi>
     c10:	bf5d                	j	bc6 <getODValue+0x44>
     c12:	00e10593          	addi	a1,sp,14
     c16:	4505                	li	a0,1
     c18:	366020ef          	jal	ra,2f7e <xGetRPM>
     c1c:	1da00513          	li	a0,474
     c20:	bf6d                	j	bda <getODValue+0x58>
     c22:	00e10593          	addi	a1,sp,14
     c26:	4509                	li	a0,2
     c28:	332020ef          	jal	ra,2f5a <xGetDIN>
     c2c:	8708                	lbu	a0,14(sp)
     c2e:	bfb5                	j	baa <getODValue+0x28>
     c30:	3d5d                	jal	ae6 <getOdometr>
     c32:	bfa5                	j	baa <getODValue+0x28>
     c34:	4515                	li	a0,5
     c36:	35a1                	jal	a7e <getReg32>
     c38:	bf8d                	j	baa <getODValue+0x28>
     c3a:	200007b7          	lui	a5,0x20000
     c3e:	5c47a503          	lw	a0,1476(a5) # 200005c4 <ErrorRegister>
     c42:	b7a5                	j	baa <getODValue+0x28>
     c44:	4501                	li	a0,0
     c46:	b795                	j	baa <getODValue+0x28>
     c48:	4501                	li	a0,0
     c4a:	8082                	ret

00000c4c <vRGBOff>:
     c4c:	8d3ff2ef          	jal	t0,51e <__riscv_save_0>
     c50:	4601                	li	a2,0
     c52:	4589                	li	a1,2
     c54:	842a                	mv	s0,a0
     c56:	7f6000ef          	jal	ra,144c <SetRGB>
     c5a:	8522                	mv	a0,s0
     c5c:	4601                	li	a2,0
     c5e:	458d                	li	a1,3
     c60:	7ec000ef          	jal	ra,144c <SetRGB>
     c64:	4601                	li	a2,0
     c66:	4585                	li	a1,1
     c68:	8522                	mv	a0,s0
     c6a:	7e2000ef          	jal	ra,144c <SetRGB>
     c6e:	8d5ff06f          	j	542 <__riscv_restore_0>

00000c72 <vGetEdgeData>:
     c72:	8adff2ef          	jal	t0,51e <__riscv_save_0>
     c76:	1141                	addi	sp,sp,-16
     c78:	842a                	mv	s0,a0
     c7a:	c432                	sw	a2,8(sp)
     c7c:	c62e                	sw	a1,12(sp)
     c7e:	33f5                	jal	a6a <getReg16>
     c80:	45b2                	lw	a1,12(sp)
     c82:	a18a                	sh	a0,0(a1)
     c84:	00240513          	addi	a0,s0,2
     c88:	0542                	slli	a0,a0,0x10
     c8a:	8141                	srli	a0,a0,0x10
     c8c:	3bf9                	jal	a6a <getReg16>
     c8e:	4622                	lw	a2,8(sp)
     c90:	a20a                	sh	a0,0(a2)
     c92:	0141                	addi	sp,sp,16
     c94:	8afff06f          	j	542 <__riscv_restore_0>

00000c98 <vRGBMode>:
     c98:	887ff2ef          	jal	t0,51e <__riscv_save_0>
     c9c:	4931                	li	s2,12
     c9e:	03250933          	mul	s2,a0,s2
     ca2:	1141                	addi	sp,sp,-16
     ca4:	0070                	addi	a2,sp,12
     ca6:	84aa                	mv	s1,a0
     ca8:	842e                	mv	s0,a1
     caa:	00e10593          	addi	a1,sp,14
     cae:	01b90513          	addi	a0,s2,27
     cb2:	37c1                	jal	c72 <vGetEdgeData>
     cb4:	8638                	lhu	a4,12(sp)
     cb6:	873c                	lhu	a5,14(sp)
     cb8:	4601                	li	a2,0
     cba:	00f766b3          	or	a3,a4,a5
     cbe:	ce89                	beqz	a3,cd8 <vRGBMode+0x40>
     cc0:	00e7e963          	bltu	a5,a4,cd2 <vRGBMode+0x3a>
     cc4:	00e46a63          	bltu	s0,a4,cd8 <vRGBMode+0x40>
     cc8:	0087b633          	sltu	a2,a5,s0
     ccc:	00164613          	xori	a2,a2,1
     cd0:	a021                	j	cd8 <vRGBMode+0x40>
     cd2:	4605                	li	a2,1
     cd4:	fee46ae3          	bltu	s0,a4,cc8 <vRGBMode+0x30>
     cd8:	4589                	li	a1,2
     cda:	8526                	mv	a0,s1
     cdc:	770000ef          	jal	ra,144c <SetRGB>
     ce0:	0070                	addi	a2,sp,12
     ce2:	00e10593          	addi	a1,sp,14
     ce6:	01f90513          	addi	a0,s2,31
     cea:	3761                	jal	c72 <vGetEdgeData>
     cec:	8638                	lhu	a4,12(sp)
     cee:	873c                	lhu	a5,14(sp)
     cf0:	4601                	li	a2,0
     cf2:	00f766b3          	or	a3,a4,a5
     cf6:	ce89                	beqz	a3,d10 <vRGBMode+0x78>
     cf8:	00e7e963          	bltu	a5,a4,d0a <vRGBMode+0x72>
     cfc:	00e46a63          	bltu	s0,a4,d10 <vRGBMode+0x78>
     d00:	0087b633          	sltu	a2,a5,s0
     d04:	00164613          	xori	a2,a2,1
     d08:	a021                	j	d10 <vRGBMode+0x78>
     d0a:	4605                	li	a2,1
     d0c:	fee46ae3          	bltu	s0,a4,d00 <vRGBMode+0x68>
     d10:	4585                	li	a1,1
     d12:	8526                	mv	a0,s1
     d14:	738000ef          	jal	ra,144c <SetRGB>
     d18:	0070                	addi	a2,sp,12
     d1a:	00e10593          	addi	a1,sp,14
     d1e:	02390513          	addi	a0,s2,35
     d22:	3f81                	jal	c72 <vGetEdgeData>
     d24:	8638                	lhu	a4,12(sp)
     d26:	873c                	lhu	a5,14(sp)
     d28:	4601                	li	a2,0
     d2a:	00f766b3          	or	a3,a4,a5
     d2e:	ce89                	beqz	a3,d48 <vRGBMode+0xb0>
     d30:	00e7e963          	bltu	a5,a4,d42 <vRGBMode+0xaa>
     d34:	00e46a63          	bltu	s0,a4,d48 <vRGBMode+0xb0>
     d38:	0087b633          	sltu	a2,a5,s0
     d3c:	00164613          	xori	a2,a2,1
     d40:	a021                	j	d48 <vRGBMode+0xb0>
     d42:	4605                	li	a2,1
     d44:	fee46ae3          	bltu	s0,a4,d38 <vRGBMode+0xa0>
     d48:	458d                	li	a1,3
     d4a:	8526                	mv	a0,s1
     d4c:	700000ef          	jal	ra,144c <SetRGB>
     d50:	0141                	addi	sp,sp,16
     d52:	ff0ff06f          	j	542 <__riscv_restore_0>

00000d56 <vBarColorMode>:
     d56:	fa0ff2ef          	jal	t0,4f6 <__riscv_save_10>
     d5a:	1141                	addi	sp,sp,-16
     d5c:	8aaa                	mv	s5,a0
     d5e:	84ae                	mv	s1,a1
     d60:	453d                	li	a0,15
     d62:	006c                	addi	a1,sp,12
     d64:	89b2                	mv	s3,a2
     d66:	00e10613          	addi	a2,sp,14
     d6a:	8936                	mv	s2,a3
     d6c:	8c3a                	mv	s8,a4
     d6e:	8b3e                	mv	s6,a5
     d70:	8d42                	mv	s10,a6
     d72:	8cc6                	mv	s9,a7
     d74:	04415403          	lhu	s0,68(sp)
     d78:	3ded                	jal	c72 <vGetEdgeData>
     d7a:	8628                	lhu	a0,12(sp)
     d7c:	00e15b83          	lhu	s7,14(sp)
     d80:	41750533          	sub	a0,a0,s7
     d84:	5ff050ef          	jal	ra,6b82 <__floatsisf>
     d88:	000087b7          	lui	a5,0x8
     d8c:	17c7a583          	lw	a1,380(a5) # 817c <CalPoint+0x10c>
     d90:	30d050ef          	jal	ra,689c <__mulsf3>
     d94:	8a2a                	mv	s4,a0
     d96:	03346e63          	bltu	s0,s3,dd2 <vBarColorMode+0x7c>
     d9a:	41798533          	sub	a0,s3,s7
     d9e:	5e5050ef          	jal	ra,6b82 <__floatsisf>
     da2:	85d2                	mv	a1,s4
     da4:	04b050ef          	jal	ra,65ee <__divsf3>
     da8:	585050ef          	jal	ra,6b2c <__fixunssfsi>
     dac:	00ad0023          	sb	a0,0(s10)
     db0:	41340533          	sub	a0,s0,s3
     db4:	00897463          	bgeu	s2,s0,dbc <vBarColorMode+0x66>
     db8:	41390533          	sub	a0,s2,s3
     dbc:	0542                	slli	a0,a0,0x10
     dbe:	8141                	srli	a0,a0,0x10
     dc0:	689050ef          	jal	ra,6c48 <__floatunsisf>
     dc4:	85d2                	mv	a1,s4
     dc6:	029050ef          	jal	ra,65ee <__divsf3>
     dca:	563050ef          	jal	ra,6b2c <__fixunssfsi>
     dce:	00ac8023          	sb	a0,0(s9)
     dd2:	03546d63          	bltu	s0,s5,e0c <vBarColorMode+0xb6>
     dd6:	417a8533          	sub	a0,s5,s7
     dda:	5a9050ef          	jal	ra,6b82 <__floatsisf>
     dde:	85d2                	mv	a1,s4
     de0:	00f050ef          	jal	ra,65ee <__divsf3>
     de4:	549050ef          	jal	ra,6b2c <__fixunssfsi>
     de8:	00ac0023          	sb	a0,0(s8)
     dec:	0284e363          	bltu	s1,s0,e12 <vBarColorMode+0xbc>
     df0:	41540433          	sub	s0,s0,s5
     df4:	01041513          	slli	a0,s0,0x10
     df8:	8141                	srli	a0,a0,0x10
     dfa:	64f050ef          	jal	ra,6c48 <__floatunsisf>
     dfe:	85d2                	mv	a1,s4
     e00:	7ee050ef          	jal	ra,65ee <__divsf3>
     e04:	529050ef          	jal	ra,6b2c <__fixunssfsi>
     e08:	00ab0023          	sb	a0,0(s6)
     e0c:	0141                	addi	sp,sp,16
     e0e:	f20ff06f          	j	52e <__riscv_restore_10>
     e12:	41548433          	sub	s0,s1,s5
     e16:	bff9                	j	df4 <vBarColorMode+0x9e>

00000e18 <vBarWindowMode>:
     e18:	00014803          	lbu	a6,0(sp)
     e1c:	8238                	lhu	a4,4(sp)
     e1e:	02a5f663          	bgeu	a1,a0,e4a <vBarWindowMode+0x32>
     e22:	00a77463          	bgeu	a4,a0,e2a <vBarWindowMode+0x12>
     e26:	00e6e663          	bltu	a3,a4,e32 <vBarWindowMode+0x1a>
     e2a:	00b77963          	bgeu	a4,a1,e3c <vBarWindowMode+0x24>
     e2e:	02e67f63          	bgeu	a2,a4,e6c <vBarWindowMode+0x54>
     e32:	01088023          	sb	a6,0(a7)
     e36:	01078023          	sb	a6,0(a5)
     e3a:	8082                	ret
     e3c:	00d76463          	bltu	a4,a3,e44 <vBarWindowMode+0x2c>
     e40:	fee67be3          	bgeu	a2,a4,e36 <vBarWindowMode+0x1e>
     e44:	01088023          	sb	a6,0(a7)
     e48:	8082                	ret
     e4a:	00e67763          	bgeu	a2,a4,e58 <vBarWindowMode+0x40>
     e4e:	feb762e3          	bltu	a4,a1,e32 <vBarWindowMode+0x1a>
     e52:	fed779e3          	bgeu	a4,a3,e44 <vBarWindowMode+0x2c>
     e56:	a019                	j	e5c <vBarWindowMode+0x44>
     e58:	00d77563          	bgeu	a4,a3,e62 <vBarWindowMode+0x4a>
     e5c:	fce56be3          	bltu	a0,a4,e32 <vBarWindowMode+0x1a>
     e60:	b7d5                	j	e44 <vBarWindowMode+0x2c>
     e62:	feb771e3          	bgeu	a4,a1,e44 <vBarWindowMode+0x2c>
     e66:	fce568e3          	bltu	a0,a4,e36 <vBarWindowMode+0x1e>
     e6a:	bfe9                	j	e44 <vBarWindowMode+0x2c>
     e6c:	fcd76ce3          	bltu	a4,a3,e44 <vBarWindowMode+0x2c>
     e70:	b7d9                	j	e36 <vBarWindowMode+0x1e>

00000e72 <vBarMode>:
     e72:	eacff2ef          	jal	t0,51e <__riscv_save_0>
     e76:	7179                	addi	sp,sp,-48
     e78:	892a                	mv	s2,a0
     e7a:	842e                	mv	s0,a1
     e7c:	84b2                	mv	s1,a2
     e7e:	106c                	addi	a1,sp,44
     e80:	02e10613          	addi	a2,sp,46
     e84:	453d                	li	a0,15
     e86:	ce36                	sw	a3,28(sp)
     e88:	cc3a                	sw	a4,24(sp)
     e8a:	ca3e                	sw	a5,20(sp)
     e8c:	c842                	sw	a6,16(sp)
     e8e:	c646                	sw	a7,12(sp)
     e90:	33cd                	jal	c72 <vGetEdgeData>
     e92:	46f2                	lw	a3,28(sp)
     e94:	48b2                	lw	a7,12(sp)
     e96:	4842                	lw	a6,16(sp)
     e98:	47d2                	lw	a5,20(sp)
     e9a:	4762                	lw	a4,24(sp)
     e9c:	0286f463          	bgeu	a3,s0,ec4 <vBarMode+0x52>
     ea0:	0126eb63          	bltu	a3,s2,eb6 <vBarMode+0x44>
     ea4:	0128e963          	bltu	a7,s2,eb6 <vBarMode+0x44>
     ea8:	0116e963          	bltu	a3,a7,eba <vBarMode+0x48>
     eac:	01070023          	sb	a6,0(a4)
     eb0:	01078023          	sb	a6,0(a5)
     eb4:	a029                	j	ebe <vBarMode+0x4c>
     eb6:	ff16fde3          	bgeu	a3,a7,eb0 <vBarMode+0x3e>
     eba:	01070023          	sb	a6,0(a4)
     ebe:	6145                	addi	sp,sp,48
     ec0:	e82ff06f          	j	542 <__riscv_restore_0>
     ec4:	00946763          	bltu	s0,s1,ed2 <vBarMode+0x60>
     ec8:	0098e563          	bltu	a7,s1,ed2 <vBarMode+0x60>
     ecc:	ff1462e3          	bltu	s0,a7,eb0 <vBarMode+0x3e>
     ed0:	bff1                	j	eac <vBarMode+0x3a>
     ed2:	ff1474e3          	bgeu	s0,a7,eba <vBarMode+0x48>
     ed6:	bfe9                	j	eb0 <vBarMode+0x3e>

00000ed8 <vRedrawTask>:
     ed8:	e2cff2ef          	jal	t0,504 <__riscv_save_4>
     edc:	000087b7          	lui	a5,0x8
     ee0:	17c7aa03          	lw	s4,380(a5) # 817c <CalPoint+0x10c>
     ee4:	6941                	lui	s2,0x10
     ee6:	7179                	addi	sp,sp,-48
     ee8:	197d                	addi	s2,s2,-1
     eea:	4529                	li	a0,10
     eec:	3ca040ef          	jal	ra,52b6 <vTaskDelay>
     ef0:	4401                	li	s0,0
     ef2:	49b9                	li	s3,14
     ef4:	0c340513          	addi	a0,s0,195
     ef8:	0542                	slli	a0,a0,0x10
     efa:	8141                	srli	a0,a0,0x10
     efc:	0ff47493          	andi	s1,s0,255
     f00:	3e71                	jal	a9c <getReg8>
     f02:	0e051063          	bnez	a0,fe2 <vRedrawTask+0x10a>
     f06:	8526                	mv	a0,s1
     f08:	3391                	jal	c4c <vRGBOff>
     f0a:	0405                	addi	s0,s0,1
     f0c:	ff3414e3          	bne	s0,s3,ef4 <vRedrawTask+0x1c>
     f10:	0d100513          	li	a0,209
     f14:	3661                	jal	a9c <getReg8>
     f16:	02010023          	sb	zero,32(sp)
     f1a:	020100a3          	sb	zero,33(sp)
     f1e:	02010123          	sb	zero,34(sp)
     f22:	020101a3          	sb	zero,35(sp)
     f26:	cd2d                	beqz	a0,fa0 <vRedrawTask+0xc8>
     f28:	39a9                	jal	b82 <getODValue>
     f2a:	01051993          	slli	s3,a0,0x10
     f2e:	02e10613          	addi	a2,sp,46
     f32:	106c                	addi	a1,sp,44
     f34:	8b2a                	mv	s6,a0
     f36:	453d                	li	a0,15
     f38:	3b2d                	jal	c72 <vGetEdgeData>
     f3a:	1030                	addi	a2,sp,40
     f3c:	02a10593          	addi	a1,sp,42
     f40:	454d                	li	a0,19
     f42:	3b05                	jal	c72 <vGetEdgeData>
     f44:	1050                	addi	a2,sp,36
     f46:	02610593          	addi	a1,sp,38
     f4a:	455d                	li	a0,23
     f4c:	331d                	jal	c72 <vGetEdgeData>
     f4e:	02e15783          	lhu	a5,46(sp)
     f52:	02c15503          	lhu	a0,44(sp)
     f56:	0109d993          	srli	s3,s3,0x10
     f5a:	8d1d                	sub	a0,a0,a5
     f5c:	427050ef          	jal	ra,6b82 <__floatsisf>
     f60:	85d2                	mv	a1,s4
     f62:	13b050ef          	jal	ra,689c <__mulsf3>
     f66:	8aaa                	mv	s5,a0
     f68:	4539                	li	a0,14
     f6a:	3e0d                	jal	a9c <getReg8>
     f6c:	02815603          	lhu	a2,40(sp)
     f70:	02415403          	lhu	s0,36(sp)
     f74:	02615483          	lhu	s1,38(sp)
     f78:	02a15683          	lhu	a3,42(sp)
     f7c:	e935                	bnez	a0,ff0 <vRedrawTask+0x118>
     f7e:	0084e463          	bltu	s1,s0,f86 <vRedrawTask+0xae>
     f82:	00c6ff63          	bgeu	a3,a2,fa0 <vRedrawTask+0xc8>
     f86:	c24e                	sw	s3,4(sp)
     f88:	c056                	sw	s5,0(sp)
     f8a:	02110893          	addi	a7,sp,33
     f8e:	02010813          	addi	a6,sp,32
     f92:	02310793          	addi	a5,sp,35
     f96:	02210713          	addi	a4,sp,34
     f9a:	85a6                	mv	a1,s1
     f9c:	8522                	mv	a0,s0
     f9e:	3b65                	jal	d56 <vBarColorMode>
     fa0:	02114683          	lbu	a3,33(sp)
     fa4:	02014603          	lbu	a2,32(sp)
     fa8:	02314583          	lbu	a1,35(sp)
     fac:	02214503          	lbu	a0,34(sp)
     fb0:	21a9                	jal	13fa <SetBarState>
     fb2:	4515                	li	a0,5
     fb4:	34e9                	jal	a7e <getReg32>
     fb6:	85aa                	mv	a1,a0
     fb8:	6511                	lui	a0,0x4
     fba:	44450513          	addi	a0,a0,1092 # 4444 <prvInsertBlockIntoFreeList+0x14>
     fbe:	2b61                	jal	1556 <SetSEG>
     fc0:	20600513          	li	a0,518
     fc4:	345d                	jal	a6a <getReg16>
     fc6:	0ff57793          	andi	a5,a0,255
     fca:	4501                	li	a0,0
     fcc:	cb89                	beqz	a5,fde <vRedrawTask+0x106>
     fce:	fff78513          	addi	a0,a5,-1
     fd2:	0ff57513          	andi	a0,a0,255
     fd6:	06950513          	addi	a0,a0,105
     fda:	0506                	slli	a0,a0,0x1
     fdc:	3479                	jal	a6a <getReg16>
     fde:	2521                	jal	15e6 <SetBigSeg>
     fe0:	b729                	j	eea <vRedrawTask+0x12>
     fe2:	3645                	jal	b82 <getODValue>
     fe4:	01051593          	slli	a1,a0,0x10
     fe8:	81c1                	srli	a1,a1,0x10
     fea:	8526                	mv	a0,s1
     fec:	3175                	jal	c98 <vRGBMode>
     fee:	bf31                	j	f0a <vRedrawTask+0x32>
     ff0:	012b7533          	and	a0,s6,s2
     ff4:	ce36                	sw	a3,28(sp)
     ff6:	cc32                	sw	a2,24(sp)
     ff8:	38b050ef          	jal	ra,6b82 <__floatsisf>
     ffc:	85d6                	mv	a1,s5
     ffe:	5f0050ef          	jal	ra,65ee <__divsf3>
    1002:	32b050ef          	jal	ra,6b2c <__fixunssfsi>
    1006:	0ff57813          	andi	a6,a0,255
    100a:	4662                	lw	a2,24(sp)
    100c:	46f2                	lw	a3,28(sp)
    100e:	0084e463          	bltu	s1,s0,1016 <vRedrawTask+0x13e>
    1012:	02c6f063          	bgeu	a3,a2,1032 <vRedrawTask+0x15a>
    1016:	c042                	sw	a6,0(sp)
    1018:	c24e                	sw	s3,4(sp)
    101a:	02110893          	addi	a7,sp,33
    101e:	02010813          	addi	a6,sp,32
    1022:	02310793          	addi	a5,sp,35
    1026:	02210713          	addi	a4,sp,34
    102a:	85a6                	mv	a1,s1
    102c:	8522                	mv	a0,s0
    102e:	33ed                	jal	e18 <vBarWindowMode>
    1030:	bf85                	j	fa0 <vRedrawTask+0xc8>
    1032:	88ce                	mv	a7,s3
    1034:	02110793          	addi	a5,sp,33
    1038:	02310713          	addi	a4,sp,35
    103c:	85a6                	mv	a1,s1
    103e:	8522                	mv	a0,s0
    1040:	3d0d                	jal	e72 <vBarMode>
    1042:	bfb9                	j	fa0 <vRedrawTask+0xc8>

00001044 <vInit_DeviceConfig>:
    1044:	cdaff2ef          	jal	t0,51e <__riscv_save_0>
    1048:	40011437          	lui	s0,0x40011
    104c:	7ba020ef          	jal	ra,3806 <HAL_InitGpioLib>
    1050:	80040513          	addi	a0,s0,-2048 # 40010800 <__freertos_irq_stack_top+0x2000b800>
    1054:	10000593          	li	a1,256
    1058:	135020ef          	jal	ra,398c <HAL_ResetBit>
    105c:	c0040513          	addi	a0,s0,-1024
    1060:	45c1                	li	a1,16
    1062:	06d020ef          	jal	ra,38ce <HAL_InitGpioOut>
    1066:	6485                	lui	s1,0x1
    1068:	c2048593          	addi	a1,s1,-992 # c20 <getODValue+0x9e>
    106c:	c0040513          	addi	a0,s0,-1024
    1070:	0ad020ef          	jal	ra,391c <HAL_InitGpioIn>
    1074:	00180637          	lui	a2,0x180
    1078:	c0040513          	addi	a0,s0,-1024
    107c:	46e1                	li	a3,24
    107e:	10060613          	addi	a2,a2,256 # 180100 <_data_lma+0x177498>
    1082:	45a1                	li	a1,8
    1084:	0c1020ef          	jal	ra,3944 <HAL_InitGpioAF>
    1088:	80048593          	addi	a1,s1,-2048
    108c:	80040513          	addi	a0,s0,-2048
    1090:	46e1                	li	a3,24
    1092:	4601                	li	a2,0
    1094:	0b1020ef          	jal	ra,3944 <HAL_InitGpioAF>
    1098:	46e1                	li	a3,24
    109a:	4601                	li	a2,0
    109c:	c0040513          	addi	a0,s0,-1024
    10a0:	458d                	li	a1,3
    10a2:	0a3020ef          	jal	ra,3944 <HAL_InitGpioAF>
    10a6:	80040513          	addi	a0,s0,-2048
    10aa:	04f00593          	li	a1,79
    10ae:	049020ef          	jal	ra,38f6 <HAL_InitGpioAIN>
    10b2:	80040513          	addi	a0,s0,-2048
    10b6:	46e1                	li	a3,24
    10b8:	4601                	li	a2,0
    10ba:	0a000593          	li	a1,160
    10be:	087020ef          	jal	ra,3944 <HAL_InitGpioAF>
    10c2:	46e1                	li	a3,24
    10c4:	4601                	li	a2,0
    10c6:	c0040513          	addi	a0,s0,-1024
    10ca:	65a9                	lui	a1,0xa
    10cc:	079020ef          	jal	ra,3944 <HAL_InitGpioAF>
    10d0:	80040513          	addi	a0,s0,-2048
    10d4:	45c1                	li	a1,16
    10d6:	7f8020ef          	jal	ra,38ce <HAL_InitGpioOut>
    10da:	c0040513          	addi	a0,s0,-1024
    10de:	6585                	lui	a1,0x1
    10e0:	7ee020ef          	jal	ra,38ce <HAL_InitGpioOut>
    10e4:	c0040513          	addi	a0,s0,-1024
    10e8:	04800693          	li	a3,72
    10ec:	001d4637          	lui	a2,0x1d4
    10f0:	10000593          	li	a1,256
    10f4:	051020ef          	jal	ra,3944 <HAL_InitGpioAF>
    10f8:	c0040513          	addi	a0,s0,-1024
    10fc:	46e1                	li	a3,24
    10fe:	001d4637          	lui	a2,0x1d4
    1102:	20000593          	li	a1,512
    1106:	03f020ef          	jal	ra,3944 <HAL_InitGpioAF>
    110a:	46f1                	li	a3,28
    110c:	c0040513          	addi	a0,s0,-1024
    1110:	4601                	li	a2,0
    1112:	0c000593          	li	a1,192
    1116:	02f020ef          	jal	ra,3944 <HAL_InitGpioAF>
    111a:	4605                	li	a2,1
    111c:	4585                	li	a1,1
    111e:	40013537          	lui	a0,0x40013
    1122:	6c3020ef          	jal	ra,3fe4 <HAL_SPI_InitDMA>
    1126:	40004537          	lui	a0,0x40004
    112a:	4605                	li	a2,1
    112c:	4585                	li	a1,1
    112e:	80050513          	addi	a0,a0,-2048 # 40003800 <__freertos_irq_stack_top+0x1fffe800>
    1132:	6b3020ef          	jal	ra,3fe4 <HAL_SPI_InitDMA>
    1136:	00001537          	lui	a0,0x1
    113a:	4615                	li	a2,5
    113c:	4585                	li	a1,1
    113e:	aaa50513          	addi	a0,a0,-1366 # aaa <vIncrementSystemCounters>
    1142:	58f020ef          	jal	ra,3ed0 <HAL_RTC_IT_Init>
    1146:	000016b7          	lui	a3,0x1
    114a:	000f45b7          	lui	a1,0xf4
    114e:	66a68693          	addi	a3,a3,1642 # 166a <vLedProcess>
    1152:	3e800613          	li	a2,1000
    1156:	24058593          	addi	a1,a1,576 # f4240 <_data_lma+0xeb5d8>
    115a:	450d                	li	a0,3
    115c:	130030ef          	jal	ra,428c <HAL_TIMER_InitIt>
    1160:	65e1                	lui	a1,0x18
    1162:	46b1                	li	a3,12
    1164:	3e800613          	li	a2,1000
    1168:	6a058593          	addi	a1,a1,1696 # 186a0 <_data_lma+0xfa38>
    116c:	4509                	li	a0,2
    116e:	1c8030ef          	jal	ra,4336 <HAL_TIMER_PWMTimersInit>
    1172:	4595                	li	a1,5
    1174:	4505                	li	a0,1
    1176:	67b010ef          	jal	ra,2ff0 <vInitEEPROM>
    117a:	45c1                	li	a1,16
    117c:	c0040513          	addi	a0,s0,-1024
    1180:	001020ef          	jal	ra,3980 <HAL_SetBit>
    1184:	bbeff06f          	j	542 <__riscv_restore_0>

00001188 <ADC1_Event>:
    1188:	b96ff2ef          	jal	t0,51e <__riscv_save_0>
    118c:	40012537          	lui	a0,0x40012
    1190:	4581                	li	a1,0
    1192:	40050513          	addi	a0,a0,1024 # 40012400 <__freertos_irq_stack_top+0x2000d400>
    1196:	325000ef          	jal	ra,1cba <ADC_Cmd>
    119a:	20000537          	lui	a0,0x20000
    119e:	5cc52503          	lw	a0,1484(a0) # 200005cc <pInputsTaskHandle>
    11a2:	200007b7          	lui	a5,0x20000
    11a6:	5d478413          	addi	s0,a5,1492 # 200005d4 <xHigherPriorityTaskWoken.7242>
    11aa:	4701                	li	a4,0
    11ac:	5d478793          	addi	a5,a5,1492
    11b0:	468d                	li	a3,3
    11b2:	4605                	li	a2,1
    11b4:	4589                	li	a1,2
    11b6:	00042023          	sw	zero,0(s0)
    11ba:	7f2040ef          	jal	ra,59ac <xTaskGenericNotifyFromISR>
    11be:	401c                	lw	a5,0(s0)
    11c0:	c791                	beqz	a5,11cc <ADC1_Event+0x44>
    11c2:	e000e7b7          	lui	a5,0xe000e
    11c6:	6711                	lui	a4,0x4
    11c8:	20e7a023          	sw	a4,512(a5) # e000e200 <__freertos_irq_stack_top+0xc0009200>
    11cc:	b76ff06f          	j	542 <__riscv_restore_0>

000011d0 <getInputsTaskHandle>:
    11d0:	20000537          	lui	a0,0x20000
    11d4:	5cc50513          	addi	a0,a0,1484 # 200005cc <pInputsTaskHandle>
    11d8:	8082                	ret

000011da <ADC1_Init>:
    11da:	b44ff2ef          	jal	t0,51e <__riscv_save_0>
    11de:	8381a703          	lw	a4,-1992(gp) # 200005b8 <_global_impure_ptr+0x4>
    11e2:	83818793          	addi	a5,gp,-1992 # 200005b8 <_global_impure_ptr+0x4>
    11e6:	23dc                	lbu	a5,4(a5)
    11e8:	1101                	addi	sp,sp,-32
    11ea:	40012437          	lui	s0,0x40012
    11ee:	0830                	addi	a2,sp,24
    11f0:	4595                	li	a1,5
    11f2:	40040513          	addi	a0,s0,1024 # 40012400 <__freertos_irq_stack_top+0x2000d400>
    11f6:	cc3a                	sw	a4,24(sp)
    11f8:	00f10e23          	sb	a5,28(sp)
    11fc:	737010ef          	jal	ra,3132 <HAL_ADC_ContiniusScanCinvertionDMA>
    1200:	551010ef          	jal	ra,2f50 <getADC1Buffer>
    1204:	000017b7          	lui	a5,0x1
    1208:	872a                	mv	a4,a0
    120a:	18878793          	addi	a5,a5,392 # 1188 <ADC1_Event>
    120e:	40020537          	lui	a0,0x40020
    1212:	c03e                	sw	a5,0(sp)
    1214:	488d                	li	a7,3
    1216:	4805                	li	a6,1
    1218:	4781                	li	a5,0
    121a:	44c40693          	addi	a3,s0,1100
    121e:	4605                	li	a2,1
    1220:	4581                	li	a1,0
    1222:	0521                	addi	a0,a0,8
    1224:	20e020ef          	jal	ra,3432 <HAL_DMAInitIT>
    1228:	4f3010ef          	jal	ra,2f1a <vAINInit>
    122c:	6105                	addi	sp,sp,32
    122e:	b14ff06f          	j	542 <__riscv_restore_0>

00001232 <ADC_FSM>:
    1232:	ad2ff2ef          	jal	t0,504 <__riscv_save_4>
    1236:	51b010ef          	jal	ra,2f50 <getADC1Buffer>
    123a:	842a                	mv	s0,a0
    123c:	01e50913          	addi	s2,a0,30 # 4002001e <__freertos_irq_stack_top+0x2001b01e>
    1240:	84aa                	mv	s1,a0
    1242:	00049503          	lh	a0,0(s1)
    1246:	0489                	addi	s1,s1,2
    1248:	6af010ef          	jal	ra,30f6 <Get_ConversionVal>
    124c:	fea49f23          	sh	a0,-2(s1)
    1250:	fe9919e3          	bne	s2,s1,1242 <ADC_FSM+0x10>
    1254:	000087b7          	lui	a5,0x8
    1258:	1807aa03          	lw	s4,384(a5) # 8180 <CalPoint+0x110>
    125c:	000087b7          	lui	a5,0x8
    1260:	1847aa83          	lw	s5,388(a5) # 8184 <CalPoint+0x114>
    1264:	000087b7          	lui	a5,0x8
    1268:	1887ab03          	lw	s6,392(a5) # 8188 <CalPoint+0x118>
    126c:	b0018913          	addi	s2,gp,-1280 # 20000880 <ADC_OLD_RAW>
    1270:	4481                	li	s1,0
    1272:	b0c18993          	addi	s3,gp,-1268 # 2000088c <OurVData>
    1276:	243e                	lhu	a5,10(s0)
    1278:	284a                	lhu	a0,20(s0)
    127a:	85ca                	mv	a1,s2
    127c:	953e                	add	a0,a0,a5
    127e:	201e                	lhu	a5,0(s0)
    1280:	953e                	add	a0,a0,a5
    1282:	478d                	li	a5,3
    1284:	02f55533          	divu	a0,a0,a5
    1288:	0542                	slli	a0,a0,0x10
    128a:	8141                	srli	a0,a0,0x10
    128c:	4bd040ef          	jal	ra,5f48 <vRCFilter>
    1290:	4791                	li	a5,4
    1292:	00f49f63          	bne	s1,a5,12b0 <ADC_FSM+0x7e>
    1296:	1b3050ef          	jal	ra,6c48 <__floatunsisf>
    129a:	85d2                	mv	a1,s4
    129c:	600050ef          	jal	ra,689c <__mulsf3>
    12a0:	85d6                	mv	a1,s5
    12a2:	5fa050ef          	jal	ra,689c <__mulsf3>
    12a6:	85da                	mv	a1,s6
    12a8:	7dd040ef          	jal	ra,6284 <__addsf3>
    12ac:	00a9a823          	sw	a0,16(s3)
    12b0:	0485                	addi	s1,s1,1
    12b2:	0ff4f493          	andi	s1,s1,255
    12b6:	4795                	li	a5,5
    12b8:	0409                	addi	s0,s0,2
    12ba:	0909                	addi	s2,s2,2
    12bc:	faf49de3          	bne	s1,a5,1276 <ADC_FSM+0x44>
    12c0:	a78ff06f          	j	538 <__riscv_restore_4>

000012c4 <GetAIN>:
    12c4:	050a                	slli	a0,a0,0x2
    12c6:	b0c18793          	addi	a5,gp,-1268 # 2000088c <OurVData>
    12ca:	97aa                	add	a5,a5,a0
    12cc:	4388                	lw	a0,0(a5)
    12ce:	8082                	ret

000012d0 <InputsNotifyTaskToInit>:
    12d0:	a4eff2ef          	jal	t0,51e <__riscv_save_0>
    12d4:	360040ef          	jal	ra,5634 <xTaskGetCurrentTaskHandle>
    12d8:	200007b7          	lui	a5,0x20000
    12dc:	5ca7a823          	sw	a0,1488(a5) # 200005d0 <pTaskToNotifykHandle>
    12e0:	200007b7          	lui	a5,0x20000
    12e4:	5cc7a503          	lw	a0,1484(a5) # 200005cc <pInputsTaskHandle>
    12e8:	4701                	li	a4,0
    12ea:	468d                	li	a3,3
    12ec:	4611                	li	a2,4
    12ee:	4581                	li	a1,0
    12f0:	508040ef          	jal	ra,57f8 <xTaskGenericNotify>
    12f4:	a4eff06f          	j	542 <__riscv_restore_0>

000012f8 <vInputsTask>:
    12f8:	a0cff2ef          	jal	t0,504 <__riscv_save_4>
    12fc:	400204b7          	lui	s1,0x40020
    1300:	1141                	addi	sp,sp,-16
    1302:	4405                	li	s0,1
    1304:	4905                	li	s2,1
    1306:	200009b7          	lui	s3,0x20000
    130a:	04a1                	addi	s1,s1,8
    130c:	01240a63          	beq	s0,s2,1320 <vInputsTask+0x28>
    1310:	c415                	beqz	s0,133c <vInputsTask+0x44>
    1312:	4789                	li	a5,2
    1314:	04f40563          	beq	s0,a5,135e <vInputsTask+0x66>
    1318:	4529                	li	a0,10
    131a:	79d030ef          	jal	ra,52b6 <vTaskDelay>
    131e:	b7fd                	j	130c <vInputsTask+0x14>
    1320:	577d                	li	a4,-1
    1322:	0074                	addi	a3,sp,12
    1324:	0ff00613          	li	a2,255
    1328:	4581                	li	a1,0
    132a:	4501                	li	a0,0
    132c:	3e6040ef          	jal	ra,5712 <xTaskGenericNotifyWait>
    1330:	47b2                	lw	a5,12(sp)
    1332:	8b91                	andi	a5,a5,4
    1334:	d3f5                	beqz	a5,1318 <vInputsTask+0x20>
    1336:	3555                	jal	11da <ADC1_Init>
    1338:	4401                	li	s0,0
    133a:	bff9                	j	1318 <vInputsTask+0x20>
    133c:	5d09a503          	lw	a0,1488(s3) # 200005d0 <pTaskToNotifykHandle>
    1340:	4701                	li	a4,0
    1342:	4689                	li	a3,2
    1344:	4601                	li	a2,0
    1346:	4581                	li	a1,0
    1348:	4b0040ef          	jal	ra,57f8 <xTaskGenericNotify>
    134c:	405010ef          	jal	ra,2f50 <getADC1Buffer>
    1350:	85aa                	mv	a1,a0
    1352:	463d                	li	a2,15
    1354:	8526                	mv	a0,s1
    1356:	24e020ef          	jal	ra,35a4 <HAL_ADC_StartDMA>
    135a:	4409                	li	s0,2
    135c:	bf75                	j	1318 <vInputsTask+0x20>
    135e:	4701                	li	a4,0
    1360:	0074                	addi	a3,sp,12
    1362:	0ff00613          	li	a2,255
    1366:	4581                	li	a1,0
    1368:	4509                	li	a0,2
    136a:	3a8040ef          	jal	ra,5712 <xTaskGenericNotifyWait>
    136e:	8905                	andi	a0,a0,1
    1370:	d545                	beqz	a0,1318 <vInputsTask+0x20>
    1372:	35c1                	jal	1232 <ADC_FSM>
    1374:	3dd010ef          	jal	ra,2f50 <getADC1Buffer>
    1378:	85aa                	mv	a1,a0
    137a:	463d                	li	a2,15
    137c:	8526                	mv	a0,s1
    137e:	226020ef          	jal	ra,35a4 <HAL_ADC_StartDMA>
    1382:	bf59                	j	1318 <vInputsTask+0x20>

00001384 <SPI1_DMA_Callback>:
    1384:	99aff2ef          	jal	t0,51e <__riscv_save_0>
    1388:	40020537          	lui	a0,0x40020
    138c:	03050513          	addi	a0,a0,48 # 40020030 <__freertos_irq_stack_top+0x2001b030>
    1390:	084020ef          	jal	ra,3414 <HAL_DMA_Disable>
    1394:	40013537          	lui	a0,0x40013
    1398:	4e5020ef          	jal	ra,407c <HAL_SPI_RXOveleyClear>
    139c:	4405                	li	s0,1
    139e:	40013537          	lui	a0,0x40013
    13a2:	4eb020ef          	jal	ra,408c <HAL_SPI_GetBusy>
    13a6:	fe850ce3          	beq	a0,s0,139e <SPI1_DMA_Callback+0x1a>
    13aa:	40011537          	lui	a0,0x40011
    13ae:	45c1                	li	a1,16
    13b0:	80050513          	addi	a0,a0,-2048 # 40010800 <__freertos_irq_stack_top+0x2000b800>
    13b4:	5cc020ef          	jal	ra,3980 <HAL_SetBit>
    13b8:	98aff06f          	j	542 <__riscv_restore_0>

000013bc <SPI2_DMA_Callback>:
    13bc:	962ff2ef          	jal	t0,51e <__riscv_save_0>
    13c0:	40020537          	lui	a0,0x40020
    13c4:	05850513          	addi	a0,a0,88 # 40020058 <__freertos_irq_stack_top+0x2001b058>
    13c8:	04c020ef          	jal	ra,3414 <HAL_DMA_Disable>
    13cc:	40004437          	lui	s0,0x40004
    13d0:	80040513          	addi	a0,s0,-2048 # 40003800 <__freertos_irq_stack_top+0x1fffe800>
    13d4:	4a9020ef          	jal	ra,407c <HAL_SPI_RXOveleyClear>
    13d8:	80040413          	addi	s0,s0,-2048
    13dc:	4485                	li	s1,1
    13de:	8522                	mv	a0,s0
    13e0:	4ad020ef          	jal	ra,408c <HAL_SPI_GetBusy>
    13e4:	fe950de3          	beq	a0,s1,13de <SPI2_DMA_Callback+0x22>
    13e8:	40011537          	lui	a0,0x40011
    13ec:	6585                	lui	a1,0x1
    13ee:	c0050513          	addi	a0,a0,-1024 # 40010c00 <__freertos_irq_stack_top+0x2000bc00>
    13f2:	58e020ef          	jal	ra,3980 <HAL_SetBit>
    13f6:	94cff06f          	j	542 <__riscv_restore_0>

000013fa <SetBarState>:
    13fa:	4785                	li	a5,1
    13fc:	0606                	slli	a2,a2,0x1
    13fe:	00c79633          	sll	a2,a5,a2
    1402:	0506                	slli	a0,a0,0x1
    1404:	4789                	li	a5,2
    1406:	00a79533          	sll	a0,a5,a0
    140a:	4701                	li	a4,0
    140c:	4781                	li	a5,0
    140e:	02b71263          	bne	a4,a1,1432 <SetBarState+0x38>
    1412:	01079513          	slli	a0,a5,0x10
    1416:	8141                	srli	a0,a0,0x10
    1418:	83c1                	srli	a5,a5,0x10
    141a:	4581                	li	a1,0
    141c:	4701                	li	a4,0
    141e:	02d59063          	bne	a1,a3,143e <SetBarState+0x44>
    1422:	8d59                	or	a0,a0,a4
    1424:	8341                	srli	a4,a4,0x10
    1426:	b2018693          	addi	a3,gp,-1248 # 200008a0 <SPI1_DATA>
    142a:	8fd9                	or	a5,a5,a4
    142c:	a2ea                	sh	a0,6(a3)
    142e:	a69e                	sh	a5,8(a3)
    1430:	8082                	ret
    1432:	0705                	addi	a4,a4,1
    1434:	8fc9                	or	a5,a5,a0
    1436:	0ff77713          	andi	a4,a4,255
    143a:	050a                	slli	a0,a0,0x2
    143c:	bfc9                	j	140e <SetBarState+0x14>
    143e:	0585                	addi	a1,a1,1
    1440:	8f51                	or	a4,a4,a2
    1442:	0ff5f593          	andi	a1,a1,255
    1446:	060a                	slli	a2,a2,0x2
    1448:	bfd9                	j	141e <SetBarState+0x24>

0000144a <vSetInitBrigth>:
    144a:	8082                	ret

0000144c <SetRGB>:
    144c:	46b5                	li	a3,13
    144e:	4781                	li	a5,0
    1450:	4701                	li	a4,0
    1452:	00a6ec63          	bltu	a3,a0,146a <SetRGB+0x1e>
    1456:	6721                	lui	a4,0x8
    1458:	00251793          	slli	a5,a0,0x2
    145c:	18c70713          	addi	a4,a4,396 # 818c <CalPoint+0x11c>
    1460:	97ba                	add	a5,a5,a4
    1462:	439c                	lw	a5,0(a5)
    1464:	8782                	jr	a5
    1466:	4725                	li	a4,9
    1468:	4789                	li	a5,2
    146a:	468d                	li	a3,3
    146c:	4511                	li	a0,4
    146e:	00d58763          	beq	a1,a3,147c <SetRGB+0x30>
    1472:	4689                	li	a3,2
    1474:	4509                	li	a0,2
    1476:	00d58363          	beq	a1,a3,147c <SetRGB+0x30>
    147a:	4505                	li	a0,1
    147c:	b2018693          	addi	a3,gp,-1248 # 200008a0 <SPI1_DATA>
    1480:	00e51533          	sll	a0,a0,a4
    1484:	0786                	slli	a5,a5,0x1
    1486:	97b6                	add	a5,a5,a3
    1488:	0542                	slli	a0,a0,0x10
    148a:	4705                	li	a4,1
    148c:	00079683          	lh	a3,0(a5)
    1490:	8541                	srai	a0,a0,0x10
    1492:	04e61963          	bne	a2,a4,14e4 <SetRGB+0x98>
    1496:	8d55                	or	a0,a0,a3
    1498:	a38a                	sh	a0,0(a5)
    149a:	8082                	ret
    149c:	478d                	li	a5,3
    149e:	02f50533          	mul	a0,a0,a5
    14a2:	0ff57713          	andi	a4,a0,255
    14a6:	b7c9                	j	1468 <SetRGB+0x1c>
    14a8:	478d                	li	a5,3
    14aa:	02f50533          	mul	a0,a0,a5
    14ae:	1569                	addi	a0,a0,-6
    14b0:	0ff57713          	andi	a4,a0,255
    14b4:	4785                	li	a5,1
    14b6:	bf55                	j	146a <SetRGB+0x1e>
    14b8:	478d                	li	a5,3
    14ba:	02f50533          	mul	a0,a0,a5
    14be:	1551                	addi	a0,a0,-12
    14c0:	0ff57713          	andi	a4,a0,255
    14c4:	4781                	li	a5,0
    14c6:	b755                	j	146a <SetRGB+0x1e>
    14c8:	4719                	li	a4,6
    14ca:	bf79                	j	1468 <SetRGB+0x1c>
    14cc:	4735                	li	a4,13
    14ce:	b7dd                	j	14b4 <SetRGB+0x68>
    14d0:	4729                	li	a4,10
    14d2:	b7cd                	j	14b4 <SetRGB+0x68>
    14d4:	4731                	li	a4,12
    14d6:	b7fd                	j	14c4 <SetRGB+0x78>
    14d8:	4725                	li	a4,9
    14da:	b7ed                	j	14c4 <SetRGB+0x78>
    14dc:	872a                	mv	a4,a0
    14de:	b769                	j	1468 <SetRGB+0x1c>
    14e0:	4719                	li	a4,6
    14e2:	b7cd                	j	14c4 <SetRGB+0x78>
    14e4:	fff54513          	not	a0,a0
    14e8:	8d75                	and	a0,a0,a3
    14ea:	b77d                	j	1498 <SetRGB+0x4c>

000014ec <SetSegDirect>:
    14ec:	4785                	li	a5,1
    14ee:	02f50863          	beq	a0,a5,151e <SetSegDirect+0x32>
    14f2:	c509                	beqz	a0,14fc <SetSegDirect+0x10>
    14f4:	4789                	li	a5,2
    14f6:	02f50f63          	beq	a0,a5,1534 <SetSegDirect+0x48>
    14fa:	8082                	ret
    14fc:	200007b7          	lui	a5,0x20000
    1500:	5d878793          	addi	a5,a5,1496 # 200005d8 <SPI2_DATA>
    1504:	239a                	lhu	a4,0(a5)
    1506:	0055d693          	srli	a3,a1,0x5
    150a:	05ae                	slli	a1,a1,0xb
    150c:	9b71                	andi	a4,a4,-4
    150e:	8f55                	or	a4,a4,a3
    1510:	a39a                	sh	a4,0(a5)
    1512:	23ba                	lhu	a4,2(a5)
    1514:	7ff77713          	andi	a4,a4,2047
    1518:	8dd9                	or	a1,a1,a4
    151a:	a3ae                	sh	a1,2(a5)
    151c:	8082                	ret
    151e:	20000737          	lui	a4,0x20000
    1522:	5d870713          	addi	a4,a4,1496 # 200005d8 <SPI2_DATA>
    1526:	233e                	lhu	a5,2(a4)
    1528:	058e                	slli	a1,a1,0x3
    152a:	c037f793          	andi	a5,a5,-1021
    152e:	8ddd                	or	a1,a1,a5
    1530:	a32e                	sh	a1,2(a4)
    1532:	8082                	ret
    1534:	20000737          	lui	a4,0x20000
    1538:	5d870713          	addi	a4,a4,1496 # 200005d8 <SPI2_DATA>
    153c:	233e                	lhu	a5,2(a4)
    153e:	0045d693          	srli	a3,a1,0x4
    1542:	05b2                	slli	a1,a1,0xc
    1544:	9be1                	andi	a5,a5,-8
    1546:	8fd5                	or	a5,a5,a3
    1548:	a33e                	sh	a5,2(a4)
    154a:	235e                	lhu	a5,4(a4)
    154c:	07d2                	slli	a5,a5,0x14
    154e:	83d1                	srli	a5,a5,0x14
    1550:	8ddd                	or	a1,a1,a5
    1552:	a34e                	sh	a1,4(a4)
    1554:	8082                	ret

00001556 <SetSEG>:
    1556:	faffe2ef          	jal	t0,504 <__riscv_save_4>
    155a:	000f47b7          	lui	a5,0xf4
    155e:	23f78793          	addi	a5,a5,575 # f423f <_data_lma+0xeb5d7>
    1562:	892e                	mv	s2,a1
    1564:	449d                	li	s1,7
    1566:	02b7e863          	bltu	a5,a1,1596 <SetSEG+0x40>
    156a:	67e1                	lui	a5,0x18
    156c:	69f78793          	addi	a5,a5,1695 # 1869f <_data_lma+0xfa37>
    1570:	4499                	li	s1,6
    1572:	02b7e263          	bltu	a5,a1,1596 <SetSEG+0x40>
    1576:	6789                	lui	a5,0x2
    1578:	70f78793          	addi	a5,a5,1807 # 270f <RCC_RTCCLKCmd+0x11>
    157c:	4495                	li	s1,5
    157e:	00b7ec63          	bltu	a5,a1,1596 <SetSEG+0x40>
    1582:	3e700793          	li	a5,999
    1586:	4491                	li	s1,4
    1588:	00b7e763          	bltu	a5,a1,1596 <SetSEG+0x40>
    158c:	06300493          	li	s1,99
    1590:	00b4b4b3          	sltu	s1,s1,a1
    1594:	0489                	addi	s1,s1,2
    1596:	200009b7          	lui	s3,0x20000
    159a:	6a21                	lui	s4,0x8
    159c:	4401                	li	s0,0
    159e:	5d898993          	addi	s3,s3,1496 # 200005d8 <SPI2_DATA>
    15a2:	1c4a0a13          	addi	s4,s4,452 # 81c4 <DigitMask>
    15a6:	4aa9                	li	s5,10
    15a8:	0029d783          	lhu	a5,2(s3)
    15ac:	8522                	mv	a0,s0
    15ae:	0405                	addi	s0,s0,1
    15b0:	4007e793          	ori	a5,a5,1024
    15b4:	00f99123          	sh	a5,2(s3)
    15b8:	035977b3          	remu	a5,s2,s5
    15bc:	0ff47413          	andi	s0,s0,255
    15c0:	97d2                	add	a5,a5,s4
    15c2:	238c                	lbu	a1,0(a5)
    15c4:	3725                	jal	14ec <SetSegDirect>
    15c6:	03595933          	divu	s2,s2,s5
    15ca:	fc849fe3          	bne	s1,s0,15a8 <SetSEG+0x52>
    15ce:	449d                	li	s1,7
    15d0:	00941463          	bne	s0,s1,15d8 <SetSEG+0x82>
    15d4:	f65fe06f          	j	538 <__riscv_restore_4>
    15d8:	8522                	mv	a0,s0
    15da:	4581                	li	a1,0
    15dc:	0405                	addi	s0,s0,1
    15de:	3739                	jal	14ec <SetSegDirect>
    15e0:	0ff47413          	andi	s0,s0,255
    15e4:	b7f5                	j	15d0 <SetSEG+0x7a>

000015e6 <SetBigSeg>:
    15e6:	20000737          	lui	a4,0x20000
    15ea:	5d870713          	addi	a4,a4,1496 # 200005d8 <SPI2_DATA>
    15ee:	231e                	lhu	a5,0(a4)
    15f0:	050a                	slli	a0,a0,0x2
    15f2:	8b8d                	andi	a5,a5,3
    15f4:	8fc9                	or	a5,a5,a0
    15f6:	a31e                	sh	a5,0(a4)
    15f8:	8082                	ret

000015fa <vLedDriverStart>:
    15fa:	f25fe2ef          	jal	t0,51e <__riscv_save_0>
    15fe:	000017b7          	lui	a5,0x1
    1602:	1141                	addi	sp,sp,-16
    1604:	40020437          	lui	s0,0x40020
    1608:	3bc78793          	addi	a5,a5,956 # 13bc <SPI2_DMA_Callback>
    160c:	20000737          	lui	a4,0x20000
    1610:	400046b7          	lui	a3,0x40004
    1614:	c03e                	sw	a5,0(sp)
    1616:	05840513          	addi	a0,s0,88 # 40020058 <__freertos_irq_stack_top+0x2001b058>
    161a:	4889                	li	a7,2
    161c:	4805                	li	a6,1
    161e:	4781                	li	a5,0
    1620:	5d870713          	addi	a4,a4,1496 # 200005d8 <SPI2_DATA>
    1624:	80c68693          	addi	a3,a3,-2036 # 4000380c <__freertos_irq_stack_top+0x1fffe80c>
    1628:	4605                	li	a2,1
    162a:	4585                	li	a1,1
    162c:	607010ef          	jal	ra,3432 <HAL_DMAInitIT>
    1630:	000017b7          	lui	a5,0x1
    1634:	38478793          	addi	a5,a5,900 # 1384 <SPI1_DMA_Callback>
    1638:	400136b7          	lui	a3,0x40013
    163c:	c03e                	sw	a5,0(sp)
    163e:	4889                	li	a7,2
    1640:	4805                	li	a6,1
    1642:	4781                	li	a5,0
    1644:	b2018713          	addi	a4,gp,-1248 # 200008a0 <SPI1_DATA>
    1648:	06b1                	addi	a3,a3,12
    164a:	4605                	li	a2,1
    164c:	03040513          	addi	a0,s0,48
    1650:	4585                	li	a1,1
    1652:	5e1010ef          	jal	ra,3432 <HAL_DMAInitIT>
    1656:	40000537          	lui	a0,0x40000
    165a:	4585                	li	a1,1
    165c:	40050513          	addi	a0,a0,1024 # 40000400 <__freertos_irq_stack_top+0x1fffb400>
    1660:	700010ef          	jal	ra,2d60 <TIM_Cmd>
    1664:	0141                	addi	sp,sp,16
    1666:	eddfe06f          	j	542 <__riscv_restore_0>

0000166a <vLedProcess>:
    166a:	eb5fe2ef          	jal	t0,51e <__riscv_save_0>
    166e:	40011437          	lui	s0,0x40011
    1672:	80040513          	addi	a0,s0,-2048 # 40010800 <__freertos_irq_stack_top+0x2000b800>
    1676:	45c1                	li	a1,16
    1678:	314020ef          	jal	ra,398c <HAL_ResetBit>
    167c:	c0040513          	addi	a0,s0,-1024
    1680:	6585                	lui	a1,0x1
    1682:	40020437          	lui	s0,0x40020
    1686:	306020ef          	jal	ra,398c <HAL_ResetBit>
    168a:	4591                	li	a1,4
    168c:	05840513          	addi	a0,s0,88 # 40020058 <__freertos_irq_stack_top+0x2001b058>
    1690:	593010ef          	jal	ra,3422 <HAL_DMA_SetCounter>
    1694:	05840513          	addi	a0,s0,88
    1698:	56f010ef          	jal	ra,3406 <HAL_DMA_Enable>
    169c:	4595                	li	a1,5
    169e:	03040513          	addi	a0,s0,48
    16a2:	581010ef          	jal	ra,3422 <HAL_DMA_SetCounter>
    16a6:	03040513          	addi	a0,s0,48
    16aa:	55d010ef          	jal	ra,3406 <HAL_DMA_Enable>
    16ae:	e95fe06f          	j	542 <__riscv_restore_0>

000016b2 <main>:
    16b2:	e6dfe2ef          	jal	t0,51e <__riscv_save_0>
    16b6:	4505                	li	a0,1
    16b8:	737000ef          	jal	ra,25ee <NVIC_PriorityGroupConfig>
    16bc:	221d                	jal	17e2 <SystemCoreClockUpdate>
    16be:	0bb040ef          	jal	ra,5f78 <Delay_Init>
    16c2:	6571                	lui	a0,0x1c
    16c4:	20050513          	addi	a0,a0,512 # 1c200 <_data_lma+0x13598>
    16c8:	11d040ef          	jal	ra,5fe4 <USART_Printf_Init>
    16cc:	00008537          	lui	a0,0x8
    16d0:	1d050513          	addi	a0,a0,464 # 81d0 <DigitMask+0xc>
    16d4:	20b050ef          	jal	ra,70de <puts>
    16d8:	96dff0ef          	jal	ra,1044 <vInit_DeviceConfig>
    16dc:	00008437          	lui	s0,0x8
    16e0:	293d                	jal	1b1e <vSYSeventInit>
    16e2:	292d                	jal	1b1c <vSYSqueueInit>
    16e4:	2e55                	jal	1a98 <vSYStaskInit>
    16e6:	007030ef          	jal	ra,4eec <vTaskStartScheduler>
    16ea:	1d840513          	addi	a0,s0,472 # 81d8 <DigitMask+0x14>
    16ee:	1f1050ef          	jal	ra,70de <puts>
    16f2:	bfe5                	j	16ea <main+0x38>

000016f4 <SystemInit>:
    16f4:	400217b7          	lui	a5,0x40021
    16f8:	4398                	lw	a4,0(a5)
    16fa:	f8ff06b7          	lui	a3,0xf8ff0
    16fe:	1141                	addi	sp,sp,-16
    1700:	00176713          	ori	a4,a4,1
    1704:	c398                	sw	a4,0(a5)
    1706:	43d8                	lw	a4,4(a5)
    1708:	00020637          	lui	a2,0x20
    170c:	8f75                	and	a4,a4,a3
    170e:	c3d8                	sw	a4,4(a5)
    1710:	4398                	lw	a4,0(a5)
    1712:	fef706b7          	lui	a3,0xfef70
    1716:	16fd                	addi	a3,a3,-1
    1718:	8f75                	and	a4,a4,a3
    171a:	c398                	sw	a4,0(a5)
    171c:	4398                	lw	a4,0(a5)
    171e:	fffc06b7          	lui	a3,0xfffc0
    1722:	16fd                	addi	a3,a3,-1
    1724:	8f75                	and	a4,a4,a3
    1726:	c398                	sw	a4,0(a5)
    1728:	43d8                	lw	a4,4(a5)
    172a:	ff8106b7          	lui	a3,0xff810
    172e:	16fd                	addi	a3,a3,-1
    1730:	8f75                	and	a4,a4,a3
    1732:	c3d8                	sw	a4,4(a5)
    1734:	009f0737          	lui	a4,0x9f0
    1738:	c798                	sw	a4,8(a5)
    173a:	c402                	sw	zero,8(sp)
    173c:	c602                	sw	zero,12(sp)
    173e:	4398                	lw	a4,0(a5)
    1740:	66c1                	lui	a3,0x10
    1742:	8f55                	or	a4,a4,a3
    1744:	c398                	sw	a4,0(a5)
    1746:	400216b7          	lui	a3,0x40021
    174a:	6705                	lui	a4,0x1
    174c:	429c                	lw	a5,0(a3)
    174e:	8ff1                	and	a5,a5,a2
    1750:	c63e                	sw	a5,12(sp)
    1752:	47a2                	lw	a5,8(sp)
    1754:	0785                	addi	a5,a5,1
    1756:	c43e                	sw	a5,8(sp)
    1758:	47b2                	lw	a5,12(sp)
    175a:	e781                	bnez	a5,1762 <SystemInit+0x6e>
    175c:	47a2                	lw	a5,8(sp)
    175e:	fee797e3          	bne	a5,a4,174c <SystemInit+0x58>
    1762:	400217b7          	lui	a5,0x40021
    1766:	439c                	lw	a5,0(a5)
    1768:	00e79713          	slli	a4,a5,0xe
    176c:	06075963          	bgez	a4,17de <SystemInit+0xea>
    1770:	4785                	li	a5,1
    1772:	c63e                	sw	a5,12(sp)
    1774:	4732                	lw	a4,12(sp)
    1776:	4785                	li	a5,1
    1778:	06f71163          	bne	a4,a5,17da <SystemInit+0xe6>
    177c:	400217b7          	lui	a5,0x40021
    1780:	43d8                	lw	a4,4(a5)
    1782:	ffc106b7          	lui	a3,0xffc10
    1786:	16fd                	addi	a3,a3,-1
    1788:	08076713          	ori	a4,a4,128
    178c:	c3d8                	sw	a4,4(a5)
    178e:	43d8                	lw	a4,4(a5)
    1790:	c3d8                	sw	a4,4(a5)
    1792:	43d8                	lw	a4,4(a5)
    1794:	40076713          	ori	a4,a4,1024
    1798:	c3d8                	sw	a4,4(a5)
    179a:	43d8                	lw	a4,4(a5)
    179c:	8f75                	and	a4,a4,a3
    179e:	c3d8                	sw	a4,4(a5)
    17a0:	43d8                	lw	a4,4(a5)
    17a2:	003d06b7          	lui	a3,0x3d0
    17a6:	8f55                	or	a4,a4,a3
    17a8:	c3d8                	sw	a4,4(a5)
    17aa:	4398                	lw	a4,0(a5)
    17ac:	010006b7          	lui	a3,0x1000
    17b0:	8f55                	or	a4,a4,a3
    17b2:	c398                	sw	a4,0(a5)
    17b4:	4398                	lw	a4,0(a5)
    17b6:	00671693          	slli	a3,a4,0x6
    17ba:	fe06dde3          	bgez	a3,17b4 <SystemInit+0xc0>
    17be:	43d8                	lw	a4,4(a5)
    17c0:	400216b7          	lui	a3,0x40021
    17c4:	9b71                	andi	a4,a4,-4
    17c6:	c3d8                	sw	a4,4(a5)
    17c8:	43d8                	lw	a4,4(a5)
    17ca:	00276713          	ori	a4,a4,2
    17ce:	c3d8                	sw	a4,4(a5)
    17d0:	4721                	li	a4,8
    17d2:	42dc                	lw	a5,4(a3)
    17d4:	8bb1                	andi	a5,a5,12
    17d6:	fee79ee3          	bne	a5,a4,17d2 <SystemInit+0xde>
    17da:	0141                	addi	sp,sp,16
    17dc:	8082                	ret
    17de:	c602                	sw	zero,12(sp)
    17e0:	bf51                	j	1774 <SystemInit+0x80>

000017e2 <SystemCoreClockUpdate>:
    17e2:	400216b7          	lui	a3,0x40021
    17e6:	42dc                	lw	a5,4(a3)
    17e8:	20000737          	lui	a4,0x20000
    17ec:	4611                	li	a2,4
    17ee:	8bb1                	andi	a5,a5,12
    17f0:	58070713          	addi	a4,a4,1408 # 20000580 <SystemCoreClock>
    17f4:	00c78563          	beq	a5,a2,17fe <SystemCoreClockUpdate+0x1c>
    17f8:	4621                	li	a2,8
    17fa:	02c78863          	beq	a5,a2,182a <SystemCoreClockUpdate+0x48>
    17fe:	007a17b7          	lui	a5,0x7a1
    1802:	20078793          	addi	a5,a5,512 # 7a1200 <_data_lma+0x798598>
    1806:	c31c                	sw	a5,0(a4)
    1808:	400217b7          	lui	a5,0x40021
    180c:	43dc                	lw	a5,4(a5)
    180e:	8391                	srli	a5,a5,0x4
    1810:	00f7f693          	andi	a3,a5,15
    1814:	200007b7          	lui	a5,0x20000
    1818:	00078793          	mv	a5,a5
    181c:	97b6                	add	a5,a5,a3
    181e:	2394                	lbu	a3,0(a5)
    1820:	431c                	lw	a5,0(a4)
    1822:	00d7d7b3          	srl	a5,a5,a3
    1826:	c31c                	sw	a5,0(a4)
    1828:	8082                	ret
    182a:	42dc                	lw	a5,4(a3)
    182c:	42d4                	lw	a3,4(a3)
    182e:	6641                	lui	a2,0x10
    1830:	83c9                	srli	a5,a5,0x12
    1832:	8bbd                	andi	a5,a5,15
    1834:	8ef1                	and	a3,a3,a2
    1836:	0789                	addi	a5,a5,2
    1838:	4645                	li	a2,17
    183a:	00c79363          	bne	a5,a2,1840 <SystemCoreClockUpdate+0x5e>
    183e:	47c9                	li	a5,18
    1840:	ee81                	bnez	a3,1858 <SystemCoreClockUpdate+0x76>
    1842:	400246b7          	lui	a3,0x40024
    1846:	8006a683          	lw	a3,-2048(a3) # 40023800 <__freertos_irq_stack_top+0x2001e800>
    184a:	8ac1                	andi	a3,a3,16
    184c:	ce89                	beqz	a3,1866 <SystemCoreClockUpdate+0x84>
    184e:	007a16b7          	lui	a3,0x7a1
    1852:	20068693          	addi	a3,a3,512 # 7a1200 <_data_lma+0x798598>
    1856:	a821                	j	186e <SystemCoreClockUpdate+0x8c>
    1858:	400216b7          	lui	a3,0x40021
    185c:	42d4                	lw	a3,4(a3)
    185e:	00e69613          	slli	a2,a3,0xe
    1862:	fe0656e3          	bgez	a2,184e <SystemCoreClockUpdate+0x6c>
    1866:	003d16b7          	lui	a3,0x3d1
    186a:	90068693          	addi	a3,a3,-1792 # 3d0900 <_data_lma+0x3c7c98>
    186e:	02d787b3          	mul	a5,a5,a3
    1872:	bf51                	j	1806 <SystemCoreClockUpdate+0x24>

00001874 <StartDefaultTask>:
    1874:	c83fe2ef          	jal	t0,4f6 <__riscv_save_10>
    1878:	1141                	addi	sp,sp,-16
    187a:	64c1                	lui	s1,0x10
    187c:	00011523          	sh	zero,10(sp)
    1880:	4401                	li	s0,0
    1882:	20000937          	lui	s2,0x20000
    1886:	4b0d                	li	s6,3
    1888:	00008ab7          	lui	s5,0x8
    188c:	4b8d                	li	s7,3
    188e:	14fd                	addi	s1,s1,-1
    1890:	5e092783          	lw	a5,1504(s2) # 200005e0 <DeafaultTaskFSM>
    1894:	5e090993          	addi	s3,s2,1504
    1898:	4a09                	li	s4,2
    189a:	17478c63          	beq	a5,s4,1a12 <StartDefaultTask+0x19e>
    189e:	15678763          	beq	a5,s6,19ec <StartDefaultTask+0x178>
    18a2:	ffe5                	bnez	a5,189a <StartDefaultTask+0x26>
    18a4:	d83fe0ef          	jal	ra,626 <DataModel_Init>
    18a8:	16800593          	li	a1,360
    18ac:	453d                	li	a0,15
    18ae:	d67fe0ef          	jal	ra,614 <setReg16>
    18b2:	4581                	li	a1,0
    18b4:	4545                	li	a0,17
    18b6:	d5ffe0ef          	jal	ra,614 <setReg16>
    18ba:	09600593          	li	a1,150
    18be:	454d                	li	a0,19
    18c0:	d55fe0ef          	jal	ra,614 <setReg16>
    18c4:	0e600593          	li	a1,230
    18c8:	4555                	li	a0,21
    18ca:	d4bfe0ef          	jal	ra,614 <setReg16>
    18ce:	10e00593          	li	a1,270
    18d2:	455d                	li	a0,23
    18d4:	d41fe0ef          	jal	ra,614 <setReg16>
    18d8:	06e00593          	li	a1,110
    18dc:	4565                	li	a0,25
    18de:	d37fe0ef          	jal	ra,614 <setReg16>
    18e2:	4585                	li	a1,1
    18e4:	4539                	li	a0,14
    18e6:	91eff0ef          	jal	ra,a04 <setReg8>
    18ea:	0be00593          	li	a1,190
    18ee:	04b00513          	li	a0,75
    18f2:	d23fe0ef          	jal	ra,614 <setReg16>
    18f6:	06e00593          	li	a1,110
    18fa:	04d00513          	li	a0,77
    18fe:	d17fe0ef          	jal	ra,614 <setReg16>
    1902:	06400593          	li	a1,100
    1906:	04f00513          	li	a0,79
    190a:	d0bfe0ef          	jal	ra,614 <setReg16>
    190e:	0c800593          	li	a1,200
    1912:	05100513          	li	a0,81
    1916:	cfffe0ef          	jal	ra,614 <setReg16>
    191a:	4581                	li	a1,0
    191c:	05300513          	li	a0,83
    1920:	cf5fe0ef          	jal	ra,614 <setReg16>
    1924:	4581                	li	a1,0
    1926:	05500513          	li	a0,85
    192a:	cebfe0ef          	jal	ra,614 <setReg16>
    192e:	4585                	li	a1,1
    1930:	0c700513          	li	a0,199
    1934:	8d0ff0ef          	jal	ra,a04 <setReg8>
    1938:	0be00593          	li	a1,190
    193c:	07b00513          	li	a0,123
    1940:	cd5fe0ef          	jal	ra,614 <setReg16>
    1944:	06e00593          	li	a1,110
    1948:	07d00513          	li	a0,125
    194c:	cc9fe0ef          	jal	ra,614 <setReg16>
    1950:	06400593          	li	a1,100
    1954:	07f00513          	li	a0,127
    1958:	cbdfe0ef          	jal	ra,614 <setReg16>
    195c:	0c800593          	li	a1,200
    1960:	08100513          	li	a0,129
    1964:	cb1fe0ef          	jal	ra,614 <setReg16>
    1968:	4581                	li	a1,0
    196a:	08300513          	li	a0,131
    196e:	ca7fe0ef          	jal	ra,614 <setReg16>
    1972:	4581                	li	a1,0
    1974:	08500513          	li	a0,133
    1978:	c9dfe0ef          	jal	ra,614 <setReg16>
    197c:	4585                	li	a1,1
    197e:	0cb00513          	li	a0,203
    1982:	882ff0ef          	jal	ra,a04 <setReg8>
    1986:	0be00593          	li	a1,190
    198a:	0b700513          	li	a0,183
    198e:	c87fe0ef          	jal	ra,614 <setReg16>
    1992:	06e00593          	li	a1,110
    1996:	0b900513          	li	a0,185
    199a:	c7bfe0ef          	jal	ra,614 <setReg16>
    199e:	06400593          	li	a1,100
    19a2:	0bb00513          	li	a0,187
    19a6:	c6ffe0ef          	jal	ra,614 <setReg16>
    19aa:	0c800593          	li	a1,200
    19ae:	0bd00513          	li	a0,189
    19b2:	c63fe0ef          	jal	ra,614 <setReg16>
    19b6:	4581                	li	a1,0
    19b8:	0bf00513          	li	a0,191
    19bc:	c59fe0ef          	jal	ra,614 <setReg16>
    19c0:	4581                	li	a1,0
    19c2:	0c100513          	li	a0,193
    19c6:	c4ffe0ef          	jal	ra,614 <setReg16>
    19ca:	4585                	li	a1,1
    19cc:	0d000513          	li	a0,208
    19d0:	834ff0ef          	jal	ra,a04 <setReg8>
    19d4:	4581                	li	a1,0
    19d6:	0cf00513          	li	a0,207
    19da:	82aff0ef          	jal	ra,a04 <setReg8>
    19de:	c1dff0ef          	jal	ra,15fa <vLedDriverStart>
    19e2:	8efff0ef          	jal	ra,12d0 <InputsNotifyTaskToInit>
    19e6:	0179a023          	sw	s7,0(s3)
    19ea:	b55d                	j	1890 <StartDefaultTask+0x1c>
    19ec:	577d                	li	a4,-1
    19ee:	0074                	addi	a3,sp,12
    19f0:	4601                	li	a2,0
    19f2:	4581                	li	a1,0
    19f4:	4501                	li	a0,0
    19f6:	51d030ef          	jal	ra,5712 <xTaskGenericNotifyWait>
    19fa:	4732                	lw	a4,12(sp)
    19fc:	4785                	li	a5,1
    19fe:	e8f719e3          	bne	a4,a5,1890 <StartDefaultTask+0x1c>
    1a02:	8626                	mv	a2,s1
    1a04:	4581                	li	a1,0
    1a06:	4501                	li	a0,0
    1a08:	198040ef          	jal	ra,5ba0 <ulTaskGenericNotifyValueClear>
    1a0c:	0149a023          	sw	s4,0(s3)
    1a10:	b541                	j	1890 <StartDefaultTask+0x1c>
    1a12:	4609                	li	a2,2
    1a14:	00a10593          	addi	a1,sp,10
    1a18:	20600513          	li	a0,518
    1a1c:	ff7fe0ef          	jal	ra,a12 <setReg>
    1a20:	0ff47593          	andi	a1,s0,255
    1a24:	20800513          	li	a0,520
    1a28:	fddfe0ef          	jal	ra,a04 <setReg8>
    1a2c:	1f400513          	li	a0,500
    1a30:	087030ef          	jal	ra,52b6 <vTaskDelay>
    1a34:	853c                	lhu	a5,10(sp)
    1a36:	4725                	li	a4,9
    1a38:	0785                	addi	a5,a5,1
    1a3a:	07c2                	slli	a5,a5,0x10
    1a3c:	83c1                	srli	a5,a5,0x10
    1a3e:	02f76263          	bltu	a4,a5,1a62 <StartDefaultTask+0x1ee>
    1a42:	857c                	sh	a5,10(sp)
    1a44:	0429                	addi	s0,s0,10
    1a46:	0442                	slli	s0,s0,0x10
    1a48:	8041                	srli	s0,s0,0x10
    1a4a:	17100793          	li	a5,369
    1a4e:	0087f363          	bgeu	a5,s0,1a54 <StartDefaultTask+0x1e0>
    1a52:	4401                	li	s0,0
    1a54:	1db020ef          	jal	ra,442e <HAL_WDTReset>
    1a58:	1f0a8513          	addi	a0,s5,496 # 81f0 <DigitMask+0x2c>
    1a5c:	682050ef          	jal	ra,70de <puts>
    1a60:	bd05                	j	1890 <StartDefaultTask+0x1c>
    1a62:	00011523          	sh	zero,10(sp)
    1a66:	bff9                	j	1a44 <StartDefaultTask+0x1d0>

00001a68 <vApplicationGetIdleTaskMemory>:
    1a68:	200017b7          	lui	a5,0x20001
    1a6c:	5c078793          	addi	a5,a5,1472 # 200015c0 <xIdleTaskTCB>
    1a70:	c11c                	sw	a5,0(a0)
    1a72:	44018793          	addi	a5,gp,1088 # 200011c0 <uxIdleTaskStack>
    1a76:	c19c                	sw	a5,0(a1)
    1a78:	08000793          	li	a5,128
    1a7c:	c21c                	sw	a5,0(a2)
    1a7e:	8082                	ret

00001a80 <vApplicationGetTimerTaskMemory>:
    1a80:	200017b7          	lui	a5,0x20001
    1a84:	61c78793          	addi	a5,a5,1564 # 2000161c <xTimerTaskTCB>
    1a88:	c11c                	sw	a5,0(a0)
    1a8a:	64018793          	addi	a5,gp,1600 # 200013c0 <uxTimerTaskStack>
    1a8e:	c19c                	sw	a5,0(a1)
    1a90:	08000793          	li	a5,128
    1a94:	c21c                	sw	a5,0(a2)
    1a96:	8082                	ret

00001a98 <vSYStaskInit>:
    1a98:	a87fe2ef          	jal	t0,51e <__riscv_save_0>
    1a9c:	8dcff0ef          	jal	ra,b78 <xProcessTaskHandle>
    1aa0:	842a                	mv	s0,a0
    1aa2:	000085b7          	lui	a1,0x8
    1aa6:	00001537          	lui	a0,0x1
    1aaa:	18818813          	addi	a6,gp,392 # 20000f08 <ProcessTaskControlBlock>
    1aae:	d8818793          	addi	a5,gp,-632 # 20000b08 <ProcessTaskBuffer>
    1ab2:	4729                	li	a4,10
    1ab4:	4685                	li	a3,1
    1ab6:	10000613          	li	a2,256
    1aba:	1fc58593          	addi	a1,a1,508 # 81fc <DigitMask+0x38>
    1abe:	ed850513          	addi	a0,a0,-296 # ed8 <vRedrawTask>
    1ac2:	384030ef          	jal	ra,4e46 <xTaskCreateStatic>
    1ac6:	c008                	sw	a0,0(s0)
    1ac8:	f08ff0ef          	jal	ra,11d0 <getInputsTaskHandle>
    1acc:	842a                	mv	s0,a0
    1ace:	000085b7          	lui	a1,0x8
    1ad2:	00001537          	lui	a0,0x1
    1ad6:	d2c18813          	addi	a6,gp,-724 # 20000aac <InputsTaskControlBlock>
    1ada:	b2c18793          	addi	a5,gp,-1236 # 200008ac <InputsTaskBuffer>
    1ade:	470d                	li	a4,3
    1ae0:	4685                	li	a3,1
    1ae2:	08000613          	li	a2,128
    1ae6:	20858593          	addi	a1,a1,520 # 8208 <DigitMask+0x44>
    1aea:	2f850513          	addi	a0,a0,760 # 12f8 <vInputsTask>
    1aee:	358030ef          	jal	ra,4e46 <xTaskCreateStatic>
    1af2:	c008                	sw	a0,0(s0)
    1af4:	000085b7          	lui	a1,0x8
    1af8:	00002537          	lui	a0,0x2
    1afc:	3e418813          	addi	a6,gp,996 # 20001164 <defaultTaskControlBlock>
    1b00:	1e418793          	addi	a5,gp,484 # 20000f64 <defaultTaskBuffer>
    1b04:	470d                	li	a4,3
    1b06:	4685                	li	a3,1
    1b08:	08000613          	li	a2,128
    1b0c:	21458593          	addi	a1,a1,532 # 8214 <DigitMask+0x50>
    1b10:	87450513          	addi	a0,a0,-1932 # 1874 <StartDefaultTask>
    1b14:	332030ef          	jal	ra,4e46 <xTaskCreateStatic>
    1b18:	a2bfe06f          	j	542 <__riscv_restore_0>

00001b1c <vSYSqueueInit>:
    1b1c:	8082                	ret

00001b1e <vSYSeventInit>:
    1b1e:	8082                	ret
    1b20:	a001                	j	1b20 <vSYSeventInit+0x2>
    1b22:	a001                	j	1b22 <vSYSeventInit+0x4>

00001b24 <Ecall_M_Mode_Handler>:
    1b24:	a001                	j	1b24 <Ecall_M_Mode_Handler>

00001b26 <Ecall_U_Mode_Handler>:
    1b26:	a001                	j	1b26 <Ecall_U_Mode_Handler>

00001b28 <Break_Point_Handler>:
    1b28:	a001                	j	1b28 <Break_Point_Handler>
    1b2a:	a001                	j	1b2a <Break_Point_Handler+0x2>
    1b2c:	a001                	j	1b2c <Break_Point_Handler+0x4>

00001b2e <WWDG_IRQHandler>:
    1b2e:	a001                	j	1b2e <WWDG_IRQHandler>

00001b30 <PVD_IRQHandler>:
    1b30:	a001                	j	1b30 <PVD_IRQHandler>

00001b32 <TAMPER_IRQHandler>:
    1b32:	a001                	j	1b32 <TAMPER_IRQHandler>
    1b34:	a001                	j	1b34 <TAMPER_IRQHandler+0x2>

00001b36 <FLASH_IRQHandler>:
    1b36:	a001                	j	1b36 <FLASH_IRQHandler>

00001b38 <RCC_IRQHandler>:
    1b38:	a001                	j	1b38 <RCC_IRQHandler>

00001b3a <EXTI0_IRQHandler>:
    1b3a:	a001                	j	1b3a <EXTI0_IRQHandler>

00001b3c <EXTI1_IRQHandler>:
    1b3c:	a001                	j	1b3c <EXTI1_IRQHandler>

00001b3e <EXTI2_IRQHandler>:
    1b3e:	a001                	j	1b3e <EXTI2_IRQHandler>

00001b40 <EXTI3_IRQHandler>:
    1b40:	a001                	j	1b40 <EXTI3_IRQHandler>

00001b42 <EXTI4_IRQHandler>:
    1b42:	a001                	j	1b42 <EXTI4_IRQHandler>
    1b44:	a001                	j	1b44 <EXTI4_IRQHandler+0x2>

00001b46 <DMA1_Channel2_IRQHandler>:
    1b46:	a001                	j	1b46 <DMA1_Channel2_IRQHandler>
    1b48:	a001                	j	1b48 <DMA1_Channel2_IRQHandler+0x2>
    1b4a:	a001                	j	1b4a <DMA1_Channel2_IRQHandler+0x4>
    1b4c:	a001                	j	1b4c <DMA1_Channel2_IRQHandler+0x6>

00001b4e <DMA1_Channel6_IRQHandler>:
    1b4e:	a001                	j	1b4e <DMA1_Channel6_IRQHandler>
    1b50:	a001                	j	1b50 <DMA1_Channel6_IRQHandler+0x2>
    1b52:	a001                	j	1b52 <DMA1_Channel6_IRQHandler+0x4>
    1b54:	a001                	j	1b54 <DMA1_Channel6_IRQHandler+0x6>
    1b56:	a001                	j	1b56 <DMA1_Channel6_IRQHandler+0x8>
    1b58:	a001                	j	1b58 <DMA1_Channel6_IRQHandler+0xa>
    1b5a:	a001                	j	1b5a <DMA1_Channel6_IRQHandler+0xc>

00001b5c <EXTI9_5_IRQHandler>:
    1b5c:	a001                	j	1b5c <EXTI9_5_IRQHandler>

00001b5e <TIM1_BRK_IRQHandler>:
    1b5e:	a001                	j	1b5e <TIM1_BRK_IRQHandler>

00001b60 <TIM1_UP_IRQHandler>:
    1b60:	a001                	j	1b60 <TIM1_UP_IRQHandler>

00001b62 <TIM1_TRG_COM_IRQHandler>:
    1b62:	a001                	j	1b62 <TIM1_TRG_COM_IRQHandler>

00001b64 <TIM1_CC_IRQHandler>:
    1b64:	a001                	j	1b64 <TIM1_CC_IRQHandler>
    1b66:	a001                	j	1b66 <TIM1_CC_IRQHandler+0x2>
    1b68:	a001                	j	1b68 <TIM1_CC_IRQHandler+0x4>
    1b6a:	a001                	j	1b6a <TIM1_CC_IRQHandler+0x6>
    1b6c:	a001                	j	1b6c <TIM1_CC_IRQHandler+0x8>
    1b6e:	a001                	j	1b6e <TIM1_CC_IRQHandler+0xa>
    1b70:	a001                	j	1b70 <TIM1_CC_IRQHandler+0xc>
    1b72:	a001                	j	1b72 <TIM1_CC_IRQHandler+0xe>

00001b74 <SPI1_IRQHandler>:
    1b74:	a001                	j	1b74 <SPI1_IRQHandler>

00001b76 <SPI2_IRQHandler>:
    1b76:	a001                	j	1b76 <SPI2_IRQHandler>

00001b78 <USART1_IRQHandler>:
    1b78:	a001                	j	1b78 <USART1_IRQHandler>

00001b7a <USART2_IRQHandler>:
    1b7a:	a001                	j	1b7a <USART2_IRQHandler>

00001b7c <USART3_IRQHandler>:
    1b7c:	a001                	j	1b7c <USART3_IRQHandler>

00001b7e <EXTI15_10_IRQHandler>:
    1b7e:	a001                	j	1b7e <EXTI15_10_IRQHandler>

00001b80 <RTCAlarm_IRQHandler>:
    1b80:	a001                	j	1b80 <RTCAlarm_IRQHandler>

00001b82 <USBWakeUp_IRQHandler>:
    1b82:	a001                	j	1b82 <USBWakeUp_IRQHandler>

00001b84 <USBHD_IRQHandler>:
    1b84:	a001                	j	1b84 <USBHD_IRQHandler>

00001b86 <USBHDWakeUp_IRQHandler>:
    1b86:	a001                	j	1b86 <USBHDWakeUp_IRQHandler>

00001b88 <UART4_IRQHandler>:
    1b88:	a001                	j	1b88 <UART4_IRQHandler>

00001b8a <DMA1_Channel8_IRQHandler>:
    1b8a:	a001                	j	1b8a <DMA1_Channel8_IRQHandler>

00001b8c <handle_reset>:
    1b8c:	1ffff197          	auipc	gp,0x1ffff
    1b90:	1f418193          	addi	gp,gp,500 # 20000d80 <__global_pointer$>
    1b94:	20003117          	auipc	sp,0x20003
    1b98:	46c10113          	addi	sp,sp,1132 # 20005000 <__freertos_irq_stack_top>
    1b9c:	00007517          	auipc	a0,0x7
    1ba0:	0cc50513          	addi	a0,a0,204 # 8c68 <_data_lma>
    1ba4:	1fffe597          	auipc	a1,0x1fffe
    1ba8:	45c58593          	addi	a1,a1,1116 # 20000000 <_data_vma>
    1bac:	84018613          	addi	a2,gp,-1984 # 200005c0 <_edata>
    1bb0:	00c5fa63          	bgeu	a1,a2,1bc4 <handle_reset+0x38>
    1bb4:	00052283          	lw	t0,0(a0)
    1bb8:	0055a023          	sw	t0,0(a1)
    1bbc:	0511                	addi	a0,a0,4
    1bbe:	0591                	addi	a1,a1,4
    1bc0:	fec5eae3          	bltu	a1,a2,1bb4 <handle_reset+0x28>
    1bc4:	1ffff517          	auipc	a0,0x1ffff
    1bc8:	9fc50513          	addi	a0,a0,-1540 # 200005c0 <_edata>
    1bcc:	20000597          	auipc	a1,0x20000
    1bd0:	e5858593          	addi	a1,a1,-424 # 20001a24 <_ebss>
    1bd4:	00b57763          	bgeu	a0,a1,1be2 <handle_reset+0x56>
    1bd8:	00052023          	sw	zero,0(a0)
    1bdc:	0511                	addi	a0,a0,4
    1bde:	feb56de3          	bltu	a0,a1,1bd8 <handle_reset+0x4c>
    1be2:	42fd                	li	t0,31
    1be4:	bc029073          	csrw	0xbc0,t0
    1be8:	4289                	li	t0,2
    1bea:	80429073          	csrw	0x804,t0
    1bee:	000022b7          	lui	t0,0x2
    1bf2:	80028293          	addi	t0,t0,-2048 # 1800 <SystemCoreClockUpdate+0x1e>
    1bf6:	3002a073          	csrs	mstatus,t0
    1bfa:	ffffe297          	auipc	t0,0xffffe
    1bfe:	43e28293          	addi	t0,t0,1086 # 38 <_einit>
    1c02:	0032e293          	ori	t0,t0,3
    1c06:	30529073          	csrw	mtvec,t0
    1c0a:	aebff0ef          	jal	ra,16f4 <SystemInit>
    1c0e:	00000297          	auipc	t0,0x0
    1c12:	aa428293          	addi	t0,t0,-1372 # 16b2 <main>
    1c16:	34129073          	csrw	mepc,t0
    1c1a:	30200073          	mret

00001c1e <ADC_DeInit>:
    1c1e:	901fe2ef          	jal	t0,51e <__riscv_save_0>
    1c22:	400127b7          	lui	a5,0x40012
    1c26:	40078793          	addi	a5,a5,1024 # 40012400 <__freertos_irq_stack_top+0x2000d400>
    1c2a:	00f51e63          	bne	a0,a5,1c46 <ADC_DeInit+0x28>
    1c2e:	4585                	li	a1,1
    1c30:	20000513          	li	a0,512
    1c34:	403000ef          	jal	ra,2836 <RCC_APB2PeriphResetCmd>
    1c38:	4581                	li	a1,0
    1c3a:	20000513          	li	a0,512
    1c3e:	3f9000ef          	jal	ra,2836 <RCC_APB2PeriphResetCmd>
    1c42:	901fe06f          	j	542 <__riscv_restore_0>
    1c46:	400137b7          	lui	a5,0x40013
    1c4a:	80078793          	addi	a5,a5,-2048 # 40012800 <__freertos_irq_stack_top+0x2000d800>
    1c4e:	fef51ae3          	bne	a0,a5,1c42 <ADC_DeInit+0x24>
    1c52:	4585                	li	a1,1
    1c54:	40000513          	li	a0,1024
    1c58:	3df000ef          	jal	ra,2836 <RCC_APB2PeriphResetCmd>
    1c5c:	4581                	li	a1,0
    1c5e:	40000513          	li	a0,1024
    1c62:	bff1                	j	1c3e <ADC_DeInit+0x20>

00001c64 <ADC_Init>:
    1c64:	415c                	lw	a5,4(a0)
    1c66:	e0f10737          	lui	a4,0xe0f10
    1c6a:	eff70713          	addi	a4,a4,-257 # e0f0feff <__freertos_irq_stack_top+0xc0f0aeff>
    1c6e:	4d94                	lw	a3,24(a1)
    1c70:	8f7d                	and	a4,a4,a5
    1c72:	419c                	lw	a5,0(a1)
    1c74:	8fd5                	or	a5,a5,a3
    1c76:	4dd4                	lw	a3,28(a1)
    1c78:	8fd5                	or	a5,a5,a3
    1c7a:	41d4                	lw	a3,4(a1)
    1c7c:	06a2                	slli	a3,a3,0x8
    1c7e:	8fd5                	or	a5,a5,a3
    1c80:	8fd9                	or	a5,a5,a4
    1c82:	c15c                	sw	a5,4(a0)
    1c84:	451c                	lw	a5,8(a0)
    1c86:	fff1f737          	lui	a4,0xfff1f
    1c8a:	7fd70713          	addi	a4,a4,2045 # fff1f7fd <__freertos_irq_stack_top+0xdff1a7fd>
    1c8e:	45d4                	lw	a3,12(a1)
    1c90:	8f7d                	and	a4,a4,a5
    1c92:	499c                	lw	a5,16(a1)
    1c94:	8fd5                	or	a5,a5,a3
    1c96:	4594                	lw	a3,8(a1)
    1c98:	0686                	slli	a3,a3,0x1
    1c9a:	8fd5                	or	a5,a5,a3
    1c9c:	8fd9                	or	a5,a5,a4
    1c9e:	c51c                	sw	a5,8(a0)
    1ca0:	555c                	lw	a5,44(a0)
    1ca2:	ff100737          	lui	a4,0xff100
    1ca6:	177d                	addi	a4,a4,-1
    1ca8:	8f7d                	and	a4,a4,a5
    1caa:	29dc                	lbu	a5,20(a1)
    1cac:	17fd                	addi	a5,a5,-1
    1cae:	0ff7f793          	andi	a5,a5,255
    1cb2:	07d2                	slli	a5,a5,0x14
    1cb4:	8fd9                	or	a5,a5,a4
    1cb6:	d55c                	sw	a5,44(a0)
    1cb8:	8082                	ret

00001cba <ADC_Cmd>:
    1cba:	451c                	lw	a5,8(a0)
    1cbc:	c589                	beqz	a1,1cc6 <ADC_Cmd+0xc>
    1cbe:	0017e793          	ori	a5,a5,1
    1cc2:	c51c                	sw	a5,8(a0)
    1cc4:	8082                	ret
    1cc6:	9bf9                	andi	a5,a5,-2
    1cc8:	bfed                	j	1cc2 <ADC_Cmd+0x8>

00001cca <ADC_DMACmd>:
    1cca:	451c                	lw	a5,8(a0)
    1ccc:	c589                	beqz	a1,1cd6 <ADC_DMACmd+0xc>
    1cce:	1007e793          	ori	a5,a5,256
    1cd2:	c51c                	sw	a5,8(a0)
    1cd4:	8082                	ret
    1cd6:	eff7f793          	andi	a5,a5,-257
    1cda:	bfe5                	j	1cd2 <ADC_DMACmd+0x8>

00001cdc <ADC_ResetCalibration>:
    1cdc:	451c                	lw	a5,8(a0)
    1cde:	0087e793          	ori	a5,a5,8
    1ce2:	c51c                	sw	a5,8(a0)
    1ce4:	8082                	ret

00001ce6 <ADC_GetResetCalibrationStatus>:
    1ce6:	4508                	lw	a0,8(a0)
    1ce8:	810d                	srli	a0,a0,0x3
    1cea:	8905                	andi	a0,a0,1
    1cec:	8082                	ret

00001cee <ADC_StartCalibration>:
    1cee:	451c                	lw	a5,8(a0)
    1cf0:	0047e793          	ori	a5,a5,4
    1cf4:	c51c                	sw	a5,8(a0)
    1cf6:	8082                	ret

00001cf8 <ADC_GetCalibrationStatus>:
    1cf8:	4508                	lw	a0,8(a0)
    1cfa:	8109                	srli	a0,a0,0x2
    1cfc:	8905                	andi	a0,a0,1
    1cfe:	8082                	ret

00001d00 <ADC_SoftwareStartConvCmd>:
    1d00:	451c                	lw	a5,8(a0)
    1d02:	c591                	beqz	a1,1d0e <ADC_SoftwareStartConvCmd+0xe>
    1d04:	00500737          	lui	a4,0x500
    1d08:	8fd9                	or	a5,a5,a4
    1d0a:	c51c                	sw	a5,8(a0)
    1d0c:	8082                	ret
    1d0e:	ffb00737          	lui	a4,0xffb00
    1d12:	177d                	addi	a4,a4,-1
    1d14:	8ff9                	and	a5,a5,a4
    1d16:	bfd5                	j	1d0a <ADC_SoftwareStartConvCmd+0xa>

00001d18 <ADC_RegularChannelConfig>:
    1d18:	47a5                	li	a5,9
    1d1a:	04b7f763          	bgeu	a5,a1,1d68 <ADC_RegularChannelConfig+0x50>
    1d1e:	478d                	li	a5,3
    1d20:	ff658713          	addi	a4,a1,-10
    1d24:	02f70733          	mul	a4,a4,a5
    1d28:	00c52803          	lw	a6,12(a0)
    1d2c:	479d                	li	a5,7
    1d2e:	00e797b3          	sll	a5,a5,a4
    1d32:	fff7c793          	not	a5,a5
    1d36:	0107f7b3          	and	a5,a5,a6
    1d3a:	00e696b3          	sll	a3,a3,a4
    1d3e:	8edd                	or	a3,a3,a5
    1d40:	c554                	sw	a3,12(a0)
    1d42:	4799                	li	a5,6
    1d44:	04c7e363          	bltu	a5,a2,1d8a <ADC_RegularChannelConfig+0x72>
    1d48:	4795                	li	a5,5
    1d4a:	167d                	addi	a2,a2,-1
    1d4c:	02f60633          	mul	a2,a2,a5
    1d50:	5958                	lw	a4,52(a0)
    1d52:	47fd                	li	a5,31
    1d54:	00c797b3          	sll	a5,a5,a2
    1d58:	fff7c793          	not	a5,a5
    1d5c:	8ff9                	and	a5,a5,a4
    1d5e:	00c59633          	sll	a2,a1,a2
    1d62:	8e5d                	or	a2,a2,a5
    1d64:	d950                	sw	a2,52(a0)
    1d66:	8082                	ret
    1d68:	470d                	li	a4,3
    1d6a:	02e58733          	mul	a4,a1,a4
    1d6e:	01052803          	lw	a6,16(a0)
    1d72:	479d                	li	a5,7
    1d74:	00e797b3          	sll	a5,a5,a4
    1d78:	fff7c793          	not	a5,a5
    1d7c:	0107f7b3          	and	a5,a5,a6
    1d80:	00e696b3          	sll	a3,a3,a4
    1d84:	8edd                	or	a3,a3,a5
    1d86:	c914                	sw	a3,16(a0)
    1d88:	bf6d                	j	1d42 <ADC_RegularChannelConfig+0x2a>
    1d8a:	47b1                	li	a5,12
    1d8c:	02c7e263          	bltu	a5,a2,1db0 <ADC_RegularChannelConfig+0x98>
    1d90:	4795                	li	a5,5
    1d92:	1665                	addi	a2,a2,-7
    1d94:	02f60633          	mul	a2,a2,a5
    1d98:	5918                	lw	a4,48(a0)
    1d9a:	47fd                	li	a5,31
    1d9c:	00c797b3          	sll	a5,a5,a2
    1da0:	fff7c793          	not	a5,a5
    1da4:	8ff9                	and	a5,a5,a4
    1da6:	00c59633          	sll	a2,a1,a2
    1daa:	8e5d                	or	a2,a2,a5
    1dac:	d910                	sw	a2,48(a0)
    1dae:	8082                	ret
    1db0:	4795                	li	a5,5
    1db2:	164d                	addi	a2,a2,-13
    1db4:	02f60633          	mul	a2,a2,a5
    1db8:	5558                	lw	a4,44(a0)
    1dba:	47fd                	li	a5,31
    1dbc:	00c797b3          	sll	a5,a5,a2
    1dc0:	fff7c793          	not	a5,a5
    1dc4:	8ff9                	and	a5,a5,a4
    1dc6:	00c595b3          	sll	a1,a1,a2
    1dca:	8ddd                	or	a1,a1,a5
    1dcc:	d54c                	sw	a1,44(a0)
    1dce:	8082                	ret

00001dd0 <ADC_ExternalTrigConvCmd>:
    1dd0:	451c                	lw	a5,8(a0)
    1dd2:	c591                	beqz	a1,1dde <ADC_ExternalTrigConvCmd+0xe>
    1dd4:	00100737          	lui	a4,0x100
    1dd8:	8fd9                	or	a5,a5,a4
    1dda:	c51c                	sw	a5,8(a0)
    1ddc:	8082                	ret
    1dde:	fff00737          	lui	a4,0xfff00
    1de2:	177d                	addi	a4,a4,-1
    1de4:	8ff9                	and	a5,a5,a4
    1de6:	bfd5                	j	1dda <ADC_ExternalTrigConvCmd+0xa>

00001de8 <ADC_GetITStatus>:
    1de8:	4158                	lw	a4,4(a0)
    1dea:	4114                	lw	a3,0(a0)
    1dec:	0085d793          	srli	a5,a1,0x8
    1df0:	8ff5                	and	a5,a5,a3
    1df2:	c799                	beqz	a5,1e00 <ADC_GetITStatus+0x18>
    1df4:	0ff5f513          	andi	a0,a1,255
    1df8:	8d79                	and	a0,a0,a4
    1dfa:	00a03533          	snez	a0,a0
    1dfe:	8082                	ret
    1e00:	4501                	li	a0,0
    1e02:	8082                	ret

00001e04 <ADC_ClearITPendingBit>:
    1e04:	81a1                	srli	a1,a1,0x8
    1e06:	fff5c593          	not	a1,a1
    1e0a:	c10c                	sw	a1,0(a0)
    1e0c:	8082                	ret

00001e0e <ADC_BufferCmd>:
    1e0e:	415c                	lw	a5,4(a0)
    1e10:	c591                	beqz	a1,1e1c <ADC_BufferCmd+0xe>
    1e12:	04000737          	lui	a4,0x4000
    1e16:	8fd9                	or	a5,a5,a4
    1e18:	c15c                	sw	a5,4(a0)
    1e1a:	8082                	ret
    1e1c:	fc000737          	lui	a4,0xfc000
    1e20:	177d                	addi	a4,a4,-1
    1e22:	8ff9                	and	a5,a5,a4
    1e24:	bfd5                	j	1e18 <ADC_BufferCmd+0xa>

00001e26 <Get_CalibrationValue>:
    1e26:	ef8fe2ef          	jal	t0,51e <__riscv_save_0>
    1e2a:	1101                	addi	sp,sp,-32
    1e2c:	842a                	mv	s0,a0
    1e2e:	00010323          	sb	zero,6(sp)
    1e32:	44a5                	li	s1,9
    1e34:	831c                	lbu	a5,6(sp)
    1e36:	06f4fa63          	bgeu	s1,a5,1eaa <Get_CalibrationValue+0x84>
    1e3a:	00010323          	sb	zero,6(sp)
    1e3e:	46a5                	li	a3,9
    1e40:	4621                	li	a2,8
    1e42:	831c                	lbu	a5,6(sp)
    1e44:	08f6fe63          	bgeu	a3,a5,1ee0 <Get_CalibrationValue+0xba>
    1e48:	00011423          	sh	zero,8(sp)
    1e4c:	00011523          	sh	zero,10(sp)
    1e50:	00010323          	sb	zero,6(sp)
    1e54:	4695                	li	a3,5
    1e56:	60000613          	li	a2,1536
    1e5a:	831c                	lbu	a5,6(sp)
    1e5c:	0ef6fc63          	bgeu	a3,a5,1f54 <Get_CalibrationValue+0x12e>
    1e60:	831c                	lbu	a5,6(sp)
    1e62:	0ff7f793          	andi	a5,a5,255
    1e66:	12078263          	beqz	a5,1f8a <Get_CalibrationValue+0x164>
    1e6a:	8438                	lhu	a4,8(sp)
    1e6c:	8314                	lbu	a3,6(sp)
    1e6e:	843c                	lhu	a5,8(sp)
    1e70:	830c                	lbu	a1,6(sp)
    1e72:	8310                	lbu	a2,6(sp)
    1e74:	02d74733          	div	a4,a4,a3
    1e78:	02b7e7b3          	rem	a5,a5,a1
    1e7c:	0786                	slli	a5,a5,0x1
    1e7e:	02c7c7b3          	div	a5,a5,a2
    1e82:	97ba                	add	a5,a5,a4
    1e84:	07c2                	slli	a5,a5,0x10
    1e86:	83c1                	srli	a5,a5,0x10
    1e88:	847c                	sh	a5,8(sp)
    1e8a:	8318                	lbu	a4,6(sp)
    1e8c:	4799                	li	a5,6
    1e8e:	4695                	li	a3,5
    1e90:	8f99                	sub	a5,a5,a4
    1e92:	0ff7f793          	andi	a5,a5,255
    1e96:	83dc                	sb	a5,7(sp)
    1e98:	839c                	lbu	a5,7(sp)
    1e9a:	0ff7f793          	andi	a5,a5,255
    1e9e:	10079a63          	bnez	a5,1fb2 <Get_CalibrationValue+0x18c>
    1ea2:	6785                	lui	a5,0x1
    1ea4:	80078793          	addi	a5,a5,-2048 # 800 <__stack_size>
    1ea8:	a23d                	j	1fd6 <Get_CalibrationValue+0x1b0>
    1eaa:	441c                	lw	a5,8(s0)
    1eac:	0087e793          	ori	a5,a5,8
    1eb0:	c41c                	sw	a5,8(s0)
    1eb2:	8522                	mv	a0,s0
    1eb4:	3d0d                	jal	1ce6 <ADC_GetResetCalibrationStatus>
    1eb6:	fd75                	bnez	a0,1eb2 <Get_CalibrationValue+0x8c>
    1eb8:	441c                	lw	a5,8(s0)
    1eba:	0047e793          	ori	a5,a5,4
    1ebe:	c41c                	sw	a5,8(s0)
    1ec0:	8522                	mv	a0,s0
    1ec2:	3d1d                	jal	1cf8 <ADC_GetCalibrationStatus>
    1ec4:	fd75                	bnez	a0,1ec0 <Get_CalibrationValue+0x9a>
    1ec6:	4478                	lw	a4,76(s0)
    1ec8:	831c                	lbu	a5,6(sp)
    1eca:	1014                	addi	a3,sp,32
    1ecc:	0786                	slli	a5,a5,0x1
    1ece:	97b6                	add	a5,a5,a3
    1ed0:	fee79623          	sh	a4,-20(a5)
    1ed4:	831c                	lbu	a5,6(sp)
    1ed6:	0785                	addi	a5,a5,1
    1ed8:	0ff7f793          	andi	a5,a5,255
    1edc:	835c                	sb	a5,6(sp)
    1ede:	bf99                	j	1e34 <Get_CalibrationValue+0xe>
    1ee0:	000103a3          	sb	zero,7(sp)
    1ee4:	839c                	lbu	a5,7(sp)
    1ee6:	00f67863          	bgeu	a2,a5,1ef6 <Get_CalibrationValue+0xd0>
    1eea:	831c                	lbu	a5,6(sp)
    1eec:	0785                	addi	a5,a5,1
    1eee:	0ff7f793          	andi	a5,a5,255
    1ef2:	835c                	sb	a5,6(sp)
    1ef4:	b7b9                	j	1e42 <Get_CalibrationValue+0x1c>
    1ef6:	8398                	lbu	a4,7(sp)
    1ef8:	839c                	lbu	a5,7(sp)
    1efa:	100c                	addi	a1,sp,32
    1efc:	0706                	slli	a4,a4,0x1
    1efe:	0785                	addi	a5,a5,1
    1f00:	0786                	slli	a5,a5,0x1
    1f02:	972e                	add	a4,a4,a1
    1f04:	97ae                	add	a5,a5,a1
    1f06:	fec75703          	lhu	a4,-20(a4) # fbffffec <__freertos_irq_stack_top+0xdbffafec>
    1f0a:	fec7d783          	lhu	a5,-20(a5)
    1f0e:	02e7fd63          	bgeu	a5,a4,1f48 <Get_CalibrationValue+0x122>
    1f12:	839c                	lbu	a5,7(sp)
    1f14:	0786                	slli	a5,a5,0x1
    1f16:	97ae                	add	a5,a5,a1
    1f18:	fec7d783          	lhu	a5,-20(a5)
    1f1c:	847c                	sh	a5,8(sp)
    1f1e:	839c                	lbu	a5,7(sp)
    1f20:	8398                	lbu	a4,7(sp)
    1f22:	0785                	addi	a5,a5,1
    1f24:	0786                	slli	a5,a5,0x1
    1f26:	97ae                	add	a5,a5,a1
    1f28:	fec7d583          	lhu	a1,-20(a5)
    1f2c:	00171793          	slli	a5,a4,0x1
    1f30:	1018                	addi	a4,sp,32
    1f32:	97ba                	add	a5,a5,a4
    1f34:	feb79623          	sh	a1,-20(a5)
    1f38:	839c                	lbu	a5,7(sp)
    1f3a:	8438                	lhu	a4,8(sp)
    1f3c:	100c                	addi	a1,sp,32
    1f3e:	0785                	addi	a5,a5,1
    1f40:	0786                	slli	a5,a5,0x1
    1f42:	97ae                	add	a5,a5,a1
    1f44:	fee79623          	sh	a4,-20(a5)
    1f48:	839c                	lbu	a5,7(sp)
    1f4a:	0785                	addi	a5,a5,1
    1f4c:	0ff7f793          	andi	a5,a5,255
    1f50:	83dc                	sb	a5,7(sp)
    1f52:	bf49                	j	1ee4 <Get_CalibrationValue+0xbe>
    1f54:	831c                	lbu	a5,6(sp)
    1f56:	1018                	addi	a4,sp,32
    1f58:	0789                	addi	a5,a5,2
    1f5a:	0786                	slli	a5,a5,0x1
    1f5c:	97ba                	add	a5,a5,a4
    1f5e:	fec7d783          	lhu	a5,-20(a5)
    1f62:	eef66fe3          	bltu	a2,a5,1e60 <Get_CalibrationValue+0x3a>
    1f66:	831c                	lbu	a5,6(sp)
    1f68:	100c                	addi	a1,sp,32
    1f6a:	8438                	lhu	a4,8(sp)
    1f6c:	0789                	addi	a5,a5,2
    1f6e:	0786                	slli	a5,a5,0x1
    1f70:	97ae                	add	a5,a5,a1
    1f72:	fec7d783          	lhu	a5,-20(a5)
    1f76:	97ba                	add	a5,a5,a4
    1f78:	07c2                	slli	a5,a5,0x10
    1f7a:	83c1                	srli	a5,a5,0x10
    1f7c:	847c                	sh	a5,8(sp)
    1f7e:	831c                	lbu	a5,6(sp)
    1f80:	0785                	addi	a5,a5,1
    1f82:	0ff7f793          	andi	a5,a5,255
    1f86:	835c                	sb	a5,6(sp)
    1f88:	bdc9                	j	1e5a <Get_CalibrationValue+0x34>
    1f8a:	40000793          	li	a5,1024
    1f8e:	bded                	j	1e88 <Get_CalibrationValue+0x62>
    1f90:	831c                	lbu	a5,6(sp)
    1f92:	1010                	addi	a2,sp,32
    1f94:	8538                	lhu	a4,10(sp)
    1f96:	0789                	addi	a5,a5,2
    1f98:	0786                	slli	a5,a5,0x1
    1f9a:	97b2                	add	a5,a5,a2
    1f9c:	fec7d783          	lhu	a5,-20(a5)
    1fa0:	97ba                	add	a5,a5,a4
    1fa2:	07c2                	slli	a5,a5,0x10
    1fa4:	83c1                	srli	a5,a5,0x10
    1fa6:	857c                	sh	a5,10(sp)
    1fa8:	831c                	lbu	a5,6(sp)
    1faa:	0785                	addi	a5,a5,1
    1fac:	0ff7f793          	andi	a5,a5,255
    1fb0:	835c                	sb	a5,6(sp)
    1fb2:	831c                	lbu	a5,6(sp)
    1fb4:	fcf6fee3          	bgeu	a3,a5,1f90 <Get_CalibrationValue+0x16a>
    1fb8:	8538                	lhu	a4,10(sp)
    1fba:	8394                	lbu	a3,7(sp)
    1fbc:	853c                	lhu	a5,10(sp)
    1fbe:	838c                	lbu	a1,7(sp)
    1fc0:	8390                	lbu	a2,7(sp)
    1fc2:	02d74733          	div	a4,a4,a3
    1fc6:	02b7e7b3          	rem	a5,a5,a1
    1fca:	0786                	slli	a5,a5,0x1
    1fcc:	02c7c7b3          	div	a5,a5,a2
    1fd0:	97ba                	add	a5,a5,a4
    1fd2:	07c2                	slli	a5,a5,0x10
    1fd4:	83c1                	srli	a5,a5,0x10
    1fd6:	857c                	sh	a5,10(sp)
    1fd8:	8428                	lhu	a0,8(sp)
    1fda:	8534                	lhu	a3,10(sp)
    1fdc:	842c                	lhu	a1,8(sp)
    1fde:	8530                	lhu	a2,10(sp)
    1fe0:	6705                	lui	a4,0x1
    1fe2:	40000793          	li	a5,1024
    1fe6:	80070713          	addi	a4,a4,-2048 # 800 <__stack_size>
    1fea:	40a78533          	sub	a0,a5,a0
    1fee:	40d706b3          	sub	a3,a4,a3
    1ff2:	8f8d                	sub	a5,a5,a1
    1ff4:	8f11                	sub	a4,a4,a2
    1ff6:	0542                	slli	a0,a0,0x10
    1ff8:	06c2                	slli	a3,a3,0x10
    1ffa:	07c2                	slli	a5,a5,0x10
    1ffc:	0742                	slli	a4,a4,0x10
    1ffe:	86c1                	srai	a3,a3,0x10
    2000:	8741                	srai	a4,a4,0x10
    2002:	8541                	srai	a0,a0,0x10
    2004:	87c1                	srai	a5,a5,0x10
    2006:	9536                	add	a0,a0,a3
    2008:	97ba                	add	a5,a5,a4
    200a:	4689                	li	a3,2
    200c:	02d54533          	div	a0,a0,a3
    2010:	6105                	addi	sp,sp,32
    2012:	02d7e7b3          	rem	a5,a5,a3
    2016:	953e                	add	a0,a0,a5
    2018:	0542                	slli	a0,a0,0x10
    201a:	8541                	srai	a0,a0,0x10
    201c:	d26fe06f          	j	542 <__riscv_restore_0>

00002020 <BKP_DeInit>:
    2020:	cfefe2ef          	jal	t0,51e <__riscv_save_0>
    2024:	4505                	li	a0,1
    2026:	04d000ef          	jal	ra,2872 <RCC_BackupResetCmd>
    202a:	4501                	li	a0,0
    202c:	047000ef          	jal	ra,2872 <RCC_BackupResetCmd>
    2030:	d12fe06f          	j	542 <__riscv_restore_0>

00002034 <CAN_GetFlagStatus>:
    2034:	00f007b7          	lui	a5,0xf00
    2038:	8fed                	and	a5,a5,a1
    203a:	cb89                	beqz	a5,204c <CAN_GetFlagStatus+0x18>
    203c:	4d10                	lw	a2,24(a0)
    203e:	00b67533          	and	a0,a2,a1
    2042:	0532                	slli	a0,a0,0xc
    2044:	8131                	srli	a0,a0,0xc
    2046:	00a03533          	snez	a0,a0
    204a:	8082                	ret
    204c:	00759793          	slli	a5,a1,0x7
    2050:	0007d663          	bgez	a5,205c <CAN_GetFlagStatus+0x28>
    2054:	4154                	lw	a3,4(a0)
    2056:	00b6f533          	and	a0,a3,a1
    205a:	b7e5                	j	2042 <CAN_GetFlagStatus+0xe>
    205c:	00459793          	slli	a5,a1,0x4
    2060:	0007d563          	bgez	a5,206a <CAN_GetFlagStatus+0x36>
    2064:	4508                	lw	a0,8(a0)
    2066:	8d6d                	and	a0,a0,a1
    2068:	bfe9                	j	2042 <CAN_GetFlagStatus+0xe>
    206a:	001006b7          	lui	a3,0x100
    206e:	00659793          	slli	a5,a1,0x6
    2072:	16fd                	addi	a3,a3,-1
    2074:	0007d763          	bgez	a5,2082 <CAN_GetFlagStatus+0x4e>
    2078:	4558                	lw	a4,12(a0)
    207a:	00b77533          	and	a0,a4,a1
    207e:	8d75                	and	a0,a0,a3
    2080:	b7d9                	j	2046 <CAN_GetFlagStatus+0x12>
    2082:	491c                	lw	a5,16(a0)
    2084:	00b7f533          	and	a0,a5,a1
    2088:	bfdd                	j	207e <CAN_GetFlagStatus+0x4a>

0000208a <CAN_ClearFlag>:
    208a:	30f007b7          	lui	a5,0x30f00
    208e:	07078793          	addi	a5,a5,112 # 30f00070 <__freertos_irq_stack_top+0x10efb070>
    2092:	00f59563          	bne	a1,a5,209c <CAN_ClearFlag+0x12>
    2096:	00052c23          	sw	zero,24(a0)
    209a:	8082                	ret
    209c:	00c59793          	slli	a5,a1,0xc
    20a0:	00659713          	slli	a4,a1,0x6
    20a4:	83b1                	srli	a5,a5,0xc
    20a6:	00075463          	bgez	a4,20ae <CAN_ClearFlag+0x24>
    20aa:	c55c                	sw	a5,12(a0)
    20ac:	8082                	ret
    20ae:	00559713          	slli	a4,a1,0x5
    20b2:	00075463          	bgez	a4,20ba <CAN_ClearFlag+0x30>
    20b6:	c91c                	sw	a5,16(a0)
    20b8:	8082                	ret
    20ba:	00459713          	slli	a4,a1,0x4
    20be:	00075463          	bgez	a4,20c6 <CAN_ClearFlag+0x3c>
    20c2:	c51c                	sw	a5,8(a0)
    20c4:	8082                	ret
    20c6:	c15c                	sw	a5,4(a0)
    20c8:	8082                	ret

000020ca <CAN_ClearITPendingBit>:
    20ca:	10000793          	li	a5,256
    20ce:	06f58663          	beq	a1,a5,213a <CAN_ClearITPendingBit+0x70>
    20d2:	02b7e763          	bltu	a5,a1,2100 <CAN_ClearITPendingBit+0x36>
    20d6:	47a1                	li	a5,8
    20d8:	06f58863          	beq	a1,a5,2148 <CAN_ClearITPendingBit+0x7e>
    20dc:	00b7e963          	bltu	a5,a1,20ee <CAN_ClearITPendingBit+0x24>
    20e0:	4705                	li	a4,1
    20e2:	04e58e63          	beq	a1,a4,213e <CAN_ClearITPendingBit+0x74>
    20e6:	4711                	li	a4,4
    20e8:	06e58163          	beq	a1,a4,214a <CAN_ClearITPendingBit+0x80>
    20ec:	8082                	ret
    20ee:	02000713          	li	a4,32
    20f2:	04e58f63          	beq	a1,a4,2150 <CAN_ClearITPendingBit+0x86>
    20f6:	04000793          	li	a5,64
    20fa:	04f58a63          	beq	a1,a5,214e <CAN_ClearITPendingBit+0x84>
    20fe:	8082                	ret
    2100:	80058793          	addi	a5,a1,-2048
    2104:	cb8d                	beqz	a5,2136 <CAN_ClearITPendingBit+0x6c>
    2106:	6785                	lui	a5,0x1
    2108:	80078793          	addi	a5,a5,-2048 # 800 <__stack_size>
    210c:	00b7eb63          	bltu	a5,a1,2122 <CAN_ClearITPendingBit+0x58>
    2110:	20000793          	li	a5,512
    2114:	02f58363          	beq	a1,a5,213a <CAN_ClearITPendingBit+0x70>
    2118:	40000793          	li	a5,1024
    211c:	00f58f63          	beq	a1,a5,213a <CAN_ClearITPendingBit+0x70>
    2120:	8082                	ret
    2122:	67c1                	lui	a5,0x10
    2124:	02f58863          	beq	a1,a5,2154 <CAN_ClearITPendingBit+0x8a>
    2128:	000207b7          	lui	a5,0x20
    212c:	02f58763          	beq	a1,a5,215a <CAN_ClearITPendingBit+0x90>
    2130:	67a1                	lui	a5,0x8
    2132:	02f59363          	bne	a1,a5,2158 <CAN_ClearITPendingBit+0x8e>
    2136:	00052c23          	sw	zero,24(a0)
    213a:	4791                	li	a5,4
    213c:	a829                	j	2156 <CAN_ClearITPendingBit+0x8c>
    213e:	67c1                	lui	a5,0x10
    2140:	10178793          	addi	a5,a5,257 # 10101 <_data_lma+0x7499>
    2144:	c51c                	sw	a5,8(a0)
    2146:	8082                	ret
    2148:	47c1                	li	a5,16
    214a:	c55c                	sw	a5,12(a0)
    214c:	8082                	ret
    214e:	47c1                	li	a5,16
    2150:	c91c                	sw	a5,16(a0)
    2152:	8082                	ret
    2154:	47a1                	li	a5,8
    2156:	c15c                	sw	a5,4(a0)
    2158:	8082                	ret
    215a:	47c1                	li	a5,16
    215c:	bfed                	j	2156 <CAN_ClearITPendingBit+0x8c>

0000215e <DMA_Init>:
    215e:	411c                	lw	a5,0(a0)
    2160:	7761                	lui	a4,0xffff8
    2162:	073d                	addi	a4,a4,15
    2164:	5194                	lw	a3,32(a1)
    2166:	8f7d                	and	a4,a4,a5
    2168:	459c                	lw	a5,8(a1)
    216a:	8fd5                	or	a5,a5,a3
    216c:	4994                	lw	a3,16(a1)
    216e:	8fd5                	or	a5,a5,a3
    2170:	49d4                	lw	a3,20(a1)
    2172:	8fd5                	or	a5,a5,a3
    2174:	4d94                	lw	a3,24(a1)
    2176:	8fd5                	or	a5,a5,a3
    2178:	4dd4                	lw	a3,28(a1)
    217a:	8fd5                	or	a5,a5,a3
    217c:	51d4                	lw	a3,36(a1)
    217e:	8fd5                	or	a5,a5,a3
    2180:	5594                	lw	a3,40(a1)
    2182:	8fd5                	or	a5,a5,a3
    2184:	8fd9                	or	a5,a5,a4
    2186:	c11c                	sw	a5,0(a0)
    2188:	45dc                	lw	a5,12(a1)
    218a:	c15c                	sw	a5,4(a0)
    218c:	419c                	lw	a5,0(a1)
    218e:	c51c                	sw	a5,8(a0)
    2190:	41dc                	lw	a5,4(a1)
    2192:	c55c                	sw	a5,12(a0)
    2194:	8082                	ret

00002196 <DMA_Cmd>:
    2196:	411c                	lw	a5,0(a0)
    2198:	c589                	beqz	a1,21a2 <DMA_Cmd+0xc>
    219a:	0017e793          	ori	a5,a5,1
    219e:	c11c                	sw	a5,0(a0)
    21a0:	8082                	ret
    21a2:	6741                	lui	a4,0x10
    21a4:	1779                	addi	a4,a4,-2
    21a6:	8ff9                	and	a5,a5,a4
    21a8:	bfdd                	j	219e <DMA_Cmd+0x8>

000021aa <DMA_ITConfig>:
    21aa:	411c                	lw	a5,0(a0)
    21ac:	c601                	beqz	a2,21b4 <DMA_ITConfig+0xa>
    21ae:	8ddd                	or	a1,a1,a5
    21b0:	c10c                	sw	a1,0(a0)
    21b2:	8082                	ret
    21b4:	fff5c593          	not	a1,a1
    21b8:	8dfd                	and	a1,a1,a5
    21ba:	bfdd                	j	21b0 <DMA_ITConfig+0x6>

000021bc <DMA_SetCurrDataCounter>:
    21bc:	c14c                	sw	a1,4(a0)
    21be:	8082                	ret

000021c0 <DMA_GetFlagStatus>:
    21c0:	400207b7          	lui	a5,0x40020
    21c4:	439c                	lw	a5,0(a5)
    21c6:	8d7d                	and	a0,a0,a5
    21c8:	00a03533          	snez	a0,a0
    21cc:	8082                	ret

000021ce <DMA_GetITStatus>:
    21ce:	b50fe2ef          	jal	t0,51e <__riscv_save_0>
    21d2:	37fd                	jal	21c0 <DMA_GetFlagStatus>
    21d4:	b6efe06f          	j	542 <__riscv_restore_0>

000021d8 <DMA_ClearITPendingBit>:
    21d8:	400207b7          	lui	a5,0x40020
    21dc:	c3c8                	sw	a0,4(a5)
    21de:	8082                	ret

000021e0 <GPIO_Init>:
    21e0:	459c                	lw	a5,8(a1)
    21e2:	0107f713          	andi	a4,a5,16
    21e6:	00f7f813          	andi	a6,a5,15
    21ea:	c701                	beqz	a4,21f2 <GPIO_Init+0x12>
    21ec:	41d8                	lw	a4,4(a1)
    21ee:	00e86833          	or	a6,a6,a4
    21f2:	40022737          	lui	a4,0x40022
    21f6:	5b14                	lw	a3,48(a4)
    21f8:	0f000737          	lui	a4,0xf000
    21fc:	8f75                	and	a4,a4,a3
    21fe:	eb5d                	bnez	a4,22b4 <GPIO_Init+0xd4>
    2200:	20000737          	lui	a4,0x20000
    2204:	4685                	li	a3,1
    2206:	5ed70223          	sb	a3,1508(a4) # 200005e4 <MCU_Version>
    220a:	40011737          	lui	a4,0x40011
    220e:	00e51563          	bne	a0,a4,2218 <GPIO_Init+0x38>
    2212:	219a                	lhu	a4,0(a1)
    2214:	8335                	srli	a4,a4,0xd
    2216:	a19a                	sh	a4,0(a1)
    2218:	218e                	lhu	a1,0(a1)
    221a:	0ff5f713          	andi	a4,a1,255
    221e:	c339                	beqz	a4,2264 <GPIO_Init+0x84>
    2220:	4118                	lw	a4,0(a0)
    2222:	4681                	li	a3,0
    2224:	4e85                	li	t4,1
    2226:	4f3d                	li	t5,15
    2228:	02800f93          	li	t6,40
    222c:	04800293          	li	t0,72
    2230:	4e21                	li	t3,8
    2232:	00de9633          	sll	a2,t4,a3
    2236:	00c5f8b3          	and	a7,a1,a2
    223a:	03161163          	bne	a2,a7,225c <GPIO_Init+0x7c>
    223e:	00269893          	slli	a7,a3,0x2
    2242:	011f1333          	sll	t1,t5,a7
    2246:	fff34313          	not	t1,t1
    224a:	00e37733          	and	a4,t1,a4
    224e:	011818b3          	sll	a7,a6,a7
    2252:	00e8e733          	or	a4,a7,a4
    2256:	07f79963          	bne	a5,t6,22c8 <GPIO_Init+0xe8>
    225a:	c950                	sw	a2,20(a0)
    225c:	0685                	addi	a3,a3,1
    225e:	fdc69ae3          	bne	a3,t3,2232 <GPIO_Init+0x52>
    2262:	c118                	sw	a4,0(a0)
    2264:	0ff00713          	li	a4,255
    2268:	04b77563          	bgeu	a4,a1,22b2 <GPIO_Init+0xd2>
    226c:	4154                	lw	a3,4(a0)
    226e:	4621                	li	a2,8
    2270:	4e85                	li	t4,1
    2272:	4f3d                	li	t5,15
    2274:	02800f93          	li	t6,40
    2278:	04800293          	li	t0,72
    227c:	4e41                	li	t3,16
    227e:	00ce98b3          	sll	a7,t4,a2
    2282:	0115f733          	and	a4,a1,a7
    2286:	02e89263          	bne	a7,a4,22aa <GPIO_Init+0xca>
    228a:	00261713          	slli	a4,a2,0x2
    228e:	1701                	addi	a4,a4,-32
    2290:	00ef1333          	sll	t1,t5,a4
    2294:	fff34313          	not	t1,t1
    2298:	00d376b3          	and	a3,t1,a3
    229c:	00e81733          	sll	a4,a6,a4
    22a0:	8ed9                	or	a3,a3,a4
    22a2:	03f79763          	bne	a5,t6,22d0 <GPIO_Init+0xf0>
    22a6:	01152a23          	sw	a7,20(a0)
    22aa:	0605                	addi	a2,a2,1
    22ac:	fdc619e3          	bne	a2,t3,227e <GPIO_Init+0x9e>
    22b0:	c154                	sw	a3,4(a0)
    22b2:	8082                	ret
    22b4:	40011737          	lui	a4,0x40011
    22b8:	f6e510e3          	bne	a0,a4,2218 <GPIO_Init+0x38>
    22bc:	20000737          	lui	a4,0x20000
    22c0:	5e474703          	lbu	a4,1508(a4) # 200005e4 <MCU_Version>
    22c4:	db31                	beqz	a4,2218 <GPIO_Init+0x38>
    22c6:	b7b1                	j	2212 <GPIO_Init+0x32>
    22c8:	f8579ae3          	bne	a5,t0,225c <GPIO_Init+0x7c>
    22cc:	c910                	sw	a2,16(a0)
    22ce:	b779                	j	225c <GPIO_Init+0x7c>
    22d0:	fc579de3          	bne	a5,t0,22aa <GPIO_Init+0xca>
    22d4:	01152823          	sw	a7,16(a0)
    22d8:	bfc9                	j	22aa <GPIO_Init+0xca>

000022da <GPIO_SetBits>:
    22da:	400117b7          	lui	a5,0x40011
    22de:	00f51863          	bne	a0,a5,22ee <GPIO_SetBits+0x14>
    22e2:	200007b7          	lui	a5,0x20000
    22e6:	5e47c783          	lbu	a5,1508(a5) # 200005e4 <MCU_Version>
    22ea:	c391                	beqz	a5,22ee <GPIO_SetBits+0x14>
    22ec:	81b5                	srli	a1,a1,0xd
    22ee:	c90c                	sw	a1,16(a0)
    22f0:	8082                	ret

000022f2 <GPIO_ResetBits>:
    22f2:	400117b7          	lui	a5,0x40011
    22f6:	00f51863          	bne	a0,a5,2306 <GPIO_ResetBits+0x14>
    22fa:	200007b7          	lui	a5,0x20000
    22fe:	5e47c783          	lbu	a5,1508(a5) # 200005e4 <MCU_Version>
    2302:	c391                	beqz	a5,2306 <GPIO_ResetBits+0x14>
    2304:	81b5                	srli	a1,a1,0xd
    2306:	c94c                	sw	a1,20(a0)
    2308:	8082                	ret

0000230a <GPIO_PinRemapConfig>:
    230a:	400107b7          	lui	a5,0x40010
    230e:	04055a63          	bgez	a0,2362 <GPIO_PinRemapConfig+0x58>
    2312:	4fdc                	lw	a5,28(a5)
    2314:	01055693          	srli	a3,a0,0x10
    2318:	01051813          	slli	a6,a0,0x10
    231c:	00300737          	lui	a4,0x300
    2320:	00f6f613          	andi	a2,a3,15
    2324:	01085813          	srli	a6,a6,0x10
    2328:	00e576b3          	and	a3,a0,a4
    232c:	06055e63          	bgez	a0,23a8 <GPIO_PinRemapConfig+0x9e>
    2330:	04e69963          	bne	a3,a4,2382 <GPIO_PinRemapConfig+0x78>
    2334:	01060693          	addi	a3,a2,16 # 10010 <_data_lma+0x73a8>
    2338:	460d                	li	a2,3
    233a:	00d616b3          	sll	a3,a2,a3
    233e:	fff6c693          	not	a3,a3
    2342:	8ff5                	and	a5,a5,a3
    2344:	c999                	beqz	a1,235a <GPIO_PinRemapConfig+0x50>
    2346:	01555713          	srli	a4,a0,0x15
    234a:	3ff77713          	andi	a4,a4,1023
    234e:	0712                	slli	a4,a4,0x4
    2350:	00e81733          	sll	a4,a6,a4
    2354:	8fd9                	or	a5,a5,a4
    2356:	06055563          	bgez	a0,23c0 <GPIO_PinRemapConfig+0xb6>
    235a:	40010737          	lui	a4,0x40010
    235e:	cf5c                	sw	a5,28(a4)
    2360:	8082                	ret
    2362:	40022737          	lui	a4,0x40022
    2366:	5b14                	lw	a3,48(a4)
    2368:	43dc                	lw	a5,4(a5)
    236a:	0f000737          	lui	a4,0xf000
    236e:	8f75                	and	a4,a4,a3
    2370:	f355                	bnez	a4,2314 <GPIO_PinRemapConfig+0xa>
    2372:	0017d713          	srli	a4,a5,0x1
    2376:	76f9                	lui	a3,0xffffe
    2378:	07ce                	slli	a5,a5,0x13
    237a:	8f75                	and	a4,a4,a3
    237c:	83cd                	srli	a5,a5,0x13
    237e:	8fd9                	or	a5,a5,a4
    2380:	bf51                	j	2314 <GPIO_PinRemapConfig+0xa>
    2382:	00b51713          	slli	a4,a0,0xb
    2386:	00075663          	bgez	a4,2392 <GPIO_PinRemapConfig+0x88>
    238a:	468d                	li	a3,3
    238c:	00c696b3          	sll	a3,a3,a2
    2390:	b77d                	j	233e <GPIO_PinRemapConfig+0x34>
    2392:	01555713          	srli	a4,a0,0x15
    2396:	3ff77713          	andi	a4,a4,1023
    239a:	0712                	slli	a4,a4,0x4
    239c:	00e81733          	sll	a4,a6,a4
    23a0:	fff74713          	not	a4,a4
    23a4:	8ff9                	and	a5,a5,a4
    23a6:	bf79                	j	2344 <GPIO_PinRemapConfig+0x3a>
    23a8:	02e69063          	bne	a3,a4,23c8 <GPIO_PinRemapConfig+0xbe>
    23ac:	40010637          	lui	a2,0x40010
    23b0:	4254                	lw	a3,4(a2)
    23b2:	f1000737          	lui	a4,0xf1000
    23b6:	177d                	addi	a4,a4,-1
    23b8:	8ff9                	and	a5,a5,a4
    23ba:	8f75                	and	a4,a4,a3
    23bc:	c258                	sw	a4,4(a2)
    23be:	f5c1                	bnez	a1,2346 <GPIO_PinRemapConfig+0x3c>
    23c0:	40010737          	lui	a4,0x40010
    23c4:	c35c                	sw	a5,4(a4)
    23c6:	8082                	ret
    23c8:	00b51713          	slli	a4,a0,0xb
    23cc:	00075c63          	bgez	a4,23e4 <GPIO_PinRemapConfig+0xda>
    23d0:	468d                	li	a3,3
    23d2:	00c696b3          	sll	a3,a3,a2
    23d6:	fff6c693          	not	a3,a3
    23da:	8efd                	and	a3,a3,a5
    23dc:	0f0007b7          	lui	a5,0xf000
    23e0:	8fd5                	or	a5,a5,a3
    23e2:	bff1                	j	23be <GPIO_PinRemapConfig+0xb4>
    23e4:	01555713          	srli	a4,a0,0x15
    23e8:	0712                	slli	a4,a4,0x4
    23ea:	00e81733          	sll	a4,a6,a4
    23ee:	fff74713          	not	a4,a4
    23f2:	8f7d                	and	a4,a4,a5
    23f4:	0f0007b7          	lui	a5,0xf000
    23f8:	8fd9                	or	a5,a5,a4
    23fa:	b7d1                	j	23be <GPIO_PinRemapConfig+0xb4>

000023fc <I2C_Init>:
    23fc:	922fe2ef          	jal	t0,51e <__riscv_save_0>
    2400:	7179                	addi	sp,sp,-48
    2402:	842a                	mv	s0,a0
    2404:	2146                	lhu	s1,4(a0)
    2406:	0868                	addi	a0,sp,28
    2408:	c62e                	sw	a1,12(sp)
    240a:	2e11                	jal	271e <RCC_GetClocksFreq>
    240c:	5792                	lw	a5,36(sp)
    240e:	000f4737          	lui	a4,0xf4
    2412:	24070713          	addi	a4,a4,576 # f4240 <_data_lma+0xeb5d8>
    2416:	02e7d733          	divu	a4,a5,a4
    241a:	04c2                	slli	s1,s1,0x10
    241c:	80c1                	srli	s1,s1,0x10
    241e:	fc04f493          	andi	s1,s1,-64
    2422:	04c2                	slli	s1,s1,0x10
    2424:	80c1                	srli	s1,s1,0x10
    2426:	45b2                	lw	a1,12(sp)
    2428:	6561                	lui	a0,0x18
    242a:	6a050513          	addi	a0,a0,1696 # 186a0 <_data_lma+0xfa38>
    242e:	01071613          	slli	a2,a4,0x10
    2432:	8241                	srli	a2,a2,0x10
    2434:	8cd1                	or	s1,s1,a2
    2436:	a046                	sh	s1,4(s0)
    2438:	2016                	lhu	a3,0(s0)
    243a:	06c2                	slli	a3,a3,0x10
    243c:	82c1                	srli	a3,a3,0x10
    243e:	9af9                	andi	a3,a3,-2
    2440:	06c2                	slli	a3,a3,0x10
    2442:	82c1                	srli	a3,a3,0x10
    2444:	a016                	sh	a3,0(s0)
    2446:	4194                	lw	a3,0(a1)
    2448:	04d56963          	bltu	a0,a3,249a <I2C_Init+0x9e>
    244c:	0686                	slli	a3,a3,0x1
    244e:	02d7d7b3          	divu	a5,a5,a3
    2452:	4691                	li	a3,4
    2454:	01079713          	slli	a4,a5,0x10
    2458:	8341                	srli	a4,a4,0x10
    245a:	87ba                	mv	a5,a4
    245c:	00d77363          	bgeu	a4,a3,2462 <I2C_Init+0x66>
    2460:	4791                	li	a5,4
    2462:	0605                	addi	a2,a2,1
    2464:	0642                	slli	a2,a2,0x10
    2466:	07c2                	slli	a5,a5,0x10
    2468:	8241                	srli	a2,a2,0x10
    246a:	83c1                	srli	a5,a5,0x10
    246c:	b012                	sh	a2,32(s0)
    246e:	ac5e                	sh	a5,28(s0)
    2470:	201e                	lhu	a5,0(s0)
    2472:	21da                	lhu	a4,4(a1)
    2474:	25b6                	lhu	a3,10(a1)
    2476:	0017e793          	ori	a5,a5,1
    247a:	a01e                	sh	a5,0(s0)
    247c:	201e                	lhu	a5,0(s0)
    247e:	8f55                	or	a4,a4,a3
    2480:	07c2                	slli	a5,a5,0x10
    2482:	83c1                	srli	a5,a5,0x10
    2484:	bf57f793          	andi	a5,a5,-1035
    2488:	8fd9                	or	a5,a5,a4
    248a:	a01e                	sh	a5,0(s0)
    248c:	259a                	lhu	a4,8(a1)
    248e:	25de                	lhu	a5,12(a1)
    2490:	8fd9                	or	a5,a5,a4
    2492:	a41e                	sh	a5,8(s0)
    2494:	6145                	addi	sp,sp,48
    2496:	8acfe06f          	j	542 <__riscv_restore_0>
    249a:	21ea                	lhu	a0,6(a1)
    249c:	6631                	lui	a2,0xc
    249e:	167d                	addi	a2,a2,-1
    24a0:	02c51d63          	bne	a0,a2,24da <I2C_Init+0xde>
    24a4:	460d                	li	a2,3
    24a6:	02c686b3          	mul	a3,a3,a2
    24aa:	02d7d7b3          	divu	a5,a5,a3
    24ae:	07c2                	slli	a5,a5,0x10
    24b0:	83c1                	srli	a5,a5,0x10
    24b2:	01479693          	slli	a3,a5,0x14
    24b6:	e299                	bnez	a3,24bc <I2C_Init+0xc0>
    24b8:	0017e793          	ori	a5,a5,1
    24bc:	66a1                	lui	a3,0x8
    24be:	8fd5                	or	a5,a5,a3
    24c0:	12c00693          	li	a3,300
    24c4:	02d70733          	mul	a4,a4,a3
    24c8:	3e800693          	li	a3,1000
    24cc:	02d74733          	div	a4,a4,a3
    24d0:	0705                	addi	a4,a4,1
    24d2:	0742                	slli	a4,a4,0x10
    24d4:	8341                	srli	a4,a4,0x10
    24d6:	b01a                	sh	a4,32(s0)
    24d8:	bf59                	j	246e <I2C_Init+0x72>
    24da:	4665                	li	a2,25
    24dc:	02c686b3          	mul	a3,a3,a2
    24e0:	02d7d7b3          	divu	a5,a5,a3
    24e4:	6691                	lui	a3,0x4
    24e6:	07c2                	slli	a5,a5,0x10
    24e8:	83c1                	srli	a5,a5,0x10
    24ea:	8fd5                	or	a5,a5,a3
    24ec:	b7d9                	j	24b2 <I2C_Init+0xb6>

000024ee <I2C_Cmd>:
    24ee:	211e                	lhu	a5,0(a0)
    24f0:	c589                	beqz	a1,24fa <I2C_Cmd+0xc>
    24f2:	0017e793          	ori	a5,a5,1
    24f6:	a11e                	sh	a5,0(a0)
    24f8:	8082                	ret
    24fa:	07c2                	slli	a5,a5,0x10
    24fc:	83c1                	srli	a5,a5,0x10
    24fe:	9bf9                	andi	a5,a5,-2
    2500:	07c2                	slli	a5,a5,0x10
    2502:	83c1                	srli	a5,a5,0x10
    2504:	bfcd                	j	24f6 <I2C_Cmd+0x8>

00002506 <I2C_GenerateSTART>:
    2506:	211e                	lhu	a5,0(a0)
    2508:	c589                	beqz	a1,2512 <I2C_GenerateSTART+0xc>
    250a:	1007e793          	ori	a5,a5,256
    250e:	a11e                	sh	a5,0(a0)
    2510:	8082                	ret
    2512:	07c2                	slli	a5,a5,0x10
    2514:	83c1                	srli	a5,a5,0x10
    2516:	eff7f793          	andi	a5,a5,-257
    251a:	07c2                	slli	a5,a5,0x10
    251c:	83c1                	srli	a5,a5,0x10
    251e:	bfc5                	j	250e <I2C_GenerateSTART+0x8>

00002520 <I2C_GenerateSTOP>:
    2520:	211e                	lhu	a5,0(a0)
    2522:	c589                	beqz	a1,252c <I2C_GenerateSTOP+0xc>
    2524:	2007e793          	ori	a5,a5,512
    2528:	a11e                	sh	a5,0(a0)
    252a:	8082                	ret
    252c:	07c2                	slli	a5,a5,0x10
    252e:	83c1                	srli	a5,a5,0x10
    2530:	dff7f793          	andi	a5,a5,-513
    2534:	07c2                	slli	a5,a5,0x10
    2536:	83c1                	srli	a5,a5,0x10
    2538:	bfc5                	j	2528 <I2C_GenerateSTOP+0x8>

0000253a <I2C_AcknowledgeConfig>:
    253a:	211e                	lhu	a5,0(a0)
    253c:	c589                	beqz	a1,2546 <I2C_AcknowledgeConfig+0xc>
    253e:	4007e793          	ori	a5,a5,1024
    2542:	a11e                	sh	a5,0(a0)
    2544:	8082                	ret
    2546:	07c2                	slli	a5,a5,0x10
    2548:	83c1                	srli	a5,a5,0x10
    254a:	bff7f793          	andi	a5,a5,-1025
    254e:	07c2                	slli	a5,a5,0x10
    2550:	83c1                	srli	a5,a5,0x10
    2552:	bfc5                	j	2542 <I2C_AcknowledgeConfig+0x8>

00002554 <I2C_DualAddressCmd>:
    2554:	255e                	lhu	a5,12(a0)
    2556:	c589                	beqz	a1,2560 <I2C_DualAddressCmd+0xc>
    2558:	0017e793          	ori	a5,a5,1
    255c:	a55e                	sh	a5,12(a0)
    255e:	8082                	ret
    2560:	07c2                	slli	a5,a5,0x10
    2562:	83c1                	srli	a5,a5,0x10
    2564:	9bf9                	andi	a5,a5,-2
    2566:	07c2                	slli	a5,a5,0x10
    2568:	83c1                	srli	a5,a5,0x10
    256a:	bfcd                	j	255c <I2C_DualAddressCmd+0x8>

0000256c <I2C_ITConfig>:
    256c:	215e                	lhu	a5,4(a0)
    256e:	c601                	beqz	a2,2576 <I2C_ITConfig+0xa>
    2570:	8ddd                	or	a1,a1,a5
    2572:	a14e                	sh	a1,4(a0)
    2574:	8082                	ret
    2576:	fff5c593          	not	a1,a1
    257a:	8dfd                	and	a1,a1,a5
    257c:	bfdd                	j	2572 <I2C_ITConfig+0x6>

0000257e <I2C_SendData>:
    257e:	a90e                	sh	a1,16(a0)
    2580:	8082                	ret

00002582 <I2C_ReceiveData>:
    2582:	290a                	lhu	a0,16(a0)
    2584:	0ff57513          	andi	a0,a0,255
    2588:	8082                	ret

0000258a <I2C_Send7bitAddress>:
    258a:	0fe5f793          	andi	a5,a1,254
    258e:	c219                	beqz	a2,2594 <I2C_Send7bitAddress+0xa>
    2590:	0015e793          	ori	a5,a1,1
    2594:	07c2                	slli	a5,a5,0x10
    2596:	83c1                	srli	a5,a5,0x10
    2598:	a91e                	sh	a5,16(a0)
    259a:	8082                	ret

0000259c <I2C_ReadRegister>:
    259c:	1141                	addi	sp,sp,-16
    259e:	c602                	sw	zero,12(sp)
    25a0:	c62a                	sw	a0,12(sp)
    25a2:	47b2                	lw	a5,12(sp)
    25a4:	95be                	add	a1,a1,a5
    25a6:	c62e                	sw	a1,12(sp)
    25a8:	47b2                	lw	a5,12(sp)
    25aa:	238a                	lhu	a0,0(a5)
    25ac:	0141                	addi	sp,sp,16
    25ae:	8082                	ret

000025b0 <I2C_GetFlagStatus>:
    25b0:	1141                	addi	sp,sp,-16
    25b2:	c402                	sw	zero,8(sp)
    25b4:	c602                	sw	zero,12(sp)
    25b6:	01c5d793          	srli	a5,a1,0x1c
    25ba:	c62a                	sw	a0,12(sp)
    25bc:	c43e                	sw	a5,8(sp)
    25be:	47a2                	lw	a5,8(sp)
    25c0:	05a2                	slli	a1,a1,0x8
    25c2:	81a1                	srli	a1,a1,0x8
    25c4:	cb99                	beqz	a5,25da <I2C_GetFlagStatus+0x2a>
    25c6:	47b2                	lw	a5,12(sp)
    25c8:	07d1                	addi	a5,a5,20
    25ca:	c63e                	sw	a5,12(sp)
    25cc:	47b2                	lw	a5,12(sp)
    25ce:	4388                	lw	a0,0(a5)
    25d0:	0141                	addi	sp,sp,16
    25d2:	8d6d                	and	a0,a0,a1
    25d4:	00a03533          	snez	a0,a0
    25d8:	8082                	ret
    25da:	47b2                	lw	a5,12(sp)
    25dc:	81c1                	srli	a1,a1,0x10
    25de:	07e1                	addi	a5,a5,24
    25e0:	b7ed                	j	25ca <I2C_GetFlagStatus+0x1a>

000025e2 <I2C_ClearFlag>:
    25e2:	fff5c593          	not	a1,a1
    25e6:	05c2                	slli	a1,a1,0x10
    25e8:	81c1                	srli	a1,a1,0x10
    25ea:	a94e                	sh	a1,20(a0)
    25ec:	8082                	ret

000025ee <NVIC_PriorityGroupConfig>:
    25ee:	200007b7          	lui	a5,0x20000
    25f2:	5ea7a423          	sw	a0,1512(a5) # 200005e8 <NVIC_Priority_Group>
    25f6:	8082                	ret

000025f8 <NVIC_Init>:
    25f8:	200007b7          	lui	a5,0x20000
    25fc:	5e878793          	addi	a5,a5,1512 # 200005e8 <NVIC_Priority_Group>
    2600:	4394                	lw	a3,0(a5)
    2602:	2118                	lbu	a4,0(a0)
    2604:	e681                	bnez	a3,260c <NVIC_Init+0x14>
    2606:	213c                	lbu	a5,2(a0)
    2608:	0792                	slli	a5,a5,0x4
    260a:	a821                	j	2622 <NVIC_Init+0x2a>
    260c:	4394                	lw	a3,0(a5)
    260e:	4605                	li	a2,1
    2610:	02c69f63          	bne	a3,a2,264e <NVIC_Init+0x56>
    2614:	213c                	lbu	a5,2(a0)
    2616:	3110                	lbu	a2,1(a0)
    2618:	0792                	slli	a5,a5,0x4
    261a:	00d61463          	bne	a2,a3,2622 <NVIC_Init+0x2a>
    261e:	f807e793          	ori	a5,a5,-128
    2622:	e000e6b7          	lui	a3,0xe000e
    2626:	0ff7f793          	andi	a5,a5,255
    262a:	96ba                	add	a3,a3,a4
    262c:	40f68023          	sb	a5,1024(a3) # e000e400 <__freertos_irq_stack_top+0xc0009400>
    2630:	4685                	li	a3,1
    2632:	00575793          	srli	a5,a4,0x5
    2636:	00e69733          	sll	a4,a3,a4
    263a:	4154                	lw	a3,4(a0)
    263c:	c2a5                	beqz	a3,269c <NVIC_Init+0xa4>
    263e:	04078793          	addi	a5,a5,64
    2642:	078a                	slli	a5,a5,0x2
    2644:	e000e6b7          	lui	a3,0xe000e
    2648:	97b6                	add	a5,a5,a3
    264a:	c398                	sw	a4,0(a5)
    264c:	8082                	ret
    264e:	438c                	lw	a1,0(a5)
    2650:	4689                	li	a3,2
    2652:	02d59163          	bne	a1,a3,2674 <NVIC_Init+0x7c>
    2656:	3114                	lbu	a3,1(a0)
    2658:	213c                	lbu	a5,2(a0)
    265a:	00d66563          	bltu	a2,a3,2664 <NVIC_Init+0x6c>
    265e:	068a                	slli	a3,a3,0x2
    2660:	97b6                	add	a5,a5,a3
    2662:	b75d                	j	2608 <NVIC_Init+0x10>
    2664:	03e68693          	addi	a3,a3,62 # e000e03e <__freertos_irq_stack_top+0xc000903e>
    2668:	068a                	slli	a3,a3,0x2
    266a:	97b6                	add	a5,a5,a3
    266c:	0ff7f793          	andi	a5,a5,255
    2670:	0792                	slli	a5,a5,0x4
    2672:	b775                	j	261e <NVIC_Init+0x26>
    2674:	4390                	lw	a2,0(a5)
    2676:	468d                	li	a3,3
    2678:	00d61c63          	bne	a2,a3,2690 <NVIC_Init+0x98>
    267c:	3114                	lbu	a3,1(a0)
    267e:	213c                	lbu	a5,2(a0)
    2680:	00d66463          	bltu	a2,a3,2688 <NVIC_Init+0x90>
    2684:	0686                	slli	a3,a3,0x1
    2686:	bfe9                	j	2660 <NVIC_Init+0x68>
    2688:	07c68693          	addi	a3,a3,124
    268c:	0686                	slli	a3,a3,0x1
    268e:	bff1                	j	266a <NVIC_Init+0x72>
    2690:	4394                	lw	a3,0(a5)
    2692:	4791                	li	a5,4
    2694:	f8f69ee3          	bne	a3,a5,2630 <NVIC_Init+0x38>
    2698:	311c                	lbu	a5,1(a0)
    269a:	b7bd                	j	2608 <NVIC_Init+0x10>
    269c:	06078793          	addi	a5,a5,96
    26a0:	b74d                	j	2642 <NVIC_Init+0x4a>

000026a2 <PWR_BackupAccessCmd>:
    26a2:	40007737          	lui	a4,0x40007
    26a6:	431c                	lw	a5,0(a4)
    26a8:	c509                	beqz	a0,26b2 <PWR_BackupAccessCmd+0x10>
    26aa:	1007e793          	ori	a5,a5,256
    26ae:	c31c                	sw	a5,0(a4)
    26b0:	8082                	ret
    26b2:	eff7f793          	andi	a5,a5,-257
    26b6:	bfe5                	j	26ae <PWR_BackupAccessCmd+0xc>

000026b8 <RCC_ADCCLKConfig>:
    26b8:	400216b7          	lui	a3,0x40021
    26bc:	42dc                	lw	a5,4(a3)
    26be:	7751                	lui	a4,0xffff4
    26c0:	177d                	addi	a4,a4,-1
    26c2:	8ff9                	and	a5,a5,a4
    26c4:	8d5d                	or	a0,a0,a5
    26c6:	c2c8                	sw	a0,4(a3)
    26c8:	8082                	ret

000026ca <RCC_LSEConfig>:
    26ca:	400217b7          	lui	a5,0x40021
    26ce:	02078023          	sb	zero,32(a5) # 40021020 <__freertos_irq_stack_top+0x2001c020>
    26d2:	02078023          	sb	zero,32(a5)
    26d6:	4705                	li	a4,1
    26d8:	00e50663          	beq	a0,a4,26e4 <RCC_LSEConfig+0x1a>
    26dc:	4711                	li	a4,4
    26de:	00e50663          	beq	a0,a4,26ea <RCC_LSEConfig+0x20>
    26e2:	8082                	ret
    26e4:	02a78023          	sb	a0,32(a5)
    26e8:	8082                	ret
    26ea:	4715                	li	a4,5
    26ec:	02e78023          	sb	a4,32(a5)
    26f0:	8082                	ret

000026f2 <RCC_RTCCLKConfig>:
    26f2:	40021737          	lui	a4,0x40021
    26f6:	531c                	lw	a5,32(a4)
    26f8:	8d5d                	or	a0,a0,a5
    26fa:	d308                	sw	a0,32(a4)
    26fc:	8082                	ret

000026fe <RCC_RTCCLKCmd>:
    26fe:	c901                	beqz	a0,270e <RCC_RTCCLKCmd+0x10>
    2700:	40021737          	lui	a4,0x40021
    2704:	531c                	lw	a5,32(a4)
    2706:	66a1                	lui	a3,0x8
    2708:	8fd5                	or	a5,a5,a3
    270a:	d31c                	sw	a5,32(a4)
    270c:	8082                	ret
    270e:	400216b7          	lui	a3,0x40021
    2712:	529c                	lw	a5,32(a3)
    2714:	7761                	lui	a4,0xffff8
    2716:	177d                	addi	a4,a4,-1
    2718:	8ff9                	and	a5,a5,a4
    271a:	d29c                	sw	a5,32(a3)
    271c:	8082                	ret

0000271e <RCC_GetClocksFreq>:
    271e:	40021737          	lui	a4,0x40021
    2722:	435c                	lw	a5,4(a4)
    2724:	4691                	li	a3,4
    2726:	8bb1                	andi	a5,a5,12
    2728:	00d78563          	beq	a5,a3,2732 <RCC_GetClocksFreq+0x14>
    272c:	46a1                	li	a3,8
    272e:	06d78263          	beq	a5,a3,2792 <RCC_GetClocksFreq+0x74>
    2732:	007a17b7          	lui	a5,0x7a1
    2736:	20078793          	addi	a5,a5,512 # 7a1200 <_data_lma+0x798598>
    273a:	c11c                	sw	a5,0(a0)
    273c:	40021637          	lui	a2,0x40021
    2740:	425c                	lw	a5,4(a2)
    2742:	20000737          	lui	a4,0x20000
    2746:	01070713          	addi	a4,a4,16 # 20000010 <APBAHBPrescTable>
    274a:	8391                	srli	a5,a5,0x4
    274c:	8bbd                	andi	a5,a5,15
    274e:	97ba                	add	a5,a5,a4
    2750:	2394                	lbu	a3,0(a5)
    2752:	411c                	lw	a5,0(a0)
    2754:	00d7d7b3          	srl	a5,a5,a3
    2758:	c15c                	sw	a5,4(a0)
    275a:	4254                	lw	a3,4(a2)
    275c:	82a1                	srli	a3,a3,0x8
    275e:	8a9d                	andi	a3,a3,7
    2760:	96ba                	add	a3,a3,a4
    2762:	2294                	lbu	a3,0(a3)
    2764:	00d7d6b3          	srl	a3,a5,a3
    2768:	c514                	sw	a3,8(a0)
    276a:	4254                	lw	a3,4(a2)
    276c:	82ad                	srli	a3,a3,0xb
    276e:	8a9d                	andi	a3,a3,7
    2770:	9736                	add	a4,a4,a3
    2772:	2318                	lbu	a4,0(a4)
    2774:	00e7d7b3          	srl	a5,a5,a4
    2778:	c55c                	sw	a5,12(a0)
    277a:	4258                	lw	a4,4(a2)
    277c:	8339                	srli	a4,a4,0xe
    277e:	00377693          	andi	a3,a4,3
    2782:	80418713          	addi	a4,gp,-2044 # 20000584 <ADCPrescTable>
    2786:	9736                	add	a4,a4,a3
    2788:	2318                	lbu	a4,0(a4)
    278a:	02e7d7b3          	divu	a5,a5,a4
    278e:	c91c                	sw	a5,16(a0)
    2790:	8082                	ret
    2792:	435c                	lw	a5,4(a4)
    2794:	4358                	lw	a4,4(a4)
    2796:	66c1                	lui	a3,0x10
    2798:	83c9                	srli	a5,a5,0x12
    279a:	8bbd                	andi	a5,a5,15
    279c:	8f75                	and	a4,a4,a3
    279e:	0789                	addi	a5,a5,2
    27a0:	46c5                	li	a3,17
    27a2:	00d79363          	bne	a5,a3,27a8 <RCC_GetClocksFreq+0x8a>
    27a6:	47c9                	li	a5,18
    27a8:	ef01                	bnez	a4,27c0 <RCC_GetClocksFreq+0xa2>
    27aa:	40024737          	lui	a4,0x40024
    27ae:	80072703          	lw	a4,-2048(a4) # 40023800 <__freertos_irq_stack_top+0x2001e800>
    27b2:	8b41                	andi	a4,a4,16
    27b4:	cf09                	beqz	a4,27ce <RCC_GetClocksFreq+0xb0>
    27b6:	007a1737          	lui	a4,0x7a1
    27ba:	20070713          	addi	a4,a4,512 # 7a1200 <_data_lma+0x798598>
    27be:	a821                	j	27d6 <RCC_GetClocksFreq+0xb8>
    27c0:	40021737          	lui	a4,0x40021
    27c4:	4358                	lw	a4,4(a4)
    27c6:	00e71693          	slli	a3,a4,0xe
    27ca:	fe06d6e3          	bgez	a3,27b6 <RCC_GetClocksFreq+0x98>
    27ce:	003d1737          	lui	a4,0x3d1
    27d2:	90070713          	addi	a4,a4,-1792 # 3d0900 <_data_lma+0x3c7c98>
    27d6:	02e787b3          	mul	a5,a5,a4
    27da:	b785                	j	273a <RCC_GetClocksFreq+0x1c>

000027dc <RCC_AHBPeriphClockCmd>:
    27dc:	c599                	beqz	a1,27ea <RCC_AHBPeriphClockCmd+0xe>
    27de:	40021737          	lui	a4,0x40021
    27e2:	4b5c                	lw	a5,20(a4)
    27e4:	8d5d                	or	a0,a0,a5
    27e6:	cb48                	sw	a0,20(a4)
    27e8:	8082                	ret
    27ea:	400217b7          	lui	a5,0x40021
    27ee:	4bd8                	lw	a4,20(a5)
    27f0:	fff54513          	not	a0,a0
    27f4:	8d79                	and	a0,a0,a4
    27f6:	cbc8                	sw	a0,20(a5)
    27f8:	8082                	ret

000027fa <RCC_APB2PeriphClockCmd>:
    27fa:	c599                	beqz	a1,2808 <RCC_APB2PeriphClockCmd+0xe>
    27fc:	40021737          	lui	a4,0x40021
    2800:	4f1c                	lw	a5,24(a4)
    2802:	8d5d                	or	a0,a0,a5
    2804:	cf08                	sw	a0,24(a4)
    2806:	8082                	ret
    2808:	400217b7          	lui	a5,0x40021
    280c:	4f98                	lw	a4,24(a5)
    280e:	fff54513          	not	a0,a0
    2812:	8d79                	and	a0,a0,a4
    2814:	cf88                	sw	a0,24(a5)
    2816:	8082                	ret

00002818 <RCC_APB1PeriphClockCmd>:
    2818:	c599                	beqz	a1,2826 <RCC_APB1PeriphClockCmd+0xe>
    281a:	40021737          	lui	a4,0x40021
    281e:	4f5c                	lw	a5,28(a4)
    2820:	8d5d                	or	a0,a0,a5
    2822:	cf48                	sw	a0,28(a4)
    2824:	8082                	ret
    2826:	400217b7          	lui	a5,0x40021
    282a:	4fd8                	lw	a4,28(a5)
    282c:	fff54513          	not	a0,a0
    2830:	8d79                	and	a0,a0,a4
    2832:	cfc8                	sw	a0,28(a5)
    2834:	8082                	ret

00002836 <RCC_APB2PeriphResetCmd>:
    2836:	c599                	beqz	a1,2844 <RCC_APB2PeriphResetCmd+0xe>
    2838:	40021737          	lui	a4,0x40021
    283c:	475c                	lw	a5,12(a4)
    283e:	8d5d                	or	a0,a0,a5
    2840:	c748                	sw	a0,12(a4)
    2842:	8082                	ret
    2844:	400217b7          	lui	a5,0x40021
    2848:	47d8                	lw	a4,12(a5)
    284a:	fff54513          	not	a0,a0
    284e:	8d79                	and	a0,a0,a4
    2850:	c7c8                	sw	a0,12(a5)
    2852:	8082                	ret

00002854 <RCC_APB1PeriphResetCmd>:
    2854:	c599                	beqz	a1,2862 <RCC_APB1PeriphResetCmd+0xe>
    2856:	40021737          	lui	a4,0x40021
    285a:	4b1c                	lw	a5,16(a4)
    285c:	8d5d                	or	a0,a0,a5
    285e:	cb08                	sw	a0,16(a4)
    2860:	8082                	ret
    2862:	400217b7          	lui	a5,0x40021
    2866:	4b98                	lw	a4,16(a5)
    2868:	fff54513          	not	a0,a0
    286c:	8d79                	and	a0,a0,a4
    286e:	cb88                	sw	a0,16(a5)
    2870:	8082                	ret

00002872 <RCC_BackupResetCmd>:
    2872:	c901                	beqz	a0,2882 <RCC_BackupResetCmd+0x10>
    2874:	40021737          	lui	a4,0x40021
    2878:	531c                	lw	a5,32(a4)
    287a:	66c1                	lui	a3,0x10
    287c:	8fd5                	or	a5,a5,a3
    287e:	d31c                	sw	a5,32(a4)
    2880:	8082                	ret
    2882:	400216b7          	lui	a3,0x40021
    2886:	529c                	lw	a5,32(a3)
    2888:	7741                	lui	a4,0xffff0
    288a:	177d                	addi	a4,a4,-1
    288c:	8ff9                	and	a5,a5,a4
    288e:	d29c                	sw	a5,32(a3)
    2890:	8082                	ret

00002892 <RCC_GetFlagStatus>:
    2892:	00555793          	srli	a5,a0,0x5
    2896:	4705                	li	a4,1
    2898:	00e79963          	bne	a5,a4,28aa <RCC_GetFlagStatus+0x18>
    289c:	400217b7          	lui	a5,0x40021
    28a0:	439c                	lw	a5,0(a5)
    28a2:	00a7d533          	srl	a0,a5,a0
    28a6:	8905                	andi	a0,a0,1
    28a8:	8082                	ret
    28aa:	4709                	li	a4,2
    28ac:	00e79663          	bne	a5,a4,28b8 <RCC_GetFlagStatus+0x26>
    28b0:	400217b7          	lui	a5,0x40021
    28b4:	539c                	lw	a5,32(a5)
    28b6:	b7f5                	j	28a2 <RCC_GetFlagStatus+0x10>
    28b8:	400217b7          	lui	a5,0x40021
    28bc:	53dc                	lw	a5,36(a5)
    28be:	b7d5                	j	28a2 <RCC_GetFlagStatus+0x10>

000028c0 <RTC_ITConfig>:
    28c0:	400037b7          	lui	a5,0x40003
    28c4:	8007d703          	lhu	a4,-2048(a5) # 40002800 <__freertos_irq_stack_top+0x1fffd800>
    28c8:	c589                	beqz	a1,28d2 <RTC_ITConfig+0x12>
    28ca:	8d59                	or	a0,a0,a4
    28cc:	80a79023          	sh	a0,-2048(a5)
    28d0:	8082                	ret
    28d2:	fff54513          	not	a0,a0
    28d6:	8d79                	and	a0,a0,a4
    28d8:	bfd5                	j	28cc <RTC_ITConfig+0xc>

000028da <RTC_EnterConfigMode>:
    28da:	400037b7          	lui	a5,0x40003
    28de:	8047d703          	lhu	a4,-2044(a5) # 40002804 <__freertos_irq_stack_top+0x1fffd804>
    28e2:	01076713          	ori	a4,a4,16
    28e6:	80e79223          	sh	a4,-2044(a5)
    28ea:	8082                	ret

000028ec <RTC_ExitConfigMode>:
    28ec:	40003737          	lui	a4,0x40003
    28f0:	80475783          	lhu	a5,-2044(a4) # 40002804 <__freertos_irq_stack_top+0x1fffd804>
    28f4:	07c2                	slli	a5,a5,0x10
    28f6:	83c1                	srli	a5,a5,0x10
    28f8:	9bbd                	andi	a5,a5,-17
    28fa:	07c2                	slli	a5,a5,0x10
    28fc:	83c1                	srli	a5,a5,0x10
    28fe:	80f71223          	sh	a5,-2044(a4)
    2902:	8082                	ret

00002904 <RTC_SetPrescaler>:
    2904:	c1bfd2ef          	jal	t0,51e <__riscv_save_0>
    2908:	1141                	addi	sp,sp,-16
    290a:	c62a                	sw	a0,12(sp)
    290c:	37f9                	jal	28da <RTC_EnterConfigMode>
    290e:	4532                	lw	a0,12(sp)
    2910:	400037b7          	lui	a5,0x40003
    2914:	01055713          	srli	a4,a0,0x10
    2918:	8b3d                	andi	a4,a4,15
    291a:	0542                	slli	a0,a0,0x10
    291c:	80e79423          	sh	a4,-2040(a5) # 40002808 <__freertos_irq_stack_top+0x1fffd808>
    2920:	8141                	srli	a0,a0,0x10
    2922:	80a79623          	sh	a0,-2036(a5)
    2926:	37d9                	jal	28ec <RTC_ExitConfigMode>
    2928:	0141                	addi	sp,sp,16
    292a:	c19fd06f          	j	542 <__riscv_restore_0>

0000292e <RTC_WaitForLastTask>:
    292e:	40003737          	lui	a4,0x40003
    2932:	80475783          	lhu	a5,-2044(a4) # 40002804 <__freertos_irq_stack_top+0x1fffd804>
    2936:	0207f793          	andi	a5,a5,32
    293a:	dfe5                	beqz	a5,2932 <RTC_WaitForLastTask+0x4>
    293c:	8082                	ret

0000293e <RTC_WaitForSynchro>:
    293e:	40003737          	lui	a4,0x40003
    2942:	80475783          	lhu	a5,-2044(a4) # 40002804 <__freertos_irq_stack_top+0x1fffd804>
    2946:	07c2                	slli	a5,a5,0x10
    2948:	83c1                	srli	a5,a5,0x10
    294a:	9bdd                	andi	a5,a5,-9
    294c:	07c2                	slli	a5,a5,0x10
    294e:	83c1                	srli	a5,a5,0x10
    2950:	80f71223          	sh	a5,-2044(a4)
    2954:	40003737          	lui	a4,0x40003
    2958:	80475783          	lhu	a5,-2044(a4) # 40002804 <__freertos_irq_stack_top+0x1fffd804>
    295c:	8ba1                	andi	a5,a5,8
    295e:	dfed                	beqz	a5,2958 <RTC_WaitForSynchro+0x1a>
    2960:	8082                	ret

00002962 <RTC_ClearFlag>:
    2962:	400037b7          	lui	a5,0x40003
    2966:	8047d703          	lhu	a4,-2044(a5) # 40002804 <__freertos_irq_stack_top+0x1fffd804>
    296a:	fff54513          	not	a0,a0
    296e:	8d79                	and	a0,a0,a4
    2970:	80a79223          	sh	a0,-2044(a5)
    2974:	8082                	ret

00002976 <RTC_GetITStatus>:
    2976:	40003737          	lui	a4,0x40003
    297a:	80475783          	lhu	a5,-2044(a4) # 40002804 <__freertos_irq_stack_top+0x1fffd804>
    297e:	80075703          	lhu	a4,-2048(a4)
    2982:	07c2                	slli	a5,a5,0x10
    2984:	8f69                	and	a4,a4,a0
    2986:	83c1                	srli	a5,a5,0x10
    2988:	c709                	beqz	a4,2992 <RTC_GetITStatus+0x1c>
    298a:	8d7d                	and	a0,a0,a5
    298c:	00a03533          	snez	a0,a0
    2990:	8082                	ret
    2992:	4501                	li	a0,0
    2994:	8082                	ret

00002996 <RTC_ClearITPendingBit>:
    2996:	b89fd2ef          	jal	t0,51e <__riscv_save_0>
    299a:	37e1                	jal	2962 <RTC_ClearFlag>
    299c:	ba7fd06f          	j	542 <__riscv_restore_0>

000029a0 <SPI_I2S_DeInit>:
    29a0:	b7ffd2ef          	jal	t0,51e <__riscv_save_0>
    29a4:	400137b7          	lui	a5,0x40013
    29a8:	00f51a63          	bne	a0,a5,29bc <SPI_I2S_DeInit+0x1c>
    29ac:	4585                	li	a1,1
    29ae:	6505                	lui	a0,0x1
    29b0:	3559                	jal	2836 <RCC_APB2PeriphResetCmd>
    29b2:	4581                	li	a1,0
    29b4:	6505                	lui	a0,0x1
    29b6:	3541                	jal	2836 <RCC_APB2PeriphResetCmd>
    29b8:	b8bfd06f          	j	542 <__riscv_restore_0>
    29bc:	400047b7          	lui	a5,0x40004
    29c0:	80078793          	addi	a5,a5,-2048 # 40003800 <__freertos_irq_stack_top+0x1fffe800>
    29c4:	fef51ae3          	bne	a0,a5,29b8 <SPI_I2S_DeInit+0x18>
    29c8:	4585                	li	a1,1
    29ca:	6511                	lui	a0,0x4
    29cc:	3561                	jal	2854 <RCC_APB1PeriphResetCmd>
    29ce:	4581                	li	a1,0
    29d0:	6511                	lui	a0,0x4
    29d2:	3549                	jal	2854 <RCC_APB1PeriphResetCmd>
    29d4:	b7d5                	j	29b8 <SPI_I2S_DeInit+0x18>

000029d6 <SPI_Init>:
    29d6:	211a                	lhu	a4,0(a0)
    29d8:	678d                	lui	a5,0x3
    29da:	04078793          	addi	a5,a5,64 # 3040 <eEEPROMWr+0x2e>
    29de:	21b6                	lhu	a3,2(a1)
    29e0:	8f7d                	and	a4,a4,a5
    29e2:	219e                	lhu	a5,0(a1)
    29e4:	8fd5                	or	a5,a5,a3
    29e6:	21d6                	lhu	a3,4(a1)
    29e8:	8fd5                	or	a5,a5,a3
    29ea:	21f6                	lhu	a3,6(a1)
    29ec:	8fd5                	or	a5,a5,a3
    29ee:	2596                	lhu	a3,8(a1)
    29f0:	8fd5                	or	a5,a5,a3
    29f2:	25b6                	lhu	a3,10(a1)
    29f4:	8fd5                	or	a5,a5,a3
    29f6:	25d6                	lhu	a3,12(a1)
    29f8:	8fd5                	or	a5,a5,a3
    29fa:	25f6                	lhu	a3,14(a1)
    29fc:	8fd5                	or	a5,a5,a3
    29fe:	8fd9                	or	a5,a5,a4
    2a00:	a11e                	sh	a5,0(a0)
    2a02:	2d5a                	lhu	a4,28(a0)
    2a04:	77fd                	lui	a5,0xfffff
    2a06:	7ff78793          	addi	a5,a5,2047 # fffff7ff <__freertos_irq_stack_top+0xdfffa7ff>
    2a0a:	8ff9                	and	a5,a5,a4
    2a0c:	ad5e                	sh	a5,28(a0)
    2a0e:	299e                	lhu	a5,16(a1)
    2a10:	a91e                	sh	a5,16(a0)
    2a12:	8082                	ret

00002a14 <SPI_Cmd>:
    2a14:	211e                	lhu	a5,0(a0)
    2a16:	c589                	beqz	a1,2a20 <SPI_Cmd+0xc>
    2a18:	0407e793          	ori	a5,a5,64
    2a1c:	a11e                	sh	a5,0(a0)
    2a1e:	8082                	ret
    2a20:	07c2                	slli	a5,a5,0x10
    2a22:	83c1                	srli	a5,a5,0x10
    2a24:	fbf7f793          	andi	a5,a5,-65
    2a28:	07c2                	slli	a5,a5,0x10
    2a2a:	83c1                	srli	a5,a5,0x10
    2a2c:	bfc5                	j	2a1c <SPI_Cmd+0x8>

00002a2e <SPI_I2S_DMACmd>:
    2a2e:	215e                	lhu	a5,4(a0)
    2a30:	c601                	beqz	a2,2a38 <SPI_I2S_DMACmd+0xa>
    2a32:	8ddd                	or	a1,a1,a5
    2a34:	a14e                	sh	a1,4(a0)
    2a36:	8082                	ret
    2a38:	fff5c593          	not	a1,a1
    2a3c:	8dfd                	and	a1,a1,a5
    2a3e:	bfdd                	j	2a34 <SPI_I2S_DMACmd+0x6>

00002a40 <SPI_I2S_GetFlagStatus>:
    2a40:	250a                	lhu	a0,8(a0)
    2a42:	8d6d                	and	a0,a0,a1
    2a44:	00a03533          	snez	a0,a0
    2a48:	8082                	ret

00002a4a <SPI_I2S_ClearFlag>:
    2a4a:	fff5c593          	not	a1,a1
    2a4e:	05c2                	slli	a1,a1,0x10
    2a50:	81c1                	srli	a1,a1,0x10
    2a52:	a50e                	sh	a1,8(a0)
    2a54:	8082                	ret

00002a56 <TIM_DeInit>:
    2a56:	ac9fd2ef          	jal	t0,51e <__riscv_save_0>
    2a5a:	400137b7          	lui	a5,0x40013
    2a5e:	c0078793          	addi	a5,a5,-1024 # 40012c00 <__freertos_irq_stack_top+0x2000dc00>
    2a62:	00f51f63          	bne	a0,a5,2a80 <TIM_DeInit+0x2a>
    2a66:	6405                	lui	s0,0x1
    2a68:	4585                	li	a1,1
    2a6a:	80040513          	addi	a0,s0,-2048 # 800 <__stack_size>
    2a6e:	dc9ff0ef          	jal	ra,2836 <RCC_APB2PeriphResetCmd>
    2a72:	4581                	li	a1,0
    2a74:	80040513          	addi	a0,s0,-2048
    2a78:	dbfff0ef          	jal	ra,2836 <RCC_APB2PeriphResetCmd>
    2a7c:	ac7fd06f          	j	542 <__riscv_restore_0>
    2a80:	400007b7          	lui	a5,0x40000
    2a84:	00f51b63          	bne	a0,a5,2a9a <TIM_DeInit+0x44>
    2a88:	4585                	li	a1,1
    2a8a:	4505                	li	a0,1
    2a8c:	dc9ff0ef          	jal	ra,2854 <RCC_APB1PeriphResetCmd>
    2a90:	4581                	li	a1,0
    2a92:	4505                	li	a0,1
    2a94:	dc1ff0ef          	jal	ra,2854 <RCC_APB1PeriphResetCmd>
    2a98:	b7d5                	j	2a7c <TIM_DeInit+0x26>
    2a9a:	40078793          	addi	a5,a5,1024 # 40000400 <__freertos_irq_stack_top+0x1fffb400>
    2a9e:	00f51963          	bne	a0,a5,2ab0 <TIM_DeInit+0x5a>
    2aa2:	4585                	li	a1,1
    2aa4:	4509                	li	a0,2
    2aa6:	dafff0ef          	jal	ra,2854 <RCC_APB1PeriphResetCmd>
    2aaa:	4581                	li	a1,0
    2aac:	4509                	li	a0,2
    2aae:	b7dd                	j	2a94 <TIM_DeInit+0x3e>
    2ab0:	400017b7          	lui	a5,0x40001
    2ab4:	80078713          	addi	a4,a5,-2048 # 40000800 <__freertos_irq_stack_top+0x1fffb800>
    2ab8:	00e51963          	bne	a0,a4,2aca <TIM_DeInit+0x74>
    2abc:	4585                	li	a1,1
    2abe:	4511                	li	a0,4
    2ac0:	d95ff0ef          	jal	ra,2854 <RCC_APB1PeriphResetCmd>
    2ac4:	4581                	li	a1,0
    2ac6:	4511                	li	a0,4
    2ac8:	b7f1                	j	2a94 <TIM_DeInit+0x3e>
    2aca:	c0078793          	addi	a5,a5,-1024
    2ace:	faf517e3          	bne	a0,a5,2a7c <TIM_DeInit+0x26>
    2ad2:	4585                	li	a1,1
    2ad4:	4521                	li	a0,8
    2ad6:	d7fff0ef          	jal	ra,2854 <RCC_APB1PeriphResetCmd>
    2ada:	4581                	li	a1,0
    2adc:	4521                	li	a0,8
    2ade:	bf5d                	j	2a94 <TIM_DeInit+0x3e>

00002ae0 <TIM_TimeBaseInit>:
    2ae0:	211e                	lhu	a5,0(a0)
    2ae2:	40013737          	lui	a4,0x40013
    2ae6:	c0070713          	addi	a4,a4,-1024 # 40012c00 <__freertos_irq_stack_top+0x2000dc00>
    2aea:	07c2                	slli	a5,a5,0x10
    2aec:	83c1                	srli	a5,a5,0x10
    2aee:	02e50463          	beq	a0,a4,2b16 <TIM_TimeBaseInit+0x36>
    2af2:	40000737          	lui	a4,0x40000
    2af6:	02e50063          	beq	a0,a4,2b16 <TIM_TimeBaseInit+0x36>
    2afa:	40070713          	addi	a4,a4,1024 # 40000400 <__freertos_irq_stack_top+0x1fffb400>
    2afe:	00e50c63          	beq	a0,a4,2b16 <TIM_TimeBaseInit+0x36>
    2b02:	40001737          	lui	a4,0x40001
    2b06:	80070693          	addi	a3,a4,-2048 # 40000800 <__freertos_irq_stack_top+0x1fffb800>
    2b0a:	00d50663          	beq	a0,a3,2b16 <TIM_TimeBaseInit+0x36>
    2b0e:	c0070713          	addi	a4,a4,-1024
    2b12:	00e51663          	bne	a0,a4,2b1e <TIM_TimeBaseInit+0x3e>
    2b16:	21ba                	lhu	a4,2(a1)
    2b18:	f8f7f793          	andi	a5,a5,-113
    2b1c:	8fd9                	or	a5,a5,a4
    2b1e:	21fa                	lhu	a4,6(a1)
    2b20:	cff7f793          	andi	a5,a5,-769
    2b24:	07c2                	slli	a5,a5,0x10
    2b26:	83c1                	srli	a5,a5,0x10
    2b28:	8fd9                	or	a5,a5,a4
    2b2a:	a11e                	sh	a5,0(a0)
    2b2c:	21de                	lhu	a5,4(a1)
    2b2e:	b55e                	sh	a5,44(a0)
    2b30:	219e                	lhu	a5,0(a1)
    2b32:	b51e                	sh	a5,40(a0)
    2b34:	400137b7          	lui	a5,0x40013
    2b38:	c0078793          	addi	a5,a5,-1024 # 40012c00 <__freertos_irq_stack_top+0x2000dc00>
    2b3c:	00f51463          	bne	a0,a5,2b44 <TIM_TimeBaseInit+0x64>
    2b40:	259c                	lbu	a5,8(a1)
    2b42:	b91e                	sh	a5,48(a0)
    2b44:	4785                	li	a5,1
    2b46:	a95e                	sh	a5,20(a0)
    2b48:	8082                	ret

00002b4a <TIM_OC1Init>:
    2b4a:	311e                	lhu	a5,32(a0)
    2b4c:	2192                	lhu	a2,0(a1)
    2b4e:	0025d803          	lhu	a6,2(a1)
    2b52:	07c2                	slli	a5,a5,0x10
    2b54:	83c1                	srli	a5,a5,0x10
    2b56:	9bf9                	andi	a5,a5,-2
    2b58:	07c2                	slli	a5,a5,0x10
    2b5a:	83c1                	srli	a5,a5,0x10
    2b5c:	b11e                	sh	a5,32(a0)
    2b5e:	311e                	lhu	a5,32(a0)
    2b60:	2156                	lhu	a3,4(a0)
    2b62:	2d1a                	lhu	a4,24(a0)
    2b64:	07c2                	slli	a5,a5,0x10
    2b66:	83c1                	srli	a5,a5,0x10
    2b68:	0742                	slli	a4,a4,0x10
    2b6a:	8341                	srli	a4,a4,0x10
    2b6c:	f8c77713          	andi	a4,a4,-116
    2b70:	8f51                	or	a4,a4,a2
    2b72:	2592                	lhu	a2,8(a1)
    2b74:	9bf5                	andi	a5,a5,-3
    2b76:	06c2                	slli	a3,a3,0x10
    2b78:	01066633          	or	a2,a2,a6
    2b7c:	8fd1                	or	a5,a5,a2
    2b7e:	40013637          	lui	a2,0x40013
    2b82:	c0060613          	addi	a2,a2,-1024 # 40012c00 <__freertos_irq_stack_top+0x2000dc00>
    2b86:	82c1                	srli	a3,a3,0x10
    2b88:	02c51063          	bne	a0,a2,2ba8 <TIM_OC1Init+0x5e>
    2b8c:	25b2                	lhu	a2,10(a1)
    2b8e:	9bdd                	andi	a5,a5,-9
    2b90:	00e5d803          	lhu	a6,14(a1)
    2b94:	8fd1                	or	a5,a5,a2
    2b96:	21d2                	lhu	a2,4(a1)
    2b98:	9bed                	andi	a5,a5,-5
    2b9a:	cff6f693          	andi	a3,a3,-769
    2b9e:	8fd1                	or	a5,a5,a2
    2ba0:	25d2                	lhu	a2,12(a1)
    2ba2:	01066633          	or	a2,a2,a6
    2ba6:	8ed1                	or	a3,a3,a2
    2ba8:	a156                	sh	a3,4(a0)
    2baa:	ad1a                	sh	a4,24(a0)
    2bac:	21fa                	lhu	a4,6(a1)
    2bae:	b95a                	sh	a4,52(a0)
    2bb0:	b11e                	sh	a5,32(a0)
    2bb2:	8082                	ret

00002bb4 <TIM_OC2Init>:
    2bb4:	311e                	lhu	a5,32(a0)
    2bb6:	7765                	lui	a4,0xffff9
    2bb8:	cff70713          	addi	a4,a4,-769 # ffff8cff <__freertos_irq_stack_top+0xdfff3cff>
    2bbc:	07c2                	slli	a5,a5,0x10
    2bbe:	83c1                	srli	a5,a5,0x10
    2bc0:	9bbd                	andi	a5,a5,-17
    2bc2:	07c2                	slli	a5,a5,0x10
    2bc4:	83c1                	srli	a5,a5,0x10
    2bc6:	b11e                	sh	a5,32(a0)
    2bc8:	311e                	lhu	a5,32(a0)
    2bca:	2156                	lhu	a3,4(a0)
    2bcc:	0085d803          	lhu	a6,8(a1)
    2bd0:	07c2                	slli	a5,a5,0x10
    2bd2:	01069613          	slli	a2,a3,0x10
    2bd6:	2d16                	lhu	a3,24(a0)
    2bd8:	83c1                	srli	a5,a5,0x10
    2bda:	fdf7f793          	andi	a5,a5,-33
    2bde:	8f75                	and	a4,a4,a3
    2be0:	2196                	lhu	a3,0(a1)
    2be2:	8241                	srli	a2,a2,0x10
    2be4:	06a2                	slli	a3,a3,0x8
    2be6:	8f55                	or	a4,a4,a3
    2be8:	21b6                	lhu	a3,2(a1)
    2bea:	0742                	slli	a4,a4,0x10
    2bec:	8341                	srli	a4,a4,0x10
    2bee:	0106e6b3          	or	a3,a3,a6
    2bf2:	0692                	slli	a3,a3,0x4
    2bf4:	8fd5                	or	a5,a5,a3
    2bf6:	400136b7          	lui	a3,0x40013
    2bfa:	07c2                	slli	a5,a5,0x10
    2bfc:	c0068693          	addi	a3,a3,-1024 # 40012c00 <__freertos_irq_stack_top+0x2000dc00>
    2c00:	83c1                	srli	a5,a5,0x10
    2c02:	02d51e63          	bne	a0,a3,2c3e <TIM_OC2Init+0x8a>
    2c06:	25b6                	lhu	a3,10(a1)
    2c08:	f7f7f793          	andi	a5,a5,-129
    2c0c:	00c5d803          	lhu	a6,12(a1)
    2c10:	0692                	slli	a3,a3,0x4
    2c12:	8fd5                	or	a5,a5,a3
    2c14:	21d6                	lhu	a3,4(a1)
    2c16:	07c2                	slli	a5,a5,0x10
    2c18:	83c1                	srli	a5,a5,0x10
    2c1a:	0692                	slli	a3,a3,0x4
    2c1c:	fbf7f793          	andi	a5,a5,-65
    2c20:	8fd5                	or	a5,a5,a3
    2c22:	76fd                	lui	a3,0xfffff
    2c24:	3ff68693          	addi	a3,a3,1023 # fffff3ff <__freertos_irq_stack_top+0xdfffa3ff>
    2c28:	8ef1                	and	a3,a3,a2
    2c2a:	25f2                	lhu	a2,14(a1)
    2c2c:	07c2                	slli	a5,a5,0x10
    2c2e:	83c1                	srli	a5,a5,0x10
    2c30:	01066633          	or	a2,a2,a6
    2c34:	060a                	slli	a2,a2,0x2
    2c36:	8ed1                	or	a3,a3,a2
    2c38:	01069613          	slli	a2,a3,0x10
    2c3c:	8241                	srli	a2,a2,0x10
    2c3e:	a152                	sh	a2,4(a0)
    2c40:	ad1a                	sh	a4,24(a0)
    2c42:	21fa                	lhu	a4,6(a1)
    2c44:	bd1a                	sh	a4,56(a0)
    2c46:	b11e                	sh	a5,32(a0)
    2c48:	8082                	ret

00002c4a <TIM_OC3Init>:
    2c4a:	311e                	lhu	a5,32(a0)
    2c4c:	0085d803          	lhu	a6,8(a1)
    2c50:	07c2                	slli	a5,a5,0x10
    2c52:	83c1                	srli	a5,a5,0x10
    2c54:	eff7f793          	andi	a5,a5,-257
    2c58:	07c2                	slli	a5,a5,0x10
    2c5a:	83c1                	srli	a5,a5,0x10
    2c5c:	b11e                	sh	a5,32(a0)
    2c5e:	311e                	lhu	a5,32(a0)
    2c60:	2156                	lhu	a3,4(a0)
    2c62:	2d5a                	lhu	a4,28(a0)
    2c64:	07c2                	slli	a5,a5,0x10
    2c66:	01069613          	slli	a2,a3,0x10
    2c6a:	0742                	slli	a4,a4,0x10
    2c6c:	2196                	lhu	a3,0(a1)
    2c6e:	8341                	srli	a4,a4,0x10
    2c70:	f8c77713          	andi	a4,a4,-116
    2c74:	8f55                	or	a4,a4,a3
    2c76:	21b6                	lhu	a3,2(a1)
    2c78:	83c1                	srli	a5,a5,0x10
    2c7a:	dff7f793          	andi	a5,a5,-513
    2c7e:	0106e6b3          	or	a3,a3,a6
    2c82:	06a2                	slli	a3,a3,0x8
    2c84:	8fd5                	or	a5,a5,a3
    2c86:	400136b7          	lui	a3,0x40013
    2c8a:	07c2                	slli	a5,a5,0x10
    2c8c:	c0068693          	addi	a3,a3,-1024 # 40012c00 <__freertos_irq_stack_top+0x2000dc00>
    2c90:	8241                	srli	a2,a2,0x10
    2c92:	83c1                	srli	a5,a5,0x10
    2c94:	02d51f63          	bne	a0,a3,2cd2 <TIM_OC3Init+0x88>
    2c98:	76fd                	lui	a3,0xfffff
    2c9a:	7ff68693          	addi	a3,a3,2047 # fffff7ff <__freertos_irq_stack_top+0xdfffa7ff>
    2c9e:	8ff5                	and	a5,a5,a3
    2ca0:	25b6                	lhu	a3,10(a1)
    2ca2:	00c5d803          	lhu	a6,12(a1)
    2ca6:	06a2                	slli	a3,a3,0x8
    2ca8:	8fd5                	or	a5,a5,a3
    2caa:	21d6                	lhu	a3,4(a1)
    2cac:	07c2                	slli	a5,a5,0x10
    2cae:	83c1                	srli	a5,a5,0x10
    2cb0:	06a2                	slli	a3,a3,0x8
    2cb2:	bff7f793          	andi	a5,a5,-1025
    2cb6:	8fd5                	or	a5,a5,a3
    2cb8:	76f5                	lui	a3,0xffffd
    2cba:	16fd                	addi	a3,a3,-1
    2cbc:	8ef1                	and	a3,a3,a2
    2cbe:	25f2                	lhu	a2,14(a1)
    2cc0:	07c2                	slli	a5,a5,0x10
    2cc2:	83c1                	srli	a5,a5,0x10
    2cc4:	01066633          	or	a2,a2,a6
    2cc8:	0612                	slli	a2,a2,0x4
    2cca:	8ed1                	or	a3,a3,a2
    2ccc:	01069613          	slli	a2,a3,0x10
    2cd0:	8241                	srli	a2,a2,0x10
    2cd2:	a152                	sh	a2,4(a0)
    2cd4:	ad5a                	sh	a4,28(a0)
    2cd6:	21fa                	lhu	a4,6(a1)
    2cd8:	bd5a                	sh	a4,60(a0)
    2cda:	b11e                	sh	a5,32(a0)
    2cdc:	8082                	ret

00002cde <TIM_OC4Init>:
    2cde:	311a                	lhu	a4,32(a0)
    2ce0:	77fd                	lui	a5,0xfffff
    2ce2:	17fd                	addi	a5,a5,-1
    2ce4:	8ff9                	and	a5,a5,a4
    2ce6:	b11e                	sh	a5,32(a0)
    2ce8:	02055803          	lhu	a6,32(a0) # 4020 <HAL_SPI_InitDMA+0x3c>
    2cec:	2156                	lhu	a3,4(a0)
    2cee:	2d5e                	lhu	a5,28(a0)
    2cf0:	7765                	lui	a4,0xffff9
    2cf2:	2192                	lhu	a2,0(a1)
    2cf4:	cff70713          	addi	a4,a4,-769 # ffff8cff <__freertos_irq_stack_top+0xdfff3cff>
    2cf8:	8f7d                	and	a4,a4,a5
    2cfa:	77f9                	lui	a5,0xffffe
    2cfc:	0622                	slli	a2,a2,0x8
    2cfe:	17fd                	addi	a5,a5,-1
    2d00:	8f51                	or	a4,a4,a2
    2d02:	0107f7b3          	and	a5,a5,a6
    2d06:	21b2                	lhu	a2,2(a1)
    2d08:	0085d803          	lhu	a6,8(a1)
    2d0c:	06c2                	slli	a3,a3,0x10
    2d0e:	0742                	slli	a4,a4,0x10
    2d10:	01066633          	or	a2,a2,a6
    2d14:	0632                	slli	a2,a2,0xc
    2d16:	8fd1                	or	a5,a5,a2
    2d18:	40013637          	lui	a2,0x40013
    2d1c:	07c2                	slli	a5,a5,0x10
    2d1e:	c0060613          	addi	a2,a2,-1024 # 40012c00 <__freertos_irq_stack_top+0x2000dc00>
    2d22:	82c1                	srli	a3,a3,0x10
    2d24:	8341                	srli	a4,a4,0x10
    2d26:	83c1                	srli	a5,a5,0x10
    2d28:	00c51a63          	bne	a0,a2,2d3c <TIM_OC4Init+0x5e>
    2d2c:	7671                	lui	a2,0xffffc
    2d2e:	167d                	addi	a2,a2,-1
    2d30:	8ef1                	and	a3,a3,a2
    2d32:	25d2                	lhu	a2,12(a1)
    2d34:	061a                	slli	a2,a2,0x6
    2d36:	8ed1                	or	a3,a3,a2
    2d38:	06c2                	slli	a3,a3,0x10
    2d3a:	82c1                	srli	a3,a3,0x10
    2d3c:	a156                	sh	a3,4(a0)
    2d3e:	ad5a                	sh	a4,28(a0)
    2d40:	21fa                	lhu	a4,6(a1)
    2d42:	04e51023          	sh	a4,64(a0)
    2d46:	b11e                	sh	a5,32(a0)
    2d48:	8082                	ret

00002d4a <TIM_TimeBaseStructInit>:
    2d4a:	57fd                	li	a5,-1
    2d4c:	a15e                	sh	a5,4(a0)
    2d4e:	00051023          	sh	zero,0(a0)
    2d52:	00051323          	sh	zero,6(a0)
    2d56:	00051123          	sh	zero,2(a0)
    2d5a:	00050423          	sb	zero,8(a0)
    2d5e:	8082                	ret

00002d60 <TIM_Cmd>:
    2d60:	211e                	lhu	a5,0(a0)
    2d62:	c589                	beqz	a1,2d6c <TIM_Cmd+0xc>
    2d64:	0017e793          	ori	a5,a5,1
    2d68:	a11e                	sh	a5,0(a0)
    2d6a:	8082                	ret
    2d6c:	07c2                	slli	a5,a5,0x10
    2d6e:	83c1                	srli	a5,a5,0x10
    2d70:	9bf9                	andi	a5,a5,-2
    2d72:	07c2                	slli	a5,a5,0x10
    2d74:	83c1                	srli	a5,a5,0x10
    2d76:	bfcd                	j	2d68 <TIM_Cmd+0x8>

00002d78 <TIM_CtrlPWMOutputs>:
    2d78:	04455783          	lhu	a5,68(a0)
    2d7c:	c591                	beqz	a1,2d88 <TIM_CtrlPWMOutputs+0x10>
    2d7e:	6721                	lui	a4,0x8
    2d80:	8fd9                	or	a5,a5,a4
    2d82:	04f51223          	sh	a5,68(a0)
    2d86:	8082                	ret
    2d88:	07c6                	slli	a5,a5,0x11
    2d8a:	83c5                	srli	a5,a5,0x11
    2d8c:	bfdd                	j	2d82 <TIM_CtrlPWMOutputs+0xa>

00002d8e <TIM_ITConfig>:
    2d8e:	255e                	lhu	a5,12(a0)
    2d90:	c601                	beqz	a2,2d98 <TIM_ITConfig+0xa>
    2d92:	8ddd                	or	a1,a1,a5
    2d94:	a54e                	sh	a1,12(a0)
    2d96:	8082                	ret
    2d98:	fff5c593          	not	a1,a1
    2d9c:	8dfd                	and	a1,a1,a5
    2d9e:	bfdd                	j	2d94 <TIM_ITConfig+0x6>

00002da0 <TIM_InternalClockConfig>:
    2da0:	251e                	lhu	a5,8(a0)
    2da2:	07c2                	slli	a5,a5,0x10
    2da4:	83c1                	srli	a5,a5,0x10
    2da6:	9be1                	andi	a5,a5,-8
    2da8:	07c2                	slli	a5,a5,0x10
    2daa:	83c1                	srli	a5,a5,0x10
    2dac:	a51e                	sh	a5,8(a0)
    2dae:	8082                	ret

00002db0 <TIM_ARRPreloadConfig>:
    2db0:	211e                	lhu	a5,0(a0)
    2db2:	c589                	beqz	a1,2dbc <TIM_ARRPreloadConfig+0xc>
    2db4:	0807e793          	ori	a5,a5,128
    2db8:	a11e                	sh	a5,0(a0)
    2dba:	8082                	ret
    2dbc:	07c2                	slli	a5,a5,0x10
    2dbe:	83c1                	srli	a5,a5,0x10
    2dc0:	f7f7f793          	andi	a5,a5,-129
    2dc4:	07c2                	slli	a5,a5,0x10
    2dc6:	83c1                	srli	a5,a5,0x10
    2dc8:	bfc5                	j	2db8 <TIM_ARRPreloadConfig+0x8>

00002dca <TIM_OC1PreloadConfig>:
    2dca:	2d1e                	lhu	a5,24(a0)
    2dcc:	07c2                	slli	a5,a5,0x10
    2dce:	83c1                	srli	a5,a5,0x10
    2dd0:	9bdd                	andi	a5,a5,-9
    2dd2:	8ddd                	or	a1,a1,a5
    2dd4:	ad0e                	sh	a1,24(a0)
    2dd6:	8082                	ret

00002dd8 <TIM_OC2PreloadConfig>:
    2dd8:	2d1a                	lhu	a4,24(a0)
    2dda:	77fd                	lui	a5,0xfffff
    2ddc:	7ff78793          	addi	a5,a5,2047 # fffff7ff <__freertos_irq_stack_top+0xdfffa7ff>
    2de0:	8ff9                	and	a5,a5,a4
    2de2:	05a2                	slli	a1,a1,0x8
    2de4:	8fcd                	or	a5,a5,a1
    2de6:	07c2                	slli	a5,a5,0x10
    2de8:	83c1                	srli	a5,a5,0x10
    2dea:	ad1e                	sh	a5,24(a0)
    2dec:	8082                	ret

00002dee <TIM_OC3PreloadConfig>:
    2dee:	2d5e                	lhu	a5,28(a0)
    2df0:	07c2                	slli	a5,a5,0x10
    2df2:	83c1                	srli	a5,a5,0x10
    2df4:	9bdd                	andi	a5,a5,-9
    2df6:	8ddd                	or	a1,a1,a5
    2df8:	ad4e                	sh	a1,28(a0)
    2dfa:	8082                	ret

00002dfc <TIM_OC4PreloadConfig>:
    2dfc:	2d5a                	lhu	a4,28(a0)
    2dfe:	77fd                	lui	a5,0xfffff
    2e00:	7ff78793          	addi	a5,a5,2047 # fffff7ff <__freertos_irq_stack_top+0xdfffa7ff>
    2e04:	8ff9                	and	a5,a5,a4
    2e06:	05a2                	slli	a1,a1,0x8
    2e08:	8fcd                	or	a5,a5,a1
    2e0a:	07c2                	slli	a5,a5,0x10
    2e0c:	83c1                	srli	a5,a5,0x10
    2e0e:	ad5e                	sh	a5,28(a0)
    2e10:	8082                	ret

00002e12 <TIM_GetITStatus>:
    2e12:	291e                	lhu	a5,16(a0)
    2e14:	254a                	lhu	a0,12(a0)
    2e16:	8fed                	and	a5,a5,a1
    2e18:	0542                	slli	a0,a0,0x10
    2e1a:	8141                	srli	a0,a0,0x10
    2e1c:	c789                	beqz	a5,2e26 <TIM_GetITStatus+0x14>
    2e1e:	8d6d                	and	a0,a0,a1
    2e20:	00a03533          	snez	a0,a0
    2e24:	8082                	ret
    2e26:	4501                	li	a0,0
    2e28:	8082                	ret

00002e2a <TIM_ClearITPendingBit>:
    2e2a:	fff5c593          	not	a1,a1
    2e2e:	05c2                	slli	a1,a1,0x10
    2e30:	81c1                	srli	a1,a1,0x10
    2e32:	a90e                	sh	a1,16(a0)
    2e34:	8082                	ret

00002e36 <USART_Init>:
    2e36:	ee8fd2ef          	jal	t0,51e <__riscv_save_0>
    2e3a:	2916                	lhu	a3,16(a0)
    2e3c:	77f5                	lui	a5,0xffffd
    2e3e:	17fd                	addi	a5,a5,-1
    2e40:	8ff5                	and	a5,a5,a3
    2e42:	21f6                	lhu	a3,6(a1)
    2e44:	25da                	lhu	a4,12(a1)
    2e46:	7179                	addi	sp,sp,-48
    2e48:	8fd5                	or	a5,a5,a3
    2e4a:	a91e                	sh	a5,16(a0)
    2e4c:	2556                	lhu	a3,12(a0)
    2e4e:	77fd                	lui	a5,0xfffff
    2e50:	9f378793          	addi	a5,a5,-1549 # ffffe9f3 <__freertos_irq_stack_top+0xdfff99f3>
    2e54:	8ff5                	and	a5,a5,a3
    2e56:	21d6                	lhu	a3,4(a1)
    2e58:	842a                	mv	s0,a0
    2e5a:	c62e                	sw	a1,12(sp)
    2e5c:	8fd5                	or	a5,a5,a3
    2e5e:	2596                	lhu	a3,8(a1)
    2e60:	8fd5                	or	a5,a5,a3
    2e62:	25b6                	lhu	a3,10(a1)
    2e64:	8fd5                	or	a5,a5,a3
    2e66:	a55e                	sh	a5,12(a0)
    2e68:	295e                	lhu	a5,20(a0)
    2e6a:	07c2                	slli	a5,a5,0x10
    2e6c:	83c1                	srli	a5,a5,0x10
    2e6e:	cff7f793          	andi	a5,a5,-769
    2e72:	8fd9                	or	a5,a5,a4
    2e74:	a95e                	sh	a5,20(a0)
    2e76:	0868                	addi	a0,sp,28
    2e78:	8a7ff0ef          	jal	ra,271e <RCC_GetClocksFreq>
    2e7c:	400147b7          	lui	a5,0x40014
    2e80:	80078793          	addi	a5,a5,-2048 # 40013800 <__freertos_irq_stack_top+0x2000e800>
    2e84:	45b2                	lw	a1,12(sp)
    2e86:	04f41a63          	bne	s0,a5,2eda <USART_Init+0xa4>
    2e8a:	57a2                	lw	a5,40(sp)
    2e8c:	2456                	lhu	a3,12(s0)
    2e8e:	4765                	li	a4,25
    2e90:	02e787b3          	mul	a5,a5,a4
    2e94:	06c2                	slli	a3,a3,0x10
    2e96:	86c1                	srai	a3,a3,0x10
    2e98:	4198                	lw	a4,0(a1)
    2e9a:	0406d263          	bgez	a3,2ede <USART_Init+0xa8>
    2e9e:	0706                	slli	a4,a4,0x1
    2ea0:	2452                	lhu	a2,12(s0)
    2ea2:	0642                	slli	a2,a2,0x10
    2ea4:	02e7d7b3          	divu	a5,a5,a4
    2ea8:	06400713          	li	a4,100
    2eac:	8641                	srai	a2,a2,0x10
    2eae:	02e7d6b3          	divu	a3,a5,a4
    2eb2:	02e7f7b3          	remu	a5,a5,a4
    2eb6:	0692                	slli	a3,a3,0x4
    2eb8:	02065563          	bgez	a2,2ee2 <USART_Init+0xac>
    2ebc:	078e                	slli	a5,a5,0x3
    2ebe:	03278793          	addi	a5,a5,50
    2ec2:	02e7d7b3          	divu	a5,a5,a4
    2ec6:	0077f713          	andi	a4,a5,7
    2eca:	00d767b3          	or	a5,a4,a3
    2ece:	07c2                	slli	a5,a5,0x10
    2ed0:	83c1                	srli	a5,a5,0x10
    2ed2:	a41e                	sh	a5,8(s0)
    2ed4:	6145                	addi	sp,sp,48
    2ed6:	e6cfd06f          	j	542 <__riscv_restore_0>
    2eda:	5792                	lw	a5,36(sp)
    2edc:	bf45                	j	2e8c <USART_Init+0x56>
    2ede:	070a                	slli	a4,a4,0x2
    2ee0:	b7c1                	j	2ea0 <USART_Init+0x6a>
    2ee2:	0792                	slli	a5,a5,0x4
    2ee4:	03278793          	addi	a5,a5,50
    2ee8:	02e7d7b3          	divu	a5,a5,a4
    2eec:	8bbd                	andi	a5,a5,15
    2eee:	8fd5                	or	a5,a5,a3
    2ef0:	bff9                	j	2ece <USART_Init+0x98>

00002ef2 <USART_Cmd>:
    2ef2:	c591                	beqz	a1,2efe <USART_Cmd+0xc>
    2ef4:	255e                	lhu	a5,12(a0)
    2ef6:	6709                	lui	a4,0x2
    2ef8:	8fd9                	or	a5,a5,a4
    2efa:	a55e                	sh	a5,12(a0)
    2efc:	8082                	ret
    2efe:	255a                	lhu	a4,12(a0)
    2f00:	77f9                	lui	a5,0xffffe
    2f02:	17fd                	addi	a5,a5,-1
    2f04:	8ff9                	and	a5,a5,a4
    2f06:	bfd5                	j	2efa <USART_Cmd+0x8>

00002f08 <USART_SendData>:
    2f08:	1ff5f593          	andi	a1,a1,511
    2f0c:	a14e                	sh	a1,4(a0)
    2f0e:	8082                	ret

00002f10 <USART_GetFlagStatus>:
    2f10:	210a                	lhu	a0,0(a0)
    2f12:	8d6d                	and	a0,a0,a1
    2f14:	00a03533          	snez	a0,a0
    2f18:	8082                	ret

00002f1a <vAINInit>:
    2f1a:	200017b7          	lui	a5,0x20001
    2f1e:	6a878793          	addi	a5,a5,1704 # 200016a8 <xAinData>
    2f22:	0007a023          	sw	zero,0(a5)
    2f26:	0007a223          	sw	zero,4(a5)
    2f2a:	00079423          	sh	zero,8(a5)
    2f2e:	200017b7          	lui	a5,0x20001
    2f32:	69878793          	addi	a5,a5,1688 # 20001698 <muRawVData>
    2f36:	0007a023          	sw	zero,0(a5)
    2f3a:	0007a223          	sw	zero,4(a5)
    2f3e:	0007a423          	sw	zero,8(a5)
    2f42:	00079623          	sh	zero,12(a5)
    2f46:	200007b7          	lui	a5,0x20000
    2f4a:	5e079623          	sh	zero,1516(a5) # 200005ec <usCurMaxIndex>
    2f4e:	8082                	ret

00002f50 <getADC1Buffer>:
    2f50:	20001537          	lui	a0,0x20001
    2f54:	67850513          	addi	a0,a0,1656 # 20001678 <ADC1_IN_Buffer>
    2f58:	8082                	ret

00002f5a <xGetDIN>:
    2f5a:	47f1                	li	a5,28
    2f5c:	02f50533          	mul	a0,a0,a5
    2f60:	200017b7          	lui	a5,0x20001
    2f64:	6b478793          	addi	a5,a5,1716 # 200016b4 <xDinConfig>
    2f68:	953e                	add	a0,a0,a5
    2f6a:	295c                	lbu	a5,20(a0)
    2f6c:	3958                	lbu	a4,21(a0)
    2f6e:	00f70663          	beq	a4,a5,2f7a <xGetDIN+0x20>
    2f72:	b95c                	sb	a5,21(a0)
    2f74:	a19c                	sb	a5,0(a1)
    2f76:	4509                	li	a0,2
    2f78:	8082                	ret
    2f7a:	450d                	li	a0,3
    2f7c:	8082                	ret

00002f7e <xGetRPM>:
    2f7e:	d86fd2ef          	jal	t0,504 <__riscv_save_4>
    2f82:	4471                	li	s0,28
    2f84:	02850533          	mul	a0,a0,s0
    2f88:	20001437          	lui	s0,0x20001
    2f8c:	6b440413          	addi	s0,s0,1716 # 200016b4 <xDinConfig>
    2f90:	942a                	add	s0,s0,a0
    2f92:	00042983          	lw	s3,0(s0)
    2f96:	481c                	lw	a5,16(s0)
    2f98:	450d                	li	a0,3
    2f9a:	02c9a483          	lw	s1,44(s3)
    2f9e:	04f48763          	beq	s1,a5,2fec <xGetRPM+0x6e>
    2fa2:	8526                	mv	a0,s1
    2fa4:	892e                	mv	s2,a1
    2fa6:	4a3030ef          	jal	ra,6c48 <__floatunsisf>
    2faa:	000087b7          	lui	a5,0x8
    2fae:	21c7a583          	lw	a1,540(a5) # 821c <DigitMask+0x58>
    2fb2:	0eb030ef          	jal	ra,689c <__mulsf3>
    2fb6:	000087b7          	lui	a5,0x8
    2fba:	85aa                	mv	a1,a0
    2fbc:	2207a503          	lw	a0,544(a5) # 8220 <DigitMask+0x5c>
    2fc0:	62e030ef          	jal	ra,65ee <__divsf3>
    2fc4:	369030ef          	jal	ra,6b2c <__fixunssfsi>
    2fc8:	03c00793          	li	a5,60
    2fcc:	02f50533          	mul	a0,a0,a5
    2fd0:	0542                	slli	a0,a0,0x10
    2fd2:	8141                	srli	a0,a0,0x10
    2fd4:	3af030ef          	jal	ra,6b82 <__floatsisf>
    2fd8:	0349a583          	lw	a1,52(s3)
    2fdc:	0c1030ef          	jal	ra,689c <__mulsf3>
    2fe0:	34d030ef          	jal	ra,6b2c <__fixunssfsi>
    2fe4:	00a91023          	sh	a0,0(s2)
    2fe8:	c804                	sw	s1,16(s0)
    2fea:	4509                	li	a0,2
    2fec:	d4cfd06f          	j	538 <__riscv_restore_4>

00002ff0 <vInitEEPROM>:
    2ff0:	d2efd2ef          	jal	t0,51e <__riscv_save_0>
    2ff4:	862e                	mv	a2,a1
    2ff6:	85aa                	mv	a1,a0
    2ff8:	40005537          	lui	a0,0x40005
    2ffc:	40050513          	addi	a0,a0,1024 # 40005400 <__freertos_irq_stack_top+0x20000400>
    3000:	49f000ef          	jal	ra,3c9e <InitI2CDMA>
    3004:	d3efd06f          	j	542 <__riscv_restore_0>

00003008 <xGetEEPROM>:
    3008:	20001537          	lui	a0,0x20001
    300c:	70850513          	addi	a0,a0,1800 # 20001708 <Dev>
    3010:	8082                	ret

00003012 <eEEPROMWr>:
    3012:	6785                	lui	a5,0x1
    3014:	00c50733          	add	a4,a0,a2
    3018:	80078793          	addi	a5,a5,-2048 # 800 <__stack_size>
    301c:	0ae7c163          	blt	a5,a4,30be <eEEPROMWr+0xac>
    3020:	cd6fd2ef          	jal	t0,4f6 <__riscv_save_10>
    3024:	8c2a                	mv	s8,a0
    3026:	1141                	addi	sp,sp,-16
    3028:	8432                	mv	s0,a2
    302a:	4509                	li	a0,2
    302c:	c61d                	beqz	a2,305a <eEEPROMWr+0x48>
    302e:	20001b37          	lui	s6,0x20001
    3032:	4785                	li	a5,1
    3034:	89ae                	mv	s3,a1
    3036:	8a36                	mv	s4,a3
    3038:	708b0b13          	addi	s6,s6,1800 # 20001708 <Dev>
    303c:	4901                	li	s2,0
    303e:	4ac1                	li	s5,16
    3040:	02f61063          	bne	a2,a5,3060 <eEEPROMWr+0x4e>
    3044:	024b2803          	lw	a6,36(s6)
    3048:	87b6                	mv	a5,a3
    304a:	862e                	mv	a2,a1
    304c:	06400713          	li	a4,100
    3050:	4689                	li	a3,2
    3052:	85e2                	mv	a1,s8
    3054:	0a000513          	li	a0,160
    3058:	9802                	jalr	a6
    305a:	0141                	addi	sp,sp,16
    305c:	cd2fd06f          	j	52e <__riscv_restore_10>
    3060:	00fc7793          	andi	a5,s8,15
    3064:	40fa87b3          	sub	a5,s5,a5
    3068:	07c2                	slli	a5,a5,0x10
    306a:	83c1                	srli	a5,a5,0x10
    306c:	84be                	mv	s1,a5
    306e:	00f47363          	bgeu	s0,a5,3074 <eEEPROMWr+0x62>
    3072:	84a2                	mv	s1,s0
    3074:	04c2                	slli	s1,s1,0x10
    3076:	80c1                	srli	s1,s1,0x10
    3078:	4b99                	li	s7,6
    307a:	01298cb3          	add	s9,s3,s2
    307e:	024b2803          	lw	a6,36(s6)
    3082:	87d2                	mv	a5,s4
    3084:	4729                	li	a4,10
    3086:	86a6                	mv	a3,s1
    3088:	8666                	mv	a2,s9
    308a:	85e2                	mv	a1,s8
    308c:	0a000513          	li	a0,160
    3090:	9802                	jalr	a6
    3092:	c901                	beqz	a0,30a2 <eEEPROMWr+0x90>
    3094:	c62a                	sw	a0,12(sp)
    3096:	1bfd                	addi	s7,s7,-1
    3098:	396010ef          	jal	ra,442e <HAL_WDTReset>
    309c:	4532                	lw	a0,12(sp)
    309e:	fe0b90e3          	bnez	s7,307e <eEEPROMWr+0x6c>
    30a2:	8c05                	sub	s0,s0,s1
    30a4:	9926                	add	s2,s2,s1
    30a6:	0442                	slli	s0,s0,0x10
    30a8:	94e2                	add	s1,s1,s8
    30aa:	0942                	slli	s2,s2,0x10
    30ac:	01049c13          	slli	s8,s1,0x10
    30b0:	8041                	srli	s0,s0,0x10
    30b2:	01095913          	srli	s2,s2,0x10
    30b6:	010c5c13          	srli	s8,s8,0x10
    30ba:	f05d                	bnez	s0,3060 <eEEPROMWr+0x4e>
    30bc:	bf79                	j	305a <eEEPROMWr+0x48>
    30be:	4509                	li	a0,2
    30c0:	8082                	ret

000030c2 <eEEPROMRd>:
    30c2:	6785                	lui	a5,0x1
    30c4:	00c50733          	add	a4,a0,a2
    30c8:	80078793          	addi	a5,a5,-2048 # 800 <__stack_size>
    30cc:	02e7c363          	blt	a5,a4,30f2 <eEEPROMRd+0x30>
    30d0:	c4efd2ef          	jal	t0,51e <__riscv_save_0>
    30d4:	20001737          	lui	a4,0x20001
    30d8:	72872803          	lw	a6,1832(a4) # 20001728 <Dev+0x20>
    30dc:	87b6                	mv	a5,a3
    30de:	06400713          	li	a4,100
    30e2:	86b2                	mv	a3,a2
    30e4:	862e                	mv	a2,a1
    30e6:	85aa                	mv	a1,a0
    30e8:	0a000513          	li	a0,160
    30ec:	9802                	jalr	a6
    30ee:	c54fd06f          	j	542 <__riscv_restore_0>
    30f2:	4509                	li	a0,2
    30f4:	8082                	ret

000030f6 <Get_ConversionVal>:
    30f6:	200007b7          	lui	a5,0x20000
    30fa:	5ee79703          	lh	a4,1518(a5) # 200005ee <Calibrattion_Val>
    30fe:	4781                	li	a5,0
    3100:	972a                	add	a4,a4,a0
    3102:	00074f63          	bltz	a4,3120 <Get_ConversionVal+0x2a>
    3106:	cd09                	beqz	a0,3120 <Get_ConversionVal+0x2a>
    3108:	6605                	lui	a2,0x1
    310a:	fff60693          	addi	a3,a2,-1 # fff <vRedrawTask+0x127>
    310e:	87b6                	mv	a5,a3
    3110:	00c75863          	bge	a4,a2,3120 <Get_ConversionVal+0x2a>
    3114:	87aa                	mv	a5,a0
    3116:	00d50563          	beq	a0,a3,3120 <Get_ConversionVal+0x2a>
    311a:	01071793          	slli	a5,a4,0x10
    311e:	83c1                	srli	a5,a5,0x10
    3120:	853e                	mv	a0,a5
    3122:	8082                	ret

00003124 <HAL_ADC_CommonConfig>:
    3124:	bfafd2ef          	jal	t0,51e <__riscv_save_0>
    3128:	6531                	lui	a0,0xc
    312a:	d8eff0ef          	jal	ra,26b8 <RCC_ADCCLKConfig>
    312e:	c14fd06f          	j	542 <__riscv_restore_0>

00003132 <HAL_ADC_ContiniusScanCinvertionDMA>:
    3132:	bd2fd2ef          	jal	t0,504 <__riscv_save_4>
    3136:	400127b7          	lui	a5,0x40012
    313a:	40078793          	addi	a5,a5,1024 # 40012400 <__freertos_irq_stack_top+0x2000d400>
    313e:	892e                	mv	s2,a1
    3140:	1101                	addi	sp,sp,-32
    3142:	842a                	mv	s0,a0
    3144:	8a32                	mv	s4,a2
    3146:	4585                	li	a1,1
    3148:	08f51f63          	bne	a0,a5,31e6 <HAL_ADC_ContiniusScanCinvertionDMA+0xb4>
    314c:	20000513          	li	a0,512
    3150:	eaaff0ef          	jal	ra,27fa <RCC_APB2PeriphClockCmd>
    3154:	3fc1                	jal	3124 <HAL_ADC_CommonConfig>
    3156:	8522                	mv	a0,s0
    3158:	ac7fe0ef          	jal	ra,1c1e <ADC_DeInit>
    315c:	4785                	li	a5,1
    315e:	c23e                	sw	a5,4(sp)
    3160:	c43e                	sw	a5,8(sp)
    3162:	858a                	mv	a1,sp
    3164:	000e07b7          	lui	a5,0xe0
    3168:	8522                	mv	a0,s0
    316a:	c63e                	sw	a5,12(sp)
    316c:	c002                	sw	zero,0(sp)
    316e:	c802                	sw	zero,16(sp)
    3170:	01210a23          	sb	s2,20(sp)
    3174:	cc02                	sw	zero,24(sp)
    3176:	ce02                	sw	zero,28(sp)
    3178:	64a1                	lui	s1,0x8
    317a:	aebfe0ef          	jal	ra,1c64 <ADC_Init>
    317e:	4781                	li	a5,0
    3180:	22448493          	addi	s1,s1,548 # 8224 <ADC_chennel_ref>
    3184:	07279463          	bne	a5,s2,31ec <HAL_ADC_ContiniusScanCinvertionDMA+0xba>
    3188:	40012537          	lui	a0,0x40012
    318c:	4585                	li	a1,1
    318e:	40050513          	addi	a0,a0,1024 # 40012400 <__freertos_irq_stack_top+0x2000d400>
    3192:	c3ffe0ef          	jal	ra,1dd0 <ADC_ExternalTrigConvCmd>
    3196:	4585                	li	a1,1
    3198:	8522                	mv	a0,s0
    319a:	b31fe0ef          	jal	ra,1cca <ADC_DMACmd>
    319e:	4585                	li	a1,1
    31a0:	8522                	mv	a0,s0
    31a2:	b19fe0ef          	jal	ra,1cba <ADC_Cmd>
    31a6:	8522                	mv	a0,s0
    31a8:	4581                	li	a1,0
    31aa:	c65fe0ef          	jal	ra,1e0e <ADC_BufferCmd>
    31ae:	8522                	mv	a0,s0
    31b0:	b2dfe0ef          	jal	ra,1cdc <ADC_ResetCalibration>
    31b4:	8522                	mv	a0,s0
    31b6:	b31fe0ef          	jal	ra,1ce6 <ADC_GetResetCalibrationStatus>
    31ba:	fd6d                	bnez	a0,31b4 <HAL_ADC_ContiniusScanCinvertionDMA+0x82>
    31bc:	8522                	mv	a0,s0
    31be:	b31fe0ef          	jal	ra,1cee <ADC_StartCalibration>
    31c2:	8522                	mv	a0,s0
    31c4:	b35fe0ef          	jal	ra,1cf8 <ADC_GetCalibrationStatus>
    31c8:	fd6d                	bnez	a0,31c2 <HAL_ADC_ContiniusScanCinvertionDMA+0x90>
    31ca:	8522                	mv	a0,s0
    31cc:	c5bfe0ef          	jal	ra,1e26 <Get_CalibrationValue>
    31d0:	200007b7          	lui	a5,0x20000
    31d4:	5ea79723          	sh	a0,1518(a5) # 200005ee <Calibrattion_Val>
    31d8:	4585                	li	a1,1
    31da:	8522                	mv	a0,s0
    31dc:	c33fe0ef          	jal	ra,1e0e <ADC_BufferCmd>
    31e0:	6105                	addi	sp,sp,32
    31e2:	b56fd06f          	j	538 <__riscv_restore_4>
    31e6:	40000513          	li	a0,1024
    31ea:	b79d                	j	3150 <HAL_ADC_ContiniusScanCinvertionDMA+0x1e>
    31ec:	00178993          	addi	s3,a5,1
    31f0:	97d2                	add	a5,a5,s4
    31f2:	239c                	lbu	a5,0(a5)
    31f4:	469d                	li	a3,7
    31f6:	0ff9f613          	andi	a2,s3,255
    31fa:	97a6                	add	a5,a5,s1
    31fc:	238c                	lbu	a1,0(a5)
    31fe:	8522                	mv	a0,s0
    3200:	b19fe0ef          	jal	ra,1d18 <ADC_RegularChannelConfig>
    3204:	87ce                	mv	a5,s3
    3206:	bfbd                	j	3184 <HAL_ADC_ContiniusScanCinvertionDMA+0x52>

00003208 <USB_HP_CAN1_TX_IRQHandler>:
    3208:	715d                	addi	sp,sp,-80
    320a:	de22                	sw	s0,60(sp)
    320c:	dc26                	sw	s1,56(sp)
    320e:	40006437          	lui	s0,0x40006
    3212:	380004b7          	lui	s1,0x38000
    3216:	da2a                	sw	a0,52(sp)
    3218:	d82e                	sw	a1,48(sp)
    321a:	40040513          	addi	a0,s0,1024 # 40006400 <__freertos_irq_stack_top+0x20001400>
    321e:	00148593          	addi	a1,s1,1 # 38000001 <__freertos_irq_stack_top+0x17ffb001>
    3222:	d03e                	sw	a5,32(sp)
    3224:	c686                	sw	ra,76(sp)
    3226:	c496                	sw	t0,72(sp)
    3228:	c29a                	sw	t1,68(sp)
    322a:	c09e                	sw	t2,64(sp)
    322c:	d632                	sw	a2,44(sp)
    322e:	d436                	sw	a3,40(sp)
    3230:	d23a                	sw	a4,36(sp)
    3232:	ce42                	sw	a6,28(sp)
    3234:	cc46                	sw	a7,24(sp)
    3236:	ca72                	sw	t3,20(sp)
    3238:	c876                	sw	t4,16(sp)
    323a:	c67a                	sw	t5,12(sp)
    323c:	c47e                	sw	t6,8(sp)
    323e:	df7fe0ef          	jal	ra,2034 <CAN_GetFlagStatus>
    3242:	4785                	li	a5,1
    3244:	00f51863          	bne	a0,a5,3254 <USB_HP_CAN1_TX_IRQHandler+0x4c>
    3248:	00148593          	addi	a1,s1,1
    324c:	40040513          	addi	a0,s0,1024
    3250:	e3bfe0ef          	jal	ra,208a <CAN_ClearFlag>
    3254:	380004b7          	lui	s1,0x38000
    3258:	40006437          	lui	s0,0x40006
    325c:	10048593          	addi	a1,s1,256 # 38000100 <__freertos_irq_stack_top+0x17ffb100>
    3260:	40040513          	addi	a0,s0,1024 # 40006400 <__freertos_irq_stack_top+0x20001400>
    3264:	dd1fe0ef          	jal	ra,2034 <CAN_GetFlagStatus>
    3268:	4785                	li	a5,1
    326a:	00f51863          	bne	a0,a5,327a <USB_HP_CAN1_TX_IRQHandler+0x72>
    326e:	10048593          	addi	a1,s1,256
    3272:	40040513          	addi	a0,s0,1024
    3276:	e15fe0ef          	jal	ra,208a <CAN_ClearFlag>
    327a:	40006437          	lui	s0,0x40006
    327e:	380105b7          	lui	a1,0x38010
    3282:	40040513          	addi	a0,s0,1024 # 40006400 <__freertos_irq_stack_top+0x20001400>
    3286:	daffe0ef          	jal	ra,2034 <CAN_GetFlagStatus>
    328a:	4785                	li	a5,1
    328c:	00f51863          	bne	a0,a5,329c <USB_HP_CAN1_TX_IRQHandler+0x94>
    3290:	380105b7          	lui	a1,0x38010
    3294:	40040513          	addi	a0,s0,1024
    3298:	df3fe0ef          	jal	ra,208a <CAN_ClearFlag>
    329c:	200017b7          	lui	a5,0x20001
    32a0:	7347a783          	lw	a5,1844(a5) # 20001734 <CAN+0x4>
    32a4:	9782                	jalr	a5
    32a6:	40006537          	lui	a0,0x40006
    32aa:	4585                	li	a1,1
    32ac:	40050513          	addi	a0,a0,1024 # 40006400 <__freertos_irq_stack_top+0x20001400>
    32b0:	e1bfe0ef          	jal	ra,20ca <CAN_ClearITPendingBit>
    32b4:	5472                	lw	s0,60(sp)
    32b6:	40b6                	lw	ra,76(sp)
    32b8:	42a6                	lw	t0,72(sp)
    32ba:	4316                	lw	t1,68(sp)
    32bc:	4386                	lw	t2,64(sp)
    32be:	54e2                	lw	s1,56(sp)
    32c0:	5552                	lw	a0,52(sp)
    32c2:	55c2                	lw	a1,48(sp)
    32c4:	5632                	lw	a2,44(sp)
    32c6:	56a2                	lw	a3,40(sp)
    32c8:	5712                	lw	a4,36(sp)
    32ca:	5782                	lw	a5,32(sp)
    32cc:	4872                	lw	a6,28(sp)
    32ce:	48e2                	lw	a7,24(sp)
    32d0:	4e52                	lw	t3,20(sp)
    32d2:	4ec2                	lw	t4,16(sp)
    32d4:	4f32                	lw	t5,12(sp)
    32d6:	4fa2                	lw	t6,8(sp)
    32d8:	6161                	addi	sp,sp,80
    32da:	30200073          	mret

000032de <USB_LP_CAN1_RX0_IRQHandler>:
    32de:	7139                	addi	sp,sp,-64
    32e0:	cc3e                	sw	a5,24(sp)
    32e2:	200017b7          	lui	a5,0x20001
    32e6:	7307a783          	lw	a5,1840(a5) # 20001730 <CAN>
    32ea:	de06                	sw	ra,60(sp)
    32ec:	dc16                	sw	t0,56(sp)
    32ee:	da1a                	sw	t1,52(sp)
    32f0:	d81e                	sw	t2,48(sp)
    32f2:	d62a                	sw	a0,44(sp)
    32f4:	d42e                	sw	a1,40(sp)
    32f6:	d232                	sw	a2,36(sp)
    32f8:	d036                	sw	a3,32(sp)
    32fa:	ce3a                	sw	a4,28(sp)
    32fc:	ca42                	sw	a6,20(sp)
    32fe:	c846                	sw	a7,16(sp)
    3300:	c672                	sw	t3,12(sp)
    3302:	c476                	sw	t4,8(sp)
    3304:	c27a                	sw	t5,4(sp)
    3306:	c07e                	sw	t6,0(sp)
    3308:	4501                	li	a0,0
    330a:	9782                	jalr	a5
    330c:	40006537          	lui	a0,0x40006
    3310:	4591                	li	a1,4
    3312:	40050513          	addi	a0,a0,1024 # 40006400 <__freertos_irq_stack_top+0x20001400>
    3316:	db5fe0ef          	jal	ra,20ca <CAN_ClearITPendingBit>
    331a:	50f2                	lw	ra,60(sp)
    331c:	52e2                	lw	t0,56(sp)
    331e:	5352                	lw	t1,52(sp)
    3320:	53c2                	lw	t2,48(sp)
    3322:	5532                	lw	a0,44(sp)
    3324:	55a2                	lw	a1,40(sp)
    3326:	5612                	lw	a2,36(sp)
    3328:	5682                	lw	a3,32(sp)
    332a:	4772                	lw	a4,28(sp)
    332c:	47e2                	lw	a5,24(sp)
    332e:	4852                	lw	a6,20(sp)
    3330:	48c2                	lw	a7,16(sp)
    3332:	4e32                	lw	t3,12(sp)
    3334:	4ea2                	lw	t4,8(sp)
    3336:	4f12                	lw	t5,4(sp)
    3338:	4f82                	lw	t6,0(sp)
    333a:	6121                	addi	sp,sp,64
    333c:	30200073          	mret

00003340 <CAN1_RX1_IRQHandler>:
    3340:	7139                	addi	sp,sp,-64
    3342:	cc3e                	sw	a5,24(sp)
    3344:	200017b7          	lui	a5,0x20001
    3348:	7307a783          	lw	a5,1840(a5) # 20001730 <CAN>
    334c:	de06                	sw	ra,60(sp)
    334e:	dc16                	sw	t0,56(sp)
    3350:	da1a                	sw	t1,52(sp)
    3352:	d81e                	sw	t2,48(sp)
    3354:	d62a                	sw	a0,44(sp)
    3356:	d42e                	sw	a1,40(sp)
    3358:	d232                	sw	a2,36(sp)
    335a:	d036                	sw	a3,32(sp)
    335c:	ce3a                	sw	a4,28(sp)
    335e:	ca42                	sw	a6,20(sp)
    3360:	c846                	sw	a7,16(sp)
    3362:	c672                	sw	t3,12(sp)
    3364:	c476                	sw	t4,8(sp)
    3366:	c27a                	sw	t5,4(sp)
    3368:	c07e                	sw	t6,0(sp)
    336a:	4505                	li	a0,1
    336c:	9782                	jalr	a5
    336e:	40006537          	lui	a0,0x40006
    3372:	02000593          	li	a1,32
    3376:	40050513          	addi	a0,a0,1024 # 40006400 <__freertos_irq_stack_top+0x20001400>
    337a:	d51fe0ef          	jal	ra,20ca <CAN_ClearITPendingBit>
    337e:	50f2                	lw	ra,60(sp)
    3380:	52e2                	lw	t0,56(sp)
    3382:	5352                	lw	t1,52(sp)
    3384:	53c2                	lw	t2,48(sp)
    3386:	5532                	lw	a0,44(sp)
    3388:	55a2                	lw	a1,40(sp)
    338a:	5612                	lw	a2,36(sp)
    338c:	5682                	lw	a3,32(sp)
    338e:	4772                	lw	a4,28(sp)
    3390:	47e2                	lw	a5,24(sp)
    3392:	4852                	lw	a6,20(sp)
    3394:	48c2                	lw	a7,16(sp)
    3396:	4e32                	lw	t3,12(sp)
    3398:	4ea2                	lw	t4,8(sp)
    339a:	4f12                	lw	t5,4(sp)
    339c:	4f82                	lw	t6,0(sp)
    339e:	6121                	addi	sp,sp,64
    33a0:	30200073          	mret

000033a4 <CAN1_SCE_IRQHandler>:
    33a4:	7139                	addi	sp,sp,-64
    33a6:	d62a                	sw	a0,44(sp)
    33a8:	40006537          	lui	a0,0x40006
    33ac:	d42e                	sw	a1,40(sp)
    33ae:	40050513          	addi	a0,a0,1024 # 40006400 <__freertos_irq_stack_top+0x20001400>
    33b2:	40000593          	li	a1,1024
    33b6:	de06                	sw	ra,60(sp)
    33b8:	dc16                	sw	t0,56(sp)
    33ba:	da1a                	sw	t1,52(sp)
    33bc:	d81e                	sw	t2,48(sp)
    33be:	d232                	sw	a2,36(sp)
    33c0:	d036                	sw	a3,32(sp)
    33c2:	ce3a                	sw	a4,28(sp)
    33c4:	cc3e                	sw	a5,24(sp)
    33c6:	ca42                	sw	a6,20(sp)
    33c8:	c846                	sw	a7,16(sp)
    33ca:	c672                	sw	t3,12(sp)
    33cc:	c476                	sw	t4,8(sp)
    33ce:	c27a                	sw	t5,4(sp)
    33d0:	c07e                	sw	t6,0(sp)
    33d2:	cf9fe0ef          	jal	ra,20ca <CAN_ClearITPendingBit>
    33d6:	200017b7          	lui	a5,0x20001
    33da:	7387a783          	lw	a5,1848(a5) # 20001738 <CAN+0x8>
    33de:	9782                	jalr	a5
    33e0:	50f2                	lw	ra,60(sp)
    33e2:	52e2                	lw	t0,56(sp)
    33e4:	5352                	lw	t1,52(sp)
    33e6:	53c2                	lw	t2,48(sp)
    33e8:	5532                	lw	a0,44(sp)
    33ea:	55a2                	lw	a1,40(sp)
    33ec:	5612                	lw	a2,36(sp)
    33ee:	5682                	lw	a3,32(sp)
    33f0:	4772                	lw	a4,28(sp)
    33f2:	47e2                	lw	a5,24(sp)
    33f4:	4852                	lw	a6,20(sp)
    33f6:	48c2                	lw	a7,16(sp)
    33f8:	4e32                	lw	t3,12(sp)
    33fa:	4ea2                	lw	t4,8(sp)
    33fc:	4f12                	lw	t5,4(sp)
    33fe:	4f82                	lw	t6,0(sp)
    3400:	6121                	addi	sp,sp,64
    3402:	30200073          	mret

00003406 <HAL_DMA_Enable>:
    3406:	918fd2ef          	jal	t0,51e <__riscv_save_0>
    340a:	4585                	li	a1,1
    340c:	d8bfe0ef          	jal	ra,2196 <DMA_Cmd>
    3410:	932fd06f          	j	542 <__riscv_restore_0>

00003414 <HAL_DMA_Disable>:
    3414:	90afd2ef          	jal	t0,51e <__riscv_save_0>
    3418:	4581                	li	a1,0
    341a:	d7dfe0ef          	jal	ra,2196 <DMA_Cmd>
    341e:	924fd06f          	j	542 <__riscv_restore_0>

00003422 <HAL_DMA_SetCounter>:
    3422:	8fcfd2ef          	jal	t0,51e <__riscv_save_0>
    3426:	05c2                	slli	a1,a1,0x10
    3428:	81c1                	srli	a1,a1,0x10
    342a:	d93fe0ef          	jal	ra,21bc <DMA_SetCurrDataCounter>
    342e:	914fd06f          	j	542 <__riscv_restore_0>

00003432 <HAL_DMAInitIT>:
    3432:	8d2fd2ef          	jal	t0,504 <__riscv_save_4>
    3436:	715d                	addi	sp,sp,-80
    3438:	842a                	mv	s0,a0
    343a:	8a2e                	mv	s4,a1
    343c:	4505                	li	a0,1
    343e:	4585                	li	a1,1
    3440:	c632                	sw	a2,12(sp)
    3442:	c436                	sw	a3,8(sp)
    3444:	c23a                	sw	a4,4(sp)
    3446:	8b42                	mv	s6,a6
    3448:	8ac6                	mv	s5,a7
    344a:	59c6                	lw	s3,112(sp)
    344c:	ce02                	sw	zero,28(sp)
    344e:	d002                	sw	zero,32(sp)
    3450:	b8cff0ef          	jal	ra,27dc <RCC_AHBPeriphClockCmd>
    3454:	4712                	lw	a4,4(sp)
    3456:	46a2                	lw	a3,8(sp)
    3458:	4632                	lw	a2,12(sp)
    345a:	060a0e63          	beqz	s4,34d6 <HAL_DMAInitIT+0xa4>
    345e:	4785                	li	a5,1
    3460:	00fa1463          	bne	s4,a5,3468 <HAL_DMAInitIT+0x36>
    3464:	47c1                	li	a5,16
    3466:	d63e                	sw	a5,44(sp)
    3468:	4785                	li	a5,1
    346a:	06f60b63          	beq	a2,a5,34e0 <HAL_DMAInitIT+0xae>
    346e:	c635                	beqz	a2,34da <HAL_DMAInitIT+0xa8>
    3470:	4789                	li	a5,2
    3472:	06f60e63          	beq	a2,a5,34ee <HAL_DMAInitIT+0xbc>
    3476:	400207b7          	lui	a5,0x40020
    347a:	00878613          	addi	a2,a5,8 # 40020008 <__freertos_irq_stack_top+0x2001b008>
    347e:	06c41f63          	bne	s0,a2,34fc <HAL_DMAInitIT+0xca>
    3482:	200017b7          	lui	a5,0x20001
    3486:	7337ae23          	sw	s3,1852(a5) # 2000173c <DMA_CALLback>
    348a:	44ed                	li	s1,27
    348c:	4905                	li	s2,1
    348e:	08000793          	li	a5,128
    3492:	dc3e                	sw	a5,56(sp)
    3494:	104c                	addi	a1,sp,36
    3496:	6785                	lui	a5,0x1
    3498:	8522                	mv	a0,s0
    349a:	d236                	sw	a3,36(sp)
    349c:	d43a                	sw	a4,40(sp)
    349e:	c4be                	sw	a5,72(sp)
    34a0:	da02                	sw	zero,52(sp)
    34a2:	c282                	sw	zero,68(sp)
    34a4:	c682                	sw	zero,76(sp)
    34a6:	cb9fe0ef          	jal	ra,215e <DMA_Init>
    34aa:	4605                	li	a2,1
    34ac:	4589                	li	a1,2
    34ae:	8522                	mv	a0,s0
    34b0:	cfbfe0ef          	jal	ra,21aa <DMA_ITConfig>
    34b4:	854a                	mv	a0,s2
    34b6:	d23fe0ef          	jal	ra,21d8 <DMA_ClearITPendingBit>
    34ba:	4785                	li	a5,1
    34bc:	0868                	addi	a0,sp,28
    34be:	00910e23          	sb	s1,28(sp)
    34c2:	01610ea3          	sb	s6,29(sp)
    34c6:	01510f23          	sb	s5,30(sp)
    34ca:	d03e                	sw	a5,32(sp)
    34cc:	92cff0ef          	jal	ra,25f8 <NVIC_Init>
    34d0:	6161                	addi	sp,sp,80
    34d2:	866fd06f          	j	538 <__riscv_restore_4>
    34d6:	d602                	sw	zero,44(sp)
    34d8:	bf41                	j	3468 <HAL_DMAInitIT+0x36>
    34da:	c082                	sw	zero,64(sp)
    34dc:	de02                	sw	zero,60(sp)
    34de:	bf61                	j	3476 <HAL_DMAInitIT+0x44>
    34e0:	40000793          	li	a5,1024
    34e4:	c0be                	sw	a5,64(sp)
    34e6:	10000793          	li	a5,256
    34ea:	de3e                	sw	a5,60(sp)
    34ec:	b769                	j	3476 <HAL_DMAInitIT+0x44>
    34ee:	6785                	lui	a5,0x1
    34f0:	80078793          	addi	a5,a5,-2048 # 800 <__stack_size>
    34f4:	c0be                	sw	a5,64(sp)
    34f6:	20000793          	li	a5,512
    34fa:	bfc5                	j	34ea <HAL_DMAInitIT+0xb8>
    34fc:	01c78613          	addi	a2,a5,28
    3500:	00c41963          	bne	s0,a2,3512 <HAL_DMAInitIT+0xe0>
    3504:	200017b7          	lui	a5,0x20001
    3508:	7537a023          	sw	s3,1856(a5) # 20001740 <DMA_CALLback+0x4>
    350c:	44f1                	li	s1,28
    350e:	4941                	li	s2,16
    3510:	bfbd                	j	348e <HAL_DMAInitIT+0x5c>
    3512:	03078613          	addi	a2,a5,48
    3516:	00c41a63          	bne	s0,a2,352a <HAL_DMAInitIT+0xf8>
    351a:	200017b7          	lui	a5,0x20001
    351e:	7537a223          	sw	s3,1860(a5) # 20001744 <DMA_CALLback+0x8>
    3522:	44f5                	li	s1,29
    3524:	10000913          	li	s2,256
    3528:	b79d                	j	348e <HAL_DMAInitIT+0x5c>
    352a:	04478613          	addi	a2,a5,68
    352e:	00c41963          	bne	s0,a2,3540 <HAL_DMAInitIT+0x10e>
    3532:	200017b7          	lui	a5,0x20001
    3536:	7537a423          	sw	s3,1864(a5) # 20001748 <DMA_CALLback+0xc>
    353a:	44f9                	li	s1,30
    353c:	6905                	lui	s2,0x1
    353e:	bf81                	j	348e <HAL_DMAInitIT+0x5c>
    3540:	05878613          	addi	a2,a5,88
    3544:	00c41963          	bne	s0,a2,3556 <HAL_DMAInitIT+0x124>
    3548:	200017b7          	lui	a5,0x20001
    354c:	7537a623          	sw	s3,1868(a5) # 2000174c <DMA_CALLback+0x10>
    3550:	44fd                	li	s1,31
    3552:	6941                	lui	s2,0x10
    3554:	bf2d                	j	348e <HAL_DMAInitIT+0x5c>
    3556:	06c78613          	addi	a2,a5,108
    355a:	00c41b63          	bne	s0,a2,3570 <HAL_DMAInitIT+0x13e>
    355e:	200017b7          	lui	a5,0x20001
    3562:	7537a823          	sw	s3,1872(a5) # 20001750 <DMA_CALLback+0x14>
    3566:	02000493          	li	s1,32
    356a:	00100937          	lui	s2,0x100
    356e:	b705                	j	348e <HAL_DMAInitIT+0x5c>
    3570:	08078613          	addi	a2,a5,128
    3574:	00c41b63          	bne	s0,a2,358a <HAL_DMAInitIT+0x158>
    3578:	200017b7          	lui	a5,0x20001
    357c:	7537aa23          	sw	s3,1876(a5) # 20001754 <DMA_CALLback+0x18>
    3580:	02100493          	li	s1,33
    3584:	01000937          	lui	s2,0x1000
    3588:	b719                	j	348e <HAL_DMAInitIT+0x5c>
    358a:	09478793          	addi	a5,a5,148
    358e:	f0f410e3          	bne	s0,a5,348e <HAL_DMAInitIT+0x5c>
    3592:	200017b7          	lui	a5,0x20001
    3596:	7537ac23          	sw	s3,1880(a5) # 20001758 <InitPort>
    359a:	03e00493          	li	s1,62
    359e:	10000937          	lui	s2,0x10000
    35a2:	b5f5                	j	348e <HAL_DMAInitIT+0x5c>

000035a4 <HAL_ADC_StartDMA>:
    35a4:	f7bfc2ef          	jal	t0,51e <__riscv_save_0>
    35a8:	1141                	addi	sp,sp,-16
    35aa:	84aa                	mv	s1,a0
    35ac:	4505                	li	a0,1
    35ae:	842e                	mv	s0,a1
    35b0:	c632                	sw	a2,12(sp)
    35b2:	c27fe0ef          	jal	ra,21d8 <DMA_ClearITPendingBit>
    35b6:	4632                	lw	a2,12(sp)
    35b8:	8526                	mv	a0,s1
    35ba:	85b2                	mv	a1,a2
    35bc:	c01fe0ef          	jal	ra,21bc <DMA_SetCurrDataCounter>
    35c0:	c4c0                	sw	s0,12(s1)
    35c2:	40012437          	lui	s0,0x40012
    35c6:	40040513          	addi	a0,s0,1024 # 40012400 <__freertos_irq_stack_top+0x2000d400>
    35ca:	4585                	li	a1,1
    35cc:	efefe0ef          	jal	ra,1cca <ADC_DMACmd>
    35d0:	40040513          	addi	a0,s0,1024
    35d4:	22000593          	li	a1,544
    35d8:	82dfe0ef          	jal	ra,1e04 <ADC_ClearITPendingBit>
    35dc:	4605                	li	a2,1
    35de:	8526                	mv	a0,s1
    35e0:	4589                	li	a1,2
    35e2:	bc9fe0ef          	jal	ra,21aa <DMA_ITConfig>
    35e6:	8526                	mv	a0,s1
    35e8:	4585                	li	a1,1
    35ea:	badfe0ef          	jal	ra,2196 <DMA_Cmd>
    35ee:	40040513          	addi	a0,s0,1024
    35f2:	4585                	li	a1,1
    35f4:	ec6fe0ef          	jal	ra,1cba <ADC_Cmd>
    35f8:	4585                	li	a1,1
    35fa:	40040513          	addi	a0,s0,1024
    35fe:	f02fe0ef          	jal	ra,1d00 <ADC_SoftwareStartConvCmd>
    3602:	0141                	addi	sp,sp,16
    3604:	f3ffc06f          	j	542 <__riscv_restore_0>

00003608 <DMA1_Channel1_IRQHandler>:
    3608:	7139                	addi	sp,sp,-64
    360a:	d62a                	sw	a0,44(sp)
    360c:	4509                	li	a0,2
    360e:	cc3e                	sw	a5,24(sp)
    3610:	de06                	sw	ra,60(sp)
    3612:	dc16                	sw	t0,56(sp)
    3614:	da1a                	sw	t1,52(sp)
    3616:	d81e                	sw	t2,48(sp)
    3618:	d42e                	sw	a1,40(sp)
    361a:	d232                	sw	a2,36(sp)
    361c:	d036                	sw	a3,32(sp)
    361e:	ce3a                	sw	a4,28(sp)
    3620:	ca42                	sw	a6,20(sp)
    3622:	c846                	sw	a7,16(sp)
    3624:	c672                	sw	t3,12(sp)
    3626:	c476                	sw	t4,8(sp)
    3628:	c27a                	sw	t5,4(sp)
    362a:	c07e                	sw	t6,0(sp)
    362c:	ba3fe0ef          	jal	ra,21ce <DMA_GetITStatus>
    3630:	4785                	li	a5,1
    3632:	00f51a63          	bne	a0,a5,3646 <DMA1_Channel1_IRQHandler+0x3e>
    3636:	200017b7          	lui	a5,0x20001
    363a:	73c7a783          	lw	a5,1852(a5) # 2000173c <DMA_CALLback>
    363e:	9782                	jalr	a5
    3640:	4505                	li	a0,1
    3642:	b97fe0ef          	jal	ra,21d8 <DMA_ClearITPendingBit>
    3646:	50f2                	lw	ra,60(sp)
    3648:	52e2                	lw	t0,56(sp)
    364a:	5352                	lw	t1,52(sp)
    364c:	53c2                	lw	t2,48(sp)
    364e:	5532                	lw	a0,44(sp)
    3650:	55a2                	lw	a1,40(sp)
    3652:	5612                	lw	a2,36(sp)
    3654:	5682                	lw	a3,32(sp)
    3656:	4772                	lw	a4,28(sp)
    3658:	47e2                	lw	a5,24(sp)
    365a:	4852                	lw	a6,20(sp)
    365c:	48c2                	lw	a7,16(sp)
    365e:	4e32                	lw	t3,12(sp)
    3660:	4ea2                	lw	t4,8(sp)
    3662:	4f12                	lw	t5,4(sp)
    3664:	4f82                	lw	t6,0(sp)
    3666:	6121                	addi	sp,sp,64
    3668:	30200073          	mret

0000366c <DMA1_Channel3_IRQHandler>:
    366c:	7139                	addi	sp,sp,-64
    366e:	d62a                	sw	a0,44(sp)
    3670:	20000513          	li	a0,512
    3674:	cc3e                	sw	a5,24(sp)
    3676:	de06                	sw	ra,60(sp)
    3678:	dc16                	sw	t0,56(sp)
    367a:	da1a                	sw	t1,52(sp)
    367c:	d81e                	sw	t2,48(sp)
    367e:	d42e                	sw	a1,40(sp)
    3680:	d232                	sw	a2,36(sp)
    3682:	d036                	sw	a3,32(sp)
    3684:	ce3a                	sw	a4,28(sp)
    3686:	ca42                	sw	a6,20(sp)
    3688:	c846                	sw	a7,16(sp)
    368a:	c672                	sw	t3,12(sp)
    368c:	c476                	sw	t4,8(sp)
    368e:	c27a                	sw	t5,4(sp)
    3690:	c07e                	sw	t6,0(sp)
    3692:	b3dfe0ef          	jal	ra,21ce <DMA_GetITStatus>
    3696:	4785                	li	a5,1
    3698:	00f51b63          	bne	a0,a5,36ae <DMA1_Channel3_IRQHandler+0x42>
    369c:	200017b7          	lui	a5,0x20001
    36a0:	7447a783          	lw	a5,1860(a5) # 20001744 <DMA_CALLback+0x8>
    36a4:	9782                	jalr	a5
    36a6:	10000513          	li	a0,256
    36aa:	b2ffe0ef          	jal	ra,21d8 <DMA_ClearITPendingBit>
    36ae:	50f2                	lw	ra,60(sp)
    36b0:	52e2                	lw	t0,56(sp)
    36b2:	5352                	lw	t1,52(sp)
    36b4:	53c2                	lw	t2,48(sp)
    36b6:	5532                	lw	a0,44(sp)
    36b8:	55a2                	lw	a1,40(sp)
    36ba:	5612                	lw	a2,36(sp)
    36bc:	5682                	lw	a3,32(sp)
    36be:	4772                	lw	a4,28(sp)
    36c0:	47e2                	lw	a5,24(sp)
    36c2:	4852                	lw	a6,20(sp)
    36c4:	48c2                	lw	a7,16(sp)
    36c6:	4e32                	lw	t3,12(sp)
    36c8:	4ea2                	lw	t4,8(sp)
    36ca:	4f12                	lw	t5,4(sp)
    36cc:	4f82                	lw	t6,0(sp)
    36ce:	6121                	addi	sp,sp,64
    36d0:	30200073          	mret

000036d4 <DMA1_Channel5_IRQHandler>:
    36d4:	7139                	addi	sp,sp,-64
    36d6:	d62a                	sw	a0,44(sp)
    36d8:	00020537          	lui	a0,0x20
    36dc:	cc3e                	sw	a5,24(sp)
    36de:	de06                	sw	ra,60(sp)
    36e0:	dc16                	sw	t0,56(sp)
    36e2:	da1a                	sw	t1,52(sp)
    36e4:	d81e                	sw	t2,48(sp)
    36e6:	d42e                	sw	a1,40(sp)
    36e8:	d232                	sw	a2,36(sp)
    36ea:	d036                	sw	a3,32(sp)
    36ec:	ce3a                	sw	a4,28(sp)
    36ee:	ca42                	sw	a6,20(sp)
    36f0:	c846                	sw	a7,16(sp)
    36f2:	c672                	sw	t3,12(sp)
    36f4:	c476                	sw	t4,8(sp)
    36f6:	c27a                	sw	t5,4(sp)
    36f8:	c07e                	sw	t6,0(sp)
    36fa:	ad5fe0ef          	jal	ra,21ce <DMA_GetITStatus>
    36fe:	4785                	li	a5,1
    3700:	00f51a63          	bne	a0,a5,3714 <DMA1_Channel5_IRQHandler+0x40>
    3704:	200017b7          	lui	a5,0x20001
    3708:	74c7a783          	lw	a5,1868(a5) # 2000174c <DMA_CALLback+0x10>
    370c:	9782                	jalr	a5
    370e:	6541                	lui	a0,0x10
    3710:	ac9fe0ef          	jal	ra,21d8 <DMA_ClearITPendingBit>
    3714:	50f2                	lw	ra,60(sp)
    3716:	52e2                	lw	t0,56(sp)
    3718:	5352                	lw	t1,52(sp)
    371a:	53c2                	lw	t2,48(sp)
    371c:	5532                	lw	a0,44(sp)
    371e:	55a2                	lw	a1,40(sp)
    3720:	5612                	lw	a2,36(sp)
    3722:	5682                	lw	a3,32(sp)
    3724:	4772                	lw	a4,28(sp)
    3726:	47e2                	lw	a5,24(sp)
    3728:	4852                	lw	a6,20(sp)
    372a:	48c2                	lw	a7,16(sp)
    372c:	4e32                	lw	t3,12(sp)
    372e:	4ea2                	lw	t4,8(sp)
    3730:	4f12                	lw	t5,4(sp)
    3732:	4f82                	lw	t6,0(sp)
    3734:	6121                	addi	sp,sp,64
    3736:	30200073          	mret

0000373a <DMA1_Channel4_IRQHandler>:
    373a:	7139                	addi	sp,sp,-64
    373c:	d62a                	sw	a0,44(sp)
    373e:	6509                	lui	a0,0x2
    3740:	cc3e                	sw	a5,24(sp)
    3742:	de06                	sw	ra,60(sp)
    3744:	dc16                	sw	t0,56(sp)
    3746:	da1a                	sw	t1,52(sp)
    3748:	d81e                	sw	t2,48(sp)
    374a:	d42e                	sw	a1,40(sp)
    374c:	d232                	sw	a2,36(sp)
    374e:	d036                	sw	a3,32(sp)
    3750:	ce3a                	sw	a4,28(sp)
    3752:	ca42                	sw	a6,20(sp)
    3754:	c846                	sw	a7,16(sp)
    3756:	c672                	sw	t3,12(sp)
    3758:	c476                	sw	t4,8(sp)
    375a:	c27a                	sw	t5,4(sp)
    375c:	c07e                	sw	t6,0(sp)
    375e:	a71fe0ef          	jal	ra,21ce <DMA_GetITStatus>
    3762:	4785                	li	a5,1
    3764:	00f51a63          	bne	a0,a5,3778 <DMA1_Channel4_IRQHandler+0x3e>
    3768:	200017b7          	lui	a5,0x20001
    376c:	7487a783          	lw	a5,1864(a5) # 20001748 <DMA_CALLback+0xc>
    3770:	9782                	jalr	a5
    3772:	6505                	lui	a0,0x1
    3774:	a65fe0ef          	jal	ra,21d8 <DMA_ClearITPendingBit>
    3778:	50f2                	lw	ra,60(sp)
    377a:	52e2                	lw	t0,56(sp)
    377c:	5352                	lw	t1,52(sp)
    377e:	53c2                	lw	t2,48(sp)
    3780:	5532                	lw	a0,44(sp)
    3782:	55a2                	lw	a1,40(sp)
    3784:	5612                	lw	a2,36(sp)
    3786:	5682                	lw	a3,32(sp)
    3788:	4772                	lw	a4,28(sp)
    378a:	47e2                	lw	a5,24(sp)
    378c:	4852                	lw	a6,20(sp)
    378e:	48c2                	lw	a7,16(sp)
    3790:	4e32                	lw	t3,12(sp)
    3792:	4ea2                	lw	t4,8(sp)
    3794:	4f12                	lw	t5,4(sp)
    3796:	4f82                	lw	t6,0(sp)
    3798:	6121                	addi	sp,sp,64
    379a:	30200073          	mret

0000379e <DMA1_Channel7_IRQHandler>:
    379e:	7139                	addi	sp,sp,-64
    37a0:	d62a                	sw	a0,44(sp)
    37a2:	02000537          	lui	a0,0x2000
    37a6:	cc3e                	sw	a5,24(sp)
    37a8:	de06                	sw	ra,60(sp)
    37aa:	dc16                	sw	t0,56(sp)
    37ac:	da1a                	sw	t1,52(sp)
    37ae:	d81e                	sw	t2,48(sp)
    37b0:	d42e                	sw	a1,40(sp)
    37b2:	d232                	sw	a2,36(sp)
    37b4:	d036                	sw	a3,32(sp)
    37b6:	ce3a                	sw	a4,28(sp)
    37b8:	ca42                	sw	a6,20(sp)
    37ba:	c846                	sw	a7,16(sp)
    37bc:	c672                	sw	t3,12(sp)
    37be:	c476                	sw	t4,8(sp)
    37c0:	c27a                	sw	t5,4(sp)
    37c2:	c07e                	sw	t6,0(sp)
    37c4:	a0bfe0ef          	jal	ra,21ce <DMA_GetITStatus>
    37c8:	4785                	li	a5,1
    37ca:	00f51b63          	bne	a0,a5,37e0 <DMA1_Channel7_IRQHandler+0x42>
    37ce:	200017b7          	lui	a5,0x20001
    37d2:	7547a783          	lw	a5,1876(a5) # 20001754 <DMA_CALLback+0x18>
    37d6:	9782                	jalr	a5
    37d8:	01000537          	lui	a0,0x1000
    37dc:	9fdfe0ef          	jal	ra,21d8 <DMA_ClearITPendingBit>
    37e0:	50f2                	lw	ra,60(sp)
    37e2:	52e2                	lw	t0,56(sp)
    37e4:	5352                	lw	t1,52(sp)
    37e6:	53c2                	lw	t2,48(sp)
    37e8:	5532                	lw	a0,44(sp)
    37ea:	55a2                	lw	a1,40(sp)
    37ec:	5612                	lw	a2,36(sp)
    37ee:	5682                	lw	a3,32(sp)
    37f0:	4772                	lw	a4,28(sp)
    37f2:	47e2                	lw	a5,24(sp)
    37f4:	4852                	lw	a6,20(sp)
    37f6:	48c2                	lw	a7,16(sp)
    37f8:	4e32                	lw	t3,12(sp)
    37fa:	4ea2                	lw	t4,8(sp)
    37fc:	4f12                	lw	t5,4(sp)
    37fe:	4f82                	lw	t6,0(sp)
    3800:	6121                	addi	sp,sp,64
    3802:	30200073          	mret

00003806 <HAL_InitGpioLib>:
    3806:	200017b7          	lui	a5,0x20001
    380a:	75878793          	addi	a5,a5,1880 # 20001758 <InitPort>
    380e:	0007a023          	sw	zero,0(a5)
    3812:	0007a223          	sw	zero,4(a5)
    3816:	8082                	ret

00003818 <HAL_InitGpioRCC>:
    3818:	d07fc2ef          	jal	t0,51e <__riscv_save_0>
    381c:	40011737          	lui	a4,0x40011
    3820:	c0070693          	addi	a3,a4,-1024 # 40010c00 <__freertos_irq_stack_top+0x2000bc00>
    3824:	4785                	li	a5,1
    3826:	02d50a63          	beq	a0,a3,385a <HAL_InitGpioRCC+0x42>
    382a:	4789                	li	a5,2
    382c:	02e50763          	beq	a0,a4,385a <HAL_InitGpioRCC+0x42>
    3830:	40070713          	addi	a4,a4,1024
    3834:	478d                	li	a5,3
    3836:	02e50263          	beq	a0,a4,385a <HAL_InitGpioRCC+0x42>
    383a:	40012737          	lui	a4,0x40012
    383e:	80070693          	addi	a3,a4,-2048 # 40011800 <__freertos_irq_stack_top+0x2000c800>
    3842:	4791                	li	a5,4
    3844:	00d50b63          	beq	a0,a3,385a <HAL_InitGpioRCC+0x42>
    3848:	c0070693          	addi	a3,a4,-1024
    384c:	4795                	li	a5,5
    384e:	00d50663          	beq	a0,a3,385a <HAL_InitGpioRCC+0x42>
    3852:	4781                	li	a5,0
    3854:	00e51363          	bne	a0,a4,385a <HAL_InitGpioRCC+0x42>
    3858:	4799                	li	a5,6
    385a:	20001737          	lui	a4,0x20001
    385e:	75870693          	addi	a3,a4,1880 # 20001758 <InitPort>
    3862:	00279413          	slli	s0,a5,0x2
    3866:	008687b3          	add	a5,a3,s0
    386a:	439c                	lw	a5,0(a5)
    386c:	75870493          	addi	s1,a4,1880
    3870:	ef99                	bnez	a5,388e <HAL_InitGpioRCC+0x76>
    3872:	400117b7          	lui	a5,0x40011
    3876:	80078713          	addi	a4,a5,-2048 # 40010800 <__freertos_irq_stack_top+0x2000b800>
    387a:	00e51c63          	bne	a0,a4,3892 <HAL_InitGpioRCC+0x7a>
    387e:	4585                	li	a1,1
    3880:	4511                	li	a0,4
    3882:	f79fe0ef          	jal	ra,27fa <RCC_APB2PeriphClockCmd>
    3886:	008487b3          	add	a5,s1,s0
    388a:	4705                	li	a4,1
    388c:	c398                	sw	a4,0(a5)
    388e:	cb5fc06f          	j	542 <__riscv_restore_0>
    3892:	c0078713          	addi	a4,a5,-1024
    3896:	00e51563          	bne	a0,a4,38a0 <HAL_InitGpioRCC+0x88>
    389a:	4585                	li	a1,1
    389c:	4521                	li	a0,8
    389e:	b7d5                	j	3882 <HAL_InitGpioRCC+0x6a>
    38a0:	00f51563          	bne	a0,a5,38aa <HAL_InitGpioRCC+0x92>
    38a4:	4585                	li	a1,1
    38a6:	4541                	li	a0,16
    38a8:	bfe9                	j	3882 <HAL_InitGpioRCC+0x6a>
    38aa:	40078793          	addi	a5,a5,1024
    38ae:	00f51663          	bne	a0,a5,38ba <HAL_InitGpioRCC+0xa2>
    38b2:	4585                	li	a1,1
    38b4:	02000513          	li	a0,32
    38b8:	b7e9                	j	3882 <HAL_InitGpioRCC+0x6a>
    38ba:	400127b7          	lui	a5,0x40012
    38be:	80078793          	addi	a5,a5,-2048 # 40011800 <__freertos_irq_stack_top+0x2000c800>
    38c2:	fcf512e3          	bne	a0,a5,3886 <HAL_InitGpioRCC+0x6e>
    38c6:	4585                	li	a1,1
    38c8:	04000513          	li	a0,64
    38cc:	bf5d                	j	3882 <HAL_InitGpioRCC+0x6a>

000038ce <HAL_InitGpioOut>:
    38ce:	c51fc2ef          	jal	t0,51e <__riscv_save_0>
    38d2:	1101                	addi	sp,sp,-32
    38d4:	842a                	mv	s0,a0
    38d6:	c62e                	sw	a1,12(sp)
    38d8:	f41ff0ef          	jal	ra,3818 <HAL_InitGpioRCC>
    38dc:	45b2                	lw	a1,12(sp)
    38de:	47c1                	li	a5,16
    38e0:	ce3e                	sw	a5,28(sp)
    38e2:	82ec                	sh	a1,20(sp)
    38e4:	4789                	li	a5,2
    38e6:	084c                	addi	a1,sp,20
    38e8:	8522                	mv	a0,s0
    38ea:	cc3e                	sw	a5,24(sp)
    38ec:	8f5fe0ef          	jal	ra,21e0 <GPIO_Init>
    38f0:	6105                	addi	sp,sp,32
    38f2:	c51fc06f          	j	542 <__riscv_restore_0>

000038f6 <HAL_InitGpioAIN>:
    38f6:	c29fc2ef          	jal	t0,51e <__riscv_save_0>
    38fa:	1101                	addi	sp,sp,-32
    38fc:	842a                	mv	s0,a0
    38fe:	c62e                	sw	a1,12(sp)
    3900:	f19ff0ef          	jal	ra,3818 <HAL_InitGpioRCC>
    3904:	45b2                	lw	a1,12(sp)
    3906:	478d                	li	a5,3
    3908:	8522                	mv	a0,s0
    390a:	82ec                	sh	a1,20(sp)
    390c:	084c                	addi	a1,sp,20
    390e:	cc3e                	sw	a5,24(sp)
    3910:	ce02                	sw	zero,28(sp)
    3912:	8cffe0ef          	jal	ra,21e0 <GPIO_Init>
    3916:	6105                	addi	sp,sp,32
    3918:	c2bfc06f          	j	542 <__riscv_restore_0>

0000391c <HAL_InitGpioIn>:
    391c:	c03fc2ef          	jal	t0,51e <__riscv_save_0>
    3920:	1101                	addi	sp,sp,-32
    3922:	842a                	mv	s0,a0
    3924:	c62e                	sw	a1,12(sp)
    3926:	ef3ff0ef          	jal	ra,3818 <HAL_InitGpioRCC>
    392a:	45b2                	lw	a1,12(sp)
    392c:	4791                	li	a5,4
    392e:	ce3e                	sw	a5,28(sp)
    3930:	82ec                	sh	a1,20(sp)
    3932:	478d                	li	a5,3
    3934:	084c                	addi	a1,sp,20
    3936:	8522                	mv	a0,s0
    3938:	cc3e                	sw	a5,24(sp)
    393a:	8a7fe0ef          	jal	ra,21e0 <GPIO_Init>
    393e:	6105                	addi	sp,sp,32
    3940:	c03fc06f          	j	542 <__riscv_restore_0>

00003944 <HAL_InitGpioAF>:
    3944:	bc1fc2ef          	jal	t0,504 <__riscv_save_4>
    3948:	1141                	addi	sp,sp,-16
    394a:	8432                	mv	s0,a2
    394c:	84aa                	mv	s1,a0
    394e:	89ae                	mv	s3,a1
    3950:	8936                	mv	s2,a3
    3952:	ec7ff0ef          	jal	ra,3818 <HAL_InitGpioRCC>
    3956:	c809                	beqz	s0,3968 <HAL_InitGpioAF+0x24>
    3958:	4585                	li	a1,1
    395a:	4505                	li	a0,1
    395c:	e9ffe0ef          	jal	ra,27fa <RCC_APB2PeriphClockCmd>
    3960:	4585                	li	a1,1
    3962:	8522                	mv	a0,s0
    3964:	9a7fe0ef          	jal	ra,230a <GPIO_PinRemapConfig>
    3968:	478d                	li	a5,3
    396a:	004c                	addi	a1,sp,4
    396c:	8526                	mv	a0,s1
    396e:	01311223          	sh	s3,4(sp)
    3972:	c64a                	sw	s2,12(sp)
    3974:	c43e                	sw	a5,8(sp)
    3976:	86bfe0ef          	jal	ra,21e0 <GPIO_Init>
    397a:	0141                	addi	sp,sp,16
    397c:	bbdfc06f          	j	538 <__riscv_restore_4>

00003980 <HAL_SetBit>:
    3980:	b9ffc2ef          	jal	t0,51e <__riscv_save_0>
    3984:	957fe0ef          	jal	ra,22da <GPIO_SetBits>
    3988:	bbbfc06f          	j	542 <__riscv_restore_0>

0000398c <HAL_ResetBit>:
    398c:	b93fc2ef          	jal	t0,51e <__riscv_save_0>
    3990:	963fe0ef          	jal	ra,22f2 <GPIO_ResetBits>
    3994:	baffc06f          	j	542 <__riscv_restore_0>

00003998 <I2C_Master_TransmitIT>:
    3998:	b6dfc2ef          	jal	t0,504 <__riscv_save_4>
    399c:	20000437          	lui	s0,0x20000
    39a0:	5f040913          	addi	s2,s0,1520 # 200005f0 <pEEPROM>
    39a4:	00092483          	lw	s1,0(s2) # 10000000 <_data_lma+0xfff7398>
    39a8:	89ba                	mv	s3,a4
    39aa:	4705                	li	a4,1
    39ac:	b098                	sb	a4,1(s1)
    39ae:	a09c                	sb	a5,0(s1)
    39b0:	a496                	sh	a3,8(s1)
    39b2:	c4d0                	sw	a2,12(s1)
    39b4:	a0ee                	sh	a1,6(s1)
    39b6:	00049523          	sh	zero,10(s1)
    39ba:	b0c8                	sb	a0,5(s1)
    39bc:	479010ef          	jal	ra,5634 <xTaskGetCurrentTaskHandle>
    39c0:	00092783          	lw	a5,0(s2)
    39c4:	c8c8                	sw	a0,20(s1)
    39c6:	471d                	li	a4,7
    39c8:	4b88                	lw	a0,16(a5)
    39ca:	cfd8                	sw	a4,28(a5)
    39cc:	4601                	li	a2,0
    39ce:	70000593          	li	a1,1792
    39d2:	b9bfe0ef          	jal	ra,256c <I2C_ITConfig>
    39d6:	5f040413          	addi	s0,s0,1520
    39da:	401c                	lw	a5,0(s0)
    39dc:	000205b7          	lui	a1,0x20
    39e0:	4b88                	lw	a0,16(a5)
    39e2:	bcffe0ef          	jal	ra,25b0 <I2C_GetFlagStatus>
    39e6:	f975                	bnez	a0,39da <I2C_Master_TransmitIT+0x42>
    39e8:	401c                	lw	a5,0(s0)
    39ea:	4585                	li	a1,1
    39ec:	4b88                	lw	a0,16(a5)
    39ee:	b19fe0ef          	jal	ra,2506 <I2C_GenerateSTART>
    39f2:	401c                	lw	a5,0(s0)
    39f4:	4605                	li	a2,1
    39f6:	70000593          	li	a1,1792
    39fa:	4b88                	lw	a0,16(a5)
    39fc:	b71fe0ef          	jal	ra,256c <I2C_ITConfig>
    3a00:	401c                	lw	a5,0(s0)
    3a02:	864e                	mv	a2,s3
    3a04:	55fd                	li	a1,-1
    3a06:	2388                	lbu	a0,0(a5)
    3a08:	453010ef          	jal	ra,565a <ulTaskGenericNotifyTake>
    3a0c:	401c                	lw	a5,0(s0)
    3a0e:	84aa                	mv	s1,a0
    3a10:	4601                	li	a2,0
    3a12:	4b88                	lw	a0,16(a5)
    3a14:	70000593          	li	a1,1792
    3a18:	b55fe0ef          	jal	ra,256c <I2C_ITConfig>
    3a1c:	4501                	li	a0,0
    3a1e:	e091                	bnez	s1,3a22 <I2C_Master_TransmitIT+0x8a>
    3a20:	450d                	li	a0,3
    3a22:	b17fc06f          	j	538 <__riscv_restore_4>

00003a26 <I2C_Master_ReviceIT>:
    3a26:	adffc2ef          	jal	t0,504 <__riscv_save_4>
    3a2a:	20000437          	lui	s0,0x20000
    3a2e:	5f040913          	addi	s2,s0,1520 # 200005f0 <pEEPROM>
    3a32:	00092483          	lw	s1,0(s2)
    3a36:	89ba                	mv	s3,a4
    3a38:	4705                	li	a4,1
    3a3a:	b098                	sb	a4,1(s1)
    3a3c:	a09c                	sb	a5,0(s1)
    3a3e:	a496                	sh	a3,8(s1)
    3a40:	c4d0                	sw	a2,12(s1)
    3a42:	a0ee                	sh	a1,6(s1)
    3a44:	00049523          	sh	zero,10(s1)
    3a48:	b0c8                	sb	a0,5(s1)
    3a4a:	3eb010ef          	jal	ra,5634 <xTaskGetCurrentTaskHandle>
    3a4e:	00092783          	lw	a5,0(s2)
    3a52:	c8c8                	sw	a0,20(s1)
    3a54:	4705                	li	a4,1
    3a56:	4b88                	lw	a0,16(a5)
    3a58:	cfd8                	sw	a4,28(a5)
    3a5a:	4601                	li	a2,0
    3a5c:	70000593          	li	a1,1792
    3a60:	b0dfe0ef          	jal	ra,256c <I2C_ITConfig>
    3a64:	5f040413          	addi	s0,s0,1520
    3a68:	401c                	lw	a5,0(s0)
    3a6a:	000205b7          	lui	a1,0x20
    3a6e:	4b88                	lw	a0,16(a5)
    3a70:	b41fe0ef          	jal	ra,25b0 <I2C_GetFlagStatus>
    3a74:	f975                	bnez	a0,3a68 <I2C_Master_ReviceIT+0x42>
    3a76:	401c                	lw	a5,0(s0)
    3a78:	4585                	li	a1,1
    3a7a:	4b88                	lw	a0,16(a5)
    3a7c:	abffe0ef          	jal	ra,253a <I2C_AcknowledgeConfig>
    3a80:	401c                	lw	a5,0(s0)
    3a82:	4585                	li	a1,1
    3a84:	4b88                	lw	a0,16(a5)
    3a86:	a81fe0ef          	jal	ra,2506 <I2C_GenerateSTART>
    3a8a:	401c                	lw	a5,0(s0)
    3a8c:	4605                	li	a2,1
    3a8e:	70000593          	li	a1,1792
    3a92:	4b88                	lw	a0,16(a5)
    3a94:	ad9fe0ef          	jal	ra,256c <I2C_ITConfig>
    3a98:	401c                	lw	a5,0(s0)
    3a9a:	864e                	mv	a2,s3
    3a9c:	55fd                	li	a1,-1
    3a9e:	2388                	lbu	a0,0(a5)
    3aa0:	3bb010ef          	jal	ra,565a <ulTaskGenericNotifyTake>
    3aa4:	401c                	lw	a5,0(s0)
    3aa6:	84aa                	mv	s1,a0
    3aa8:	4601                	li	a2,0
    3aaa:	4b88                	lw	a0,16(a5)
    3aac:	70000593          	li	a1,1792
    3ab0:	abdfe0ef          	jal	ra,256c <I2C_ITConfig>
    3ab4:	4785                	li	a5,1
    3ab6:	4501                	li	a0,0
    3ab8:	00f48363          	beq	s1,a5,3abe <I2C_Master_ReviceIT+0x98>
    3abc:	4511                	li	a0,4
    3abe:	401c                	lw	a5,0(s0)
    3ac0:	000780a3          	sb	zero,1(a5)
    3ac4:	a75fc06f          	j	538 <__riscv_restore_4>

00003ac8 <I2C_FSM>:
    3ac8:	a57fc2ef          	jal	t0,51e <__riscv_save_0>
    3acc:	20000437          	lui	s0,0x20000
    3ad0:	5f040493          	addi	s1,s0,1520 # 200005f0 <pEEPROM>
    3ad4:	409c                	lw	a5,0(s1)
    3ad6:	1141                	addi	sp,sp,-16
    3ad8:	45d1                	li	a1,20
    3ada:	4b88                	lw	a0,16(a5)
    3adc:	c602                	sw	zero,12(sp)
    3ade:	abffe0ef          	jal	ra,259c <I2C_ReadRegister>
    3ae2:	409c                	lw	a5,0(s1)
    3ae4:	46ad                	li	a3,11
    3ae6:	4fd8                	lw	a4,28(a5)
    3ae8:	177d                	addi	a4,a4,-1
    3aea:	02e6e563          	bltu	a3,a4,3b14 <I2C_FSM+0x4c>
    3aee:	66a1                	lui	a3,0x8
    3af0:	070a                	slli	a4,a4,0x2
    3af2:	23868693          	addi	a3,a3,568 # 8238 <ADC_chennel_ref+0x14>
    3af6:	9736                	add	a4,a4,a3
    3af8:	4318                	lw	a4,0(a4)
    3afa:	5f040413          	addi	s0,s0,1520
    3afe:	8702                	jr	a4
    3b00:	8905                	andi	a0,a0,1
    3b02:	c909                	beqz	a0,3b14 <I2C_FSM+0x4c>
    3b04:	33cc                	lbu	a1,5(a5)
    3b06:	4b88                	lw	a0,16(a5)
    3b08:	4601                	li	a2,0
    3b0a:	a81fe0ef          	jal	ra,258a <I2C_Send7bitAddress>
    3b0e:	401c                	lw	a5,0(s0)
    3b10:	4709                	li	a4,2
    3b12:	cfd8                	sw	a4,28(a5)
    3b14:	0141                	addi	sp,sp,16
    3b16:	a2dfc06f          	j	542 <__riscv_restore_0>
    3b1a:	8909                	andi	a0,a0,2
    3b1c:	dd65                	beqz	a0,3b14 <I2C_FSM+0x4c>
    3b1e:	4b88                	lw	a0,16(a5)
    3b20:	45e1                	li	a1,24
    3b22:	a7bfe0ef          	jal	ra,259c <I2C_ReadRegister>
    3b26:	401c                	lw	a5,0(s0)
    3b28:	23ee                	lhu	a1,6(a5)
    3b2a:	4b88                	lw	a0,16(a5)
    3b2c:	81a1                	srli	a1,a1,0x8
    3b2e:	89fd                	andi	a1,a1,31
    3b30:	a4ffe0ef          	jal	ra,257e <I2C_SendData>
    3b34:	401c                	lw	a5,0(s0)
    3b36:	472d                	li	a4,11
    3b38:	bfe9                	j	3b12 <I2C_FSM+0x4a>
    3b3a:	08057513          	andi	a0,a0,128
    3b3e:	d979                	beqz	a0,3b14 <I2C_FSM+0x4c>
    3b40:	23ec                	lbu	a1,6(a5)
    3b42:	4b88                	lw	a0,16(a5)
    3b44:	a3bfe0ef          	jal	ra,257e <I2C_SendData>
    3b48:	401c                	lw	a5,0(s0)
    3b4a:	470d                	li	a4,3
    3b4c:	b7d9                	j	3b12 <I2C_FSM+0x4a>
    3b4e:	08057513          	andi	a0,a0,128
    3b52:	d169                	beqz	a0,3b14 <I2C_FSM+0x4c>
    3b54:	4b88                	lw	a0,16(a5)
    3b56:	4585                	li	a1,1
    3b58:	9affe0ef          	jal	ra,2506 <I2C_GenerateSTART>
    3b5c:	401c                	lw	a5,0(s0)
    3b5e:	4711                	li	a4,4
    3b60:	bf4d                	j	3b12 <I2C_FSM+0x4a>
    3b62:	8905                	andi	a0,a0,1
    3b64:	d945                	beqz	a0,3b14 <I2C_FSM+0x4c>
    3b66:	33cc                	lbu	a1,5(a5)
    3b68:	4b88                	lw	a0,16(a5)
    3b6a:	4605                	li	a2,1
    3b6c:	a1ffe0ef          	jal	ra,258a <I2C_Send7bitAddress>
    3b70:	401c                	lw	a5,0(s0)
    3b72:	4715                	li	a4,5
    3b74:	bf79                	j	3b12 <I2C_FSM+0x4a>
    3b76:	8909                	andi	a0,a0,2
    3b78:	dd51                	beqz	a0,3b14 <I2C_FSM+0x4c>
    3b7a:	4b88                	lw	a0,16(a5)
    3b7c:	45e1                	li	a1,24
    3b7e:	a1ffe0ef          	jal	ra,259c <I2C_ReadRegister>
    3b82:	401c                	lw	a5,0(s0)
    3b84:	4719                	li	a4,6
    3b86:	b771                	j	3b12 <I2C_FSM+0x4a>
    3b88:	04057513          	andi	a0,a0,64
    3b8c:	d541                	beqz	a0,3b14 <I2C_FSM+0x4c>
    3b8e:	2796                	lhu	a3,8(a5)
    3b90:	27ba                	lhu	a4,10(a5)
    3b92:	4b88                	lw	a0,16(a5)
    3b94:	16fd                	addi	a3,a3,-1
    3b96:	00d75b63          	bge	a4,a3,3bac <I2C_FSM+0xe4>
    3b9a:	47c0                	lw	s0,12(a5)
    3b9c:	00170693          	addi	a3,a4,1
    3ba0:	a7b6                	sh	a3,10(a5)
    3ba2:	943a                	add	s0,s0,a4
    3ba4:	9dffe0ef          	jal	ra,2582 <I2C_ReceiveData>
    3ba8:	a008                	sb	a0,0(s0)
    3baa:	b7ad                	j	3b14 <I2C_FSM+0x4c>
    3bac:	4581                	li	a1,0
    3bae:	98dfe0ef          	jal	ra,253a <I2C_AcknowledgeConfig>
    3bb2:	401c                	lw	a5,0(s0)
    3bb4:	27ba                	lhu	a4,10(a5)
    3bb6:	47c4                	lw	s1,12(a5)
    3bb8:	4b88                	lw	a0,16(a5)
    3bba:	00170693          	addi	a3,a4,1
    3bbe:	a7b6                	sh	a3,10(a5)
    3bc0:	94ba                	add	s1,s1,a4
    3bc2:	9c1fe0ef          	jal	ra,2582 <I2C_ReceiveData>
    3bc6:	a088                	sb	a0,0(s1)
    3bc8:	401c                	lw	a5,0(s0)
    3bca:	4b88                	lw	a0,16(a5)
    3bcc:	4585                	li	a1,1
    3bce:	953fe0ef          	jal	ra,2520 <I2C_GenerateSTOP>
    3bd2:	4008                	lw	a0,0(s0)
    3bd4:	007c                	addi	a5,sp,12
    3bd6:	4701                	li	a4,0
    3bd8:	210c                	lbu	a1,0(a0)
    3bda:	4948                	lw	a0,20(a0)
    3bdc:	468d                	li	a3,3
    3bde:	4605                	li	a2,1
    3be0:	5cd010ef          	jal	ra,59ac <xTaskGenericNotifyFromISR>
    3be4:	47b2                	lw	a5,12(sp)
    3be6:	c791                	beqz	a5,3bf2 <I2C_FSM+0x12a>
    3be8:	e000e7b7          	lui	a5,0xe000e
    3bec:	6711                	lui	a4,0x4
    3bee:	20e7a023          	sw	a4,512(a5) # e000e200 <__freertos_irq_stack_top+0xc0009200>
    3bf2:	401c                	lw	a5,0(s0)
    3bf4:	0007ae23          	sw	zero,28(a5)
    3bf8:	bf31                	j	3b14 <I2C_FSM+0x4c>
    3bfa:	8905                	andi	a0,a0,1
    3bfc:	f0050ce3          	beqz	a0,3b14 <I2C_FSM+0x4c>
    3c00:	33cc                	lbu	a1,5(a5)
    3c02:	4b88                	lw	a0,16(a5)
    3c04:	4601                	li	a2,0
    3c06:	985fe0ef          	jal	ra,258a <I2C_Send7bitAddress>
    3c0a:	401c                	lw	a5,0(s0)
    3c0c:	4721                	li	a4,8
    3c0e:	b711                	j	3b12 <I2C_FSM+0x4a>
    3c10:	40057713          	andi	a4,a0,1024
    3c14:	c305                	beqz	a4,3c34 <I2C_FSM+0x16c>
    3c16:	4b88                	lw	a0,16(a5)
    3c18:	100005b7          	lui	a1,0x10000
    3c1c:	40058593          	addi	a1,a1,1024 # 10000400 <_data_lma+0xfff7798>
    3c20:	9c3fe0ef          	jal	ra,25e2 <I2C_ClearFlag>
    3c24:	401c                	lw	a5,0(s0)
    3c26:	4585                	li	a1,1
    3c28:	4b88                	lw	a0,16(a5)
    3c2a:	8ddfe0ef          	jal	ra,2506 <I2C_GenerateSTART>
    3c2e:	401c                	lw	a5,0(s0)
    3c30:	471d                	li	a4,7
    3c32:	b5c5                	j	3b12 <I2C_FSM+0x4a>
    3c34:	8909                	andi	a0,a0,2
    3c36:	ec050fe3          	beqz	a0,3b14 <I2C_FSM+0x4c>
    3c3a:	4b88                	lw	a0,16(a5)
    3c3c:	45e1                	li	a1,24
    3c3e:	95ffe0ef          	jal	ra,259c <I2C_ReadRegister>
    3c42:	401c                	lw	a5,0(s0)
    3c44:	23ee                	lhu	a1,6(a5)
    3c46:	4b88                	lw	a0,16(a5)
    3c48:	81a1                	srli	a1,a1,0x8
    3c4a:	89fd                	andi	a1,a1,31
    3c4c:	933fe0ef          	jal	ra,257e <I2C_SendData>
    3c50:	401c                	lw	a5,0(s0)
    3c52:	4731                	li	a4,12
    3c54:	bd7d                	j	3b12 <I2C_FSM+0x4a>
    3c56:	08057513          	andi	a0,a0,128
    3c5a:	ea050de3          	beqz	a0,3b14 <I2C_FSM+0x4c>
    3c5e:	23ec                	lbu	a1,6(a5)
    3c60:	4b88                	lw	a0,16(a5)
    3c62:	91dfe0ef          	jal	ra,257e <I2C_SendData>
    3c66:	401c                	lw	a5,0(s0)
    3c68:	4725                	li	a4,9
    3c6a:	b565                	j	3b12 <I2C_FSM+0x4a>
    3c6c:	08057513          	andi	a0,a0,128
    3c70:	ea0502e3          	beqz	a0,3b14 <I2C_FSM+0x4c>
    3c74:	27b6                	lhu	a3,10(a5)
    3c76:	279a                	lhu	a4,8(a5)
    3c78:	00e6fd63          	bgeu	a3,a4,3c92 <I2C_FSM+0x1ca>
    3c7c:	47d8                	lw	a4,12(a5)
    3c7e:	4b88                	lw	a0,16(a5)
    3c80:	9736                	add	a4,a4,a3
    3c82:	230c                	lbu	a1,0(a4)
    3c84:	8fbfe0ef          	jal	ra,257e <I2C_SendData>
    3c88:	4018                	lw	a4,0(s0)
    3c8a:	273e                	lhu	a5,10(a4)
    3c8c:	0785                	addi	a5,a5,1
    3c8e:	a73e                	sh	a5,10(a4)
    3c90:	b551                	j	3b14 <I2C_FSM+0x4c>
    3c92:	4729                	li	a4,10
    3c94:	bdbd                	j	3b12 <I2C_FSM+0x4a>
    3c96:	8911                	andi	a0,a0,4
    3c98:	e6050ee3          	beqz	a0,3b14 <I2C_FSM+0x4c>
    3c9c:	b73d                	j	3bca <I2C_FSM+0x102>

00003c9e <InitI2CDMA>:
    3c9e:	867fc2ef          	jal	t0,504 <__riscv_save_4>
    3ca2:	1101                	addi	sp,sp,-32
    3ca4:	400057b7          	lui	a5,0x40005
    3ca8:	c402                	sw	zero,8(sp)
    3caa:	c602                	sw	zero,12(sp)
    3cac:	40078793          	addi	a5,a5,1024 # 40005400 <__freertos_irq_stack_top+0x20000400>
    3cb0:	842a                	mv	s0,a0
    3cb2:	89ae                	mv	s3,a1
    3cb4:	8932                	mv	s2,a2
    3cb6:	0af51663          	bne	a0,a5,3d62 <InitI2CDMA+0xc4>
    3cba:	4585                	li	a1,1
    3cbc:	00200537          	lui	a0,0x200
    3cc0:	b59fe0ef          	jal	ra,2818 <RCC_APB1PeriphClockCmd>
    3cc4:	67e1                	lui	a5,0x18
    3cc6:	6a078793          	addi	a5,a5,1696 # 186a0 <_data_lma+0xfa38>
    3cca:	40000713          	li	a4,1024
    3cce:	ca02                	sw	zero,20(sp)
    3cd0:	cc02                	sw	zero,24(sp)
    3cd2:	ce02                	sw	zero,28(sp)
    3cd4:	c83e                	sw	a5,16(sp)
    3cd6:	080c                	addi	a1,sp,16
    3cd8:	6791                	lui	a5,0x4
    3cda:	8522                	mv	a0,s0
    3cdc:	83fc                	sh	a5,22(sp)
    3cde:	86fc                	sh	a5,28(sp)
    3ce0:	85f8                	sh	a4,26(sp)
    3ce2:	f1afe0ef          	jal	ra,23fc <I2C_Init>
    3ce6:	4585                	li	a1,1
    3ce8:	8522                	mv	a0,s0
    3cea:	805fe0ef          	jal	ra,24ee <I2C_Cmd>
    3cee:	b1aff0ef          	jal	ra,3008 <xGetEEPROM>
    3cf2:	000047b7          	lui	a5,0x4
    3cf6:	a2678793          	addi	a5,a5,-1498 # 3a26 <I2C_Master_ReviceIT>
    3cfa:	d11c                	sw	a5,32(a0)
    3cfc:	000047b7          	lui	a5,0x4
    3d00:	200004b7          	lui	s1,0x20000
    3d04:	99878793          	addi	a5,a5,-1640 # 3998 <I2C_Master_TransmitIT>
    3d08:	5ea4a823          	sw	a0,1520(s1) # 200005f0 <pEEPROM>
    3d0c:	d15c                	sw	a5,36(a0)
    3d0e:	400057b7          	lui	a5,0x40005
    3d12:	c900                	sw	s0,16(a0)
    3d14:	000500a3          	sb	zero,1(a0) # 200001 <_data_lma+0x1f7399>
    3d18:	40078793          	addi	a5,a5,1024 # 40005400 <__freertos_irq_stack_top+0x20000400>
    3d1c:	5f048493          	addi	s1,s1,1520
    3d20:	04f41b63          	bne	s0,a5,3d76 <InitI2CDMA+0xd8>
    3d24:	02f00793          	li	a5,47
    3d28:	845c                	sb	a5,8(sp)
    3d2a:	0028                	addi	a0,sp,8
    3d2c:	4785                	li	a5,1
    3d2e:	c63e                	sw	a5,12(sp)
    3d30:	013104a3          	sb	s3,9(sp)
    3d34:	01210523          	sb	s2,10(sp)
    3d38:	8c1fe0ef          	jal	ra,25f8 <NVIC_Init>
    3d3c:	03000793          	li	a5,48
    3d40:	0028                	addi	a0,sp,8
    3d42:	845c                	sb	a5,8(sp)
    3d44:	8b5fe0ef          	jal	ra,25f8 <NVIC_Init>
    3d48:	409c                	lw	a5,0(s1)
    3d4a:	4581                	li	a1,0
    3d4c:	4b88                	lw	a0,16(a5)
    3d4e:	807fe0ef          	jal	ra,2554 <I2C_DualAddressCmd>
    3d52:	409c                	lw	a5,0(s1)
    3d54:	4585                	li	a1,1
    3d56:	4b88                	lw	a0,16(a5)
    3d58:	f96fe0ef          	jal	ra,24ee <I2C_Cmd>
    3d5c:	6105                	addi	sp,sp,32
    3d5e:	fdafc06f          	j	538 <__riscv_restore_4>
    3d62:	400067b7          	lui	a5,0x40006
    3d66:	80078793          	addi	a5,a5,-2048 # 40005800 <__freertos_irq_stack_top+0x20000800>
    3d6a:	f4f51de3          	bne	a0,a5,3cc4 <InitI2CDMA+0x26>
    3d6e:	4585                	li	a1,1
    3d70:	00400537          	lui	a0,0x400
    3d74:	b7b1                	j	3cc0 <InitI2CDMA+0x22>
    3d76:	400067b7          	lui	a5,0x40006
    3d7a:	80078793          	addi	a5,a5,-2048 # 40005800 <__freertos_irq_stack_top+0x20000800>
    3d7e:	fcf415e3          	bne	s0,a5,3d48 <InitI2CDMA+0xaa>
    3d82:	03100793          	li	a5,49
    3d86:	845c                	sb	a5,8(sp)
    3d88:	0028                	addi	a0,sp,8
    3d8a:	4785                	li	a5,1
    3d8c:	c63e                	sw	a5,12(sp)
    3d8e:	013104a3          	sb	s3,9(sp)
    3d92:	01210523          	sb	s2,10(sp)
    3d96:	863fe0ef          	jal	ra,25f8 <NVIC_Init>
    3d9a:	03200793          	li	a5,50
    3d9e:	b74d                	j	3d40 <InitI2CDMA+0xa2>

00003da0 <I2C1_EV_IRQHandler>:
    3da0:	7139                	addi	sp,sp,-64
    3da2:	de06                	sw	ra,60(sp)
    3da4:	dc16                	sw	t0,56(sp)
    3da6:	da1a                	sw	t1,52(sp)
    3da8:	d81e                	sw	t2,48(sp)
    3daa:	d62a                	sw	a0,44(sp)
    3dac:	d42e                	sw	a1,40(sp)
    3dae:	d232                	sw	a2,36(sp)
    3db0:	d036                	sw	a3,32(sp)
    3db2:	ce3a                	sw	a4,28(sp)
    3db4:	cc3e                	sw	a5,24(sp)
    3db6:	ca42                	sw	a6,20(sp)
    3db8:	c846                	sw	a7,16(sp)
    3dba:	c672                	sw	t3,12(sp)
    3dbc:	c476                	sw	t4,8(sp)
    3dbe:	c27a                	sw	t5,4(sp)
    3dc0:	c07e                	sw	t6,0(sp)
    3dc2:	d07ff0ef          	jal	ra,3ac8 <I2C_FSM>
    3dc6:	50f2                	lw	ra,60(sp)
    3dc8:	52e2                	lw	t0,56(sp)
    3dca:	5352                	lw	t1,52(sp)
    3dcc:	53c2                	lw	t2,48(sp)
    3dce:	5532                	lw	a0,44(sp)
    3dd0:	55a2                	lw	a1,40(sp)
    3dd2:	5612                	lw	a2,36(sp)
    3dd4:	5682                	lw	a3,32(sp)
    3dd6:	4772                	lw	a4,28(sp)
    3dd8:	47e2                	lw	a5,24(sp)
    3dda:	4852                	lw	a6,20(sp)
    3ddc:	48c2                	lw	a7,16(sp)
    3dde:	4e32                	lw	t3,12(sp)
    3de0:	4ea2                	lw	t4,8(sp)
    3de2:	4f12                	lw	t5,4(sp)
    3de4:	4f82                	lw	t6,0(sp)
    3de6:	6121                	addi	sp,sp,64
    3de8:	30200073          	mret

00003dec <I2C1_ER_IRQHandler>:
    3dec:	7139                	addi	sp,sp,-64
    3dee:	de06                	sw	ra,60(sp)
    3df0:	dc16                	sw	t0,56(sp)
    3df2:	da1a                	sw	t1,52(sp)
    3df4:	d81e                	sw	t2,48(sp)
    3df6:	d62a                	sw	a0,44(sp)
    3df8:	d42e                	sw	a1,40(sp)
    3dfa:	d232                	sw	a2,36(sp)
    3dfc:	d036                	sw	a3,32(sp)
    3dfe:	ce3a                	sw	a4,28(sp)
    3e00:	cc3e                	sw	a5,24(sp)
    3e02:	ca42                	sw	a6,20(sp)
    3e04:	c846                	sw	a7,16(sp)
    3e06:	c672                	sw	t3,12(sp)
    3e08:	c476                	sw	t4,8(sp)
    3e0a:	c27a                	sw	t5,4(sp)
    3e0c:	c07e                	sw	t6,0(sp)
    3e0e:	cbbff0ef          	jal	ra,3ac8 <I2C_FSM>
    3e12:	50f2                	lw	ra,60(sp)
    3e14:	52e2                	lw	t0,56(sp)
    3e16:	5352                	lw	t1,52(sp)
    3e18:	53c2                	lw	t2,48(sp)
    3e1a:	5532                	lw	a0,44(sp)
    3e1c:	55a2                	lw	a1,40(sp)
    3e1e:	5612                	lw	a2,36(sp)
    3e20:	5682                	lw	a3,32(sp)
    3e22:	4772                	lw	a4,28(sp)
    3e24:	47e2                	lw	a5,24(sp)
    3e26:	4852                	lw	a6,20(sp)
    3e28:	48c2                	lw	a7,16(sp)
    3e2a:	4e32                	lw	t3,12(sp)
    3e2c:	4ea2                	lw	t4,8(sp)
    3e2e:	4f12                	lw	t5,4(sp)
    3e30:	4f82                	lw	t6,0(sp)
    3e32:	6121                	addi	sp,sp,64
    3e34:	30200073          	mret

00003e38 <I2C2_EV_IRQHandler>:
    3e38:	7139                	addi	sp,sp,-64
    3e3a:	de06                	sw	ra,60(sp)
    3e3c:	dc16                	sw	t0,56(sp)
    3e3e:	da1a                	sw	t1,52(sp)
    3e40:	d81e                	sw	t2,48(sp)
    3e42:	d62a                	sw	a0,44(sp)
    3e44:	d42e                	sw	a1,40(sp)
    3e46:	d232                	sw	a2,36(sp)
    3e48:	d036                	sw	a3,32(sp)
    3e4a:	ce3a                	sw	a4,28(sp)
    3e4c:	cc3e                	sw	a5,24(sp)
    3e4e:	ca42                	sw	a6,20(sp)
    3e50:	c846                	sw	a7,16(sp)
    3e52:	c672                	sw	t3,12(sp)
    3e54:	c476                	sw	t4,8(sp)
    3e56:	c27a                	sw	t5,4(sp)
    3e58:	c07e                	sw	t6,0(sp)
    3e5a:	c6fff0ef          	jal	ra,3ac8 <I2C_FSM>
    3e5e:	50f2                	lw	ra,60(sp)
    3e60:	52e2                	lw	t0,56(sp)
    3e62:	5352                	lw	t1,52(sp)
    3e64:	53c2                	lw	t2,48(sp)
    3e66:	5532                	lw	a0,44(sp)
    3e68:	55a2                	lw	a1,40(sp)
    3e6a:	5612                	lw	a2,36(sp)
    3e6c:	5682                	lw	a3,32(sp)
    3e6e:	4772                	lw	a4,28(sp)
    3e70:	47e2                	lw	a5,24(sp)
    3e72:	4852                	lw	a6,20(sp)
    3e74:	48c2                	lw	a7,16(sp)
    3e76:	4e32                	lw	t3,12(sp)
    3e78:	4ea2                	lw	t4,8(sp)
    3e7a:	4f12                	lw	t5,4(sp)
    3e7c:	4f82                	lw	t6,0(sp)
    3e7e:	6121                	addi	sp,sp,64
    3e80:	30200073          	mret

00003e84 <I2C2_ER_IRQHandler>:
    3e84:	7139                	addi	sp,sp,-64
    3e86:	de06                	sw	ra,60(sp)
    3e88:	dc16                	sw	t0,56(sp)
    3e8a:	da1a                	sw	t1,52(sp)
    3e8c:	d81e                	sw	t2,48(sp)
    3e8e:	d62a                	sw	a0,44(sp)
    3e90:	d42e                	sw	a1,40(sp)
    3e92:	d232                	sw	a2,36(sp)
    3e94:	d036                	sw	a3,32(sp)
    3e96:	ce3a                	sw	a4,28(sp)
    3e98:	cc3e                	sw	a5,24(sp)
    3e9a:	ca42                	sw	a6,20(sp)
    3e9c:	c846                	sw	a7,16(sp)
    3e9e:	c672                	sw	t3,12(sp)
    3ea0:	c476                	sw	t4,8(sp)
    3ea2:	c27a                	sw	t5,4(sp)
    3ea4:	c07e                	sw	t6,0(sp)
    3ea6:	c23ff0ef          	jal	ra,3ac8 <I2C_FSM>
    3eaa:	50f2                	lw	ra,60(sp)
    3eac:	52e2                	lw	t0,56(sp)
    3eae:	5352                	lw	t1,52(sp)
    3eb0:	53c2                	lw	t2,48(sp)
    3eb2:	5532                	lw	a0,44(sp)
    3eb4:	55a2                	lw	a1,40(sp)
    3eb6:	5612                	lw	a2,36(sp)
    3eb8:	5682                	lw	a3,32(sp)
    3eba:	4772                	lw	a4,28(sp)
    3ebc:	47e2                	lw	a5,24(sp)
    3ebe:	4852                	lw	a6,20(sp)
    3ec0:	48c2                	lw	a7,16(sp)
    3ec2:	4e32                	lw	t3,12(sp)
    3ec4:	4ea2                	lw	t4,8(sp)
    3ec6:	4f12                	lw	t5,4(sp)
    3ec8:	4f82                	lw	t6,0(sp)
    3eca:	6121                	addi	sp,sp,64
    3ecc:	30200073          	mret

00003ed0 <HAL_RTC_IT_Init>:
    3ed0:	e34fc2ef          	jal	t0,504 <__riscv_save_4>
    3ed4:	1141                	addi	sp,sp,-16
    3ed6:	84aa                	mv	s1,a0
    3ed8:	89ae                	mv	s3,a1
    3eda:	18000537          	lui	a0,0x18000
    3ede:	4585                	li	a1,1
    3ee0:	8932                	mv	s2,a2
    3ee2:	c402                	sw	zero,8(sp)
    3ee4:	c602                	sw	zero,12(sp)
    3ee6:	933fe0ef          	jal	ra,2818 <RCC_APB1PeriphClockCmd>
    3eea:	4505                	li	a0,1
    3eec:	fb6fe0ef          	jal	ra,26a2 <PWR_BackupAccessCmd>
    3ef0:	930fe0ef          	jal	ra,2020 <BKP_DeInit>
    3ef4:	4505                	li	a0,1
    3ef6:	fd4fe0ef          	jal	ra,26ca <RCC_LSEConfig>
    3efa:	4401                	li	s0,0
    3efc:	0fa00a13          	li	s4,250
    3f00:	04100513          	li	a0,65
    3f04:	98ffe0ef          	jal	ra,2892 <RCC_GetFlagStatus>
    3f08:	ed09                	bnez	a0,3f22 <HAL_RTC_IT_Init+0x52>
    3f0a:	01441563          	bne	s0,s4,3f14 <HAL_RTC_IT_Init+0x44>
    3f0e:	0141                	addi	sp,sp,16
    3f10:	e28fc06f          	j	538 <__riscv_restore_4>
    3f14:	0405                	addi	s0,s0,1
    3f16:	4551                	li	a0,20
    3f18:	0ff47413          	andi	s0,s0,255
    3f1c:	08e020ef          	jal	ra,5faa <Delay_Ms>
    3f20:	b7c5                	j	3f00 <HAL_RTC_IT_Init+0x30>
    3f22:	0fa00793          	li	a5,250
    3f26:	fef404e3          	beq	s0,a5,3f0e <HAL_RTC_IT_Init+0x3e>
    3f2a:	10000513          	li	a0,256
    3f2e:	fc4fe0ef          	jal	ra,26f2 <RCC_RTCCLKConfig>
    3f32:	4505                	li	a0,1
    3f34:	fcafe0ef          	jal	ra,26fe <RCC_RTCCLKCmd>
    3f38:	9f7fe0ef          	jal	ra,292e <RTC_WaitForLastTask>
    3f3c:	a03fe0ef          	jal	ra,293e <RTC_WaitForSynchro>
    3f40:	4585                	li	a1,1
    3f42:	4505                	li	a0,1
    3f44:	97dfe0ef          	jal	ra,28c0 <RTC_ITConfig>
    3f48:	9e7fe0ef          	jal	ra,292e <RTC_WaitForLastTask>
    3f4c:	98ffe0ef          	jal	ra,28da <RTC_EnterConfigMode>
    3f50:	6521                	lui	a0,0x8
    3f52:	157d                	addi	a0,a0,-1
    3f54:	9b1fe0ef          	jal	ra,2904 <RTC_SetPrescaler>
    3f58:	9d7fe0ef          	jal	ra,292e <RTC_WaitForLastTask>
    3f5c:	991fe0ef          	jal	ra,28ec <RTC_ExitConfigMode>
    3f60:	47cd                	li	a5,19
    3f62:	845c                	sb	a5,8(sp)
    3f64:	0028                	addi	a0,sp,8
    3f66:	4785                	li	a5,1
    3f68:	c63e                	sw	a5,12(sp)
    3f6a:	013104a3          	sb	s3,9(sp)
    3f6e:	01210523          	sb	s2,10(sp)
    3f72:	e86fe0ef          	jal	ra,25f8 <NVIC_Init>
    3f76:	200007b7          	lui	a5,0x20000
    3f7a:	5e97aa23          	sw	s1,1524(a5) # 200005f4 <func>
    3f7e:	bf41                	j	3f0e <HAL_RTC_IT_Init+0x3e>

00003f80 <RTC_IRQHandler>:
    3f80:	7139                	addi	sp,sp,-64
    3f82:	d62a                	sw	a0,44(sp)
    3f84:	4505                	li	a0,1
    3f86:	cc3e                	sw	a5,24(sp)
    3f88:	de06                	sw	ra,60(sp)
    3f8a:	dc16                	sw	t0,56(sp)
    3f8c:	da1a                	sw	t1,52(sp)
    3f8e:	d81e                	sw	t2,48(sp)
    3f90:	d42e                	sw	a1,40(sp)
    3f92:	d232                	sw	a2,36(sp)
    3f94:	d036                	sw	a3,32(sp)
    3f96:	ce3a                	sw	a4,28(sp)
    3f98:	ca42                	sw	a6,20(sp)
    3f9a:	c846                	sw	a7,16(sp)
    3f9c:	c672                	sw	t3,12(sp)
    3f9e:	c476                	sw	t4,8(sp)
    3fa0:	c27a                	sw	t5,4(sp)
    3fa2:	c07e                	sw	t6,0(sp)
    3fa4:	9d3fe0ef          	jal	ra,2976 <RTC_GetITStatus>
    3fa8:	4785                	li	a5,1
    3faa:	00f51a63          	bne	a0,a5,3fbe <RTC_IRQHandler+0x3e>
    3fae:	200007b7          	lui	a5,0x20000
    3fb2:	5f47a783          	lw	a5,1524(a5) # 200005f4 <func>
    3fb6:	9782                	jalr	a5
    3fb8:	4505                	li	a0,1
    3fba:	9ddfe0ef          	jal	ra,2996 <RTC_ClearITPendingBit>
    3fbe:	50f2                	lw	ra,60(sp)
    3fc0:	52e2                	lw	t0,56(sp)
    3fc2:	5352                	lw	t1,52(sp)
    3fc4:	53c2                	lw	t2,48(sp)
    3fc6:	5532                	lw	a0,44(sp)
    3fc8:	55a2                	lw	a1,40(sp)
    3fca:	5612                	lw	a2,36(sp)
    3fcc:	5682                	lw	a3,32(sp)
    3fce:	4772                	lw	a4,28(sp)
    3fd0:	47e2                	lw	a5,24(sp)
    3fd2:	4852                	lw	a6,20(sp)
    3fd4:	48c2                	lw	a7,16(sp)
    3fd6:	4e32                	lw	t3,12(sp)
    3fd8:	4ea2                	lw	t4,8(sp)
    3fda:	4f12                	lw	t5,4(sp)
    3fdc:	4f82                	lw	t6,0(sp)
    3fde:	6121                	addi	sp,sp,64
    3fe0:	30200073          	mret

00003fe4 <HAL_SPI_InitDMA>:
    3fe4:	d3afc2ef          	jal	t0,51e <__riscv_save_0>
    3fe8:	1101                	addi	sp,sp,-32
    3fea:	c602                	sw	zero,12(sp)
    3fec:	c802                	sw	zero,16(sp)
    3fee:	ca02                	sw	zero,20(sp)
    3ff0:	cc02                	sw	zero,24(sp)
    3ff2:	00011e23          	sh	zero,28(sp)
    3ff6:	400137b7          	lui	a5,0x40013
    3ffa:	842a                	mv	s0,a0
    3ffc:	892e                	mv	s2,a1
    3ffe:	84b2                	mv	s1,a2
    4000:	06f51363          	bne	a0,a5,4066 <HAL_SPI_InitDMA+0x82>
    4004:	4585                	li	a1,1
    4006:	6505                	lui	a0,0x1
    4008:	ff2fe0ef          	jal	ra,27fa <RCC_APB2PeriphClockCmd>
    400c:	8522                	mv	a0,s0
    400e:	993fe0ef          	jal	ra,29a0 <SPI_I2S_DeInit>
    4012:	0104c7b7          	lui	a5,0x104c
    4016:	c63e                	sw	a5,12(sp)
    4018:	4781                	li	a5,0
    401a:	00090563          	beqz	s2,4024 <HAL_SPI_InitDMA+0x40>
    401e:	6785                	lui	a5,0x1
    4020:	80078793          	addi	a5,a5,-2048 # 800 <__stack_size>
    4024:	80fc                	sh	a5,16(sp)
    4026:	00011923          	sh	zero,18(sp)
    402a:	00011a23          	sh	zero,20(sp)
    402e:	4705                	li	a4,1
    4030:	20000793          	li	a5,512
    4034:	00e48363          	beq	s1,a4,403a <HAL_SPI_InitDMA+0x56>
    4038:	4781                	li	a5,0
    403a:	83fc                	sh	a5,22(sp)
    403c:	006c                	addi	a1,sp,12
    403e:	02800793          	li	a5,40
    4042:	8522                	mv	a0,s0
    4044:	cc3e                	sw	a5,24(sp)
    4046:	00011e23          	sh	zero,28(sp)
    404a:	98dfe0ef          	jal	ra,29d6 <SPI_Init>
    404e:	4605                	li	a2,1
    4050:	8522                	mv	a0,s0
    4052:	4589                	li	a1,2
    4054:	9dbfe0ef          	jal	ra,2a2e <SPI_I2S_DMACmd>
    4058:	4585                	li	a1,1
    405a:	8522                	mv	a0,s0
    405c:	9b9fe0ef          	jal	ra,2a14 <SPI_Cmd>
    4060:	6105                	addi	sp,sp,32
    4062:	ce0fc06f          	j	542 <__riscv_restore_0>
    4066:	400047b7          	lui	a5,0x40004
    406a:	80078793          	addi	a5,a5,-2048 # 40003800 <__freertos_irq_stack_top+0x1fffe800>
    406e:	f8f51fe3          	bne	a0,a5,400c <HAL_SPI_InitDMA+0x28>
    4072:	4585                	li	a1,1
    4074:	6511                	lui	a0,0x4
    4076:	fa2fe0ef          	jal	ra,2818 <RCC_APB1PeriphClockCmd>
    407a:	bf49                	j	400c <HAL_SPI_InitDMA+0x28>

0000407c <HAL_SPI_RXOveleyClear>:
    407c:	ca2fc2ef          	jal	t0,51e <__riscv_save_0>
    4080:	04000593          	li	a1,64
    4084:	9c7fe0ef          	jal	ra,2a4a <SPI_I2S_ClearFlag>
    4088:	cbafc06f          	j	542 <__riscv_restore_0>

0000408c <HAL_SPI_GetBusy>:
    408c:	c92fc2ef          	jal	t0,51e <__riscv_save_0>
    4090:	08000593          	li	a1,128
    4094:	9adfe0ef          	jal	ra,2a40 <SPI_I2S_GetFlagStatus>
    4098:	157d                	addi	a0,a0,-1
    409a:	00153513          	seqz	a0,a0
    409e:	ca4fc06f          	j	542 <__riscv_restore_0>

000040a2 <vTimerInitRCC>:
    40a2:	4799                	li	a5,6
    40a4:	04a7e263          	bltu	a5,a0,40e8 <vTimerInitRCC+0x46>
    40a8:	c76fc2ef          	jal	t0,51e <__riscv_save_0>
    40ac:	67a1                	lui	a5,0x8
    40ae:	26878793          	addi	a5,a5,616 # 8268 <ADC_chennel_ref+0x44>
    40b2:	050a                	slli	a0,a0,0x2
    40b4:	953e                	add	a0,a0,a5
    40b6:	411c                	lw	a5,0(a0)
    40b8:	4585                	li	a1,1
    40ba:	8782                	jr	a5
    40bc:	6505                	lui	a0,0x1
    40be:	80050513          	addi	a0,a0,-2048 # 800 <__stack_size>
    40c2:	f38fe0ef          	jal	ra,27fa <RCC_APB2PeriphClockCmd>
    40c6:	c7cfc06f          	j	542 <__riscv_restore_0>
    40ca:	4505                	li	a0,1
    40cc:	f4cfe0ef          	jal	ra,2818 <RCC_APB1PeriphClockCmd>
    40d0:	bfdd                	j	40c6 <vTimerInitRCC+0x24>
    40d2:	4509                	li	a0,2
    40d4:	bfe5                	j	40cc <vTimerInitRCC+0x2a>
    40d6:	4511                	li	a0,4
    40d8:	bfd5                	j	40cc <vTimerInitRCC+0x2a>
    40da:	4521                	li	a0,8
    40dc:	bfc5                	j	40cc <vTimerInitRCC+0x2a>
    40de:	4541                	li	a0,16
    40e0:	b7f5                	j	40cc <vTimerInitRCC+0x2a>
    40e2:	02000513          	li	a0,32
    40e6:	b7dd                	j	40cc <vTimerInitRCC+0x2a>
    40e8:	8082                	ret

000040ea <TIM4_IRQHandler>:
    40ea:	715d                	addi	sp,sp,-80
    40ec:	de22                	sw	s0,60(sp)
    40ee:	40001437          	lui	s0,0x40001
    40f2:	dc2a                	sw	a0,56(sp)
    40f4:	da2e                	sw	a1,52(sp)
    40f6:	80040513          	addi	a0,s0,-2048 # 40000800 <__freertos_irq_stack_top+0x1fffb800>
    40fa:	4585                	li	a1,1
    40fc:	d23e                	sw	a5,36(sp)
    40fe:	c686                	sw	ra,76(sp)
    4100:	c496                	sw	t0,72(sp)
    4102:	c29a                	sw	t1,68(sp)
    4104:	c09e                	sw	t2,64(sp)
    4106:	d832                	sw	a2,48(sp)
    4108:	d636                	sw	a3,44(sp)
    410a:	d43a                	sw	a4,40(sp)
    410c:	d042                	sw	a6,32(sp)
    410e:	ce46                	sw	a7,28(sp)
    4110:	cc72                	sw	t3,24(sp)
    4112:	ca76                	sw	t4,20(sp)
    4114:	c87a                	sw	t5,16(sp)
    4116:	c67e                	sw	t6,12(sp)
    4118:	cfbfe0ef          	jal	ra,2e12 <TIM_GetITStatus>
    411c:	4785                	li	a5,1
    411e:	00f51c63          	bne	a0,a5,4136 <TIM4_IRQHandler+0x4c>
    4122:	200017b7          	lui	a5,0x20001
    4126:	7a47a783          	lw	a5,1956(a5) # 200017a4 <config+0x2c>
    412a:	9782                	jalr	a5
    412c:	4585                	li	a1,1
    412e:	80040513          	addi	a0,s0,-2048
    4132:	cf9fe0ef          	jal	ra,2e2a <TIM_ClearITPendingBit>
    4136:	5472                	lw	s0,60(sp)
    4138:	40b6                	lw	ra,76(sp)
    413a:	42a6                	lw	t0,72(sp)
    413c:	4316                	lw	t1,68(sp)
    413e:	4386                	lw	t2,64(sp)
    4140:	5562                	lw	a0,56(sp)
    4142:	55d2                	lw	a1,52(sp)
    4144:	5642                	lw	a2,48(sp)
    4146:	56b2                	lw	a3,44(sp)
    4148:	5722                	lw	a4,40(sp)
    414a:	5792                	lw	a5,36(sp)
    414c:	5802                	lw	a6,32(sp)
    414e:	48f2                	lw	a7,28(sp)
    4150:	4e62                	lw	t3,24(sp)
    4152:	4ed2                	lw	t4,20(sp)
    4154:	4f42                	lw	t5,16(sp)
    4156:	4fb2                	lw	t6,12(sp)
    4158:	6161                	addi	sp,sp,80
    415a:	30200073          	mret

0000415e <TIM3_IRQHandler>:
    415e:	715d                	addi	sp,sp,-80
    4160:	de22                	sw	s0,60(sp)
    4162:	40000437          	lui	s0,0x40000
    4166:	dc2a                	sw	a0,56(sp)
    4168:	da2e                	sw	a1,52(sp)
    416a:	40040513          	addi	a0,s0,1024 # 40000400 <__freertos_irq_stack_top+0x1fffb400>
    416e:	4585                	li	a1,1
    4170:	d23e                	sw	a5,36(sp)
    4172:	c686                	sw	ra,76(sp)
    4174:	c496                	sw	t0,72(sp)
    4176:	c29a                	sw	t1,68(sp)
    4178:	c09e                	sw	t2,64(sp)
    417a:	d832                	sw	a2,48(sp)
    417c:	d636                	sw	a3,44(sp)
    417e:	d43a                	sw	a4,40(sp)
    4180:	d042                	sw	a6,32(sp)
    4182:	ce46                	sw	a7,28(sp)
    4184:	cc72                	sw	t3,24(sp)
    4186:	ca76                	sw	t4,20(sp)
    4188:	c87a                	sw	t5,16(sp)
    418a:	c67e                	sw	t6,12(sp)
    418c:	c87fe0ef          	jal	ra,2e12 <TIM_GetITStatus>
    4190:	4785                	li	a5,1
    4192:	00f51c63          	bne	a0,a5,41aa <TIM3_IRQHandler+0x4c>
    4196:	200017b7          	lui	a5,0x20001
    419a:	7987a783          	lw	a5,1944(a5) # 20001798 <config+0x20>
    419e:	9782                	jalr	a5
    41a0:	4585                	li	a1,1
    41a2:	40040513          	addi	a0,s0,1024
    41a6:	c85fe0ef          	jal	ra,2e2a <TIM_ClearITPendingBit>
    41aa:	5472                	lw	s0,60(sp)
    41ac:	40b6                	lw	ra,76(sp)
    41ae:	42a6                	lw	t0,72(sp)
    41b0:	4316                	lw	t1,68(sp)
    41b2:	4386                	lw	t2,64(sp)
    41b4:	5562                	lw	a0,56(sp)
    41b6:	55d2                	lw	a1,52(sp)
    41b8:	5642                	lw	a2,48(sp)
    41ba:	56b2                	lw	a3,44(sp)
    41bc:	5722                	lw	a4,40(sp)
    41be:	5792                	lw	a5,36(sp)
    41c0:	5802                	lw	a6,32(sp)
    41c2:	48f2                	lw	a7,28(sp)
    41c4:	4e62                	lw	t3,24(sp)
    41c6:	4ed2                	lw	t4,20(sp)
    41c8:	4f42                	lw	t5,16(sp)
    41ca:	4fb2                	lw	t6,12(sp)
    41cc:	6161                	addi	sp,sp,80
    41ce:	30200073          	mret

000041d2 <TIM2_IRQHandler>:
    41d2:	7139                	addi	sp,sp,-64
    41d4:	d62a                	sw	a0,44(sp)
    41d6:	d42e                	sw	a1,40(sp)
    41d8:	40000537          	lui	a0,0x40000
    41dc:	4585                	li	a1,1
    41de:	cc3e                	sw	a5,24(sp)
    41e0:	de06                	sw	ra,60(sp)
    41e2:	dc16                	sw	t0,56(sp)
    41e4:	da1a                	sw	t1,52(sp)
    41e6:	d81e                	sw	t2,48(sp)
    41e8:	d232                	sw	a2,36(sp)
    41ea:	d036                	sw	a3,32(sp)
    41ec:	ce3a                	sw	a4,28(sp)
    41ee:	ca42                	sw	a6,20(sp)
    41f0:	c846                	sw	a7,16(sp)
    41f2:	c672                	sw	t3,12(sp)
    41f4:	c476                	sw	t4,8(sp)
    41f6:	c27a                	sw	t5,4(sp)
    41f8:	c07e                	sw	t6,0(sp)
    41fa:	c19fe0ef          	jal	ra,2e12 <TIM_GetITStatus>
    41fe:	4785                	li	a5,1
    4200:	00f51c63          	bne	a0,a5,4218 <TIM2_IRQHandler+0x46>
    4204:	200017b7          	lui	a5,0x20001
    4208:	78c7a783          	lw	a5,1932(a5) # 2000178c <config+0x14>
    420c:	9782                	jalr	a5
    420e:	4585                	li	a1,1
    4210:	40000537          	lui	a0,0x40000
    4214:	c17fe0ef          	jal	ra,2e2a <TIM_ClearITPendingBit>
    4218:	50f2                	lw	ra,60(sp)
    421a:	52e2                	lw	t0,56(sp)
    421c:	5352                	lw	t1,52(sp)
    421e:	53c2                	lw	t2,48(sp)
    4220:	5532                	lw	a0,44(sp)
    4222:	55a2                	lw	a1,40(sp)
    4224:	5612                	lw	a2,36(sp)
    4226:	5682                	lw	a3,32(sp)
    4228:	4772                	lw	a4,28(sp)
    422a:	47e2                	lw	a5,24(sp)
    422c:	4852                	lw	a6,20(sp)
    422e:	48c2                	lw	a7,16(sp)
    4230:	4e32                	lw	t3,12(sp)
    4232:	4ea2                	lw	t4,8(sp)
    4234:	4f12                	lw	t5,4(sp)
    4236:	4f82                	lw	t6,0(sp)
    4238:	6121                	addi	sp,sp,64
    423a:	30200073          	mret

0000423e <HW_TIMER_BaseTimerInit>:
    423e:	ae0fc2ef          	jal	t0,51e <__riscv_save_0>
    4242:	67a1                	lui	a5,0x8
    4244:	00251713          	slli	a4,a0,0x2
    4248:	28478793          	addi	a5,a5,644 # 8284 <timers>
    424c:	97ba                	add	a5,a5,a4
    424e:	4384                	lw	s1,0(a5)
    4250:	1141                	addi	sp,sp,-16
    4252:	842a                	mv	s0,a0
    4254:	8526                	mv	a0,s1
    4256:	801fe0ef          	jal	ra,2a56 <TIM_DeInit>
    425a:	8526                	mv	a0,s1
    425c:	b45fe0ef          	jal	ra,2da0 <TIM_InternalClockConfig>
    4260:	0048                	addi	a0,sp,4
    4262:	ae9fe0ef          	jal	ra,2d4a <TIM_TimeBaseStructInit>
    4266:	4531                	li	a0,12
    4268:	02a40433          	mul	s0,s0,a0
    426c:	20001537          	lui	a0,0x20001
    4270:	77850513          	addi	a0,a0,1912 # 20001778 <config>
    4274:	004c                	addi	a1,sp,4
    4276:	9522                	add	a0,a0,s0
    4278:	211e                	lhu	a5,0(a0)
    427a:	847c                	sh	a5,8(sp)
    427c:	213e                	lhu	a5,2(a0)
    427e:	8526                	mv	a0,s1
    4280:	827c                	sh	a5,4(sp)
    4282:	85ffe0ef          	jal	ra,2ae0 <TIM_TimeBaseInit>
    4286:	0141                	addi	sp,sp,16
    4288:	abafc06f          	j	542 <__riscv_restore_0>

0000428c <HAL_TIMER_InitIt>:
    428c:	a92fc2ef          	jal	t0,51e <__riscv_save_0>
    4290:	1101                	addi	sp,sp,-32
    4292:	cc02                	sw	zero,24(sp)
    4294:	ce02                	sw	zero,28(sp)
    4296:	4799                	li	a5,6
    4298:	842a                	mv	s0,a0
    429a:	4901                	li	s2,0
    429c:	4481                	li	s1,0
    429e:	00a7e663          	bltu	a5,a0,42aa <HAL_TIMER_InitIt+0x1e>
    42a2:	044aa4b7          	lui	s1,0x44aa
    42a6:	20048493          	addi	s1,s1,512 # 44aa200 <_data_lma+0x44a1598>
    42aa:	8522                	mv	a0,s0
    42ac:	c636                	sw	a3,12(sp)
    42ae:	c432                	sw	a2,8(sp)
    42b0:	c22e                	sw	a1,4(sp)
    42b2:	df1ff0ef          	jal	ra,40a2 <vTimerInitRCC>
    42b6:	4592                	lw	a1,4(sp)
    42b8:	47b1                	li	a5,12
    42ba:	02f40733          	mul	a4,s0,a5
    42be:	4622                	lw	a2,8(sp)
    42c0:	46b2                	lw	a3,12(sp)
    42c2:	200017b7          	lui	a5,0x20001
    42c6:	77878793          	addi	a5,a5,1912 # 20001778 <config>
    42ca:	8522                	mv	a0,s0
    42cc:	02b4d4b3          	divu	s1,s1,a1
    42d0:	97ba                	add	a5,a5,a4
    42d2:	a392                	sh	a2,0(a5)
    42d4:	c794                	sw	a3,8(a5)
    42d6:	a3a6                	sh	s1,2(a5)
    42d8:	f67ff0ef          	jal	ra,423e <HW_TIMER_BaseTimerInit>
    42dc:	67a1                	lui	a5,0x8
    42de:	00241713          	slli	a4,s0,0x2
    42e2:	28478793          	addi	a5,a5,644 # 8284 <timers>
    42e6:	97ba                	add	a5,a5,a4
    42e8:	4384                	lw	s1,0(a5)
    42ea:	4585                	li	a1,1
    42ec:	147d                	addi	s0,s0,-1
    42ee:	8526                	mv	a0,s1
    42f0:	b3bfe0ef          	jal	ra,2e2a <TIM_ClearITPendingBit>
    42f4:	4605                	li	a2,1
    42f6:	4585                	li	a1,1
    42f8:	8526                	mv	a0,s1
    42fa:	a95fe0ef          	jal	ra,2d8e <TIM_ITConfig>
    42fe:	4789                	li	a5,2
    4300:	0087e763          	bltu	a5,s0,430e <HAL_TIMER_InitIt+0x82>
    4304:	82c18793          	addi	a5,gp,-2004 # 200005ac <CSWTCH.0>
    4308:	943e                	add	s0,s0,a5
    430a:	00044903          	lbu	s2,0(s0)
    430e:	4785                	li	a5,1
    4310:	00f10ca3          	sb	a5,25(sp)
    4314:	478d                	li	a5,3
    4316:	00f10d23          	sb	a5,26(sp)
    431a:	0828                	addi	a0,sp,24
    431c:	4785                	li	a5,1
    431e:	ce3e                	sw	a5,28(sp)
    4320:	01210c23          	sb	s2,24(sp)
    4324:	ad4fe0ef          	jal	ra,25f8 <NVIC_Init>
    4328:	4585                	li	a1,1
    432a:	8526                	mv	a0,s1
    432c:	a35fe0ef          	jal	ra,2d60 <TIM_Cmd>
    4330:	6105                	addi	sp,sp,32
    4332:	a10fc06f          	j	542 <__riscv_restore_0>

00004336 <HAL_TIMER_PWMTimersInit>:
    4336:	9cefc2ef          	jal	t0,504 <__riscv_save_4>
    433a:	1101                	addi	sp,sp,-32
    433c:	c802                	sw	zero,16(sp)
    433e:	ca02                	sw	zero,20(sp)
    4340:	cc02                	sw	zero,24(sp)
    4342:	ce02                	sw	zero,28(sp)
    4344:	4799                	li	a5,6
    4346:	8a2a                	mv	s4,a0
    4348:	8932                	mv	s2,a2
    434a:	84b6                	mv	s1,a3
    434c:	4981                	li	s3,0
    434e:	00a7e663          	bltu	a5,a0,435a <HAL_TIMER_PWMTimersInit+0x24>
    4352:	044aa9b7          	lui	s3,0x44aa
    4356:	20098993          	addi	s3,s3,512 # 44aa200 <_data_lma+0x44a1598>
    435a:	67a1                	lui	a5,0x8
    435c:	002a1713          	slli	a4,s4,0x2
    4360:	28478793          	addi	a5,a5,644 # 8284 <timers>
    4364:	97ba                	add	a5,a5,a4
    4366:	4380                	lw	s0,0(a5)
    4368:	c62e                	sw	a1,12(sp)
    436a:	0942                	slli	s2,s2,0x10
    436c:	8522                	mv	a0,s0
    436e:	ee8fe0ef          	jal	ra,2a56 <TIM_DeInit>
    4372:	8522                	mv	a0,s0
    4374:	a2dfe0ef          	jal	ra,2da0 <TIM_InternalClockConfig>
    4378:	8552                	mv	a0,s4
    437a:	d29ff0ef          	jal	ra,40a2 <vTimerInitRCC>
    437e:	45b2                	lw	a1,12(sp)
    4380:	47b1                	li	a5,12
    4382:	02fa0733          	mul	a4,s4,a5
    4386:	200017b7          	lui	a5,0x20001
    438a:	77878793          	addi	a5,a5,1912 # 20001778 <config>
    438e:	01095913          	srli	s2,s2,0x10
    4392:	8552                	mv	a0,s4
    4394:	02b9d9b3          	divu	s3,s3,a1
    4398:	97ba                	add	a5,a5,a4
    439a:	01279023          	sh	s2,0(a5)
    439e:	f3890913          	addi	s2,s2,-200
    43a2:	01379123          	sh	s3,2(a5)
    43a6:	e99ff0ef          	jal	ra,423e <HW_TIMER_BaseTimerInit>
    43aa:	67c1                	lui	a5,0x10
    43ac:	06078793          	addi	a5,a5,96 # 10060 <_data_lma+0x73f8>
    43b0:	c83e                	sw	a5,16(sp)
    43b2:	01211b23          	sh	s2,22(sp)
    43b6:	00011c23          	sh	zero,24(sp)
    43ba:	0014f793          	andi	a5,s1,1
    43be:	cb89                	beqz	a5,43d0 <HAL_TIMER_PWMTimersInit+0x9a>
    43c0:	080c                	addi	a1,sp,16
    43c2:	8522                	mv	a0,s0
    43c4:	f86fe0ef          	jal	ra,2b4a <TIM_OC1Init>
    43c8:	4581                	li	a1,0
    43ca:	8522                	mv	a0,s0
    43cc:	9fffe0ef          	jal	ra,2dca <TIM_OC1PreloadConfig>
    43d0:	0024f793          	andi	a5,s1,2
    43d4:	cb89                	beqz	a5,43e6 <HAL_TIMER_PWMTimersInit+0xb0>
    43d6:	080c                	addi	a1,sp,16
    43d8:	8522                	mv	a0,s0
    43da:	fdafe0ef          	jal	ra,2bb4 <TIM_OC2Init>
    43de:	4581                	li	a1,0
    43e0:	8522                	mv	a0,s0
    43e2:	9f7fe0ef          	jal	ra,2dd8 <TIM_OC2PreloadConfig>
    43e6:	0044f793          	andi	a5,s1,4
    43ea:	cb89                	beqz	a5,43fc <HAL_TIMER_PWMTimersInit+0xc6>
    43ec:	080c                	addi	a1,sp,16
    43ee:	8522                	mv	a0,s0
    43f0:	85bfe0ef          	jal	ra,2c4a <TIM_OC3Init>
    43f4:	4581                	li	a1,0
    43f6:	8522                	mv	a0,s0
    43f8:	9f7fe0ef          	jal	ra,2dee <TIM_OC3PreloadConfig>
    43fc:	88a1                	andi	s1,s1,8
    43fe:	c889                	beqz	s1,4410 <HAL_TIMER_PWMTimersInit+0xda>
    4400:	080c                	addi	a1,sp,16
    4402:	8522                	mv	a0,s0
    4404:	8dbfe0ef          	jal	ra,2cde <TIM_OC4Init>
    4408:	4581                	li	a1,0
    440a:	8522                	mv	a0,s0
    440c:	9f1fe0ef          	jal	ra,2dfc <TIM_OC4PreloadConfig>
    4410:	8522                	mv	a0,s0
    4412:	4585                	li	a1,1
    4414:	99dfe0ef          	jal	ra,2db0 <TIM_ARRPreloadConfig>
    4418:	8522                	mv	a0,s0
    441a:	4585                	li	a1,1
    441c:	95dfe0ef          	jal	ra,2d78 <TIM_CtrlPWMOutputs>
    4420:	4585                	li	a1,1
    4422:	8522                	mv	a0,s0
    4424:	93dfe0ef          	jal	ra,2d60 <TIM_Cmd>
    4428:	6105                	addi	sp,sp,32
    442a:	90efc06f          	j	538 <__riscv_restore_4>

0000442e <HAL_WDTReset>:
    442e:	8082                	ret

00004430 <prvInsertBlockIntoFreeList>:
    4430:	200007b7          	lui	a5,0x20000
    4434:	60878793          	addi	a5,a5,1544 # 20000608 <xStart>
    4438:	4398                	lw	a4,0(a5)
    443a:	02a76f63          	bltu	a4,a0,4478 <prvInsertBlockIntoFreeList+0x48>
    443e:	43d0                	lw	a2,4(a5)
    4440:	00c786b3          	add	a3,a5,a2
    4444:	00d51663          	bne	a0,a3,4450 <prvInsertBlockIntoFreeList+0x20>
    4448:	4154                	lw	a3,4(a0)
    444a:	853e                	mv	a0,a5
    444c:	96b2                	add	a3,a3,a2
    444e:	c3d4                	sw	a3,4(a5)
    4450:	4150                	lw	a2,4(a0)
    4452:	00c506b3          	add	a3,a0,a2
    4456:	00d71c63          	bne	a4,a3,446e <prvInsertBlockIntoFreeList+0x3e>
    445a:	200006b7          	lui	a3,0x20000
    445e:	5f86a683          	lw	a3,1528(a3) # 200005f8 <pxEnd>
    4462:	00d70663          	beq	a4,a3,446e <prvInsertBlockIntoFreeList+0x3e>
    4466:	4354                	lw	a3,4(a4)
    4468:	4318                	lw	a4,0(a4)
    446a:	96b2                	add	a3,a3,a2
    446c:	c154                	sw	a3,4(a0)
    446e:	c118                	sw	a4,0(a0)
    4470:	00f50363          	beq	a0,a5,4476 <prvInsertBlockIntoFreeList+0x46>
    4474:	c388                	sw	a0,0(a5)
    4476:	8082                	ret
    4478:	87ba                	mv	a5,a4
    447a:	bf7d                	j	4438 <prvInsertBlockIntoFreeList+0x8>

0000447c <vPortFree>:
    447c:	c15d                	beqz	a0,4522 <vPortFree+0xa6>
    447e:	8a0fc2ef          	jal	t0,51e <__riscv_save_0>
    4482:	200007b7          	lui	a5,0x20000
    4486:	ff452703          	lw	a4,-12(a0)
    448a:	5fc7a783          	lw	a5,1532(a5) # 200005fc <xBlockAllocatedBit>
    448e:	842a                	mv	s0,a0
    4490:	00f776b3          	and	a3,a4,a5
    4494:	e29d                	bnez	a3,44ba <vPortFree+0x3e>
    4496:	6789                	lui	a5,0x2
    4498:	80078793          	addi	a5,a5,-2048 # 1800 <SystemCoreClockUpdate+0x1e>
    449c:	30079073          	csrw	mstatus,a5
    44a0:	00008637          	lui	a2,0x8
    44a4:	00008537          	lui	a0,0x8
    44a8:	29860613          	addi	a2,a2,664 # 8298 <timers+0x14>
    44ac:	12400593          	li	a1,292
    44b0:	2c050513          	addi	a0,a0,704 # 82c0 <timers+0x3c>
    44b4:	317020ef          	jal	ra,6fca <iprintf>
    44b8:	a001                	j	44b8 <vPortFree+0x3c>
    44ba:	ff052683          	lw	a3,-16(a0)
    44be:	c29d                	beqz	a3,44e4 <vPortFree+0x68>
    44c0:	6789                	lui	a5,0x2
    44c2:	80078793          	addi	a5,a5,-2048 # 1800 <SystemCoreClockUpdate+0x1e>
    44c6:	30079073          	csrw	mstatus,a5
    44ca:	00008637          	lui	a2,0x8
    44ce:	00008537          	lui	a0,0x8
    44d2:	29860613          	addi	a2,a2,664 # 8298 <timers+0x14>
    44d6:	12500593          	li	a1,293
    44da:	2c050513          	addi	a0,a0,704 # 82c0 <timers+0x3c>
    44de:	2ed020ef          	jal	ra,6fca <iprintf>
    44e2:	a001                	j	44e2 <vPortFree+0x66>
    44e4:	fff7c793          	not	a5,a5
    44e8:	8ff9                	and	a5,a5,a4
    44ea:	fef52a23          	sw	a5,-12(a0)
    44ee:	29b000ef          	jal	ra,4f88 <vTaskSuspendAll>
    44f2:	200007b7          	lui	a5,0x20000
    44f6:	60078793          	addi	a5,a5,1536 # 20000600 <xFreeBytesRemaining>
    44fa:	4394                	lw	a3,0(a5)
    44fc:	ff442703          	lw	a4,-12(s0)
    4500:	ff040513          	addi	a0,s0,-16
    4504:	9736                	add	a4,a4,a3
    4506:	c398                	sw	a4,0(a5)
    4508:	f29ff0ef          	jal	ra,4430 <prvInsertBlockIntoFreeList>
    450c:	200007b7          	lui	a5,0x20000
    4510:	60478793          	addi	a5,a5,1540 # 20000604 <xNumberOfSuccessfulFrees>
    4514:	4398                	lw	a4,0(a5)
    4516:	0705                	addi	a4,a4,1
    4518:	c398                	sw	a4,0(a5)
    451a:	435000ef          	jal	ra,514e <xTaskResumeAll>
    451e:	824fc06f          	j	542 <__riscv_restore_0>
    4522:	8082                	ret

00004524 <vPortSetupTimerInterrupt>:
    4524:	e000e7b7          	lui	a5,0xe000e
    4528:	5741                	li	a4,-16
    452a:	40e78723          	sb	a4,1038(a5) # e000e40e <__freertos_irq_stack_top+0xc000940e>
    452e:	40e78623          	sb	a4,1036(a5)
    4532:	e000f7b7          	lui	a5,0xe000f
    4536:	0007a023          	sw	zero,0(a5) # e000f000 <__freertos_irq_stack_top+0xc000a000>
    453a:	0007a223          	sw	zero,4(a5)
    453e:	4681                	li	a3,0
    4540:	c794                	sw	a3,8(a5)
    4542:	4701                	li	a4,0
    4544:	c7d8                	sw	a4,12(a5)
    4546:	20000737          	lui	a4,0x20000
    454a:	58072583          	lw	a1,1408(a4) # 20000580 <SystemCoreClock>
    454e:	3e800713          	li	a4,1000
    4552:	4681                	li	a3,0
    4554:	02e5d633          	divu	a2,a1,a4
    4558:	473d                	li	a4,15
    455a:	cb90                	sw	a2,16(a5)
    455c:	cbd4                	sw	a3,20(a5)
    455e:	c398                	sw	a4,0(a5)
    4560:	8082                	ret

00004562 <xPortStartScheduler>:
    4562:	fbdfb2ef          	jal	t0,51e <__riscv_save_0>
    4566:	1141                	addi	sp,sp,-16
    4568:	c602                	sw	zero,12(sp)
    456a:	305027f3          	csrr	a5,mtvec
    456e:	c63e                	sw	a5,12(sp)
    4570:	47b2                	lw	a5,12(sp)
    4572:	470d                	li	a4,3
    4574:	8b8d                	andi	a5,a5,3
    4576:	02e78463          	beq	a5,a4,459e <xPortStartScheduler+0x3c>
    457a:	6789                	lui	a5,0x2
    457c:	80078793          	addi	a5,a5,-2048 # 1800 <SystemCoreClockUpdate+0x1e>
    4580:	30079073          	csrw	mstatus,a5
    4584:	00008637          	lui	a2,0x8
    4588:	00008537          	lui	a0,0x8
    458c:	2e460613          	addi	a2,a2,740 # 82e4 <timers+0x60>
    4590:	0b600593          	li	a1,182
    4594:	2c050513          	addi	a0,a0,704 # 82c0 <timers+0x3c>
    4598:	233020ef          	jal	ra,6fca <iprintf>
    459c:	a001                	j	459c <xPortStartScheduler+0x3a>
    459e:	200057b7          	lui	a5,0x20005
    45a2:	00078793          	mv	a5,a5
    45a6:	8bbd                	andi	a5,a5,15
    45a8:	c39d                	beqz	a5,45ce <xPortStartScheduler+0x6c>
    45aa:	6789                	lui	a5,0x2
    45ac:	80078793          	addi	a5,a5,-2048 # 1800 <SystemCoreClockUpdate+0x1e>
    45b0:	30079073          	csrw	mstatus,a5
    45b4:	00008637          	lui	a2,0x8
    45b8:	00008537          	lui	a0,0x8
    45bc:	2e460613          	addi	a2,a2,740 # 82e4 <timers+0x60>
    45c0:	0bb00593          	li	a1,187
    45c4:	2c050513          	addi	a0,a0,704 # 82c0 <timers+0x3c>
    45c8:	203020ef          	jal	ra,6fca <iprintf>
    45cc:	a001                	j	45cc <xPortStartScheduler+0x6a>
    45ce:	f57ff0ef          	jal	ra,4524 <vPortSetupTimerInterrupt>
    45d2:	e000e7b7          	lui	a5,0xe000e
    45d6:	6711                	lui	a4,0x4
    45d8:	10e7a023          	sw	a4,256(a5) # e000e100 <__freertos_irq_stack_top+0xc0009100>
    45dc:	6705                	lui	a4,0x1
    45de:	10e7a023          	sw	a4,256(a5)
    45e2:	8001a423          	sw	zero,-2040(gp) # 20000588 <uxCriticalNesting>
    45e6:	d1bfb0ef          	jal	ra,300 <xPortStartFirstTask>
    45ea:	4501                	li	a0,0
    45ec:	0141                	addi	sp,sp,16
    45ee:	f55fb06f          	j	542 <__riscv_restore_0>

000045f2 <SysTick_Handler>:
    45f2:	7139                	addi	sp,sp,-64
    45f4:	de06                	sw	ra,60(sp)
    45f6:	dc16                	sw	t0,56(sp)
    45f8:	da1a                	sw	t1,52(sp)
    45fa:	d81e                	sw	t2,48(sp)
    45fc:	d62a                	sw	a0,44(sp)
    45fe:	d42e                	sw	a1,40(sp)
    4600:	d232                	sw	a2,36(sp)
    4602:	d036                	sw	a3,32(sp)
    4604:	ce3a                	sw	a4,28(sp)
    4606:	cc3e                	sw	a5,24(sp)
    4608:	ca42                	sw	a6,20(sp)
    460a:	c846                	sw	a7,16(sp)
    460c:	c672                	sw	t3,12(sp)
    460e:	c476                	sw	t4,8(sp)
    4610:	c27a                	sw	t5,4(sp)
    4612:	c07e                	sw	t6,0(sp)
    4614:	34011173          	csrrw	sp,mscratch,sp
    4618:	6789                	lui	a5,0x2
    461a:	80078793          	addi	a5,a5,-2048 # 1800 <SystemCoreClockUpdate+0x1e>
    461e:	30079073          	csrw	mstatus,a5
    4622:	e000f7b7          	lui	a5,0xe000f
    4626:	0007a223          	sw	zero,4(a5) # e000f004 <__freertos_irq_stack_top+0xc000a004>
    462a:	179000ef          	jal	ra,4fa2 <xTaskIncrementTick>
    462e:	c511                	beqz	a0,463a <SysTick_Handler+0x48>
    4630:	e000e7b7          	lui	a5,0xe000e
    4634:	6711                	lui	a4,0x4
    4636:	20e7a023          	sw	a4,512(a5) # e000e200 <__freertos_irq_stack_top+0xc0009200>
    463a:	6789                	lui	a5,0x2
    463c:	88878793          	addi	a5,a5,-1912 # 1888 <StartDefaultTask+0x14>
    4640:	30079073          	csrw	mstatus,a5
    4644:	34011173          	csrrw	sp,mscratch,sp
    4648:	50f2                	lw	ra,60(sp)
    464a:	52e2                	lw	t0,56(sp)
    464c:	5352                	lw	t1,52(sp)
    464e:	53c2                	lw	t2,48(sp)
    4650:	5532                	lw	a0,44(sp)
    4652:	55a2                	lw	a1,40(sp)
    4654:	5612                	lw	a2,36(sp)
    4656:	5682                	lw	a3,32(sp)
    4658:	4772                	lw	a4,28(sp)
    465a:	47e2                	lw	a5,24(sp)
    465c:	4852                	lw	a6,20(sp)
    465e:	48c2                	lw	a7,16(sp)
    4660:	4e32                	lw	t3,12(sp)
    4662:	4ea2                	lw	t4,8(sp)
    4664:	4f12                	lw	t5,4(sp)
    4666:	4f82                	lw	t6,0(sp)
    4668:	6121                	addi	sp,sp,64
    466a:	30200073          	mret

0000466e <vPortEnterCritical>:
    466e:	6789                	lui	a5,0x2
    4670:	80078793          	addi	a5,a5,-2048 # 1800 <SystemCoreClockUpdate+0x1e>
    4674:	30079073          	csrw	mstatus,a5
    4678:	80818793          	addi	a5,gp,-2040 # 20000588 <uxCriticalNesting>
    467c:	4398                	lw	a4,0(a5)
    467e:	0705                	addi	a4,a4,1
    4680:	c398                	sw	a4,0(a5)
    4682:	8082                	ret

00004684 <vPortExitCritical>:
    4684:	80818713          	addi	a4,gp,-2040 # 20000588 <uxCriticalNesting>
    4688:	431c                	lw	a5,0(a4)
    468a:	e78d                	bnez	a5,46b4 <vPortExitCritical+0x30>
    468c:	e93fb2ef          	jal	t0,51e <__riscv_save_0>
    4690:	6789                	lui	a5,0x2
    4692:	80078793          	addi	a5,a5,-2048 # 1800 <SystemCoreClockUpdate+0x1e>
    4696:	30079073          	csrw	mstatus,a5
    469a:	00008637          	lui	a2,0x8
    469e:	00008537          	lui	a0,0x8
    46a2:	2e460613          	addi	a2,a2,740 # 82e4 <timers+0x60>
    46a6:	10300593          	li	a1,259
    46aa:	2c050513          	addi	a0,a0,704 # 82c0 <timers+0x3c>
    46ae:	11d020ef          	jal	ra,6fca <iprintf>
    46b2:	a001                	j	46b2 <vPortExitCritical+0x2e>
    46b4:	17fd                	addi	a5,a5,-1
    46b6:	c31c                	sw	a5,0(a4)
    46b8:	e791                	bnez	a5,46c4 <vPortExitCritical+0x40>
    46ba:	6789                	lui	a5,0x2
    46bc:	88878793          	addi	a5,a5,-1912 # 1888 <StartDefaultTask+0x14>
    46c0:	30079073          	csrw	mstatus,a5
    46c4:	8082                	ret

000046c6 <xPortSetInterruptMask>:
    46c6:	6509                	lui	a0,0x2
    46c8:	80050513          	addi	a0,a0,-2048 # 1800 <SystemCoreClockUpdate+0x1e>
    46cc:	30051573          	csrrw	a0,mstatus,a0
    46d0:	8082                	ret

000046d2 <vPortClearInterruptMask>:
    46d2:	30051073          	csrw	mstatus,a0
    46d6:	8082                	ret

000046d8 <vListInitialise>:
    46d8:	00850793          	addi	a5,a0,8
    46dc:	577d                	li	a4,-1
    46de:	c15c                	sw	a5,4(a0)
    46e0:	c518                	sw	a4,8(a0)
    46e2:	c55c                	sw	a5,12(a0)
    46e4:	c91c                	sw	a5,16(a0)
    46e6:	00052023          	sw	zero,0(a0)
    46ea:	8082                	ret

000046ec <vListInitialiseItem>:
    46ec:	00052823          	sw	zero,16(a0)
    46f0:	8082                	ret

000046f2 <vListInsert>:
    46f2:	4198                	lw	a4,0(a1)
    46f4:	56fd                	li	a3,-1
    46f6:	00850793          	addi	a5,a0,8
    46fa:	00d71e63          	bne	a4,a3,4716 <vListInsert+0x24>
    46fe:	491c                	lw	a5,16(a0)
    4700:	43d8                	lw	a4,4(a5)
    4702:	c1d8                	sw	a4,4(a1)
    4704:	c70c                	sw	a1,8(a4)
    4706:	c59c                	sw	a5,8(a1)
    4708:	c3cc                	sw	a1,4(a5)
    470a:	411c                	lw	a5,0(a0)
    470c:	c988                	sw	a0,16(a1)
    470e:	0785                	addi	a5,a5,1
    4710:	c11c                	sw	a5,0(a0)
    4712:	8082                	ret
    4714:	87b6                	mv	a5,a3
    4716:	43d4                	lw	a3,4(a5)
    4718:	4290                	lw	a2,0(a3)
    471a:	fec77de3          	bgeu	a4,a2,4714 <vListInsert+0x22>
    471e:	b7cd                	j	4700 <vListInsert+0xe>

00004720 <uxListRemove>:
    4720:	4154                	lw	a3,4(a0)
    4722:	4518                	lw	a4,8(a0)
    4724:	491c                	lw	a5,16(a0)
    4726:	c698                	sw	a4,8(a3)
    4728:	c354                	sw	a3,4(a4)
    472a:	43d4                	lw	a3,4(a5)
    472c:	00a69363          	bne	a3,a0,4732 <uxListRemove+0x12>
    4730:	c3d8                	sw	a4,4(a5)
    4732:	4398                	lw	a4,0(a5)
    4734:	00052823          	sw	zero,16(a0)
    4738:	177d                	addi	a4,a4,-1
    473a:	c398                	sw	a4,0(a5)
    473c:	4388                	lw	a0,0(a5)
    473e:	8082                	ret

00004740 <prvIsQueueEmpty>:
    4740:	ddffb2ef          	jal	t0,51e <__riscv_save_0>
    4744:	1141                	addi	sp,sp,-16
    4746:	c62a                	sw	a0,12(sp)
    4748:	f27ff0ef          	jal	ra,466e <vPortEnterCritical>
    474c:	4532                	lw	a0,12(sp)
    474e:	5d00                	lw	s0,56(a0)
    4750:	f35ff0ef          	jal	ra,4684 <vPortExitCritical>
    4754:	00143513          	seqz	a0,s0
    4758:	0141                	addi	sp,sp,16
    475a:	de9fb06f          	j	542 <__riscv_restore_0>

0000475e <prvCopyDataFromQueue>:
    475e:	4130                	lw	a2,64(a0)
    4760:	c215                	beqz	a2,4784 <prvCopyDataFromQueue+0x26>
    4762:	dbdfb2ef          	jal	t0,51e <__riscv_save_0>
    4766:	4558                	lw	a4,12(a0)
    4768:	4514                	lw	a3,8(a0)
    476a:	87aa                	mv	a5,a0
    476c:	9732                	add	a4,a4,a2
    476e:	c558                	sw	a4,12(a0)
    4770:	00d76463          	bltu	a4,a3,4778 <prvCopyDataFromQueue+0x1a>
    4774:	4118                	lw	a4,0(a0)
    4776:	c558                	sw	a4,12(a0)
    4778:	852e                	mv	a0,a1
    477a:	47cc                	lw	a1,12(a5)
    477c:	608020ef          	jal	ra,6d84 <memcpy>
    4780:	dc3fb06f          	j	542 <__riscv_restore_0>
    4784:	8082                	ret

00004786 <prvUnlockQueue>:
    4786:	d99fb2ef          	jal	t0,51e <__riscv_save_0>
    478a:	842a                	mv	s0,a0
    478c:	ee3ff0ef          	jal	ra,466e <vPortEnterCritical>
    4790:	04544483          	lbu	s1,69(s0)
    4794:	02440913          	addi	s2,s0,36
    4798:	04e2                	slli	s1,s1,0x18
    479a:	84e1                	srai	s1,s1,0x18
    479c:	02904863          	bgtz	s1,47cc <prvUnlockQueue+0x46>
    47a0:	57fd                	li	a5,-1
    47a2:	04f402a3          	sb	a5,69(s0)
    47a6:	edfff0ef          	jal	ra,4684 <vPortExitCritical>
    47aa:	ec5ff0ef          	jal	ra,466e <vPortEnterCritical>
    47ae:	04444483          	lbu	s1,68(s0)
    47b2:	01040913          	addi	s2,s0,16
    47b6:	04e2                	slli	s1,s1,0x18
    47b8:	84e1                	srai	s1,s1,0x18
    47ba:	02904563          	bgtz	s1,47e4 <prvUnlockQueue+0x5e>
    47be:	57fd                	li	a5,-1
    47c0:	04f40223          	sb	a5,68(s0)
    47c4:	ec1ff0ef          	jal	ra,4684 <vPortExitCritical>
    47c8:	d7bfb06f          	j	542 <__riscv_restore_0>
    47cc:	505c                	lw	a5,36(s0)
    47ce:	dbe9                	beqz	a5,47a0 <prvUnlockQueue+0x1a>
    47d0:	854a                	mv	a0,s2
    47d2:	4a3000ef          	jal	ra,5474 <xTaskRemoveFromEventList>
    47d6:	c119                	beqz	a0,47dc <prvUnlockQueue+0x56>
    47d8:	651000ef          	jal	ra,5628 <vTaskMissedYield>
    47dc:	14fd                	addi	s1,s1,-1
    47de:	04e2                	slli	s1,s1,0x18
    47e0:	84e1                	srai	s1,s1,0x18
    47e2:	bf6d                	j	479c <prvUnlockQueue+0x16>
    47e4:	481c                	lw	a5,16(s0)
    47e6:	dfe1                	beqz	a5,47be <prvUnlockQueue+0x38>
    47e8:	854a                	mv	a0,s2
    47ea:	48b000ef          	jal	ra,5474 <xTaskRemoveFromEventList>
    47ee:	c119                	beqz	a0,47f4 <prvUnlockQueue+0x6e>
    47f0:	639000ef          	jal	ra,5628 <vTaskMissedYield>
    47f4:	14fd                	addi	s1,s1,-1
    47f6:	04e2                	slli	s1,s1,0x18
    47f8:	84e1                	srai	s1,s1,0x18
    47fa:	b7c1                	j	47ba <prvUnlockQueue+0x34>

000047fc <xQueueGenericReset>:
    47fc:	d23fb2ef          	jal	t0,51e <__riscv_save_0>
    4800:	1141                	addi	sp,sp,-16
    4802:	e11d                	bnez	a0,4828 <xQueueGenericReset+0x2c>
    4804:	6789                	lui	a5,0x2
    4806:	80078793          	addi	a5,a5,-2048 # 1800 <SystemCoreClockUpdate+0x1e>
    480a:	30079073          	csrw	mstatus,a5
    480e:	00008637          	lui	a2,0x8
    4812:	00008537          	lui	a0,0x8
    4816:	30c60613          	addi	a2,a2,780 # 830c <timers+0x88>
    481a:	11000593          	li	a1,272
    481e:	2c050513          	addi	a0,a0,704 # 82c0 <timers+0x3c>
    4822:	7a8020ef          	jal	ra,6fca <iprintf>
    4826:	a001                	j	4826 <xQueueGenericReset+0x2a>
    4828:	5d5c                	lw	a5,60(a0)
    482a:	c62e                	sw	a1,12(sp)
    482c:	842a                	mv	s0,a0
    482e:	c7bd                	beqz	a5,489c <xQueueGenericReset+0xa0>
    4830:	4138                	lw	a4,64(a0)
    4832:	02e7b7b3          	mulhu	a5,a5,a4
    4836:	e3bd                	bnez	a5,489c <xQueueGenericReset+0xa0>
    4838:	e37ff0ef          	jal	ra,466e <vPortEnterCritical>
    483c:	4030                	lw	a2,64(s0)
    483e:	5c58                	lw	a4,60(s0)
    4840:	4014                	lw	a3,0(s0)
    4842:	02042c23          	sw	zero,56(s0)
    4846:	02e607b3          	mul	a5,a2,a4
    484a:	45b2                	lw	a1,12(sp)
    484c:	c054                	sw	a3,4(s0)
    484e:	00f68733          	add	a4,a3,a5
    4852:	8f91                	sub	a5,a5,a2
    4854:	97b6                	add	a5,a5,a3
    4856:	c45c                	sw	a5,12(s0)
    4858:	57fd                	li	a5,-1
    485a:	04f40223          	sb	a5,68(s0)
    485e:	c418                	sw	a4,8(s0)
    4860:	04f402a3          	sb	a5,69(s0)
    4864:	e19d                	bnez	a1,488a <xQueueGenericReset+0x8e>
    4866:	481c                	lw	a5,16(s0)
    4868:	cb99                	beqz	a5,487e <xQueueGenericReset+0x82>
    486a:	01040513          	addi	a0,s0,16
    486e:	407000ef          	jal	ra,5474 <xTaskRemoveFromEventList>
    4872:	c511                	beqz	a0,487e <xQueueGenericReset+0x82>
    4874:	e000e7b7          	lui	a5,0xe000e
    4878:	6711                	lui	a4,0x4
    487a:	20e7a023          	sw	a4,512(a5) # e000e200 <__freertos_irq_stack_top+0xc0009200>
    487e:	e07ff0ef          	jal	ra,4684 <vPortExitCritical>
    4882:	4505                	li	a0,1
    4884:	0141                	addi	sp,sp,16
    4886:	cbdfb06f          	j	542 <__riscv_restore_0>
    488a:	01040513          	addi	a0,s0,16
    488e:	e4bff0ef          	jal	ra,46d8 <vListInitialise>
    4892:	02440513          	addi	a0,s0,36
    4896:	e43ff0ef          	jal	ra,46d8 <vListInitialise>
    489a:	b7d5                	j	487e <xQueueGenericReset+0x82>
    489c:	6789                	lui	a5,0x2
    489e:	80078793          	addi	a5,a5,-2048 # 1800 <SystemCoreClockUpdate+0x1e>
    48a2:	30079073          	csrw	mstatus,a5
    48a6:	00008637          	lui	a2,0x8
    48aa:	00008537          	lui	a0,0x8
    48ae:	30c60613          	addi	a2,a2,780 # 830c <timers+0x88>
    48b2:	14500593          	li	a1,325
    48b6:	2c050513          	addi	a0,a0,704 # 82c0 <timers+0x3c>
    48ba:	710020ef          	jal	ra,6fca <iprintf>
    48be:	a001                	j	48be <xQueueGenericReset+0xc2>

000048c0 <xQueueGenericCreateStatic>:
    48c0:	c5ffb2ef          	jal	t0,51e <__riscv_save_0>
    48c4:	1101                	addi	sp,sp,-32
    48c6:	e29d                	bnez	a3,48ec <xQueueGenericCreateStatic+0x2c>
    48c8:	6789                	lui	a5,0x2
    48ca:	80078793          	addi	a5,a5,-2048 # 1800 <SystemCoreClockUpdate+0x1e>
    48ce:	30079073          	csrw	mstatus,a5
    48d2:	00008637          	lui	a2,0x8
    48d6:	00008537          	lui	a0,0x8
    48da:	30c60613          	addi	a2,a2,780 # 830c <timers+0x88>
    48de:	15900593          	li	a1,345
    48e2:	2c050513          	addi	a0,a0,704 # 82c0 <timers+0x3c>
    48e6:	6e4020ef          	jal	ra,6fca <iprintf>
    48ea:	a001                	j	48ea <xQueueGenericCreateStatic+0x2a>
    48ec:	c119                	beqz	a0,48f2 <xQueueGenericCreateStatic+0x32>
    48ee:	c605                	beqz	a2,4916 <xQueueGenericCreateStatic+0x56>
    48f0:	e585                	bnez	a1,4918 <xQueueGenericCreateStatic+0x58>
    48f2:	6789                	lui	a5,0x2
    48f4:	80078793          	addi	a5,a5,-2048 # 1800 <SystemCoreClockUpdate+0x1e>
    48f8:	30079073          	csrw	mstatus,a5
    48fc:	00008637          	lui	a2,0x8
    4900:	00008537          	lui	a0,0x8
    4904:	30c60613          	addi	a2,a2,780 # 830c <timers+0x88>
    4908:	18200593          	li	a1,386
    490c:	2c050513          	addi	a0,a0,704 # 82c0 <timers+0x3c>
    4910:	6ba020ef          	jal	ra,6fca <iprintf>
    4914:	a001                	j	4914 <xQueueGenericCreateStatic+0x54>
    4916:	fdf1                	bnez	a1,48f2 <xQueueGenericCreateStatic+0x32>
    4918:	04800793          	li	a5,72
    491c:	ce3e                	sw	a5,28(sp)
    491e:	4772                	lw	a4,28(sp)
    4920:	02f70463          	beq	a4,a5,4948 <xQueueGenericCreateStatic+0x88>
    4924:	6789                	lui	a5,0x2
    4926:	80078793          	addi	a5,a5,-2048 # 1800 <SystemCoreClockUpdate+0x1e>
    492a:	30079073          	csrw	mstatus,a5
    492e:	00008637          	lui	a2,0x8
    4932:	00008537          	lui	a0,0x8
    4936:	30c60613          	addi	a2,a2,780 # 830c <timers+0x88>
    493a:	16b00593          	li	a1,363
    493e:	2c050513          	addi	a0,a0,704 # 82c0 <timers+0x3c>
    4942:	688020ef          	jal	ra,6fca <iprintf>
    4946:	a001                	j	4946 <xQueueGenericCreateStatic+0x86>
    4948:	47f2                	lw	a5,28(sp)
    494a:	4785                	li	a5,1
    494c:	04f68323          	sb	a5,70(a3)
    4950:	e191                	bnez	a1,4954 <xQueueGenericCreateStatic+0x94>
    4952:	8636                	mv	a2,a3
    4954:	c290                	sw	a2,0(a3)
    4956:	dec8                	sw	a0,60(a3)
    4958:	c2ac                	sw	a1,64(a3)
    495a:	8536                	mv	a0,a3
    495c:	4585                	li	a1,1
    495e:	c636                	sw	a3,12(sp)
    4960:	e9dff0ef          	jal	ra,47fc <xQueueGenericReset>
    4964:	46b2                	lw	a3,12(sp)
    4966:	6105                	addi	sp,sp,32
    4968:	8536                	mv	a0,a3
    496a:	bd9fb06f          	j	542 <__riscv_restore_0>

0000496e <xQueueReceive>:
    496e:	b89fb2ef          	jal	t0,4f6 <__riscv_save_10>
    4972:	1101                	addi	sp,sp,-32
    4974:	c632                	sw	a2,12(sp)
    4976:	e11d                	bnez	a0,499c <xQueueReceive+0x2e>
    4978:	6789                	lui	a5,0x2
    497a:	80078793          	addi	a5,a5,-2048 # 1800 <SystemCoreClockUpdate+0x1e>
    497e:	30079073          	csrw	mstatus,a5
    4982:	00008637          	lui	a2,0x8
    4986:	00008537          	lui	a0,0x8
    498a:	30c60613          	addi	a2,a2,780 # 830c <timers+0x88>
    498e:	55100593          	li	a1,1361
    4992:	2c050513          	addi	a0,a0,704 # 82c0 <timers+0x3c>
    4996:	634020ef          	jal	ra,6fca <iprintf>
    499a:	a001                	j	499a <xQueueReceive+0x2c>
    499c:	842a                	mv	s0,a0
    499e:	89ae                	mv	s3,a1
    49a0:	e58d                	bnez	a1,49ca <xQueueReceive+0x5c>
    49a2:	413c                	lw	a5,64(a0)
    49a4:	c39d                	beqz	a5,49ca <xQueueReceive+0x5c>
    49a6:	6789                	lui	a5,0x2
    49a8:	80078793          	addi	a5,a5,-2048 # 1800 <SystemCoreClockUpdate+0x1e>
    49ac:	30079073          	csrw	mstatus,a5
    49b0:	00008637          	lui	a2,0x8
    49b4:	00008537          	lui	a0,0x8
    49b8:	30c60613          	addi	a2,a2,780 # 830c <timers+0x88>
    49bc:	55500593          	li	a1,1365
    49c0:	2c050513          	addi	a0,a0,704 # 82c0 <timers+0x3c>
    49c4:	606020ef          	jal	ra,6fca <iprintf>
    49c8:	a001                	j	49c8 <xQueueReceive+0x5a>
    49ca:	475000ef          	jal	ra,563e <xTaskGetSchedulerState>
    49ce:	e515                	bnez	a0,49fa <xQueueReceive+0x8c>
    49d0:	47b2                	lw	a5,12(sp)
    49d2:	4901                	li	s2,0
    49d4:	c785                	beqz	a5,49fc <xQueueReceive+0x8e>
    49d6:	6789                	lui	a5,0x2
    49d8:	80078793          	addi	a5,a5,-2048 # 1800 <SystemCoreClockUpdate+0x1e>
    49dc:	30079073          	csrw	mstatus,a5
    49e0:	00008637          	lui	a2,0x8
    49e4:	00008537          	lui	a0,0x8
    49e8:	30c60613          	addi	a2,a2,780 # 830c <timers+0x88>
    49ec:	55a00593          	li	a1,1370
    49f0:	2c050513          	addi	a0,a0,704 # 82c0 <timers+0x3c>
    49f4:	5d6020ef          	jal	ra,6fca <iprintf>
    49f8:	a001                	j	49f8 <xQueueReceive+0x8a>
    49fa:	4901                	li	s2,0
    49fc:	5a7d                	li	s4,-1
    49fe:	02440a93          	addi	s5,s0,36
    4a02:	e000eb37          	lui	s6,0xe000e
    4a06:	6b91                	lui	s7,0x4
    4a08:	a88d                	j	4a7a <xQueueReceive+0x10c>
    4a0a:	47b2                	lw	a5,12(sp)
    4a0c:	e789                	bnez	a5,4a16 <xQueueReceive+0xa8>
    4a0e:	c77ff0ef          	jal	ra,4684 <vPortExitCritical>
    4a12:	4501                	li	a0,0
    4a14:	a861                	j	4aac <xQueueReceive+0x13e>
    4a16:	00091563          	bnez	s2,4a20 <xQueueReceive+0xb2>
    4a1a:	0828                	addi	a0,sp,24
    4a1c:	345000ef          	jal	ra,5560 <vTaskInternalSetTimeOutState>
    4a20:	c65ff0ef          	jal	ra,4684 <vPortExitCritical>
    4a24:	2395                	jal	4f88 <vTaskSuspendAll>
    4a26:	c49ff0ef          	jal	ra,466e <vPortEnterCritical>
    4a2a:	04444783          	lbu	a5,68(s0)
    4a2e:	07e2                	slli	a5,a5,0x18
    4a30:	87e1                	srai	a5,a5,0x18
    4a32:	01479463          	bne	a5,s4,4a3a <xQueueReceive+0xcc>
    4a36:	04040223          	sb	zero,68(s0)
    4a3a:	04544783          	lbu	a5,69(s0)
    4a3e:	07e2                	slli	a5,a5,0x18
    4a40:	87e1                	srai	a5,a5,0x18
    4a42:	01479463          	bne	a5,s4,4a4a <xQueueReceive+0xdc>
    4a46:	040402a3          	sb	zero,69(s0)
    4a4a:	c3bff0ef          	jal	ra,4684 <vPortExitCritical>
    4a4e:	006c                	addi	a1,sp,12
    4a50:	0828                	addi	a0,sp,24
    4a52:	325000ef          	jal	ra,5576 <xTaskCheckForTimeOut>
    4a56:	e13d                	bnez	a0,4abc <xQueueReceive+0x14e>
    4a58:	8522                	mv	a0,s0
    4a5a:	ce7ff0ef          	jal	ra,4740 <prvIsQueueEmpty>
    4a5e:	c931                	beqz	a0,4ab2 <xQueueReceive+0x144>
    4a60:	45b2                	lw	a1,12(sp)
    4a62:	8556                	mv	a0,s5
    4a64:	153000ef          	jal	ra,53b6 <vTaskPlaceOnEventList>
    4a68:	8522                	mv	a0,s0
    4a6a:	d1dff0ef          	jal	ra,4786 <prvUnlockQueue>
    4a6e:	6e0000ef          	jal	ra,514e <xTaskResumeAll>
    4a72:	e119                	bnez	a0,4a78 <xQueueReceive+0x10a>
    4a74:	217b2023          	sw	s7,512(s6) # e000e200 <__freertos_irq_stack_top+0xc0009200>
    4a78:	4905                	li	s2,1
    4a7a:	bf5ff0ef          	jal	ra,466e <vPortEnterCritical>
    4a7e:	5c04                	lw	s1,56(s0)
    4a80:	d4c9                	beqz	s1,4a0a <xQueueReceive+0x9c>
    4a82:	85ce                	mv	a1,s3
    4a84:	8522                	mv	a0,s0
    4a86:	14fd                	addi	s1,s1,-1
    4a88:	cd7ff0ef          	jal	ra,475e <prvCopyDataFromQueue>
    4a8c:	dc04                	sw	s1,56(s0)
    4a8e:	481c                	lw	a5,16(s0)
    4a90:	cb99                	beqz	a5,4aa6 <xQueueReceive+0x138>
    4a92:	01040513          	addi	a0,s0,16
    4a96:	1df000ef          	jal	ra,5474 <xTaskRemoveFromEventList>
    4a9a:	c511                	beqz	a0,4aa6 <xQueueReceive+0x138>
    4a9c:	e000e7b7          	lui	a5,0xe000e
    4aa0:	6711                	lui	a4,0x4
    4aa2:	20e7a023          	sw	a4,512(a5) # e000e200 <__freertos_irq_stack_top+0xc0009200>
    4aa6:	bdfff0ef          	jal	ra,4684 <vPortExitCritical>
    4aaa:	4505                	li	a0,1
    4aac:	6105                	addi	sp,sp,32
    4aae:	a81fb06f          	j	52e <__riscv_restore_10>
    4ab2:	8522                	mv	a0,s0
    4ab4:	cd3ff0ef          	jal	ra,4786 <prvUnlockQueue>
    4ab8:	2d59                	jal	514e <xTaskResumeAll>
    4aba:	bf7d                	j	4a78 <xQueueReceive+0x10a>
    4abc:	8522                	mv	a0,s0
    4abe:	cc9ff0ef          	jal	ra,4786 <prvUnlockQueue>
    4ac2:	2571                	jal	514e <xTaskResumeAll>
    4ac4:	8522                	mv	a0,s0
    4ac6:	c7bff0ef          	jal	ra,4740 <prvIsQueueEmpty>
    4aca:	d55d                	beqz	a0,4a78 <xQueueReceive+0x10a>
    4acc:	b799                	j	4a12 <xQueueReceive+0xa4>

00004ace <vQueueAddToRegistry>:
    4ace:	e515                	bnez	a0,4afa <vQueueAddToRegistry+0x2c>
    4ad0:	a4ffb2ef          	jal	t0,51e <__riscv_save_0>
    4ad4:	6789                	lui	a5,0x2
    4ad6:	80078793          	addi	a5,a5,-2048 # 1800 <SystemCoreClockUpdate+0x1e>
    4ada:	30079073          	csrw	mstatus,a5
    4ade:	00008637          	lui	a2,0x8
    4ae2:	6585                	lui	a1,0x1
    4ae4:	00008537          	lui	a0,0x8
    4ae8:	30c60613          	addi	a2,a2,780 # 830c <timers+0x88>
    4aec:	ac858593          	addi	a1,a1,-1336 # ac8 <vSaveData+0xc>
    4af0:	2c050513          	addi	a0,a0,704 # 82c0 <timers+0x3c>
    4af4:	4d6020ef          	jal	ra,6fca <iprintf>
    4af8:	a001                	j	4af8 <vQueueAddToRegistry+0x2a>
    4afa:	cd9d                	beqz	a1,4b38 <vQueueAddToRegistry+0x6a>
    4afc:	20001637          	lui	a2,0x20001
    4b00:	7b460693          	addi	a3,a2,1972 # 200017b4 <xQueueRegistry>
    4b04:	4781                	li	a5,0
    4b06:	4701                	li	a4,0
    4b08:	7b460613          	addi	a2,a2,1972
    4b0c:	4821                	li	a6,8
    4b0e:	0046a883          	lw	a7,4(a3)
    4b12:	00a89863          	bne	a7,a0,4b22 <vQueueAddToRegistry+0x54>
    4b16:	00371793          	slli	a5,a4,0x3
    4b1a:	97b2                	add	a5,a5,a2
    4b1c:	c38c                	sw	a1,0(a5)
    4b1e:	c3c8                	sw	a0,4(a5)
    4b20:	a821                	j	4b38 <vQueueAddToRegistry+0x6a>
    4b22:	e791                	bnez	a5,4b2e <vQueueAddToRegistry+0x60>
    4b24:	0006a883          	lw	a7,0(a3)
    4b28:	00089363          	bnez	a7,4b2e <vQueueAddToRegistry+0x60>
    4b2c:	87b6                	mv	a5,a3
    4b2e:	0705                	addi	a4,a4,1
    4b30:	06a1                	addi	a3,a3,8
    4b32:	fd071ee3          	bne	a4,a6,4b0e <vQueueAddToRegistry+0x40>
    4b36:	f3fd                	bnez	a5,4b1c <vQueueAddToRegistry+0x4e>
    4b38:	8082                	ret

00004b3a <vQueueWaitForMessageRestricted>:
    4b3a:	9e5fb2ef          	jal	t0,51e <__riscv_save_0>
    4b3e:	1141                	addi	sp,sp,-16
    4b40:	842a                	mv	s0,a0
    4b42:	c62e                	sw	a1,12(sp)
    4b44:	c432                	sw	a2,8(sp)
    4b46:	b29ff0ef          	jal	ra,466e <vPortEnterCritical>
    4b4a:	04444783          	lbu	a5,68(s0)
    4b4e:	577d                	li	a4,-1
    4b50:	4622                	lw	a2,8(sp)
    4b52:	07e2                	slli	a5,a5,0x18
    4b54:	87e1                	srai	a5,a5,0x18
    4b56:	45b2                	lw	a1,12(sp)
    4b58:	00e79463          	bne	a5,a4,4b60 <vQueueWaitForMessageRestricted+0x26>
    4b5c:	04040223          	sb	zero,68(s0)
    4b60:	04544783          	lbu	a5,69(s0)
    4b64:	577d                	li	a4,-1
    4b66:	07e2                	slli	a5,a5,0x18
    4b68:	87e1                	srai	a5,a5,0x18
    4b6a:	00e79463          	bne	a5,a4,4b72 <vQueueWaitForMessageRestricted+0x38>
    4b6e:	040402a3          	sb	zero,69(s0)
    4b72:	c632                	sw	a2,12(sp)
    4b74:	c42e                	sw	a1,8(sp)
    4b76:	b0fff0ef          	jal	ra,4684 <vPortExitCritical>
    4b7a:	5c1c                	lw	a5,56(s0)
    4b7c:	45a2                	lw	a1,8(sp)
    4b7e:	4632                	lw	a2,12(sp)
    4b80:	e789                	bnez	a5,4b8a <vQueueWaitForMessageRestricted+0x50>
    4b82:	02440513          	addi	a0,s0,36
    4b86:	079000ef          	jal	ra,53fe <vTaskPlaceOnEventListRestricted>
    4b8a:	8522                	mv	a0,s0
    4b8c:	bfbff0ef          	jal	ra,4786 <prvUnlockQueue>
    4b90:	0141                	addi	sp,sp,16
    4b92:	9b1fb06f          	j	542 <__riscv_restore_0>

00004b96 <prvIdleTask>:
    4b96:	a001                	j	4b96 <prvIdleTask>

00004b98 <prvAddNewTaskToReadyList>:
    4b98:	96dfb2ef          	jal	t0,504 <__riscv_save_4>
    4b9c:	842a                	mv	s0,a0
    4b9e:	ad1ff0ef          	jal	ra,466e <vPortEnterCritical>
    4ba2:	200007b7          	lui	a5,0x20000
    4ba6:	61c78793          	addi	a5,a5,1564 # 2000061c <uxCurrentNumberOfTasks>
    4baa:	4398                	lw	a4,0(a5)
    4bac:	200004b7          	lui	s1,0x20000
    4bb0:	200019b7          	lui	s3,0x20001
    4bb4:	0705                	addi	a4,a4,1
    4bb6:	c398                	sw	a4,0(a5)
    4bb8:	61048713          	addi	a4,s1,1552 # 20000610 <pxCurrentTCB>
    4bbc:	4318                	lw	a4,0(a4)
    4bbe:	61048493          	addi	s1,s1,1552
    4bc2:	7f498913          	addi	s2,s3,2036 # 200017f4 <pxReadyTasksLists>
    4bc6:	eb61                	bnez	a4,4c96 <prvAddNewTaskToReadyList+0xfe>
    4bc8:	c080                	sw	s0,0(s1)
    4bca:	4398                	lw	a4,0(a5)
    4bcc:	4785                	li	a5,1
    4bce:	06f71063          	bne	a4,a5,4c2e <prvAddNewTaskToReadyList+0x96>
    4bd2:	7f498993          	addi	s3,s3,2036
    4bd6:	12c90a13          	addi	s4,s2,300
    4bda:	854e                	mv	a0,s3
    4bdc:	09d1                	addi	s3,s3,20
    4bde:	afbff0ef          	jal	ra,46d8 <vListInitialise>
    4be2:	ff3a1ce3          	bne	s4,s3,4bda <prvAddNewTaskToReadyList+0x42>
    4be6:	20002537          	lui	a0,0x20002
    4bea:	92050a13          	addi	s4,a0,-1760 # 20001920 <xDelayedTaskList1>
    4bee:	92050513          	addi	a0,a0,-1760
    4bf2:	ae7ff0ef          	jal	ra,46d8 <vListInitialise>
    4bf6:	20002537          	lui	a0,0x20002
    4bfa:	93450993          	addi	s3,a0,-1740 # 20001934 <xDelayedTaskList2>
    4bfe:	93450513          	addi	a0,a0,-1740
    4c02:	ad7ff0ef          	jal	ra,46d8 <vListInitialise>
    4c06:	20002537          	lui	a0,0x20002
    4c0a:	94850513          	addi	a0,a0,-1720 # 20001948 <xPendingReadyList>
    4c0e:	acbff0ef          	jal	ra,46d8 <vListInitialise>
    4c12:	20002537          	lui	a0,0x20002
    4c16:	95c50513          	addi	a0,a0,-1700 # 2000195c <xSuspendedTaskList>
    4c1a:	abfff0ef          	jal	ra,46d8 <vListInitialise>
    4c1e:	200007b7          	lui	a5,0x20000
    4c22:	6147aa23          	sw	s4,1556(a5) # 20000614 <pxDelayedTaskList>
    4c26:	200007b7          	lui	a5,0x20000
    4c2a:	6137ac23          	sw	s3,1560(a5) # 20000618 <pxOverflowDelayedTaskList>
    4c2e:	200007b7          	lui	a5,0x20000
    4c32:	62478793          	addi	a5,a5,1572 # 20000624 <uxTaskNumber>
    4c36:	4398                	lw	a4,0(a5)
    4c38:	0705                	addi	a4,a4,1
    4c3a:	c398                	sw	a4,0(a5)
    4c3c:	20000737          	lui	a4,0x20000
    4c40:	62870713          	addi	a4,a4,1576 # 20000628 <uxTopReadyPriority>
    4c44:	545c                	lw	a5,44(s0)
    4c46:	4314                	lw	a3,0(a4)
    4c48:	00f6f363          	bgeu	a3,a5,4c4e <prvAddNewTaskToReadyList+0xb6>
    4c4c:	c31c                	sw	a5,0(a4)
    4c4e:	4751                	li	a4,20
    4c50:	02e787b3          	mul	a5,a5,a4
    4c54:	97ca                	add	a5,a5,s2
    4c56:	43d8                	lw	a4,4(a5)
    4c58:	4714                	lw	a3,8(a4)
    4c5a:	c418                	sw	a4,8(s0)
    4c5c:	c454                	sw	a3,12(s0)
    4c5e:	4710                	lw	a2,8(a4)
    4c60:	00440693          	addi	a3,s0,4
    4c64:	c254                	sw	a3,4(a2)
    4c66:	c714                	sw	a3,8(a4)
    4c68:	4398                	lw	a4,0(a5)
    4c6a:	c85c                	sw	a5,20(s0)
    4c6c:	0705                	addi	a4,a4,1
    4c6e:	c398                	sw	a4,0(a5)
    4c70:	a15ff0ef          	jal	ra,4684 <vPortExitCritical>
    4c74:	200007b7          	lui	a5,0x20000
    4c78:	6387a783          	lw	a5,1592(a5) # 20000638 <xSchedulerRunning>
    4c7c:	cb99                	beqz	a5,4c92 <prvAddNewTaskToReadyList+0xfa>
    4c7e:	409c                	lw	a5,0(s1)
    4c80:	57d8                	lw	a4,44(a5)
    4c82:	545c                	lw	a5,44(s0)
    4c84:	00f77763          	bgeu	a4,a5,4c92 <prvAddNewTaskToReadyList+0xfa>
    4c88:	e000e7b7          	lui	a5,0xe000e
    4c8c:	6711                	lui	a4,0x4
    4c8e:	20e7a023          	sw	a4,512(a5) # e000e200 <__freertos_irq_stack_top+0xc0009200>
    4c92:	8a7fb06f          	j	538 <__riscv_restore_4>
    4c96:	200007b7          	lui	a5,0x20000
    4c9a:	6387a783          	lw	a5,1592(a5) # 20000638 <xSchedulerRunning>
    4c9e:	fbc1                	bnez	a5,4c2e <prvAddNewTaskToReadyList+0x96>
    4ca0:	409c                	lw	a5,0(s1)
    4ca2:	57d8                	lw	a4,44(a5)
    4ca4:	545c                	lw	a5,44(s0)
    4ca6:	f8e7e4e3          	bltu	a5,a4,4c2e <prvAddNewTaskToReadyList+0x96>
    4caa:	c080                	sw	s0,0(s1)
    4cac:	b749                	j	4c2e <prvAddNewTaskToReadyList+0x96>

00004cae <prvResetNextTaskUnblockTime>:
    4cae:	20000737          	lui	a4,0x20000
    4cb2:	61470713          	addi	a4,a4,1556 # 20000614 <pxDelayedTaskList>
    4cb6:	431c                	lw	a5,0(a4)
    4cb8:	4394                	lw	a3,0(a5)
    4cba:	200007b7          	lui	a5,0x20000
    4cbe:	62c78793          	addi	a5,a5,1580 # 2000062c <xNextTaskUnblockTime>
    4cc2:	e681                	bnez	a3,4cca <prvResetNextTaskUnblockTime+0x1c>
    4cc4:	577d                	li	a4,-1
    4cc6:	c398                	sw	a4,0(a5)
    4cc8:	8082                	ret
    4cca:	4318                	lw	a4,0(a4)
    4ccc:	4758                	lw	a4,12(a4)
    4cce:	4318                	lw	a4,0(a4)
    4cd0:	bfdd                	j	4cc6 <prvResetNextTaskUnblockTime+0x18>

00004cd2 <prvInitialiseNewTask.isra.2>:
    4cd2:	833fb2ef          	jal	t0,504 <__riscv_save_4>
    4cd6:	1141                	addi	sp,sp,-16
    4cd8:	89aa                	mv	s3,a0
    4cda:	84b2                	mv	s1,a2
    4cdc:	8442                	mv	s0,a6
    4cde:	03082903          	lw	s2,48(a6)
    4ce2:	c5b1                	beqz	a1,4d2e <prvInitialiseNewTask.isra.2+0x5c>
    4ce4:	4601                	li	a2,0
    4ce6:	4841                	li	a6,16
    4ce8:	00c58533          	add	a0,a1,a2
    4cec:	00050503          	lb	a0,0(a0)
    4cf0:	00c408b3          	add	a7,s0,a2
    4cf4:	02a88a23          	sb	a0,52(a7)
    4cf8:	c501                	beqz	a0,4d00 <prvInitialiseNewTask.isra.2+0x2e>
    4cfa:	0605                	addi	a2,a2,1
    4cfc:	ff0616e3          	bne	a2,a6,4ce8 <prvInitialiseNewTask.isra.2+0x16>
    4d00:	040401a3          	sb	zero,67(s0)
    4d04:	4639                	li	a2,14
    4d06:	02e67763          	bgeu	a2,a4,4d34 <prvInitialiseNewTask.isra.2+0x62>
    4d0a:	6789                	lui	a5,0x2
    4d0c:	80078793          	addi	a5,a5,-2048 # 1800 <SystemCoreClockUpdate+0x1e>
    4d10:	30079073          	csrw	mstatus,a5
    4d14:	00008637          	lui	a2,0x8
    4d18:	00008537          	lui	a0,0x8
    4d1c:	34860613          	addi	a2,a2,840 # 8348 <timers+0xc4>
    4d20:	39700593          	li	a1,919
    4d24:	2c050513          	addi	a0,a0,704 # 82c0 <timers+0x3c>
    4d28:	2a2020ef          	jal	ra,6fca <iprintf>
    4d2c:	a001                	j	4d2c <prvInitialiseNewTask.isra.2+0x5a>
    4d2e:	02080a23          	sb	zero,52(a6)
    4d32:	bfc9                	j	4d04 <prvInitialiseNewTask.isra.2+0x32>
    4d34:	d458                	sw	a4,44(s0)
    4d36:	c078                	sw	a4,68(s0)
    4d38:	00440513          	addi	a0,s0,4
    4d3c:	04042423          	sw	zero,72(s0)
    4d40:	c63e                	sw	a5,12(sp)
    4d42:	c436                	sw	a3,8(sp)
    4d44:	c23a                	sw	a4,4(sp)
    4d46:	9a7ff0ef          	jal	ra,46ec <vListInitialiseItem>
    4d4a:	01840513          	addi	a0,s0,24
    4d4e:	99fff0ef          	jal	ra,46ec <vListInitialiseItem>
    4d52:	4712                	lw	a4,4(sp)
    4d54:	463d                	li	a2,15
    4d56:	4581                	li	a1,0
    4d58:	40e60733          	sub	a4,a2,a4
    4d5c:	cc18                	sw	a4,24(s0)
    4d5e:	4631                	li	a2,12
    4d60:	c800                	sw	s0,16(s0)
    4d62:	d040                	sw	s0,36(s0)
    4d64:	04c40513          	addi	a0,s0,76
    4d68:	fe6fb0ef          	jal	ra,54e <memset>
    4d6c:	46a2                	lw	a3,8(sp)
    4d6e:	00249513          	slli	a0,s1,0x2
    4d72:	1571                	addi	a0,a0,-4
    4d74:	954a                	add	a0,a0,s2
    4d76:	04040c23          	sb	zero,88(s0)
    4d7a:	04040ca3          	sb	zero,89(s0)
    4d7e:	04040d23          	sb	zero,90(s0)
    4d82:	8636                	mv	a2,a3
    4d84:	85ce                	mv	a1,s3
    4d86:	9941                	andi	a0,a0,-16
    4d88:	e78fb0ef          	jal	ra,400 <pxPortInitialiseStack>
    4d8c:	47b2                	lw	a5,12(sp)
    4d8e:	c008                	sw	a0,0(s0)
    4d90:	c391                	beqz	a5,4d94 <prvInitialiseNewTask.isra.2+0xc2>
    4d92:	c380                	sw	s0,0(a5)
    4d94:	0141                	addi	sp,sp,16
    4d96:	fa2fb06f          	j	538 <__riscv_restore_4>

00004d9a <prvAddCurrentTaskToDelayedList>:
    4d9a:	f6afb2ef          	jal	t0,504 <__riscv_save_4>
    4d9e:	200004b7          	lui	s1,0x20000
    4da2:	200007b7          	lui	a5,0x20000
    4da6:	61048913          	addi	s2,s1,1552 # 20000610 <pxCurrentTCB>
    4daa:	63c7a983          	lw	s3,1596(a5) # 2000063c <xTickCount>
    4dae:	842a                	mv	s0,a0
    4db0:	00092503          	lw	a0,0(s2)
    4db4:	1141                	addi	sp,sp,-16
    4db6:	c62e                	sw	a1,12(sp)
    4db8:	0511                	addi	a0,a0,4
    4dba:	967ff0ef          	jal	ra,4720 <uxListRemove>
    4dbe:	577d                	li	a4,-1
    4dc0:	61048793          	addi	a5,s1,1552
    4dc4:	45b2                	lw	a1,12(sp)
    4dc6:	04e41163          	bne	s0,a4,4e08 <prvAddCurrentTaskToDelayedList+0x6e>
    4dca:	cd9d                	beqz	a1,4e08 <prvAddCurrentTaskToDelayedList+0x6e>
    4dcc:	200027b7          	lui	a5,0x20002
    4dd0:	95c78793          	addi	a5,a5,-1700 # 2000195c <xSuspendedTaskList>
    4dd4:	00092683          	lw	a3,0(s2)
    4dd8:	43d8                	lw	a4,4(a5)
    4dda:	c698                	sw	a4,8(a3)
    4ddc:	4710                	lw	a2,8(a4)
    4dde:	00092683          	lw	a3,0(s2)
    4de2:	c6d0                	sw	a2,12(a3)
    4de4:	00092683          	lw	a3,0(s2)
    4de8:	4710                	lw	a2,8(a4)
    4dea:	0691                	addi	a3,a3,4
    4dec:	c254                	sw	a3,4(a2)
    4dee:	00092683          	lw	a3,0(s2)
    4df2:	0691                	addi	a3,a3,4
    4df4:	c714                	sw	a3,8(a4)
    4df6:	00092703          	lw	a4,0(s2)
    4dfa:	cb5c                	sw	a5,20(a4)
    4dfc:	4398                	lw	a4,0(a5)
    4dfe:	0705                	addi	a4,a4,1
    4e00:	c398                	sw	a4,0(a5)
    4e02:	0141                	addi	sp,sp,16
    4e04:	f34fb06f          	j	538 <__riscv_restore_4>
    4e08:	4398                	lw	a4,0(a5)
    4e0a:	944e                	add	s0,s0,s3
    4e0c:	c340                	sw	s0,4(a4)
    4e0e:	01347b63          	bgeu	s0,s3,4e24 <prvAddCurrentTaskToDelayedList+0x8a>
    4e12:	20000737          	lui	a4,0x20000
    4e16:	61872503          	lw	a0,1560(a4) # 20000618 <pxOverflowDelayedTaskList>
    4e1a:	438c                	lw	a1,0(a5)
    4e1c:	0591                	addi	a1,a1,4
    4e1e:	8d5ff0ef          	jal	ra,46f2 <vListInsert>
    4e22:	b7c5                	j	4e02 <prvAddCurrentTaskToDelayedList+0x68>
    4e24:	20000737          	lui	a4,0x20000
    4e28:	61472503          	lw	a0,1556(a4) # 20000614 <pxDelayedTaskList>
    4e2c:	438c                	lw	a1,0(a5)
    4e2e:	0591                	addi	a1,a1,4
    4e30:	8c3ff0ef          	jal	ra,46f2 <vListInsert>
    4e34:	200007b7          	lui	a5,0x20000
    4e38:	62c78793          	addi	a5,a5,1580 # 2000062c <xNextTaskUnblockTime>
    4e3c:	4398                	lw	a4,0(a5)
    4e3e:	fce472e3          	bgeu	s0,a4,4e02 <prvAddCurrentTaskToDelayedList+0x68>
    4e42:	c380                	sw	s0,0(a5)
    4e44:	bf7d                	j	4e02 <prvAddCurrentTaskToDelayedList+0x68>

00004e46 <xTaskCreateStatic>:
    4e46:	ed8fb2ef          	jal	t0,51e <__riscv_save_0>
    4e4a:	1141                	addi	sp,sp,-16
    4e4c:	e39d                	bnez	a5,4e72 <xTaskCreateStatic+0x2c>
    4e4e:	6789                	lui	a5,0x2
    4e50:	80078793          	addi	a5,a5,-2048 # 1800 <SystemCoreClockUpdate+0x1e>
    4e54:	30079073          	csrw	mstatus,a5
    4e58:	00008637          	lui	a2,0x8
    4e5c:	00008537          	lui	a0,0x8
    4e60:	34860613          	addi	a2,a2,840 # 8348 <timers+0xc4>
    4e64:	24a00593          	li	a1,586
    4e68:	2c050513          	addi	a0,a0,704 # 82c0 <timers+0x3c>
    4e6c:	15e020ef          	jal	ra,6fca <iprintf>
    4e70:	a001                	j	4e70 <xTaskCreateStatic+0x2a>
    4e72:	8442                	mv	s0,a6
    4e74:	02081463          	bnez	a6,4e9c <xTaskCreateStatic+0x56>
    4e78:	6789                	lui	a5,0x2
    4e7a:	80078793          	addi	a5,a5,-2048 # 1800 <SystemCoreClockUpdate+0x1e>
    4e7e:	30079073          	csrw	mstatus,a5
    4e82:	00008637          	lui	a2,0x8
    4e86:	00008537          	lui	a0,0x8
    4e8a:	34860613          	addi	a2,a2,840 # 8348 <timers+0xc4>
    4e8e:	24b00593          	li	a1,587
    4e92:	2c050513          	addi	a0,a0,704 # 82c0 <timers+0x3c>
    4e96:	134020ef          	jal	ra,6fca <iprintf>
    4e9a:	a001                	j	4e9a <xTaskCreateStatic+0x54>
    4e9c:	05c00893          	li	a7,92
    4ea0:	c646                	sw	a7,12(sp)
    4ea2:	4332                	lw	t1,12(sp)
    4ea4:	03130463          	beq	t1,a7,4ecc <xTaskCreateStatic+0x86>
    4ea8:	6789                	lui	a5,0x2
    4eaa:	80078793          	addi	a5,a5,-2048 # 1800 <SystemCoreClockUpdate+0x1e>
    4eae:	30079073          	csrw	mstatus,a5
    4eb2:	00008637          	lui	a2,0x8
    4eb6:	00008537          	lui	a0,0x8
    4eba:	34860613          	addi	a2,a2,840 # 8348 <timers+0xc4>
    4ebe:	25300593          	li	a1,595
    4ec2:	2c050513          	addi	a0,a0,704 # 82c0 <timers+0x3c>
    4ec6:	104020ef          	jal	ra,6fca <iprintf>
    4eca:	a001                	j	4eca <xTaskCreateStatic+0x84>
    4ecc:	48b2                	lw	a7,12(sp)
    4ece:	02f82823          	sw	a5,48(a6)
    4ed2:	4789                	li	a5,2
    4ed4:	04f80da3          	sb	a5,91(a6)
    4ed8:	003c                	addi	a5,sp,8
    4eda:	df9ff0ef          	jal	ra,4cd2 <prvInitialiseNewTask.isra.2>
    4ede:	8522                	mv	a0,s0
    4ee0:	cb9ff0ef          	jal	ra,4b98 <prvAddNewTaskToReadyList>
    4ee4:	4522                	lw	a0,8(sp)
    4ee6:	0141                	addi	sp,sp,16
    4ee8:	e5afb06f          	j	542 <__riscv_restore_0>

00004eec <vTaskStartScheduler>:
    4eec:	e32fb2ef          	jal	t0,51e <__riscv_save_0>
    4ef0:	1141                	addi	sp,sp,-16
    4ef2:	0070                	addi	a2,sp,12
    4ef4:	002c                	addi	a1,sp,8
    4ef6:	0048                	addi	a0,sp,4
    4ef8:	c202                	sw	zero,4(sp)
    4efa:	c402                	sw	zero,8(sp)
    4efc:	b6dfc0ef          	jal	ra,1a68 <vApplicationGetIdleTaskMemory>
    4f00:	4812                	lw	a6,4(sp)
    4f02:	47a2                	lw	a5,8(sp)
    4f04:	4632                	lw	a2,12(sp)
    4f06:	000085b7          	lui	a1,0x8
    4f0a:	00005537          	lui	a0,0x5
    4f0e:	4701                	li	a4,0
    4f10:	4681                	li	a3,0
    4f12:	35c58593          	addi	a1,a1,860 # 835c <timers+0xd8>
    4f16:	b9650513          	addi	a0,a0,-1130 # 4b96 <prvIdleTask>
    4f1a:	f2dff0ef          	jal	ra,4e46 <xTaskCreateStatic>
    4f1e:	c915                	beqz	a0,4f52 <vTaskStartScheduler+0x66>
    4f20:	7b3000ef          	jal	ra,5ed2 <xTimerCreateTimerTask>
    4f24:	4785                	li	a5,1
    4f26:	02f51b63          	bne	a0,a5,4f5c <vTaskStartScheduler+0x70>
    4f2a:	6789                	lui	a5,0x2
    4f2c:	80078793          	addi	a5,a5,-2048 # 1800 <SystemCoreClockUpdate+0x1e>
    4f30:	30079073          	csrw	mstatus,a5
    4f34:	200007b7          	lui	a5,0x20000
    4f38:	577d                	li	a4,-1
    4f3a:	62e7a623          	sw	a4,1580(a5) # 2000062c <xNextTaskUnblockTime>
    4f3e:	200007b7          	lui	a5,0x20000
    4f42:	62a7ac23          	sw	a0,1592(a5) # 20000638 <xSchedulerRunning>
    4f46:	200007b7          	lui	a5,0x20000
    4f4a:	6207ae23          	sw	zero,1596(a5) # 2000063c <xTickCount>
    4f4e:	e14ff0ef          	jal	ra,4562 <xPortStartScheduler>
    4f52:	80c1a783          	lw	a5,-2036(gp) # 2000058c <uxTopUsedPriority>
    4f56:	0141                	addi	sp,sp,16
    4f58:	deafb06f          	j	542 <__riscv_restore_0>
    4f5c:	57fd                	li	a5,-1
    4f5e:	fef51ae3          	bne	a0,a5,4f52 <vTaskStartScheduler+0x66>
    4f62:	6789                	lui	a5,0x2
    4f64:	80078793          	addi	a5,a5,-2048 # 1800 <SystemCoreClockUpdate+0x1e>
    4f68:	30079073          	csrw	mstatus,a5
    4f6c:	00008637          	lui	a2,0x8
    4f70:	6585                	lui	a1,0x1
    4f72:	00008537          	lui	a0,0x8
    4f76:	34860613          	addi	a2,a2,840 # 8348 <timers+0xc4>
    4f7a:	84058593          	addi	a1,a1,-1984 # 840 <__stack_size+0x40>
    4f7e:	2c050513          	addi	a0,a0,704 # 82c0 <timers+0x3c>
    4f82:	048020ef          	jal	ra,6fca <iprintf>
    4f86:	a001                	j	4f86 <vTaskStartScheduler+0x9a>

00004f88 <vTaskSuspendAll>:
    4f88:	200007b7          	lui	a5,0x20000
    4f8c:	62078793          	addi	a5,a5,1568 # 20000620 <uxSchedulerSuspended>
    4f90:	4398                	lw	a4,0(a5)
    4f92:	0705                	addi	a4,a4,1
    4f94:	c398                	sw	a4,0(a5)
    4f96:	8082                	ret

00004f98 <xTaskGetTickCount>:
    4f98:	200007b7          	lui	a5,0x20000
    4f9c:	63c7a503          	lw	a0,1596(a5) # 2000063c <xTickCount>
    4fa0:	8082                	ret

00004fa2 <xTaskIncrementTick>:
    4fa2:	200007b7          	lui	a5,0x20000
    4fa6:	6207a783          	lw	a5,1568(a5) # 20000620 <uxSchedulerSuspended>
    4faa:	18079963          	bnez	a5,513c <xTaskIncrementTick+0x19a>
    4fae:	d70fb2ef          	jal	t0,51e <__riscv_save_0>
    4fb2:	200007b7          	lui	a5,0x20000
    4fb6:	63c78793          	addi	a5,a5,1596 # 2000063c <xTickCount>
    4fba:	4380                	lw	s0,0(a5)
    4fbc:	0405                	addi	s0,s0,1
    4fbe:	c380                	sw	s0,0(a5)
    4fc0:	ec21                	bnez	s0,5018 <xTaskIncrementTick+0x76>
    4fc2:	200007b7          	lui	a5,0x20000
    4fc6:	61478793          	addi	a5,a5,1556 # 20000614 <pxDelayedTaskList>
    4fca:	4398                	lw	a4,0(a5)
    4fcc:	4318                	lw	a4,0(a4)
    4fce:	c705                	beqz	a4,4ff6 <xTaskIncrementTick+0x54>
    4fd0:	6789                	lui	a5,0x2
    4fd2:	80078793          	addi	a5,a5,-2048 # 1800 <SystemCoreClockUpdate+0x1e>
    4fd6:	30079073          	csrw	mstatus,a5
    4fda:	00008637          	lui	a2,0x8
    4fde:	6585                	lui	a1,0x1
    4fe0:	00008537          	lui	a0,0x8
    4fe4:	34860613          	addi	a2,a2,840 # 8348 <timers+0xc4>
    4fe8:	ac758593          	addi	a1,a1,-1337 # ac7 <vSaveData+0xb>
    4fec:	2c050513          	addi	a0,a0,704 # 82c0 <timers+0x3c>
    4ff0:	7db010ef          	jal	ra,6fca <iprintf>
    4ff4:	a001                	j	4ff4 <xTaskIncrementTick+0x52>
    4ff6:	20000737          	lui	a4,0x20000
    4ffa:	61870713          	addi	a4,a4,1560 # 20000618 <pxOverflowDelayedTaskList>
    4ffe:	4394                	lw	a3,0(a5)
    5000:	4310                	lw	a2,0(a4)
    5002:	c390                	sw	a2,0(a5)
    5004:	200007b7          	lui	a5,0x20000
    5008:	c314                	sw	a3,0(a4)
    500a:	63078793          	addi	a5,a5,1584 # 20000630 <xNumOfOverflows>
    500e:	4398                	lw	a4,0(a5)
    5010:	0705                	addi	a4,a4,1
    5012:	c398                	sw	a4,0(a5)
    5014:	c9bff0ef          	jal	ra,4cae <prvResetNextTaskUnblockTime>
    5018:	20000637          	lui	a2,0x20000
    501c:	62c60793          	addi	a5,a2,1580 # 2000062c <xNextTaskUnblockTime>
    5020:	439c                	lw	a5,0(a5)
    5022:	20001737          	lui	a4,0x20001
    5026:	200005b7          	lui	a1,0x20000
    502a:	62c60613          	addi	a2,a2,1580
    502e:	7f470713          	addi	a4,a4,2036 # 200017f4 <pxReadyTasksLists>
    5032:	61058593          	addi	a1,a1,1552 # 20000610 <pxCurrentTCB>
    5036:	4501                	li	a0,0
    5038:	02f47563          	bgeu	s0,a5,5062 <xTaskIncrementTick+0xc0>
    503c:	419c                	lw	a5,0(a1)
    503e:	46d1                	li	a3,20
    5040:	57dc                	lw	a5,44(a5)
    5042:	02d787b3          	mul	a5,a5,a3
    5046:	973e                	add	a4,a4,a5
    5048:	4318                	lw	a4,0(a4)
    504a:	4785                	li	a5,1
    504c:	00e7f363          	bgeu	a5,a4,5052 <xTaskIncrementTick+0xb0>
    5050:	4505                	li	a0,1
    5052:	200007b7          	lui	a5,0x20000
    5056:	6407a783          	lw	a5,1600(a5) # 20000640 <xYieldPending>
    505a:	c391                	beqz	a5,505e <xTaskIncrementTick+0xbc>
    505c:	4505                	li	a0,1
    505e:	ce4fb06f          	j	542 <__riscv_restore_0>
    5062:	20000e37          	lui	t3,0x20000
    5066:	20000eb7          	lui	t4,0x20000
    506a:	4f51                	li	t5,20
    506c:	614e0793          	addi	a5,t3,1556 # 20000614 <pxDelayedTaskList>
    5070:	4394                	lw	a3,0(a5)
    5072:	4294                	lw	a3,0(a3)
    5074:	e681                	bnez	a3,507c <xTaskIncrementTick+0xda>
    5076:	57fd                	li	a5,-1
    5078:	c21c                	sw	a5,0(a2)
    507a:	b7c9                	j	503c <xTaskIncrementTick+0x9a>
    507c:	439c                	lw	a5,0(a5)
    507e:	47dc                	lw	a5,12(a5)
    5080:	47dc                	lw	a5,12(a5)
    5082:	43d4                	lw	a3,4(a5)
    5084:	00d47463          	bgeu	s0,a3,508c <xTaskIncrementTick+0xea>
    5088:	c214                	sw	a3,0(a2)
    508a:	bf4d                	j	503c <xTaskIncrementTick+0x9a>
    508c:	0087a883          	lw	a7,8(a5)
    5090:	00c7a803          	lw	a6,12(a5)
    5094:	4bd4                	lw	a3,20(a5)
    5096:	00478313          	addi	t1,a5,4
    509a:	0108a423          	sw	a6,8(a7)
    509e:	01182223          	sw	a7,4(a6)
    50a2:	0046a883          	lw	a7,4(a3)
    50a6:	00689463          	bne	a7,t1,50ae <xTaskIncrementTick+0x10c>
    50aa:	0106a223          	sw	a6,4(a3)
    50ae:	0006a803          	lw	a6,0(a3)
    50b2:	0007aa23          	sw	zero,20(a5)
    50b6:	187d                	addi	a6,a6,-1
    50b8:	0106a023          	sw	a6,0(a3)
    50bc:	5794                	lw	a3,40(a5)
    50be:	ca95                	beqz	a3,50f2 <xTaskIncrementTick+0x150>
    50c0:	01c7a803          	lw	a6,28(a5)
    50c4:	0207a883          	lw	a7,32(a5)
    50c8:	0046af83          	lw	t6,4(a3)
    50cc:	01182423          	sw	a7,8(a6)
    50d0:	0207a883          	lw	a7,32(a5)
    50d4:	0108a223          	sw	a6,4(a7)
    50d8:	01878813          	addi	a6,a5,24
    50dc:	010f9463          	bne	t6,a6,50e4 <xTaskIncrementTick+0x142>
    50e0:	0116a223          	sw	a7,4(a3)
    50e4:	0006a803          	lw	a6,0(a3)
    50e8:	0207a423          	sw	zero,40(a5)
    50ec:	187d                	addi	a6,a6,-1
    50ee:	0106a023          	sw	a6,0(a3)
    50f2:	628e8693          	addi	a3,t4,1576 # 20000628 <uxTopReadyPriority>
    50f6:	02c7a803          	lw	a6,44(a5)
    50fa:	0006a883          	lw	a7,0(a3)
    50fe:	0108f463          	bgeu	a7,a6,5106 <xTaskIncrementTick+0x164>
    5102:	0106a023          	sw	a6,0(a3)
    5106:	03e806b3          	mul	a3,a6,t5
    510a:	96ba                	add	a3,a3,a4
    510c:	0046a883          	lw	a7,4(a3)
    5110:	0088af83          	lw	t6,8(a7)
    5114:	0117a423          	sw	a7,8(a5)
    5118:	01f7a623          	sw	t6,12(a5)
    511c:	0088af83          	lw	t6,8(a7)
    5120:	006fa223          	sw	t1,4(t6)
    5124:	0068a423          	sw	t1,8(a7)
    5128:	cbd4                	sw	a3,20(a5)
    512a:	429c                	lw	a5,0(a3)
    512c:	0785                	addi	a5,a5,1
    512e:	c29c                	sw	a5,0(a3)
    5130:	419c                	lw	a5,0(a1)
    5132:	57dc                	lw	a5,44(a5)
    5134:	f2f86ce3          	bltu	a6,a5,506c <xTaskIncrementTick+0xca>
    5138:	4505                	li	a0,1
    513a:	bf0d                	j	506c <xTaskIncrementTick+0xca>
    513c:	200007b7          	lui	a5,0x20000
    5140:	63478793          	addi	a5,a5,1588 # 20000634 <xPendedTicks>
    5144:	4398                	lw	a4,0(a5)
    5146:	4501                	li	a0,0
    5148:	0705                	addi	a4,a4,1
    514a:	c398                	sw	a4,0(a5)
    514c:	8082                	ret

0000514e <xTaskResumeAll>:
    514e:	bb6fb2ef          	jal	t0,504 <__riscv_save_4>
    5152:	20000437          	lui	s0,0x20000
    5156:	62040413          	addi	s0,s0,1568 # 20000620 <uxSchedulerSuspended>
    515a:	401c                	lw	a5,0(s0)
    515c:	1141                	addi	sp,sp,-16
    515e:	e785                	bnez	a5,5186 <xTaskResumeAll+0x38>
    5160:	6789                	lui	a5,0x2
    5162:	80078793          	addi	a5,a5,-2048 # 1800 <SystemCoreClockUpdate+0x1e>
    5166:	30079073          	csrw	mstatus,a5
    516a:	00008637          	lui	a2,0x8
    516e:	6585                	lui	a1,0x1
    5170:	00008537          	lui	a0,0x8
    5174:	34860613          	addi	a2,a2,840 # 8348 <timers+0xc4>
    5178:	8b358593          	addi	a1,a1,-1869 # 8b3 <__stack_size+0xb3>
    517c:	2c050513          	addi	a0,a0,704 # 82c0 <timers+0x3c>
    5180:	64b010ef          	jal	ra,6fca <iprintf>
    5184:	a001                	j	5184 <xTaskResumeAll+0x36>
    5186:	ce8ff0ef          	jal	ra,466e <vPortEnterCritical>
    518a:	401c                	lw	a5,0(s0)
    518c:	17fd                	addi	a5,a5,-1
    518e:	c01c                	sw	a5,0(s0)
    5190:	401c                	lw	a5,0(s0)
    5192:	cb89                	beqz	a5,51a4 <xTaskResumeAll+0x56>
    5194:	4501                	li	a0,0
    5196:	c62a                	sw	a0,12(sp)
    5198:	cecff0ef          	jal	ra,4684 <vPortExitCritical>
    519c:	4532                	lw	a0,12(sp)
    519e:	0141                	addi	sp,sp,16
    51a0:	b98fb06f          	j	538 <__riscv_restore_4>
    51a4:	200007b7          	lui	a5,0x20000
    51a8:	61c7a783          	lw	a5,1564(a5) # 2000061c <uxCurrentNumberOfTasks>
    51ac:	d7e5                	beqz	a5,5194 <xTaskResumeAll+0x46>
    51ae:	200026b7          	lui	a3,0x20002
    51b2:	20001537          	lui	a0,0x20001
    51b6:	4781                	li	a5,0
    51b8:	94868693          	addi	a3,a3,-1720 # 20001948 <xPendingReadyList>
    51bc:	20000f37          	lui	t5,0x20000
    51c0:	7f450513          	addi	a0,a0,2036 # 200017f4 <pxReadyTasksLists>
    51c4:	48d1                	li	a7,20
    51c6:	20000337          	lui	t1,0x20000
    51ca:	20000e37          	lui	t3,0x20000
    51ce:	4e85                	li	t4,1
    51d0:	a859                	j	5266 <xTaskResumeAll+0x118>
    51d2:	46dc                	lw	a5,12(a3)
    51d4:	47dc                	lw	a5,12(a5)
    51d6:	4fcc                	lw	a1,28(a5)
    51d8:	5390                	lw	a2,32(a5)
    51da:	5798                	lw	a4,40(a5)
    51dc:	c590                	sw	a2,8(a1)
    51de:	0207a803          	lw	a6,32(a5)
    51e2:	00b82223          	sw	a1,4(a6)
    51e6:	00472803          	lw	a6,4(a4)
    51ea:	01878593          	addi	a1,a5,24
    51ee:	00b81363          	bne	a6,a1,51f4 <xTaskResumeAll+0xa6>
    51f2:	c350                	sw	a2,4(a4)
    51f4:	4310                	lw	a2,0(a4)
    51f6:	0207a423          	sw	zero,40(a5)
    51fa:	167d                	addi	a2,a2,-1
    51fc:	c310                	sw	a2,0(a4)
    51fe:	478c                	lw	a1,8(a5)
    5200:	47d0                	lw	a2,12(a5)
    5202:	4bd8                	lw	a4,20(a5)
    5204:	00478813          	addi	a6,a5,4
    5208:	c590                	sw	a2,8(a1)
    520a:	c24c                	sw	a1,4(a2)
    520c:	434c                	lw	a1,4(a4)
    520e:	01059363          	bne	a1,a6,5214 <xTaskResumeAll+0xc6>
    5212:	c350                	sw	a2,4(a4)
    5214:	4310                	lw	a2,0(a4)
    5216:	0007aa23          	sw	zero,20(a5)
    521a:	167d                	addi	a2,a2,-1
    521c:	c310                	sw	a2,0(a4)
    521e:	628f0713          	addi	a4,t5,1576 # 20000628 <uxTopReadyPriority>
    5222:	57d0                	lw	a2,44(a5)
    5224:	430c                	lw	a1,0(a4)
    5226:	00c5f363          	bgeu	a1,a2,522c <xTaskResumeAll+0xde>
    522a:	c310                	sw	a2,0(a4)
    522c:	03160733          	mul	a4,a2,a7
    5230:	972a                	add	a4,a4,a0
    5232:	434c                	lw	a1,4(a4)
    5234:	0085af83          	lw	t6,8(a1)
    5238:	c78c                	sw	a1,8(a5)
    523a:	01f7a623          	sw	t6,12(a5)
    523e:	0085af83          	lw	t6,8(a1)
    5242:	010fa223          	sw	a6,4(t6)
    5246:	0105a423          	sw	a6,8(a1)
    524a:	430c                	lw	a1,0(a4)
    524c:	cbd8                	sw	a4,20(a5)
    524e:	0585                	addi	a1,a1,1
    5250:	c30c                	sw	a1,0(a4)
    5252:	61030713          	addi	a4,t1,1552 # 20000610 <pxCurrentTCB>
    5256:	4318                	lw	a4,0(a4)
    5258:	5758                	lw	a4,44(a4)
    525a:	00e66663          	bltu	a2,a4,5266 <xTaskResumeAll+0x118>
    525e:	640e0713          	addi	a4,t3,1600 # 20000640 <xYieldPending>
    5262:	01d72023          	sw	t4,0(a4)
    5266:	4298                	lw	a4,0(a3)
    5268:	f72d                	bnez	a4,51d2 <xTaskResumeAll+0x84>
    526a:	c399                	beqz	a5,5270 <xTaskResumeAll+0x122>
    526c:	a43ff0ef          	jal	ra,4cae <prvResetNextTaskUnblockTime>
    5270:	200007b7          	lui	a5,0x20000
    5274:	63478713          	addi	a4,a5,1588 # 20000634 <xPendedTicks>
    5278:	4304                	lw	s1,0(a4)
    527a:	63478413          	addi	s0,a5,1588
    527e:	cc99                	beqz	s1,529c <xTaskResumeAll+0x14e>
    5280:	20000937          	lui	s2,0x20000
    5284:	4985                	li	s3,1
    5286:	d1dff0ef          	jal	ra,4fa2 <xTaskIncrementTick>
    528a:	c509                	beqz	a0,5294 <xTaskResumeAll+0x146>
    528c:	64090793          	addi	a5,s2,1600 # 20000640 <xYieldPending>
    5290:	0137a023          	sw	s3,0(a5)
    5294:	14fd                	addi	s1,s1,-1
    5296:	f8e5                	bnez	s1,5286 <xTaskResumeAll+0x138>
    5298:	00042023          	sw	zero,0(s0)
    529c:	200007b7          	lui	a5,0x20000
    52a0:	6407a783          	lw	a5,1600(a5) # 20000640 <xYieldPending>
    52a4:	ee0788e3          	beqz	a5,5194 <xTaskResumeAll+0x46>
    52a8:	e000e7b7          	lui	a5,0xe000e
    52ac:	6711                	lui	a4,0x4
    52ae:	20e7a023          	sw	a4,512(a5) # e000e200 <__freertos_irq_stack_top+0xc0009200>
    52b2:	4505                	li	a0,1
    52b4:	b5cd                	j	5196 <xTaskResumeAll+0x48>

000052b6 <vTaskDelay>:
    52b6:	e519                	bnez	a0,52c4 <vTaskDelay+0xe>
    52b8:	e000e7b7          	lui	a5,0xe000e
    52bc:	6711                	lui	a4,0x4
    52be:	20e7a023          	sw	a4,512(a5) # e000e200 <__freertos_irq_stack_top+0xc0009200>
    52c2:	8082                	ret
    52c4:	a5afb2ef          	jal	t0,51e <__riscv_save_0>
    52c8:	200007b7          	lui	a5,0x20000
    52cc:	6207a783          	lw	a5,1568(a5) # 20000620 <uxSchedulerSuspended>
    52d0:	1141                	addi	sp,sp,-16
    52d2:	c39d                	beqz	a5,52f8 <vTaskDelay+0x42>
    52d4:	6789                	lui	a5,0x2
    52d6:	80078793          	addi	a5,a5,-2048 # 1800 <SystemCoreClockUpdate+0x1e>
    52da:	30079073          	csrw	mstatus,a5
    52de:	00008637          	lui	a2,0x8
    52e2:	00008537          	lui	a0,0x8
    52e6:	34860613          	addi	a2,a2,840 # 8348 <timers+0xc4>
    52ea:	54900593          	li	a1,1353
    52ee:	2c050513          	addi	a0,a0,704 # 82c0 <timers+0x3c>
    52f2:	4d9010ef          	jal	ra,6fca <iprintf>
    52f6:	a001                	j	52f6 <vTaskDelay+0x40>
    52f8:	c62a                	sw	a0,12(sp)
    52fa:	c8fff0ef          	jal	ra,4f88 <vTaskSuspendAll>
    52fe:	4532                	lw	a0,12(sp)
    5300:	4581                	li	a1,0
    5302:	a99ff0ef          	jal	ra,4d9a <prvAddCurrentTaskToDelayedList>
    5306:	e49ff0ef          	jal	ra,514e <xTaskResumeAll>
    530a:	e511                	bnez	a0,5316 <vTaskDelay+0x60>
    530c:	e000e7b7          	lui	a5,0xe000e
    5310:	6711                	lui	a4,0x4
    5312:	20e7a023          	sw	a4,512(a5) # e000e200 <__freertos_irq_stack_top+0xc0009200>
    5316:	0141                	addi	sp,sp,16
    5318:	a2afb06f          	j	542 <__riscv_restore_0>

0000531c <vTaskSwitchContext>:
    531c:	200007b7          	lui	a5,0x20000
    5320:	6207a703          	lw	a4,1568(a5) # 20000620 <uxSchedulerSuspended>
    5324:	200007b7          	lui	a5,0x20000
    5328:	64078793          	addi	a5,a5,1600 # 20000640 <xYieldPending>
    532c:	c701                	beqz	a4,5334 <vTaskSwitchContext+0x18>
    532e:	4705                	li	a4,1
    5330:	c398                	sw	a4,0(a5)
    5332:	8082                	ret
    5334:	0007a023          	sw	zero,0(a5)
    5338:	200007b7          	lui	a5,0x20000
    533c:	62878713          	addi	a4,a5,1576 # 20000628 <uxTopReadyPriority>
    5340:	4318                	lw	a4,0(a4)
    5342:	62878613          	addi	a2,a5,1576
    5346:	200017b7          	lui	a5,0x20001
    534a:	7f478793          	addi	a5,a5,2036 # 200017f4 <pxReadyTasksLists>
    534e:	4851                	li	a6,20
    5350:	030706b3          	mul	a3,a4,a6
    5354:	00d785b3          	add	a1,a5,a3
    5358:	4188                	lw	a0,0(a1)
    535a:	c515                	beqz	a0,5386 <vTaskSwitchContext+0x6a>
    535c:	41c8                	lw	a0,4(a1)
    535e:	06a1                	addi	a3,a3,8
    5360:	96be                	add	a3,a3,a5
    5362:	4148                	lw	a0,4(a0)
    5364:	c1c8                	sw	a0,4(a1)
    5366:	00d51463          	bne	a0,a3,536e <vTaskSwitchContext+0x52>
    536a:	4154                	lw	a3,4(a0)
    536c:	c1d4                	sw	a3,4(a1)
    536e:	46d1                	li	a3,20
    5370:	02d706b3          	mul	a3,a4,a3
    5374:	97b6                	add	a5,a5,a3
    5376:	43dc                	lw	a5,4(a5)
    5378:	47d4                	lw	a3,12(a5)
    537a:	200007b7          	lui	a5,0x20000
    537e:	60d7a823          	sw	a3,1552(a5) # 20000610 <pxCurrentTCB>
    5382:	c218                	sw	a4,0(a2)
    5384:	8082                	ret
    5386:	e715                	bnez	a4,53b2 <vTaskSwitchContext+0x96>
    5388:	996fb2ef          	jal	t0,51e <__riscv_save_0>
    538c:	6789                	lui	a5,0x2
    538e:	80078793          	addi	a5,a5,-2048 # 1800 <SystemCoreClockUpdate+0x1e>
    5392:	30079073          	csrw	mstatus,a5
    5396:	00008637          	lui	a2,0x8
    539a:	6585                	lui	a1,0x1
    539c:	00008537          	lui	a0,0x8
    53a0:	34860613          	addi	a2,a2,840 # 8348 <timers+0xc4>
    53a4:	c0258593          	addi	a1,a1,-1022 # c02 <getODValue+0x80>
    53a8:	2c050513          	addi	a0,a0,704 # 82c0 <timers+0x3c>
    53ac:	41f010ef          	jal	ra,6fca <iprintf>
    53b0:	a001                	j	53b0 <vTaskSwitchContext+0x94>
    53b2:	177d                	addi	a4,a4,-1
    53b4:	bf71                	j	5350 <vTaskSwitchContext+0x34>

000053b6 <vTaskPlaceOnEventList>:
    53b6:	968fb2ef          	jal	t0,51e <__riscv_save_0>
    53ba:	e505                	bnez	a0,53e2 <vTaskPlaceOnEventList+0x2c>
    53bc:	6789                	lui	a5,0x2
    53be:	80078793          	addi	a5,a5,-2048 # 1800 <SystemCoreClockUpdate+0x1e>
    53c2:	30079073          	csrw	mstatus,a5
    53c6:	00008637          	lui	a2,0x8
    53ca:	6585                	lui	a1,0x1
    53cc:	00008537          	lui	a0,0x8
    53d0:	34860613          	addi	a2,a2,840 # 8348 <timers+0xc4>
    53d4:	c1c58593          	addi	a1,a1,-996 # c1c <getODValue+0x9a>
    53d8:	2c050513          	addi	a0,a0,704 # 82c0 <timers+0x3c>
    53dc:	3ef010ef          	jal	ra,6fca <iprintf>
    53e0:	a001                	j	53e0 <vTaskPlaceOnEventList+0x2a>
    53e2:	200007b7          	lui	a5,0x20000
    53e6:	842e                	mv	s0,a1
    53e8:	6107a583          	lw	a1,1552(a5) # 20000610 <pxCurrentTCB>
    53ec:	05e1                	addi	a1,a1,24
    53ee:	b04ff0ef          	jal	ra,46f2 <vListInsert>
    53f2:	4585                	li	a1,1
    53f4:	8522                	mv	a0,s0
    53f6:	9a5ff0ef          	jal	ra,4d9a <prvAddCurrentTaskToDelayedList>
    53fa:	948fb06f          	j	542 <__riscv_restore_0>

000053fe <vTaskPlaceOnEventListRestricted>:
    53fe:	920fb2ef          	jal	t0,51e <__riscv_save_0>
    5402:	872a                	mv	a4,a0
    5404:	e505                	bnez	a0,542c <vTaskPlaceOnEventListRestricted+0x2e>
    5406:	6789                	lui	a5,0x2
    5408:	80078793          	addi	a5,a5,-2048 # 1800 <SystemCoreClockUpdate+0x1e>
    540c:	30079073          	csrw	mstatus,a5
    5410:	00008637          	lui	a2,0x8
    5414:	6585                	lui	a1,0x1
    5416:	00008537          	lui	a0,0x8
    541a:	34860613          	addi	a2,a2,840 # 8348 <timers+0xc4>
    541e:	c5258593          	addi	a1,a1,-942 # c52 <vRGBOff+0x6>
    5422:	2c050513          	addi	a0,a0,704 # 82c0 <timers+0x3c>
    5426:	3a5010ef          	jal	ra,6fca <iprintf>
    542a:	a001                	j	542a <vTaskPlaceOnEventListRestricted+0x2c>
    542c:	200007b7          	lui	a5,0x20000
    5430:	61078793          	addi	a5,a5,1552 # 20000610 <pxCurrentTCB>
    5434:	4354                	lw	a3,4(a4)
    5436:	852e                	mv	a0,a1
    5438:	438c                	lw	a1,0(a5)
    543a:	0086a803          	lw	a6,8(a3)
    543e:	cdd4                	sw	a3,28(a1)
    5440:	438c                	lw	a1,0(a5)
    5442:	0305a023          	sw	a6,32(a1)
    5446:	0007a803          	lw	a6,0(a5)
    544a:	468c                	lw	a1,8(a3)
    544c:	0861                	addi	a6,a6,24
    544e:	0105a223          	sw	a6,4(a1)
    5452:	0007a803          	lw	a6,0(a5)
    5456:	439c                	lw	a5,0(a5)
    5458:	0861                	addi	a6,a6,24
    545a:	0106a423          	sw	a6,8(a3)
    545e:	d798                	sw	a4,40(a5)
    5460:	431c                	lw	a5,0(a4)
    5462:	0785                	addi	a5,a5,1
    5464:	c31c                	sw	a5,0(a4)
    5466:	c211                	beqz	a2,546a <vTaskPlaceOnEventListRestricted+0x6c>
    5468:	557d                	li	a0,-1
    546a:	85b2                	mv	a1,a2
    546c:	92fff0ef          	jal	ra,4d9a <prvAddCurrentTaskToDelayedList>
    5470:	8d2fb06f          	j	542 <__riscv_restore_0>

00005474 <xTaskRemoveFromEventList>:
    5474:	455c                	lw	a5,12(a0)
    5476:	47dc                	lw	a5,12(a5)
    5478:	e795                	bnez	a5,54a4 <xTaskRemoveFromEventList+0x30>
    547a:	8a4fb2ef          	jal	t0,51e <__riscv_save_0>
    547e:	6789                	lui	a5,0x2
    5480:	80078793          	addi	a5,a5,-2048 # 1800 <SystemCoreClockUpdate+0x1e>
    5484:	30079073          	csrw	mstatus,a5
    5488:	00008637          	lui	a2,0x8
    548c:	6585                	lui	a1,0x1
    548e:	00008537          	lui	a0,0x8
    5492:	34860613          	addi	a2,a2,840 # 8348 <timers+0xc4>
    5496:	c8258593          	addi	a1,a1,-894 # c82 <vGetEdgeData+0x10>
    549a:	2c050513          	addi	a0,a0,704 # 82c0 <timers+0x3c>
    549e:	32d010ef          	jal	ra,6fca <iprintf>
    54a2:	a001                	j	54a2 <xTaskRemoveFromEventList+0x2e>
    54a4:	4fd0                	lw	a2,28(a5)
    54a6:	5394                	lw	a3,32(a5)
    54a8:	5798                	lw	a4,40(a5)
    54aa:	01878593          	addi	a1,a5,24
    54ae:	c614                	sw	a3,8(a2)
    54b0:	c2d0                	sw	a2,4(a3)
    54b2:	4350                	lw	a2,4(a4)
    54b4:	00b61363          	bne	a2,a1,54ba <xTaskRemoveFromEventList+0x46>
    54b8:	c354                	sw	a3,4(a4)
    54ba:	4314                	lw	a3,0(a4)
    54bc:	0207a423          	sw	zero,40(a5)
    54c0:	16fd                	addi	a3,a3,-1
    54c2:	c314                	sw	a3,0(a4)
    54c4:	20000737          	lui	a4,0x20000
    54c8:	62072703          	lw	a4,1568(a4) # 20000620 <uxSchedulerSuspended>
    54cc:	57d4                	lw	a3,44(a5)
    54ce:	ef25                	bnez	a4,5546 <xTaskRemoveFromEventList+0xd2>
    54d0:	478c                	lw	a1,8(a5)
    54d2:	47d0                	lw	a2,12(a5)
    54d4:	4bd8                	lw	a4,20(a5)
    54d6:	c590                	sw	a2,8(a1)
    54d8:	47d0                	lw	a2,12(a5)
    54da:	4348                	lw	a0,4(a4)
    54dc:	c24c                	sw	a1,4(a2)
    54de:	00478593          	addi	a1,a5,4
    54e2:	00b51363          	bne	a0,a1,54e8 <xTaskRemoveFromEventList+0x74>
    54e6:	c350                	sw	a2,4(a4)
    54e8:	4310                	lw	a2,0(a4)
    54ea:	0007aa23          	sw	zero,20(a5)
    54ee:	167d                	addi	a2,a2,-1
    54f0:	c310                	sw	a2,0(a4)
    54f2:	20000737          	lui	a4,0x20000
    54f6:	62870713          	addi	a4,a4,1576 # 20000628 <uxTopReadyPriority>
    54fa:	4310                	lw	a2,0(a4)
    54fc:	00d67363          	bgeu	a2,a3,5502 <xTaskRemoveFromEventList+0x8e>
    5500:	c314                	sw	a3,0(a4)
    5502:	4751                	li	a4,20
    5504:	02e68633          	mul	a2,a3,a4
    5508:	20001737          	lui	a4,0x20001
    550c:	7f470713          	addi	a4,a4,2036 # 200017f4 <pxReadyTasksLists>
    5510:	9732                	add	a4,a4,a2
    5512:	4350                	lw	a2,4(a4)
    5514:	4608                	lw	a0,8(a2)
    5516:	c790                	sw	a2,8(a5)
    5518:	c7c8                	sw	a0,12(a5)
    551a:	4608                	lw	a0,8(a2)
    551c:	c14c                	sw	a1,4(a0)
    551e:	c60c                	sw	a1,8(a2)
    5520:	cbd8                	sw	a4,20(a5)
    5522:	431c                	lw	a5,0(a4)
    5524:	4501                	li	a0,0
    5526:	0785                	addi	a5,a5,1
    5528:	c31c                	sw	a5,0(a4)
    552a:	200007b7          	lui	a5,0x20000
    552e:	6107a783          	lw	a5,1552(a5) # 20000610 <pxCurrentTCB>
    5532:	57dc                	lw	a5,44(a5)
    5534:	00d7f863          	bgeu	a5,a3,5544 <xTaskRemoveFromEventList+0xd0>
    5538:	200007b7          	lui	a5,0x20000
    553c:	4705                	li	a4,1
    553e:	64e7a023          	sw	a4,1600(a5) # 20000640 <xYieldPending>
    5542:	4505                	li	a0,1
    5544:	8082                	ret
    5546:	20002737          	lui	a4,0x20002
    554a:	94870713          	addi	a4,a4,-1720 # 20001948 <xPendingReadyList>
    554e:	4350                	lw	a2,4(a4)
    5550:	4608                	lw	a0,8(a2)
    5552:	cfd0                	sw	a2,28(a5)
    5554:	d388                	sw	a0,32(a5)
    5556:	4608                	lw	a0,8(a2)
    5558:	c14c                	sw	a1,4(a0)
    555a:	c60c                	sw	a1,8(a2)
    555c:	d798                	sw	a4,40(a5)
    555e:	b7d1                	j	5522 <xTaskRemoveFromEventList+0xae>

00005560 <vTaskInternalSetTimeOutState>:
    5560:	200007b7          	lui	a5,0x20000
    5564:	6307a783          	lw	a5,1584(a5) # 20000630 <xNumOfOverflows>
    5568:	c11c                	sw	a5,0(a0)
    556a:	200007b7          	lui	a5,0x20000
    556e:	63c7a783          	lw	a5,1596(a5) # 2000063c <xTickCount>
    5572:	c15c                	sw	a5,4(a0)
    5574:	8082                	ret

00005576 <xTaskCheckForTimeOut>:
    5576:	fa9fa2ef          	jal	t0,51e <__riscv_save_0>
    557a:	1141                	addi	sp,sp,-16
    557c:	e505                	bnez	a0,55a4 <xTaskCheckForTimeOut+0x2e>
    557e:	6789                	lui	a5,0x2
    5580:	80078793          	addi	a5,a5,-2048 # 1800 <SystemCoreClockUpdate+0x1e>
    5584:	30079073          	csrw	mstatus,a5
    5588:	00008637          	lui	a2,0x8
    558c:	6585                	lui	a1,0x1
    558e:	00008537          	lui	a0,0x8
    5592:	34860613          	addi	a2,a2,840 # 8348 <timers+0xc4>
    5596:	cfd58593          	addi	a1,a1,-771 # cfd <vRGBMode+0x65>
    559a:	2c050513          	addi	a0,a0,704 # 82c0 <timers+0x3c>
    559e:	22d010ef          	jal	ra,6fca <iprintf>
    55a2:	a001                	j	55a2 <xTaskCheckForTimeOut+0x2c>
    55a4:	e585                	bnez	a1,55cc <xTaskCheckForTimeOut+0x56>
    55a6:	6789                	lui	a5,0x2
    55a8:	80078793          	addi	a5,a5,-2048 # 1800 <SystemCoreClockUpdate+0x1e>
    55ac:	30079073          	csrw	mstatus,a5
    55b0:	00008637          	lui	a2,0x8
    55b4:	6585                	lui	a1,0x1
    55b6:	00008537          	lui	a0,0x8
    55ba:	34860613          	addi	a2,a2,840 # 8348 <timers+0xc4>
    55be:	cfe58593          	addi	a1,a1,-770 # cfe <vRGBMode+0x66>
    55c2:	2c050513          	addi	a0,a0,704 # 82c0 <timers+0x3c>
    55c6:	205010ef          	jal	ra,6fca <iprintf>
    55ca:	a001                	j	55ca <xTaskCheckForTimeOut+0x54>
    55cc:	c62e                	sw	a1,12(sp)
    55ce:	c42a                	sw	a0,8(sp)
    55d0:	89eff0ef          	jal	ra,466e <vPortEnterCritical>
    55d4:	45b2                	lw	a1,12(sp)
    55d6:	200007b7          	lui	a5,0x20000
    55da:	63c7a683          	lw	a3,1596(a5) # 2000063c <xTickCount>
    55de:	419c                	lw	a5,0(a1)
    55e0:	577d                	li	a4,-1
    55e2:	4401                	li	s0,0
    55e4:	02e78163          	beq	a5,a4,5606 <xTaskCheckForTimeOut+0x90>
    55e8:	4522                	lw	a0,8(sp)
    55ea:	20000637          	lui	a2,0x20000
    55ee:	63062603          	lw	a2,1584(a2) # 20000630 <xNumOfOverflows>
    55f2:	00052803          	lw	a6,0(a0)
    55f6:	4158                	lw	a4,4(a0)
    55f8:	00c80d63          	beq	a6,a2,5612 <xTaskCheckForTimeOut+0x9c>
    55fc:	00e6eb63          	bltu	a3,a4,5612 <xTaskCheckForTimeOut+0x9c>
    5600:	0005a023          	sw	zero,0(a1)
    5604:	4405                	li	s0,1
    5606:	87eff0ef          	jal	ra,4684 <vPortExitCritical>
    560a:	8522                	mv	a0,s0
    560c:	0141                	addi	sp,sp,16
    560e:	f35fa06f          	j	542 <__riscv_restore_0>
    5612:	40e68633          	sub	a2,a3,a4
    5616:	fef675e3          	bgeu	a2,a5,5600 <xTaskCheckForTimeOut+0x8a>
    561a:	8f95                	sub	a5,a5,a3
    561c:	97ba                	add	a5,a5,a4
    561e:	c19c                	sw	a5,0(a1)
    5620:	f41ff0ef          	jal	ra,5560 <vTaskInternalSetTimeOutState>
    5624:	4401                	li	s0,0
    5626:	b7c5                	j	5606 <xTaskCheckForTimeOut+0x90>

00005628 <vTaskMissedYield>:
    5628:	200007b7          	lui	a5,0x20000
    562c:	4705                	li	a4,1
    562e:	64e7a023          	sw	a4,1600(a5) # 20000640 <xYieldPending>
    5632:	8082                	ret

00005634 <xTaskGetCurrentTaskHandle>:
    5634:	200007b7          	lui	a5,0x20000
    5638:	6107a503          	lw	a0,1552(a5) # 20000610 <pxCurrentTCB>
    563c:	8082                	ret

0000563e <xTaskGetSchedulerState>:
    563e:	200007b7          	lui	a5,0x20000
    5642:	6387a783          	lw	a5,1592(a5) # 20000638 <xSchedulerRunning>
    5646:	4505                	li	a0,1
    5648:	cb81                	beqz	a5,5658 <xTaskGetSchedulerState+0x1a>
    564a:	200007b7          	lui	a5,0x20000
    564e:	6207a503          	lw	a0,1568(a5) # 20000620 <uxSchedulerSuspended>
    5652:	00153513          	seqz	a0,a0
    5656:	0506                	slli	a0,a0,0x1
    5658:	8082                	ret

0000565a <ulTaskGenericNotifyTake>:
    565a:	eabfa2ef          	jal	t0,504 <__riscv_save_4>
    565e:	4789                	li	a5,2
    5660:	1141                	addi	sp,sp,-16
    5662:	02a7f563          	bgeu	a5,a0,568c <ulTaskGenericNotifyTake+0x32>
    5666:	6789                	lui	a5,0x2
    5668:	80078793          	addi	a5,a5,-2048 # 1800 <SystemCoreClockUpdate+0x1e>
    566c:	30079073          	csrw	mstatus,a5
    5670:	00008637          	lui	a2,0x8
    5674:	6585                	lui	a1,0x1
    5676:	00008537          	lui	a0,0x8
    567a:	34860613          	addi	a2,a2,840 # 8348 <timers+0xc4>
    567e:	26658593          	addi	a1,a1,614 # 1266 <ADC_FSM+0x34>
    5682:	2c050513          	addi	a0,a0,704 # 82c0 <timers+0x3c>
    5686:	145010ef          	jal	ra,6fca <iprintf>
    568a:	a001                	j	568a <ulTaskGenericNotifyTake+0x30>
    568c:	892a                	mv	s2,a0
    568e:	20000437          	lui	s0,0x20000
    5692:	89ae                	mv	s3,a1
    5694:	c632                	sw	a2,12(sp)
    5696:	fd9fe0ef          	jal	ra,466e <vPortEnterCritical>
    569a:	61040793          	addi	a5,s0,1552 # 20000610 <pxCurrentTCB>
    569e:	439c                	lw	a5,0(a5)
    56a0:	01090493          	addi	s1,s2,16
    56a4:	00249713          	slli	a4,s1,0x2
    56a8:	97ba                	add	a5,a5,a4
    56aa:	47dc                	lw	a5,12(a5)
    56ac:	61040413          	addi	s0,s0,1552
    56b0:	e38d                	bnez	a5,56d2 <ulTaskGenericNotifyTake+0x78>
    56b2:	401c                	lw	a5,0(s0)
    56b4:	4632                	lw	a2,12(sp)
    56b6:	4705                	li	a4,1
    56b8:	97ca                	add	a5,a5,s2
    56ba:	04e78c23          	sb	a4,88(a5)
    56be:	ca11                	beqz	a2,56d2 <ulTaskGenericNotifyTake+0x78>
    56c0:	4585                	li	a1,1
    56c2:	8532                	mv	a0,a2
    56c4:	ed6ff0ef          	jal	ra,4d9a <prvAddCurrentTaskToDelayedList>
    56c8:	e000e7b7          	lui	a5,0xe000e
    56cc:	6711                	lui	a4,0x4
    56ce:	20e7a023          	sw	a4,512(a5) # e000e200 <__freertos_irq_stack_top+0xc0009200>
    56d2:	fb3fe0ef          	jal	ra,4684 <vPortExitCritical>
    56d6:	f99fe0ef          	jal	ra,466e <vPortEnterCritical>
    56da:	4018                	lw	a4,0(s0)
    56dc:	00249793          	slli	a5,s1,0x2
    56e0:	973e                	add	a4,a4,a5
    56e2:	4748                	lw	a0,12(a4)
    56e4:	c519                	beqz	a0,56f2 <ulTaskGenericNotifyTake+0x98>
    56e6:	4018                	lw	a4,0(s0)
    56e8:	02098063          	beqz	s3,5708 <ulTaskGenericNotifyTake+0xae>
    56ec:	97ba                	add	a5,a5,a4
    56ee:	0007a623          	sw	zero,12(a5)
    56f2:	401c                	lw	a5,0(s0)
    56f4:	c62a                	sw	a0,12(sp)
    56f6:	993e                	add	s2,s2,a5
    56f8:	04090c23          	sb	zero,88(s2)
    56fc:	f89fe0ef          	jal	ra,4684 <vPortExitCritical>
    5700:	4532                	lw	a0,12(sp)
    5702:	0141                	addi	sp,sp,16
    5704:	e35fa06f          	j	538 <__riscv_restore_4>
    5708:	fff50693          	addi	a3,a0,-1
    570c:	97ba                	add	a5,a5,a4
    570e:	c7d4                	sw	a3,12(a5)
    5710:	b7cd                	j	56f2 <ulTaskGenericNotifyTake+0x98>

00005712 <xTaskGenericNotifyWait>:
    5712:	df3fa2ef          	jal	t0,504 <__riscv_save_4>
    5716:	4a09                	li	s4,2
    5718:	1141                	addi	sp,sp,-16
    571a:	02aa7563          	bgeu	s4,a0,5744 <xTaskGenericNotifyWait+0x32>
    571e:	6789                	lui	a5,0x2
    5720:	80078793          	addi	a5,a5,-2048 # 1800 <SystemCoreClockUpdate+0x1e>
    5724:	30079073          	csrw	mstatus,a5
    5728:	00008637          	lui	a2,0x8
    572c:	6585                	lui	a1,0x1
    572e:	00008537          	lui	a0,0x8
    5732:	34860613          	addi	a2,a2,840 # 8348 <timers+0xc4>
    5736:	2b058593          	addi	a1,a1,688 # 12b0 <ADC_FSM+0x7e>
    573a:	2c050513          	addi	a0,a0,704 # 82c0 <timers+0x3c>
    573e:	08d010ef          	jal	ra,6fca <iprintf>
    5742:	a001                	j	5742 <xTaskGenericNotifyWait+0x30>
    5744:	84aa                	mv	s1,a0
    5746:	20000437          	lui	s0,0x20000
    574a:	8932                	mv	s2,a2
    574c:	89b6                	mv	s3,a3
    574e:	c63a                	sw	a4,12(sp)
    5750:	c42e                	sw	a1,8(sp)
    5752:	f1dfe0ef          	jal	ra,466e <vPortEnterCritical>
    5756:	61040793          	addi	a5,s0,1552 # 20000610 <pxCurrentTCB>
    575a:	439c                	lw	a5,0(a5)
    575c:	61040413          	addi	s0,s0,1552
    5760:	97a6                	add	a5,a5,s1
    5762:	0587c783          	lbu	a5,88(a5)
    5766:	02fa0c63          	beq	s4,a5,579e <xTaskGenericNotifyWait+0x8c>
    576a:	401c                	lw	a5,0(s0)
    576c:	00249693          	slli	a3,s1,0x2
    5770:	45a2                	lw	a1,8(sp)
    5772:	97b6                	add	a5,a5,a3
    5774:	47f4                	lw	a3,76(a5)
    5776:	fff5c593          	not	a1,a1
    577a:	4732                	lw	a4,12(sp)
    577c:	8df5                	and	a1,a1,a3
    577e:	c7ec                	sw	a1,76(a5)
    5780:	401c                	lw	a5,0(s0)
    5782:	4685                	li	a3,1
    5784:	97a6                	add	a5,a5,s1
    5786:	04d78c23          	sb	a3,88(a5)
    578a:	cb11                	beqz	a4,579e <xTaskGenericNotifyWait+0x8c>
    578c:	853a                	mv	a0,a4
    578e:	4585                	li	a1,1
    5790:	e0aff0ef          	jal	ra,4d9a <prvAddCurrentTaskToDelayedList>
    5794:	e000e7b7          	lui	a5,0xe000e
    5798:	6711                	lui	a4,0x4
    579a:	20e7a023          	sw	a4,512(a5) # e000e200 <__freertos_irq_stack_top+0xc0009200>
    579e:	ee7fe0ef          	jal	ra,4684 <vPortExitCritical>
    57a2:	ecdfe0ef          	jal	ra,466e <vPortEnterCritical>
    57a6:	00098a63          	beqz	s3,57ba <xTaskGenericNotifyWait+0xa8>
    57aa:	401c                	lw	a5,0(s0)
    57ac:	01048713          	addi	a4,s1,16
    57b0:	070a                	slli	a4,a4,0x2
    57b2:	97ba                	add	a5,a5,a4
    57b4:	47dc                	lw	a5,12(a5)
    57b6:	00f9a023          	sw	a5,0(s3)
    57ba:	401c                	lw	a5,0(s0)
    57bc:	4709                	li	a4,2
    57be:	4501                	li	a0,0
    57c0:	97a6                	add	a5,a5,s1
    57c2:	0587c783          	lbu	a5,88(a5)
    57c6:	00f71e63          	bne	a4,a5,57e2 <xTaskGenericNotifyWait+0xd0>
    57ca:	401c                	lw	a5,0(s0)
    57cc:	00249713          	slli	a4,s1,0x2
    57d0:	fff94913          	not	s2,s2
    57d4:	97ba                	add	a5,a5,a4
    57d6:	47f8                	lw	a4,76(a5)
    57d8:	4505                	li	a0,1
    57da:	00e97933          	and	s2,s2,a4
    57de:	0527a623          	sw	s2,76(a5)
    57e2:	401c                	lw	a5,0(s0)
    57e4:	c42a                	sw	a0,8(sp)
    57e6:	94be                	add	s1,s1,a5
    57e8:	04048c23          	sb	zero,88(s1)
    57ec:	e99fe0ef          	jal	ra,4684 <vPortExitCritical>
    57f0:	4522                	lw	a0,8(sp)
    57f2:	0141                	addi	sp,sp,16
    57f4:	d45fa06f          	j	538 <__riscv_restore_4>

000057f8 <xTaskGenericNotify>:
    57f8:	d27fa2ef          	jal	t0,51e <__riscv_save_0>
    57fc:	4789                	li	a5,2
    57fe:	1101                	addi	sp,sp,-32
    5800:	02b7f563          	bgeu	a5,a1,582a <xTaskGenericNotify+0x32>
    5804:	6789                	lui	a5,0x2
    5806:	80078793          	addi	a5,a5,-2048 # 1800 <SystemCoreClockUpdate+0x1e>
    580a:	30079073          	csrw	mstatus,a5
    580e:	00008637          	lui	a2,0x8
    5812:	6585                	lui	a1,0x1
    5814:	00008537          	lui	a0,0x8
    5818:	34860613          	addi	a2,a2,840 # 8348 <timers+0xc4>
    581c:	30858593          	addi	a1,a1,776 # 1308 <vInputsTask+0x10>
    5820:	2c050513          	addi	a0,a0,704 # 82c0 <timers+0x3c>
    5824:	7a6010ef          	jal	ra,6fca <iprintf>
    5828:	a001                	j	5828 <xTaskGenericNotify+0x30>
    582a:	e505                	bnez	a0,5852 <xTaskGenericNotify+0x5a>
    582c:	6789                	lui	a5,0x2
    582e:	80078793          	addi	a5,a5,-2048 # 1800 <SystemCoreClockUpdate+0x1e>
    5832:	30079073          	csrw	mstatus,a5
    5836:	00008637          	lui	a2,0x8
    583a:	6585                	lui	a1,0x1
    583c:	00008537          	lui	a0,0x8
    5840:	34860613          	addi	a2,a2,840 # 8348 <timers+0xc4>
    5844:	30958593          	addi	a1,a1,777 # 1309 <vInputsTask+0x11>
    5848:	2c050513          	addi	a0,a0,704 # 82c0 <timers+0x3c>
    584c:	77e010ef          	jal	ra,6fca <iprintf>
    5850:	a001                	j	5850 <xTaskGenericNotify+0x58>
    5852:	ce3a                	sw	a4,28(sp)
    5854:	cc36                	sw	a3,24(sp)
    5856:	ca32                	sw	a2,20(sp)
    5858:	c82e                	sw	a1,16(sp)
    585a:	c62a                	sw	a0,12(sp)
    585c:	e13fe0ef          	jal	ra,466e <vPortEnterCritical>
    5860:	4772                	lw	a4,28(sp)
    5862:	4532                	lw	a0,12(sp)
    5864:	45c2                	lw	a1,16(sp)
    5866:	4652                	lw	a2,20(sp)
    5868:	46e2                	lw	a3,24(sp)
    586a:	c719                	beqz	a4,5878 <xTaskGenericNotify+0x80>
    586c:	01058793          	addi	a5,a1,16
    5870:	078a                	slli	a5,a5,0x2
    5872:	97aa                	add	a5,a5,a0
    5874:	47dc                	lw	a5,12(a5)
    5876:	c31c                	sw	a5,0(a4)
    5878:	00b50733          	add	a4,a0,a1
    587c:	05874783          	lbu	a5,88(a4) # 4058 <HAL_SPI_InitDMA+0x74>
    5880:	4809                	li	a6,2
    5882:	05070c23          	sb	a6,88(a4)
    5886:	4711                	li	a4,4
    5888:	0ff7f793          	andi	a5,a5,255
    588c:	04d76763          	bltu	a4,a3,58da <xTaskGenericNotify+0xe2>
    5890:	6721                	lui	a4,0x8
    5892:	32070713          	addi	a4,a4,800 # 8320 <timers+0x9c>
    5896:	068a                	slli	a3,a3,0x2
    5898:	96ba                	add	a3,a3,a4
    589a:	4298                	lw	a4,0(a3)
    589c:	8702                	jr	a4
    589e:	058a                	slli	a1,a1,0x2
    58a0:	95aa                	add	a1,a1,a0
    58a2:	45f8                	lw	a4,76(a1)
    58a4:	8e59                	or	a2,a2,a4
    58a6:	c5f0                	sw	a2,76(a1)
    58a8:	4705                	li	a4,1
    58aa:	06e78063          	beq	a5,a4,590a <xTaskGenericNotify+0x112>
    58ae:	4505                	li	a0,1
    58b0:	c62a                	sw	a0,12(sp)
    58b2:	dd3fe0ef          	jal	ra,4684 <vPortExitCritical>
    58b6:	4532                	lw	a0,12(sp)
    58b8:	6105                	addi	sp,sp,32
    58ba:	c89fa06f          	j	542 <__riscv_restore_0>
    58be:	058a                	slli	a1,a1,0x2
    58c0:	95aa                	add	a1,a1,a0
    58c2:	45f8                	lw	a4,76(a1)
    58c4:	0705                	addi	a4,a4,1
    58c6:	c5f8                	sw	a4,76(a1)
    58c8:	b7c5                	j	58a8 <xTaskGenericNotify+0xb0>
    58ca:	4709                	li	a4,2
    58cc:	0ce78e63          	beq	a5,a4,59a8 <xTaskGenericNotify+0x1b0>
    58d0:	05c1                	addi	a1,a1,16
    58d2:	058a                	slli	a1,a1,0x2
    58d4:	95aa                	add	a1,a1,a0
    58d6:	c5d0                	sw	a2,12(a1)
    58d8:	bfc1                	j	58a8 <xTaskGenericNotify+0xb0>
    58da:	20000737          	lui	a4,0x20000
    58de:	63c72703          	lw	a4,1596(a4) # 2000063c <xTickCount>
    58e2:	d379                	beqz	a4,58a8 <xTaskGenericNotify+0xb0>
    58e4:	6789                	lui	a5,0x2
    58e6:	80078793          	addi	a5,a5,-2048 # 1800 <SystemCoreClockUpdate+0x1e>
    58ea:	30079073          	csrw	mstatus,a5
    58ee:	00008637          	lui	a2,0x8
    58f2:	6585                	lui	a1,0x1
    58f4:	00008537          	lui	a0,0x8
    58f8:	34860613          	addi	a2,a2,840 # 8348 <timers+0xc4>
    58fc:	33e58593          	addi	a1,a1,830 # 133e <vInputsTask+0x46>
    5900:	2c050513          	addi	a0,a0,704 # 82c0 <timers+0x3c>
    5904:	6c6010ef          	jal	ra,6fca <iprintf>
    5908:	a001                	j	5908 <xTaskGenericNotify+0x110>
    590a:	4514                	lw	a3,8(a0)
    590c:	4558                	lw	a4,12(a0)
    590e:	495c                	lw	a5,20(a0)
    5910:	00450613          	addi	a2,a0,4
    5914:	c698                	sw	a4,8(a3)
    5916:	4558                	lw	a4,12(a0)
    5918:	c354                	sw	a3,4(a4)
    591a:	43d4                	lw	a3,4(a5)
    591c:	00c69363          	bne	a3,a2,5922 <xTaskGenericNotify+0x12a>
    5920:	c3d8                	sw	a4,4(a5)
    5922:	4398                	lw	a4,0(a5)
    5924:	00052a23          	sw	zero,20(a0)
    5928:	177d                	addi	a4,a4,-1
    592a:	c398                	sw	a4,0(a5)
    592c:	200007b7          	lui	a5,0x20000
    5930:	62878793          	addi	a5,a5,1576 # 20000628 <uxTopReadyPriority>
    5934:	5558                	lw	a4,44(a0)
    5936:	4394                	lw	a3,0(a5)
    5938:	00e6f363          	bgeu	a3,a4,593e <xTaskGenericNotify+0x146>
    593c:	c398                	sw	a4,0(a5)
    593e:	47d1                	li	a5,20
    5940:	02f706b3          	mul	a3,a4,a5
    5944:	200017b7          	lui	a5,0x20001
    5948:	7f478793          	addi	a5,a5,2036 # 200017f4 <pxReadyTasksLists>
    594c:	97b6                	add	a5,a5,a3
    594e:	43d4                	lw	a3,4(a5)
    5950:	468c                	lw	a1,8(a3)
    5952:	c514                	sw	a3,8(a0)
    5954:	c54c                	sw	a1,12(a0)
    5956:	468c                	lw	a1,8(a3)
    5958:	c1d0                	sw	a2,4(a1)
    595a:	c690                	sw	a2,8(a3)
    595c:	4394                	lw	a3,0(a5)
    595e:	c95c                	sw	a5,20(a0)
    5960:	0685                	addi	a3,a3,1
    5962:	c394                	sw	a3,0(a5)
    5964:	551c                	lw	a5,40(a0)
    5966:	c785                	beqz	a5,598e <xTaskGenericNotify+0x196>
    5968:	6789                	lui	a5,0x2
    596a:	80078793          	addi	a5,a5,-2048 # 1800 <SystemCoreClockUpdate+0x1e>
    596e:	30079073          	csrw	mstatus,a5
    5972:	00008637          	lui	a2,0x8
    5976:	6585                	lui	a1,0x1
    5978:	00008537          	lui	a0,0x8
    597c:	34860613          	addi	a2,a2,840 # 8348 <timers+0xc4>
    5980:	34d58593          	addi	a1,a1,845 # 134d <vInputsTask+0x55>
    5984:	2c050513          	addi	a0,a0,704 # 82c0 <timers+0x3c>
    5988:	642010ef          	jal	ra,6fca <iprintf>
    598c:	a001                	j	598c <xTaskGenericNotify+0x194>
    598e:	200007b7          	lui	a5,0x20000
    5992:	6107a783          	lw	a5,1552(a5) # 20000610 <pxCurrentTCB>
    5996:	57dc                	lw	a5,44(a5)
    5998:	f0e7fbe3          	bgeu	a5,a4,58ae <xTaskGenericNotify+0xb6>
    599c:	e000e7b7          	lui	a5,0xe000e
    59a0:	6711                	lui	a4,0x4
    59a2:	20e7a023          	sw	a4,512(a5) # e000e200 <__freertos_irq_stack_top+0xc0009200>
    59a6:	b721                	j	58ae <xTaskGenericNotify+0xb6>
    59a8:	4501                	li	a0,0
    59aa:	b719                	j	58b0 <xTaskGenericNotify+0xb8>

000059ac <xTaskGenericNotifyFromISR>:
    59ac:	b73fa2ef          	jal	t0,51e <__riscv_save_0>
    59b0:	1101                	addi	sp,sp,-32
    59b2:	e505                	bnez	a0,59da <xTaskGenericNotifyFromISR+0x2e>
    59b4:	6789                	lui	a5,0x2
    59b6:	80078793          	addi	a5,a5,-2048 # 1800 <SystemCoreClockUpdate+0x1e>
    59ba:	30079073          	csrw	mstatus,a5
    59be:	00008637          	lui	a2,0x8
    59c2:	6585                	lui	a1,0x1
    59c4:	00008537          	lui	a0,0x8
    59c8:	34860613          	addi	a2,a2,840 # 8348 <timers+0xc4>
    59cc:	38558593          	addi	a1,a1,901 # 1385 <SPI1_DMA_Callback+0x1>
    59d0:	2c050513          	addi	a0,a0,704 # 82c0 <timers+0x3c>
    59d4:	5f6010ef          	jal	ra,6fca <iprintf>
    59d8:	a001                	j	59d8 <xTaskGenericNotifyFromISR+0x2c>
    59da:	842a                	mv	s0,a0
    59dc:	4509                	li	a0,2
    59de:	02b57563          	bgeu	a0,a1,5a08 <xTaskGenericNotifyFromISR+0x5c>
    59e2:	6789                	lui	a5,0x2
    59e4:	80078793          	addi	a5,a5,-2048 # 1800 <SystemCoreClockUpdate+0x1e>
    59e8:	30079073          	csrw	mstatus,a5
    59ec:	00008637          	lui	a2,0x8
    59f0:	6585                	lui	a1,0x1
    59f2:	00008537          	lui	a0,0x8
    59f6:	34860613          	addi	a2,a2,840 # 8348 <timers+0xc4>
    59fa:	38658593          	addi	a1,a1,902 # 1386 <SPI1_DMA_Callback+0x2>
    59fe:	2c050513          	addi	a0,a0,704 # 82c0 <timers+0x3c>
    5a02:	5c8010ef          	jal	ra,6fca <iprintf>
    5a06:	a001                	j	5a06 <xTaskGenericNotifyFromISR+0x5a>
    5a08:	ce3e                	sw	a5,28(sp)
    5a0a:	cc3a                	sw	a4,24(sp)
    5a0c:	ca36                	sw	a3,20(sp)
    5a0e:	c832                	sw	a2,16(sp)
    5a10:	c62e                	sw	a1,12(sp)
    5a12:	cb5fe0ef          	jal	ra,46c6 <xPortSetInterruptMask>
    5a16:	4762                	lw	a4,24(sp)
    5a18:	45b2                	lw	a1,12(sp)
    5a1a:	4642                	lw	a2,16(sp)
    5a1c:	46d2                	lw	a3,20(sp)
    5a1e:	47f2                	lw	a5,28(sp)
    5a20:	cb09                	beqz	a4,5a32 <xTaskGenericNotifyFromISR+0x86>
    5a22:	01058813          	addi	a6,a1,16
    5a26:	080a                	slli	a6,a6,0x2
    5a28:	9822                	add	a6,a6,s0
    5a2a:	00c82803          	lw	a6,12(a6)
    5a2e:	01072023          	sw	a6,0(a4) # 4000 <HAL_SPI_InitDMA+0x1c>
    5a32:	00b40833          	add	a6,s0,a1
    5a36:	05884703          	lbu	a4,88(a6)
    5a3a:	4889                	li	a7,2
    5a3c:	05180c23          	sb	a7,88(a6)
    5a40:	4811                	li	a6,4
    5a42:	0ff77713          	andi	a4,a4,255
    5a46:	04d86663          	bltu	a6,a3,5a92 <xTaskGenericNotifyFromISR+0xe6>
    5a4a:	6821                	lui	a6,0x8
    5a4c:	068a                	slli	a3,a3,0x2
    5a4e:	33480813          	addi	a6,a6,820 # 8334 <timers+0xb0>
    5a52:	96c2                	add	a3,a3,a6
    5a54:	4294                	lw	a3,0(a3)
    5a56:	8682                	jr	a3
    5a58:	058a                	slli	a1,a1,0x2
    5a5a:	95a2                	add	a1,a1,s0
    5a5c:	45f4                	lw	a3,76(a1)
    5a5e:	8e55                	or	a2,a2,a3
    5a60:	c5f0                	sw	a2,76(a1)
    5a62:	4685                	li	a3,1
    5a64:	04d70f63          	beq	a4,a3,5ac2 <xTaskGenericNotifyFromISR+0x116>
    5a68:	4405                	li	s0,1
    5a6a:	c69fe0ef          	jal	ra,46d2 <vPortClearInterruptMask>
    5a6e:	8522                	mv	a0,s0
    5a70:	6105                	addi	sp,sp,32
    5a72:	ad1fa06f          	j	542 <__riscv_restore_0>
    5a76:	058a                	slli	a1,a1,0x2
    5a78:	95a2                	add	a1,a1,s0
    5a7a:	45f4                	lw	a3,76(a1)
    5a7c:	0685                	addi	a3,a3,1
    5a7e:	c5f4                	sw	a3,76(a1)
    5a80:	b7cd                	j	5a62 <xTaskGenericNotifyFromISR+0xb6>
    5a82:	4689                	li	a3,2
    5a84:	10d70c63          	beq	a4,a3,5b9c <xTaskGenericNotifyFromISR+0x1f0>
    5a88:	05c1                	addi	a1,a1,16
    5a8a:	058a                	slli	a1,a1,0x2
    5a8c:	95a2                	add	a1,a1,s0
    5a8e:	c5d0                	sw	a2,12(a1)
    5a90:	bfc9                	j	5a62 <xTaskGenericNotifyFromISR+0xb6>
    5a92:	200006b7          	lui	a3,0x20000
    5a96:	63c6a683          	lw	a3,1596(a3) # 2000063c <xTickCount>
    5a9a:	d6e1                	beqz	a3,5a62 <xTaskGenericNotifyFromISR+0xb6>
    5a9c:	6789                	lui	a5,0x2
    5a9e:	80078793          	addi	a5,a5,-2048 # 1800 <SystemCoreClockUpdate+0x1e>
    5aa2:	30079073          	csrw	mstatus,a5
    5aa6:	00008637          	lui	a2,0x8
    5aaa:	6585                	lui	a1,0x1
    5aac:	00008537          	lui	a0,0x8
    5ab0:	34860613          	addi	a2,a2,840 # 8348 <timers+0xc4>
    5ab4:	3cd58593          	addi	a1,a1,973 # 13cd <SPI2_DMA_Callback+0x11>
    5ab8:	2c050513          	addi	a0,a0,704 # 82c0 <timers+0x3c>
    5abc:	50e010ef          	jal	ra,6fca <iprintf>
    5ac0:	a001                	j	5ac0 <xTaskGenericNotifyFromISR+0x114>
    5ac2:	5418                	lw	a4,40(s0)
    5ac4:	c705                	beqz	a4,5aec <xTaskGenericNotifyFromISR+0x140>
    5ac6:	6789                	lui	a5,0x2
    5ac8:	80078793          	addi	a5,a5,-2048 # 1800 <SystemCoreClockUpdate+0x1e>
    5acc:	30079073          	csrw	mstatus,a5
    5ad0:	00008637          	lui	a2,0x8
    5ad4:	6585                	lui	a1,0x1
    5ad6:	00008537          	lui	a0,0x8
    5ada:	34860613          	addi	a2,a2,840 # 8348 <timers+0xc4>
    5ade:	3d858593          	addi	a1,a1,984 # 13d8 <SPI2_DMA_Callback+0x1c>
    5ae2:	2c050513          	addi	a0,a0,704 # 82c0 <timers+0x3c>
    5ae6:	4e4010ef          	jal	ra,6fca <iprintf>
    5aea:	a001                	j	5aea <xTaskGenericNotifyFromISR+0x13e>
    5aec:	20000737          	lui	a4,0x20000
    5af0:	62072703          	lw	a4,1568(a4) # 20000620 <uxSchedulerSuspended>
    5af4:	5450                	lw	a2,44(s0)
    5af6:	e351                	bnez	a4,5b7a <xTaskGenericNotifyFromISR+0x1ce>
    5af8:	440c                	lw	a1,8(s0)
    5afa:	4454                	lw	a3,12(s0)
    5afc:	4858                	lw	a4,20(s0)
    5afe:	c594                	sw	a3,8(a1)
    5b00:	4454                	lw	a3,12(s0)
    5b02:	00472803          	lw	a6,4(a4)
    5b06:	c2cc                	sw	a1,4(a3)
    5b08:	00440593          	addi	a1,s0,4
    5b0c:	00b81363          	bne	a6,a1,5b12 <xTaskGenericNotifyFromISR+0x166>
    5b10:	c354                	sw	a3,4(a4)
    5b12:	4314                	lw	a3,0(a4)
    5b14:	00042a23          	sw	zero,20(s0)
    5b18:	16fd                	addi	a3,a3,-1
    5b1a:	c314                	sw	a3,0(a4)
    5b1c:	20000737          	lui	a4,0x20000
    5b20:	62870713          	addi	a4,a4,1576 # 20000628 <uxTopReadyPriority>
    5b24:	4314                	lw	a3,0(a4)
    5b26:	00c6f363          	bgeu	a3,a2,5b2c <xTaskGenericNotifyFromISR+0x180>
    5b2a:	c310                	sw	a2,0(a4)
    5b2c:	4751                	li	a4,20
    5b2e:	02e606b3          	mul	a3,a2,a4
    5b32:	20001737          	lui	a4,0x20001
    5b36:	7f470713          	addi	a4,a4,2036 # 200017f4 <pxReadyTasksLists>
    5b3a:	9736                	add	a4,a4,a3
    5b3c:	4354                	lw	a3,4(a4)
    5b3e:	0086a803          	lw	a6,8(a3)
    5b42:	c414                	sw	a3,8(s0)
    5b44:	01042623          	sw	a6,12(s0)
    5b48:	0086a803          	lw	a6,8(a3)
    5b4c:	00b82223          	sw	a1,4(a6)
    5b50:	c68c                	sw	a1,8(a3)
    5b52:	c858                	sw	a4,20(s0)
    5b54:	4314                	lw	a3,0(a4)
    5b56:	0685                	addi	a3,a3,1
    5b58:	c314                	sw	a3,0(a4)
    5b5a:	20000737          	lui	a4,0x20000
    5b5e:	61072703          	lw	a4,1552(a4) # 20000610 <pxCurrentTCB>
    5b62:	5758                	lw	a4,44(a4)
    5b64:	f0c772e3          	bgeu	a4,a2,5a68 <xTaskGenericNotifyFromISR+0xbc>
    5b68:	c399                	beqz	a5,5b6e <xTaskGenericNotifyFromISR+0x1c2>
    5b6a:	4705                	li	a4,1
    5b6c:	c398                	sw	a4,0(a5)
    5b6e:	200007b7          	lui	a5,0x20000
    5b72:	4705                	li	a4,1
    5b74:	64e7a023          	sw	a4,1600(a5) # 20000640 <xYieldPending>
    5b78:	bdc5                	j	5a68 <xTaskGenericNotifyFromISR+0xbc>
    5b7a:	20002737          	lui	a4,0x20002
    5b7e:	94870713          	addi	a4,a4,-1720 # 20001948 <xPendingReadyList>
    5b82:	4354                	lw	a3,4(a4)
    5b84:	468c                	lw	a1,8(a3)
    5b86:	cc54                	sw	a3,28(s0)
    5b88:	d00c                	sw	a1,32(s0)
    5b8a:	0086a803          	lw	a6,8(a3)
    5b8e:	01840593          	addi	a1,s0,24
    5b92:	00b82223          	sw	a1,4(a6)
    5b96:	c68c                	sw	a1,8(a3)
    5b98:	d418                	sw	a4,40(s0)
    5b9a:	bf6d                	j	5b54 <xTaskGenericNotifyFromISR+0x1a8>
    5b9c:	4401                	li	s0,0
    5b9e:	b5f1                	j	5a6a <xTaskGenericNotifyFromISR+0xbe>

00005ba0 <ulTaskGenericNotifyValueClear>:
    5ba0:	97ffa2ef          	jal	t0,51e <__riscv_save_0>
    5ba4:	1141                	addi	sp,sp,-16
    5ba6:	e509                	bnez	a0,5bb0 <ulTaskGenericNotifyValueClear+0x10>
    5ba8:	200007b7          	lui	a5,0x20000
    5bac:	6107a503          	lw	a0,1552(a5) # 20000610 <pxCurrentTCB>
    5bb0:	c632                	sw	a2,12(sp)
    5bb2:	c42e                	sw	a1,8(sp)
    5bb4:	c22a                	sw	a0,4(sp)
    5bb6:	ab9fe0ef          	jal	ra,466e <vPortEnterCritical>
    5bba:	45a2                	lw	a1,8(sp)
    5bbc:	4512                	lw	a0,4(sp)
    5bbe:	4632                	lw	a2,12(sp)
    5bc0:	058a                	slli	a1,a1,0x2
    5bc2:	95aa                	add	a1,a1,a0
    5bc4:	45e8                	lw	a0,76(a1)
    5bc6:	45fc                	lw	a5,76(a1)
    5bc8:	fff64613          	not	a2,a2
    5bcc:	c22a                	sw	a0,4(sp)
    5bce:	8e7d                	and	a2,a2,a5
    5bd0:	c5f0                	sw	a2,76(a1)
    5bd2:	ab3fe0ef          	jal	ra,4684 <vPortExitCritical>
    5bd6:	4512                	lw	a0,4(sp)
    5bd8:	0141                	addi	sp,sp,16
    5bda:	969fa06f          	j	542 <__riscv_restore_0>

00005bde <prvCheckForValidListAndQueue>:
    5bde:	941fa2ef          	jal	t0,51e <__riscv_save_0>
    5be2:	20000437          	lui	s0,0x20000
    5be6:	a89fe0ef          	jal	ra,466e <vPortEnterCritical>
    5bea:	65040413          	addi	s0,s0,1616 # 20000650 <xTimerQueue>
    5bee:	401c                	lw	a5,0(s0)
    5bf0:	efb1                	bnez	a5,5c4c <prvCheckForValidListAndQueue+0x6e>
    5bf2:	20002537          	lui	a0,0x20002
    5bf6:	9b050913          	addi	s2,a0,-1616 # 200019b0 <xActiveTimerList1>
    5bfa:	9b050513          	addi	a0,a0,-1616
    5bfe:	adbfe0ef          	jal	ra,46d8 <vListInitialise>
    5c02:	20002537          	lui	a0,0x20002
    5c06:	9c450493          	addi	s1,a0,-1596 # 200019c4 <xActiveTimerList2>
    5c0a:	9c450513          	addi	a0,a0,-1596
    5c0e:	acbfe0ef          	jal	ra,46d8 <vListInitialise>
    5c12:	200007b7          	lui	a5,0x20000
    5c16:	200026b7          	lui	a3,0x20002
    5c1a:	20002637          	lui	a2,0x20002
    5c1e:	6527a223          	sw	s2,1604(a5) # 20000644 <pxCurrentTimerList>
    5c22:	4701                	li	a4,0
    5c24:	200007b7          	lui	a5,0x20000
    5c28:	9d868693          	addi	a3,a3,-1576 # 200019d8 <xStaticTimerQueue.5817>
    5c2c:	97060613          	addi	a2,a2,-1680 # 20001970 <ucStaticTimerQueueStorage.5818>
    5c30:	45c1                	li	a1,16
    5c32:	4511                	li	a0,4
    5c34:	6497a423          	sw	s1,1608(a5) # 20000648 <pxOverflowTimerList>
    5c38:	c89fe0ef          	jal	ra,48c0 <xQueueGenericCreateStatic>
    5c3c:	c008                	sw	a0,0(s0)
    5c3e:	c519                	beqz	a0,5c4c <prvCheckForValidListAndQueue+0x6e>
    5c40:	000085b7          	lui	a1,0x8
    5c44:	38858593          	addi	a1,a1,904 # 8388 <timers+0x104>
    5c48:	e87fe0ef          	jal	ra,4ace <vQueueAddToRegistry>
    5c4c:	a39fe0ef          	jal	ra,4684 <vPortExitCritical>
    5c50:	8f3fa06f          	j	542 <__riscv_restore_0>

00005c54 <prvInsertTimerInActiveList>:
    5c54:	8cbfa2ef          	jal	t0,51e <__riscv_save_0>
    5c58:	c14c                	sw	a1,4(a0)
    5c5a:	c908                	sw	a0,16(a0)
    5c5c:	87aa                	mv	a5,a0
    5c5e:	02b66263          	bltu	a2,a1,5c82 <prvInsertTimerInActiveList+0x2e>
    5c62:	4d18                	lw	a4,24(a0)
    5c64:	8e15                	sub	a2,a2,a3
    5c66:	4505                	li	a0,1
    5c68:	00e67b63          	bgeu	a2,a4,5c7e <prvInsertTimerInActiveList+0x2a>
    5c6c:	00478593          	addi	a1,a5,4
    5c70:	200007b7          	lui	a5,0x20000
    5c74:	6487a503          	lw	a0,1608(a5) # 20000648 <pxOverflowTimerList>
    5c78:	a7bfe0ef          	jal	ra,46f2 <vListInsert>
    5c7c:	4501                	li	a0,0
    5c7e:	8c5fa06f          	j	542 <__riscv_restore_0>
    5c82:	00d67563          	bgeu	a2,a3,5c8c <prvInsertTimerInActiveList+0x38>
    5c86:	4505                	li	a0,1
    5c88:	fed5fbe3          	bgeu	a1,a3,5c7e <prvInsertTimerInActiveList+0x2a>
    5c8c:	00478593          	addi	a1,a5,4
    5c90:	200007b7          	lui	a5,0x20000
    5c94:	6447a503          	lw	a0,1604(a5) # 20000644 <pxCurrentTimerList>
    5c98:	b7c5                	j	5c78 <prvInsertTimerInActiveList+0x24>

00005c9a <prvReloadTimer>:
    5c9a:	885fa2ef          	jal	t0,51e <__riscv_save_0>
    5c9e:	842a                	mv	s0,a0
    5ca0:	84ae                	mv	s1,a1
    5ca2:	8932                	mv	s2,a2
    5ca4:	4c0c                	lw	a1,24(s0)
    5ca6:	86a6                	mv	a3,s1
    5ca8:	864a                	mv	a2,s2
    5caa:	95a6                	add	a1,a1,s1
    5cac:	8522                	mv	a0,s0
    5cae:	fa7ff0ef          	jal	ra,5c54 <prvInsertTimerInActiveList>
    5cb2:	e119                	bnez	a0,5cb8 <prvReloadTimer+0x1e>
    5cb4:	88ffa06f          	j	542 <__riscv_restore_0>
    5cb8:	4c1c                	lw	a5,24(s0)
    5cba:	8522                	mv	a0,s0
    5cbc:	94be                	add	s1,s1,a5
    5cbe:	501c                	lw	a5,32(s0)
    5cc0:	9782                	jalr	a5
    5cc2:	b7cd                	j	5ca4 <prvReloadTimer+0xa>

00005cc4 <prvProcessExpiredTimer>:
    5cc4:	85bfa2ef          	jal	t0,51e <__riscv_save_0>
    5cc8:	200007b7          	lui	a5,0x20000
    5ccc:	6447a783          	lw	a5,1604(a5) # 20000644 <pxCurrentTimerList>
    5cd0:	1141                	addi	sp,sp,-16
    5cd2:	84aa                	mv	s1,a0
    5cd4:	47dc                	lw	a5,12(a5)
    5cd6:	c62e                	sw	a1,12(sp)
    5cd8:	47c0                	lw	s0,12(a5)
    5cda:	00440513          	addi	a0,s0,4
    5cde:	a43fe0ef          	jal	ra,4720 <uxListRemove>
    5ce2:	02444783          	lbu	a5,36(s0)
    5ce6:	4632                	lw	a2,12(sp)
    5ce8:	0047f713          	andi	a4,a5,4
    5cec:	cb19                	beqz	a4,5d02 <prvProcessExpiredTimer+0x3e>
    5cee:	85a6                	mv	a1,s1
    5cf0:	8522                	mv	a0,s0
    5cf2:	fa9ff0ef          	jal	ra,5c9a <prvReloadTimer>
    5cf6:	501c                	lw	a5,32(s0)
    5cf8:	8522                	mv	a0,s0
    5cfa:	9782                	jalr	a5
    5cfc:	0141                	addi	sp,sp,16
    5cfe:	845fa06f          	j	542 <__riscv_restore_0>
    5d02:	9bf9                	andi	a5,a5,-2
    5d04:	02f40223          	sb	a5,36(s0)
    5d08:	b7fd                	j	5cf6 <prvProcessExpiredTimer+0x32>

00005d0a <prvSwitchTimerLists>:
    5d0a:	815fa2ef          	jal	t0,51e <__riscv_save_0>
    5d0e:	20000437          	lui	s0,0x20000
    5d12:	64440693          	addi	a3,s0,1604 # 20000644 <pxCurrentTimerList>
    5d16:	4298                	lw	a4,0(a3)
    5d18:	431c                	lw	a5,0(a4)
    5d1a:	eb91                	bnez	a5,5d2e <prvSwitchTimerLists+0x24>
    5d1c:	200007b7          	lui	a5,0x20000
    5d20:	64878793          	addi	a5,a5,1608 # 20000648 <pxOverflowTimerList>
    5d24:	4390                	lw	a2,0(a5)
    5d26:	c398                	sw	a4,0(a5)
    5d28:	c290                	sw	a2,0(a3)
    5d2a:	819fa06f          	j	542 <__riscv_restore_0>
    5d2e:	475c                	lw	a5,12(a4)
    5d30:	55fd                	li	a1,-1
    5d32:	4388                	lw	a0,0(a5)
    5d34:	f91ff0ef          	jal	ra,5cc4 <prvProcessExpiredTimer>
    5d38:	bfe9                	j	5d12 <prvSwitchTimerLists+0x8>

00005d3a <prvTimerTask>:
    5d3a:	fbcfa2ef          	jal	t0,4f6 <__riscv_save_10>
    5d3e:	6921                	lui	s2,0x8
    5d40:	1141                	addi	sp,sp,-16
    5d42:	20000ab7          	lui	s5,0x20000
    5d46:	200009b7          	lui	s3,0x20000
    5d4a:	20000b37          	lui	s6,0x20000
    5d4e:	20000bb7          	lui	s7,0x20000
    5d52:	36490913          	addi	s2,s2,868 # 8364 <timers+0xe0>
    5d56:	644aa783          	lw	a5,1604(s5) # 20000644 <pxCurrentTimerList>
    5d5a:	4398                	lw	a4,0(a5)
    5d5c:	cb29                	beqz	a4,5dae <prvTimerTask+0x74>
    5d5e:	47dc                	lw	a5,12(a5)
    5d60:	4c81                	li	s9,0
    5d62:	0007ac03          	lw	s8,0(a5)
    5d66:	a22ff0ef          	jal	ra,4f88 <vTaskSuspendAll>
    5d6a:	a2eff0ef          	jal	ra,4f98 <xTaskGetTickCount>
    5d6e:	64c9a783          	lw	a5,1612(s3) # 2000064c <xLastTime.5774>
    5d72:	842a                	mv	s0,a0
    5d74:	64c98493          	addi	s1,s3,1612
    5d78:	650b0a13          	addi	s4,s6,1616 # 20000650 <xTimerQueue>
    5d7c:	02f56c63          	bltu	a0,a5,5db4 <prvTimerTask+0x7a>
    5d80:	c088                	sw	a0,0(s1)
    5d82:	040c8063          	beqz	s9,5dc2 <prvTimerTask+0x88>
    5d86:	648ba783          	lw	a5,1608(s7) # 20000648 <pxOverflowTimerList>
    5d8a:	4390                	lw	a2,0(a5)
    5d8c:	00163613          	seqz	a2,a2
    5d90:	000a2503          	lw	a0,0(s4)
    5d94:	408c05b3          	sub	a1,s8,s0
    5d98:	da3fe0ef          	jal	ra,4b3a <vQueueWaitForMessageRestricted>
    5d9c:	bb2ff0ef          	jal	ra,514e <xTaskResumeAll>
    5da0:	ed19                	bnez	a0,5dbe <prvTimerTask+0x84>
    5da2:	e000e7b7          	lui	a5,0xe000e
    5da6:	6711                	lui	a4,0x4
    5da8:	20e7a023          	sw	a4,512(a5) # e000e200 <__freertos_irq_stack_top+0xc0009200>
    5dac:	a809                	j	5dbe <prvTimerTask+0x84>
    5dae:	4c85                	li	s9,1
    5db0:	4c01                	li	s8,0
    5db2:	bf55                	j	5d66 <prvTimerTask+0x2c>
    5db4:	f57ff0ef          	jal	ra,5d0a <prvSwitchTimerLists>
    5db8:	c080                	sw	s0,0(s1)
    5dba:	b94ff0ef          	jal	ra,514e <xTaskResumeAll>
    5dbe:	4c21                	li	s8,8
    5dc0:	a00d                	j	5de2 <prvTimerTask+0xa8>
    5dc2:	4601                	li	a2,0
    5dc4:	fd8566e3          	bltu	a0,s8,5d90 <prvTimerTask+0x56>
    5dc8:	b86ff0ef          	jal	ra,514e <xTaskResumeAll>
    5dcc:	85a2                	mv	a1,s0
    5dce:	8562                	mv	a0,s8
    5dd0:	ef5ff0ef          	jal	ra,5cc4 <prvProcessExpiredTimer>
    5dd4:	b7ed                	j	5dbe <prvTimerTask+0x84>
    5dd6:	4792                	lw	a5,4(sp)
    5dd8:	45b2                	lw	a1,12(sp)
    5dda:	9782                	jalr	a5
    5ddc:	4782                	lw	a5,0(sp)
    5dde:	0007dd63          	bgez	a5,5df8 <prvTimerTask+0xbe>
    5de2:	000a2503          	lw	a0,0(s4)
    5de6:	4601                	li	a2,0
    5de8:	858a                	mv	a1,sp
    5dea:	b85fe0ef          	jal	ra,496e <xQueueReceive>
    5dee:	d525                	beqz	a0,5d56 <prvTimerTask+0x1c>
    5df0:	4782                	lw	a5,0(sp)
    5df2:	4522                	lw	a0,8(sp)
    5df4:	fe07c1e3          	bltz	a5,5dd6 <prvTimerTask+0x9c>
    5df8:	4422                	lw	s0,8(sp)
    5dfa:	485c                	lw	a5,20(s0)
    5dfc:	e39d                	bnez	a5,5e22 <prvTimerTask+0xe8>
    5dfe:	99aff0ef          	jal	ra,4f98 <xTaskGetTickCount>
    5e02:	409c                	lw	a5,0(s1)
    5e04:	8caa                	mv	s9,a0
    5e06:	00f57463          	bgeu	a0,a5,5e0e <prvTimerTask+0xd4>
    5e0a:	f01ff0ef          	jal	ra,5d0a <prvSwitchTimerLists>
    5e0e:	4782                	lw	a5,0(sp)
    5e10:	0194a023          	sw	s9,0(s1)
    5e14:	17fd                	addi	a5,a5,-1
    5e16:	fcfc66e3          	bltu	s8,a5,5de2 <prvTimerTask+0xa8>
    5e1a:	078a                	slli	a5,a5,0x2
    5e1c:	97ca                	add	a5,a5,s2
    5e1e:	439c                	lw	a5,0(a5)
    5e20:	8782                	jr	a5
    5e22:	00440513          	addi	a0,s0,4
    5e26:	8fbfe0ef          	jal	ra,4720 <uxListRemove>
    5e2a:	bfd1                	j	5dfe <prvTimerTask+0xc4>
    5e2c:	02444783          	lbu	a5,36(s0)
    5e30:	4c0c                	lw	a1,24(s0)
    5e32:	4692                	lw	a3,4(sp)
    5e34:	0017e793          	ori	a5,a5,1
    5e38:	02f40223          	sb	a5,36(s0)
    5e3c:	8666                	mv	a2,s9
    5e3e:	95b6                	add	a1,a1,a3
    5e40:	8522                	mv	a0,s0
    5e42:	e13ff0ef          	jal	ra,5c54 <prvInsertTimerInActiveList>
    5e46:	dd51                	beqz	a0,5de2 <prvTimerTask+0xa8>
    5e48:	02444783          	lbu	a5,36(s0)
    5e4c:	0047f713          	andi	a4,a5,4
    5e50:	cf01                	beqz	a4,5e68 <prvTimerTask+0x12e>
    5e52:	4c1c                	lw	a5,24(s0)
    5e54:	4592                	lw	a1,4(sp)
    5e56:	8666                	mv	a2,s9
    5e58:	8522                	mv	a0,s0
    5e5a:	95be                	add	a1,a1,a5
    5e5c:	e3fff0ef          	jal	ra,5c9a <prvReloadTimer>
    5e60:	501c                	lw	a5,32(s0)
    5e62:	8522                	mv	a0,s0
    5e64:	9782                	jalr	a5
    5e66:	bfb5                	j	5de2 <prvTimerTask+0xa8>
    5e68:	9bf9                	andi	a5,a5,-2
    5e6a:	02f40223          	sb	a5,36(s0)
    5e6e:	bfcd                	j	5e60 <prvTimerTask+0x126>
    5e70:	02444783          	lbu	a5,36(s0)
    5e74:	9bf9                	andi	a5,a5,-2
    5e76:	02f40223          	sb	a5,36(s0)
    5e7a:	b7a5                	j	5de2 <prvTimerTask+0xa8>
    5e7c:	02444783          	lbu	a5,36(s0)
    5e80:	4592                	lw	a1,4(sp)
    5e82:	0017e793          	ori	a5,a5,1
    5e86:	02f40223          	sb	a5,36(s0)
    5e8a:	cc0c                	sw	a1,24(s0)
    5e8c:	e19d                	bnez	a1,5eb2 <prvTimerTask+0x178>
    5e8e:	6789                	lui	a5,0x2
    5e90:	80078793          	addi	a5,a5,-2048 # 1800 <SystemCoreClockUpdate+0x1e>
    5e94:	30079073          	csrw	mstatus,a5
    5e98:	00008637          	lui	a2,0x8
    5e9c:	00008537          	lui	a0,0x8
    5ea0:	39060613          	addi	a2,a2,912 # 8390 <timers+0x10c>
    5ea4:	35900593          	li	a1,857
    5ea8:	2c050513          	addi	a0,a0,704 # 82c0 <timers+0x3c>
    5eac:	11e010ef          	jal	ra,6fca <iprintf>
    5eb0:	a001                	j	5eb0 <prvTimerTask+0x176>
    5eb2:	86e6                	mv	a3,s9
    5eb4:	8666                	mv	a2,s9
    5eb6:	95e6                	add	a1,a1,s9
    5eb8:	8522                	mv	a0,s0
    5eba:	d9bff0ef          	jal	ra,5c54 <prvInsertTimerInActiveList>
    5ebe:	b715                	j	5de2 <prvTimerTask+0xa8>
    5ec0:	02444783          	lbu	a5,36(s0)
    5ec4:	0027f713          	andi	a4,a5,2
    5ec8:	f755                	bnez	a4,5e74 <prvTimerTask+0x13a>
    5eca:	8522                	mv	a0,s0
    5ecc:	db0fe0ef          	jal	ra,447c <vPortFree>
    5ed0:	bf09                	j	5de2 <prvTimerTask+0xa8>

00005ed2 <xTimerCreateTimerTask>:
    5ed2:	e4cfa2ef          	jal	t0,51e <__riscv_save_0>
    5ed6:	1141                	addi	sp,sp,-16
    5ed8:	d07ff0ef          	jal	ra,5bde <prvCheckForValidListAndQueue>
    5edc:	200007b7          	lui	a5,0x20000
    5ee0:	6507a783          	lw	a5,1616(a5) # 20000650 <xTimerQueue>
    5ee4:	cf85                	beqz	a5,5f1c <xTimerCreateTimerTask+0x4a>
    5ee6:	0070                	addi	a2,sp,12
    5ee8:	002c                	addi	a1,sp,8
    5eea:	0048                	addi	a0,sp,4
    5eec:	c202                	sw	zero,4(sp)
    5eee:	c402                	sw	zero,8(sp)
    5ef0:	b91fb0ef          	jal	ra,1a80 <vApplicationGetTimerTaskMemory>
    5ef4:	47a2                	lw	a5,8(sp)
    5ef6:	4812                	lw	a6,4(sp)
    5ef8:	4632                	lw	a2,12(sp)
    5efa:	000085b7          	lui	a1,0x8
    5efe:	00006537          	lui	a0,0x6
    5f02:	4739                	li	a4,14
    5f04:	4681                	li	a3,0
    5f06:	3a858593          	addi	a1,a1,936 # 83a8 <timers+0x124>
    5f0a:	d3a50513          	addi	a0,a0,-710 # 5d3a <prvTimerTask>
    5f0e:	f39fe0ef          	jal	ra,4e46 <xTaskCreateStatic>
    5f12:	200007b7          	lui	a5,0x20000
    5f16:	64a7aa23          	sw	a0,1620(a5) # 20000654 <xTimerTaskHandle>
    5f1a:	e11d                	bnez	a0,5f40 <xTimerCreateTimerTask+0x6e>
    5f1c:	6789                	lui	a5,0x2
    5f1e:	80078793          	addi	a5,a5,-2048 # 1800 <SystemCoreClockUpdate+0x1e>
    5f22:	30079073          	csrw	mstatus,a5
    5f26:	00008637          	lui	a2,0x8
    5f2a:	00008537          	lui	a0,0x8
    5f2e:	39060613          	addi	a2,a2,912 # 8390 <timers+0x10c>
    5f32:	11900593          	li	a1,281
    5f36:	2c050513          	addi	a0,a0,704 # 82c0 <timers+0x3c>
    5f3a:	090010ef          	jal	ra,6fca <iprintf>
    5f3e:	a001                	j	5f3e <xTimerCreateTimerTask+0x6c>
    5f40:	4505                	li	a0,1
    5f42:	0141                	addi	sp,sp,16
    5f44:	dfefa06f          	j	542 <__riscv_restore_0>

00005f48 <vRCFilter>:
    5f48:	219e                	lhu	a5,0(a1)
    5f4a:	1141                	addi	sp,sp,-16
    5f4c:	c42a                	sw	a0,8(sp)
    5f4e:	c63e                	sw	a5,12(sp)
    5f50:	47b2                	lw	a5,12(sp)
    5f52:	4722                	lw	a4,8(sp)
    5f54:	0c800693          	li	a3,200
    5f58:	02d787b3          	mul	a5,a5,a3
    5f5c:	03800693          	li	a3,56
    5f60:	02d70733          	mul	a4,a4,a3
    5f64:	97ba                	add	a5,a5,a4
    5f66:	83a1                	srli	a5,a5,0x8
    5f68:	07c2                	slli	a5,a5,0x10
    5f6a:	83c1                	srli	a5,a5,0x10
    5f6c:	837c                	sh	a5,6(sp)
    5f6e:	833c                	lhu	a5,6(sp)
    5f70:	8328                	lhu	a0,6(sp)
    5f72:	a19e                	sh	a5,0(a1)
    5f74:	0141                	addi	sp,sp,16
    5f76:	8082                	ret

00005f78 <Delay_Init>:
    5f78:	200007b7          	lui	a5,0x20000
    5f7c:	5807a783          	lw	a5,1408(a5) # 20000580 <SystemCoreClock>
    5f80:	007a1737          	lui	a4,0x7a1
    5f84:	20070713          	addi	a4,a4,512 # 7a1200 <_data_lma+0x798598>
    5f88:	02e7d7b3          	divu	a5,a5,a4
    5f8c:	20000737          	lui	a4,0x20000
    5f90:	0ff7f793          	andi	a5,a5,255
    5f94:	64f70d23          	sb	a5,1626(a4) # 2000065a <p_us>
    5f98:	3e800713          	li	a4,1000
    5f9c:	02e787b3          	mul	a5,a5,a4
    5fa0:	20000737          	lui	a4,0x20000
    5fa4:	64f71c23          	sh	a5,1624(a4) # 20000658 <p_ms>
    5fa8:	8082                	ret

00005faa <Delay_Ms>:
    5faa:	e000f7b7          	lui	a5,0xe000f
    5fae:	43d8                	lw	a4,4(a5)
    5fb0:	4681                	li	a3,0
    5fb2:	9b79                	andi	a4,a4,-2
    5fb4:	c3d8                	sw	a4,4(a5)
    5fb6:	20000737          	lui	a4,0x20000
    5fba:	65875703          	lhu	a4,1624(a4) # 20000658 <p_ms>
    5fbe:	02a70633          	mul	a2,a4,a0
    5fc2:	cb90                	sw	a2,16(a5)
    5fc4:	cbd4                	sw	a3,20(a5)
    5fc6:	4398                	lw	a4,0(a5)
    5fc8:	01076713          	ori	a4,a4,16
    5fcc:	c398                	sw	a4,0(a5)
    5fce:	4398                	lw	a4,0(a5)
    5fd0:	02176713          	ori	a4,a4,33
    5fd4:	c398                	sw	a4,0(a5)
    5fd6:	43d8                	lw	a4,4(a5)
    5fd8:	8b05                	andi	a4,a4,1
    5fda:	df75                	beqz	a4,5fd6 <Delay_Ms+0x2c>
    5fdc:	4398                	lw	a4,0(a5)
    5fde:	9b79                	andi	a4,a4,-2
    5fe0:	c398                	sw	a4,0(a5)
    5fe2:	8082                	ret

00005fe4 <USART_Printf_Init>:
    5fe4:	d3afa2ef          	jal	t0,51e <__riscv_save_0>
    5fe8:	842a                	mv	s0,a0
    5fea:	6511                	lui	a0,0x4
    5fec:	1101                	addi	sp,sp,-32
    5fee:	4585                	li	a1,1
    5ff0:	0511                	addi	a0,a0,4
    5ff2:	809fc0ef          	jal	ra,27fa <RCC_APB2PeriphClockCmd>
    5ff6:	20000793          	li	a5,512
    5ffa:	827c                	sh	a5,4(sp)
    5ffc:	40011537          	lui	a0,0x40011
    6000:	478d                	li	a5,3
    6002:	c43e                	sw	a5,8(sp)
    6004:	004c                	addi	a1,sp,4
    6006:	47e1                	li	a5,24
    6008:	80050513          	addi	a0,a0,-2048 # 40010800 <__freertos_irq_stack_top+0x2000b800>
    600c:	c63e                	sw	a5,12(sp)
    600e:	9d2fc0ef          	jal	ra,21e0 <GPIO_Init>
    6012:	c822                	sw	s0,16(sp)
    6014:	40014437          	lui	s0,0x40014
    6018:	000807b7          	lui	a5,0x80
    601c:	080c                	addi	a1,sp,16
    601e:	80040513          	addi	a0,s0,-2048 # 40013800 <__freertos_irq_stack_top+0x2000e800>
    6022:	cc3e                	sw	a5,24(sp)
    6024:	ca02                	sw	zero,20(sp)
    6026:	00011e23          	sh	zero,28(sp)
    602a:	e0dfc0ef          	jal	ra,2e36 <USART_Init>
    602e:	4585                	li	a1,1
    6030:	80040513          	addi	a0,s0,-2048
    6034:	ebffc0ef          	jal	ra,2ef2 <USART_Cmd>
    6038:	6105                	addi	sp,sp,32
    603a:	d08fa06f          	j	542 <__riscv_restore_0>

0000603e <_write>:
    603e:	cc6fa2ef          	jal	t0,504 <__riscv_save_4>
    6042:	400144b7          	lui	s1,0x40014
    6046:	89ae                	mv	s3,a1
    6048:	8932                	mv	s2,a2
    604a:	4401                	li	s0,0
    604c:	80048493          	addi	s1,s1,-2048 # 40013800 <__freertos_irq_stack_top+0x2000e800>
    6050:	01244563          	blt	s0,s2,605a <_write+0x1c>
    6054:	854a                	mv	a0,s2
    6056:	ce2fa06f          	j	538 <__riscv_restore_4>
    605a:	04000593          	li	a1,64
    605e:	8526                	mv	a0,s1
    6060:	eb1fc0ef          	jal	ra,2f10 <USART_GetFlagStatus>
    6064:	d97d                	beqz	a0,605a <_write+0x1c>
    6066:	008987b3          	add	a5,s3,s0
    606a:	00078583          	lb	a1,0(a5) # 80000 <_data_lma+0x77398>
    606e:	8526                	mv	a0,s1
    6070:	0405                	addi	s0,s0,1
    6072:	05c2                	slli	a1,a1,0x10
    6074:	81c1                	srli	a1,a1,0x10
    6076:	e93fc0ef          	jal	ra,2f08 <USART_SendData>
    607a:	bfd9                	j	6050 <_write+0x12>

0000607c <_sbrk>:
    607c:	81018713          	addi	a4,gp,-2032 # 20000590 <curbrk.4668>
    6080:	431c                	lw	a5,0(a4)
    6082:	200026b7          	lui	a3,0x20002
    6086:	a2468693          	addi	a3,a3,-1500 # 20001a24 <_ebss>
    608a:	953e                	add	a0,a0,a5
    608c:	00d56b63          	bltu	a0,a3,60a2 <_sbrk+0x26>
    6090:	200056b7          	lui	a3,0x20005
    6094:	80068693          	addi	a3,a3,-2048 # 20004800 <_heap_end>
    6098:	00a6e563          	bltu	a3,a0,60a2 <_sbrk+0x26>
    609c:	c308                	sw	a0,0(a4)
    609e:	853e                	mv	a0,a5
    60a0:	8082                	ret
    60a2:	57fd                	li	a5,-1
    60a4:	bfed                	j	609e <_sbrk+0x22>

000060a6 <__get_MEPC>:
    60a6:	34102573          	csrr	a0,mepc
    60aa:	8082                	ret

000060ac <__get_MCAUSE>:
    60ac:	34202573          	csrr	a0,mcause
    60b0:	8082                	ret

000060b2 <__get_MTVAL>:
    60b2:	34302573          	csrr	a0,mtval
    60b6:	8082                	ret

000060b8 <OD_readDisabled>:
    60b8:	4509                	li	a0,2
    60ba:	8082                	ret

000060bc <OD_readOriginal>:
    60bc:	c62fa2ef          	jal	t0,51e <__riscv_save_0>
    60c0:	4425                	li	s0,9
    60c2:	cd15                	beqz	a0,60fe <OD_readOriginal+0x42>
    60c4:	cd8d                	beqz	a1,60fe <OD_readOriginal+0x42>
    60c6:	ce85                	beqz	a3,60fe <OD_readOriginal+0x42>
    60c8:	4118                	lw	a4,0(a0)
    60ca:	4504                	lw	s1,8(a0)
    60cc:	4439                	li	s0,14
    60ce:	cb05                	beqz	a4,60fe <OD_readOriginal+0x42>
    60d0:	455c                	lw	a5,12(a0)
    60d2:	e399                	bnez	a5,60d8 <OD_readOriginal+0x1c>
    60d4:	02967a63          	bgeu	a2,s1,6108 <OD_readOriginal+0x4c>
    60d8:	4425                	li	s0,9
    60da:	0297f263          	bgeu	a5,s1,60fe <OD_readOriginal+0x42>
    60de:	8c9d                	sub	s1,s1,a5
    60e0:	973e                	add	a4,a4,a5
    60e2:	02967163          	bgeu	a2,s1,6104 <OD_readOriginal+0x48>
    60e6:	97b2                	add	a5,a5,a2
    60e8:	c55c                	sw	a5,12(a0)
    60ea:	84b2                	mv	s1,a2
    60ec:	547d                	li	s0,-1
    60ee:	8936                	mv	s2,a3
    60f0:	852e                	mv	a0,a1
    60f2:	8626                	mv	a2,s1
    60f4:	85ba                	mv	a1,a4
    60f6:	48f000ef          	jal	ra,6d84 <memcpy>
    60fa:	00992023          	sw	s1,0(s2)
    60fe:	8522                	mv	a0,s0
    6100:	c42fa06f          	j	542 <__riscv_restore_0>
    6104:	00052623          	sw	zero,12(a0)
    6108:	4401                	li	s0,0
    610a:	b7d5                	j	60ee <OD_readOriginal+0x32>

0000610c <OD_writeOriginal>:
    610c:	c12fa2ef          	jal	t0,51e <__riscv_save_0>
    6110:	44a5                	li	s1,9
    6112:	cd0d                	beqz	a0,614c <OD_writeOriginal+0x40>
    6114:	cd85                	beqz	a1,614c <OD_writeOriginal+0x40>
    6116:	ca9d                	beqz	a3,614c <OD_writeOriginal+0x40>
    6118:	872a                	mv	a4,a0
    611a:	4500                	lw	s0,8(a0)
    611c:	4108                	lw	a0,0(a0)
    611e:	44b9                	li	s1,14
    6120:	c515                	beqz	a0,614c <OD_writeOriginal+0x40>
    6122:	475c                	lw	a5,12(a4)
    6124:	e399                	bnez	a5,612a <OD_writeOriginal+0x1e>
    6126:	02867863          	bgeu	a2,s0,6156 <OD_writeOriginal+0x4a>
    612a:	44a5                	li	s1,9
    612c:	0287f063          	bgeu	a5,s0,614c <OD_writeOriginal+0x40>
    6130:	8c1d                	sub	s0,s0,a5
    6132:	953e                	add	a0,a0,a5
    6134:	00867f63          	bgeu	a2,s0,6152 <OD_writeOriginal+0x46>
    6138:	97b2                	add	a5,a5,a2
    613a:	c75c                	sw	a5,12(a4)
    613c:	8432                	mv	s0,a2
    613e:	54fd                	li	s1,-1
    6140:	8936                	mv	s2,a3
    6142:	8622                	mv	a2,s0
    6144:	441000ef          	jal	ra,6d84 <memcpy>
    6148:	00892023          	sw	s0,0(s2)
    614c:	8526                	mv	a0,s1
    614e:	bf4fa06f          	j	542 <__riscv_restore_0>
    6152:	00072623          	sw	zero,12(a4)
    6156:	44b1                	li	s1,12
    6158:	fec46ae3          	bltu	s0,a2,614c <OD_writeOriginal+0x40>
    615c:	4481                	li	s1,0
    615e:	b7cd                	j	6140 <OD_writeOriginal+0x34>

00006160 <OD_writeDisabled>:
    6160:	4509                	li	a0,2
    6162:	8082                	ret

00006164 <OD_getSub>:
    6164:	4715                	li	a4,5
    6166:	c115                	beqz	a0,618a <OD_getSub+0x26>
    6168:	415c                	lw	a5,4(a0)
    616a:	4715                	li	a4,5
    616c:	cf99                	beqz	a5,618a <OD_getSub+0x26>
    616e:	4725                	li	a4,9
    6170:	ce09                	beqz	a2,618a <OD_getSub+0x26>
    6172:	3138                	lbu	a4,3(a0)
    6174:	4809                	li	a6,2
    6176:	8b3d                	andi	a4,a4,15
    6178:	05070e63          	beq	a4,a6,61d4 <OD_getSub+0x70>
    617c:	480d                	li	a6,3
    617e:	01070863          	beq	a4,a6,618e <OD_getSub+0x2a>
    6182:	4805                	li	a6,1
    6184:	01070c63          	beq	a4,a6,619c <OD_getSub+0x38>
    6188:	4725                	li	a4,9
    618a:	853a                	mv	a0,a4
    618c:	8082                	ret
    618e:	00254883          	lbu	a7,2(a0)
    6192:	4701                	li	a4,0
    6194:	06e89d63          	bne	a7,a4,620e <OD_getSub+0xaa>
    6198:	4739                	li	a4,14
    619a:	bfc5                	j	618a <OD_getSub+0x26>
    619c:	4739                	li	a4,14
    619e:	f5f5                	bnez	a1,618a <OD_getSub+0x26>
    61a0:	23d8                	lbu	a4,4(a5)
    61a2:	aa18                	sb	a4,16(a2)
    61a4:	4398                	lw	a4,0(a5)
    61a6:	479c                	lw	a5,8(a5)
    61a8:	c218                	sw	a4,0(a2)
    61aa:	4518                	lw	a4,8(a0)
    61ac:	c61c                	sw	a5,8(a2)
    61ae:	c311                	beqz	a4,61b2 <OD_getSub+0x4e>
    61b0:	caad                	beqz	a3,6222 <OD_getSub+0xbe>
    61b2:	000067b7          	lui	a5,0x6
    61b6:	0bc78793          	addi	a5,a5,188 # 60bc <OD_readOriginal>
    61ba:	ca5c                	sw	a5,20(a2)
    61bc:	000067b7          	lui	a5,0x6
    61c0:	10c78793          	addi	a5,a5,268 # 610c <OD_writeOriginal>
    61c4:	ce1c                	sw	a5,24(a2)
    61c6:	00062223          	sw	zero,4(a2)
    61ca:	00062623          	sw	zero,12(a2)
    61ce:	ba0c                	sb	a1,17(a2)
    61d0:	4701                	li	a4,0
    61d2:	bf65                	j	618a <OD_getSub+0x26>
    61d4:	00254803          	lbu	a6,2(a0)
    61d8:	4739                	li	a4,14
    61da:	fb05f8e3          	bgeu	a1,a6,618a <OD_getSub+0x26>
    61de:	e599                	bnez	a1,61ec <OD_getSub+0x88>
    61e0:	2798                	lbu	a4,8(a5)
    61e2:	aa18                	sb	a4,16(a2)
    61e4:	439c                	lw	a5,0(a5)
    61e6:	c21c                	sw	a5,0(a2)
    61e8:	4785                	li	a5,1
    61ea:	b7c1                	j	61aa <OD_getSub+0x46>
    61ec:	3798                	lbu	a4,9(a5)
    61ee:	aa18                	sb	a4,16(a2)
    61f0:	0047a803          	lw	a6,4(a5)
    61f4:	00080963          	beqz	a6,6206 <OD_getSub+0xa2>
    61f8:	0107a883          	lw	a7,16(a5)
    61fc:	fff58713          	addi	a4,a1,-1
    6200:	03170733          	mul	a4,a4,a7
    6204:	983a                	add	a6,a6,a4
    6206:	01062023          	sw	a6,0(a2)
    620a:	47dc                	lw	a5,12(a5)
    620c:	bf79                	j	61aa <OD_getSub+0x46>
    620e:	883e                	mv	a6,a5
    6210:	07b1                	addi	a5,a5,12
    6212:	ff87c303          	lbu	t1,-8(a5)
    6216:	02b30763          	beq	t1,a1,6244 <OD_getSub+0xe0>
    621a:	0705                	addi	a4,a4,1
    621c:	0ff77713          	andi	a4,a4,255
    6220:	bf95                	j	6194 <OD_getSub+0x30>
    6222:	435c                	lw	a5,4(a4)
    6224:	e789                	bnez	a5,622e <OD_getSub+0xca>
    6226:	000067b7          	lui	a5,0x6
    622a:	0b878793          	addi	a5,a5,184 # 60b8 <OD_readDisabled>
    622e:	ca5c                	sw	a5,20(a2)
    6230:	471c                	lw	a5,8(a4)
    6232:	e789                	bnez	a5,623c <OD_getSub+0xd8>
    6234:	000067b7          	lui	a5,0x6
    6238:	16078793          	addi	a5,a5,352 # 6160 <OD_writeDisabled>
    623c:	ce1c                	sw	a5,24(a2)
    623e:	431c                	lw	a5,0(a4)
    6240:	c25c                	sw	a5,4(a2)
    6242:	b761                	j	61ca <OD_getSub+0x66>
    6244:	00584783          	lbu	a5,5(a6)
    6248:	aa1c                	sb	a5,16(a2)
    624a:	00082783          	lw	a5,0(a6)
    624e:	c21c                	sw	a5,0(a2)
    6250:	00882783          	lw	a5,8(a6)
    6254:	bf99                	j	61aa <OD_getSub+0x46>

00006256 <OD_set_value>:
    6256:	ac8fa2ef          	jal	t0,51e <__riscv_save_0>
    625a:	1101                	addi	sp,sp,-32
    625c:	8432                	mv	s0,a2
    625e:	84b6                	mv	s1,a3
    6260:	0050                	addi	a2,sp,4
    6262:	86ba                	mv	a3,a4
    6264:	c002                	sw	zero,0(sp)
    6266:	effff0ef          	jal	ra,6164 <OD_getSub>
    626a:	e911                	bnez	a0,627e <OD_set_value+0x28>
    626c:	4632                	lw	a2,12(sp)
    626e:	452d                	li	a0,11
    6270:	00961763          	bne	a2,s1,627e <OD_set_value+0x28>
    6274:	47f2                	lw	a5,28(sp)
    6276:	868a                	mv	a3,sp
    6278:	85a2                	mv	a1,s0
    627a:	0048                	addi	a0,sp,4
    627c:	9782                	jalr	a5
    627e:	6105                	addi	sp,sp,32
    6280:	ac2fa06f          	j	542 <__riscv_restore_0>

00006284 <__addsf3>:
    6284:	1141                	addi	sp,sp,-16
    6286:	00800737          	lui	a4,0x800
    628a:	177d                	addi	a4,a4,-1
    628c:	0175d813          	srli	a6,a1,0x17
    6290:	c226                	sw	s1,4(sp)
    6292:	01755493          	srli	s1,a0,0x17
    6296:	00a77333          	and	t1,a4,a0
    629a:	0ff4f493          	andi	s1,s1,255
    629e:	00b776b3          	and	a3,a4,a1
    62a2:	c04a                	sw	s2,0(sp)
    62a4:	0ff87813          	andi	a6,a6,255
    62a8:	01f55913          	srli	s2,a0,0x1f
    62ac:	c606                	sw	ra,12(sp)
    62ae:	c422                	sw	s0,8(sp)
    62b0:	81fd                	srli	a1,a1,0x1f
    62b2:	879a                	mv	a5,t1
    62b4:	8526                	mv	a0,s1
    62b6:	864a                	mv	a2,s2
    62b8:	00331e13          	slli	t3,t1,0x3
    62bc:	00369e93          	slli	t4,a3,0x3
    62c0:	410488b3          	sub	a7,s1,a6
    62c4:	0eb90a63          	beq	s2,a1,63b8 <__addsf3+0x134>
    62c8:	0d105063          	blez	a7,6388 <__addsf3+0x104>
    62cc:	14080463          	beqz	a6,6414 <__addsf3+0x190>
    62d0:	0ff00793          	li	a5,255
    62d4:	14f48b63          	beq	s1,a5,642a <__addsf3+0x1a6>
    62d8:	040007b7          	lui	a5,0x4000
    62dc:	00feeeb3          	or	t4,t4,a5
    62e0:	47ed                	li	a5,27
    62e2:	2917c163          	blt	a5,a7,6564 <__addsf3+0x2e0>
    62e6:	02000793          	li	a5,32
    62ea:	411787b3          	sub	a5,a5,a7
    62ee:	00fe97b3          	sll	a5,t4,a5
    62f2:	011ed8b3          	srl	a7,t4,a7
    62f6:	00f037b3          	snez	a5,a5
    62fa:	00f8e7b3          	or	a5,a7,a5
    62fe:	40fe07b3          	sub	a5,t3,a5
    6302:	00579713          	slli	a4,a5,0x5
    6306:	18075e63          	bgez	a4,64a2 <__addsf3+0x21e>
    630a:	04000437          	lui	s0,0x4000
    630e:	147d                	addi	s0,s0,-1
    6310:	8c7d                	and	s0,s0,a5
    6312:	8522                	mv	a0,s0
    6314:	203000ef          	jal	ra,6d16 <__clzsi2>
    6318:	156d                	addi	a0,a0,-5
    631a:	00a417b3          	sll	a5,s0,a0
    631e:	1a954863          	blt	a0,s1,64ce <__addsf3+0x24a>
    6322:	8d05                	sub	a0,a0,s1
    6324:	00150413          	addi	s0,a0,1
    6328:	02000713          	li	a4,32
    632c:	8f01                	sub	a4,a4,s0
    632e:	00e79733          	sll	a4,a5,a4
    6332:	00e03733          	snez	a4,a4
    6336:	0087d7b3          	srl	a5,a5,s0
    633a:	8fd9                	or	a5,a5,a4
    633c:	4481                	li	s1,0
    633e:	0077f713          	andi	a4,a5,7
    6342:	c719                	beqz	a4,6350 <__addsf3+0xcc>
    6344:	00f7f713          	andi	a4,a5,15
    6348:	4691                	li	a3,4
    634a:	00d70363          	beq	a4,a3,6350 <__addsf3+0xcc>
    634e:	0791                	addi	a5,a5,4
    6350:	00579713          	slli	a4,a5,0x5
    6354:	14075b63          	bgez	a4,64aa <__addsf3+0x226>
    6358:	0485                	addi	s1,s1,1
    635a:	0ff00713          	li	a4,255
    635e:	864a                	mv	a2,s2
    6360:	16e48363          	beq	s1,a4,64c6 <__addsf3+0x242>
    6364:	079a                	slli	a5,a5,0x6
    6366:	83a5                	srli	a5,a5,0x9
    6368:	0ff4f513          	andi	a0,s1,255
    636c:	40b2                	lw	ra,12(sp)
    636e:	4422                	lw	s0,8(sp)
    6370:	07a6                	slli	a5,a5,0x9
    6372:	01751493          	slli	s1,a0,0x17
    6376:	0097d513          	srli	a0,a5,0x9
    637a:	8d45                	or	a0,a0,s1
    637c:	067e                	slli	a2,a2,0x1f
    637e:	4492                	lw	s1,4(sp)
    6380:	4902                	lw	s2,0(sp)
    6382:	8d51                	or	a0,a0,a2
    6384:	0141                	addi	sp,sp,16
    6386:	8082                	ret
    6388:	0a089963          	bnez	a7,643a <__addsf3+0x1b6>
    638c:	00148713          	addi	a4,s1,1
    6390:	0fe77713          	andi	a4,a4,254
    6394:	14071763          	bnez	a4,64e2 <__addsf3+0x25e>
    6398:	22049063          	bnez	s1,65b8 <__addsf3+0x334>
    639c:	1e0e0d63          	beqz	t3,6596 <__addsf3+0x312>
    63a0:	fc0e86e3          	beqz	t4,636c <__addsf3+0xe8>
    63a4:	41de07b3          	sub	a5,t3,t4
    63a8:	00579713          	slli	a4,a5,0x5
    63ac:	22075063          	bgez	a4,65cc <__addsf3+0x348>
    63b0:	41ce87b3          	sub	a5,t4,t3
    63b4:	892e                	mv	s2,a1
    63b6:	b761                	j	633e <__addsf3+0xba>
    63b8:	0b105c63          	blez	a7,6470 <__addsf3+0x1ec>
    63bc:	08080e63          	beqz	a6,6458 <__addsf3+0x1d4>
    63c0:	0ff00793          	li	a5,255
    63c4:	06f48363          	beq	s1,a5,642a <__addsf3+0x1a6>
    63c8:	040007b7          	lui	a5,0x4000
    63cc:	00feeeb3          	or	t4,t4,a5
    63d0:	47ed                	li	a5,27
    63d2:	1f17c963          	blt	a5,a7,65c4 <__addsf3+0x340>
    63d6:	02000793          	li	a5,32
    63da:	411787b3          	sub	a5,a5,a7
    63de:	00fe97b3          	sll	a5,t4,a5
    63e2:	011ed8b3          	srl	a7,t4,a7
    63e6:	00f037b3          	snez	a5,a5
    63ea:	00f8e7b3          	or	a5,a7,a5
    63ee:	97f2                	add	a5,a5,t3
    63f0:	00579713          	slli	a4,a5,0x5
    63f4:	0a075763          	bgez	a4,64a2 <__addsf3+0x21e>
    63f8:	0485                	addi	s1,s1,1
    63fa:	0ff00713          	li	a4,255
    63fe:	0ce48463          	beq	s1,a4,64c6 <__addsf3+0x242>
    6402:	7e0006b7          	lui	a3,0x7e000
    6406:	0017d713          	srli	a4,a5,0x1
    640a:	16fd                	addi	a3,a3,-1
    640c:	8b85                	andi	a5,a5,1
    640e:	8f75                	and	a4,a4,a3
    6410:	8fd9                	or	a5,a5,a4
    6412:	b735                	j	633e <__addsf3+0xba>
    6414:	080e8d63          	beqz	t4,64ae <__addsf3+0x22a>
    6418:	18fd                	addi	a7,a7,-1
    641a:	41de07b3          	sub	a5,t3,t4
    641e:	ee0882e3          	beqz	a7,6302 <__addsf3+0x7e>
    6422:	0ff00793          	li	a5,255
    6426:	eaf49de3          	bne	s1,a5,62e0 <__addsf3+0x5c>
    642a:	08030d63          	beqz	t1,64c4 <__addsf3+0x240>
    642e:	4601                	li	a2,0
    6430:	0ff00513          	li	a0,255
    6434:	004007b7          	lui	a5,0x400
    6438:	bf15                	j	636c <__addsf3+0xe8>
    643a:	40980733          	sub	a4,a6,s1
    643e:	e8ed                	bnez	s1,6530 <__addsf3+0x2ac>
    6440:	140e0263          	beqz	t3,6584 <__addsf3+0x300>
    6444:	177d                	addi	a4,a4,-1
    6446:	18070863          	beqz	a4,65d6 <__addsf3+0x352>
    644a:	0ff00793          	li	a5,255
    644e:	0ef81963          	bne	a6,a5,6540 <__addsf3+0x2bc>
    6452:	892e                	mv	s2,a1
    6454:	8336                	mv	t1,a3
    6456:	bfd1                	j	642a <__addsf3+0x1a6>
    6458:	040e8b63          	beqz	t4,64ae <__addsf3+0x22a>
    645c:	18fd                	addi	a7,a7,-1
    645e:	01de07b3          	add	a5,t3,t4
    6462:	f80887e3          	beqz	a7,63f0 <__addsf3+0x16c>
    6466:	0ff00793          	li	a5,255
    646a:	f6f493e3          	bne	s1,a5,63d0 <__addsf3+0x14c>
    646e:	bf75                	j	642a <__addsf3+0x1a6>
    6470:	08089563          	bnez	a7,64fa <__addsf3+0x276>
    6474:	0485                	addi	s1,s1,1
    6476:	0fe4f713          	andi	a4,s1,254
    647a:	12071363          	bnez	a4,65a0 <__addsf3+0x31c>
    647e:	10051763          	bnez	a0,658c <__addsf3+0x308>
    6482:	140e0f63          	beqz	t3,65e0 <__addsf3+0x35c>
    6486:	ee0e83e3          	beqz	t4,636c <__addsf3+0xe8>
    648a:	01de07b3          	add	a5,t3,t4
    648e:	00579713          	slli	a4,a5,0x5
    6492:	4481                	li	s1,0
    6494:	00075763          	bgez	a4,64a2 <__addsf3+0x21e>
    6498:	fc000737          	lui	a4,0xfc000
    649c:	177d                	addi	a4,a4,-1
    649e:	8ff9                	and	a5,a5,a4
    64a0:	4485                	li	s1,1
    64a2:	0077f713          	andi	a4,a5,7
    64a6:	e8071fe3          	bnez	a4,6344 <__addsf3+0xc0>
    64aa:	0037d313          	srli	t1,a5,0x3
    64ae:	0ff00793          	li	a5,255
    64b2:	f6f48ce3          	beq	s1,a5,642a <__addsf3+0x1a6>
    64b6:	00931793          	slli	a5,t1,0x9
    64ba:	83a5                	srli	a5,a5,0x9
    64bc:	0ff4f513          	andi	a0,s1,255
    64c0:	864a                	mv	a2,s2
    64c2:	b56d                	j	636c <__addsf3+0xe8>
    64c4:	864a                	mv	a2,s2
    64c6:	0ff00513          	li	a0,255
    64ca:	4781                	li	a5,0
    64cc:	b545                	j	636c <__addsf3+0xe8>
    64ce:	fc000737          	lui	a4,0xfc000
    64d2:	177d                	addi	a4,a4,-1
    64d4:	8ff9                	and	a5,a5,a4
    64d6:	0077f713          	andi	a4,a5,7
    64da:	8c89                	sub	s1,s1,a0
    64dc:	e60714e3          	bnez	a4,6344 <__addsf3+0xc0>
    64e0:	b7e9                	j	64aa <__addsf3+0x226>
    64e2:	41de0433          	sub	s0,t3,t4
    64e6:	00541793          	slli	a5,s0,0x5
    64ea:	0c07c363          	bltz	a5,65b0 <__addsf3+0x32c>
    64ee:	e20412e3          	bnez	s0,6312 <__addsf3+0x8e>
    64f2:	4601                	li	a2,0
    64f4:	4501                	li	a0,0
    64f6:	4781                	li	a5,0
    64f8:	bd95                	j	636c <__addsf3+0xe8>
    64fa:	40980733          	sub	a4,a6,s1
    64fe:	c4ad                	beqz	s1,6568 <__addsf3+0x2e4>
    6500:	0ff00793          	li	a5,255
    6504:	f4f808e3          	beq	a6,a5,6454 <__addsf3+0x1d0>
    6508:	040007b7          	lui	a5,0x4000
    650c:	00fe6e33          	or	t3,t3,a5
    6510:	47ed                	li	a5,27
    6512:	0ce7cc63          	blt	a5,a4,65ea <__addsf3+0x366>
    6516:	02000793          	li	a5,32
    651a:	8f99                	sub	a5,a5,a4
    651c:	00fe17b3          	sll	a5,t3,a5
    6520:	00ee5733          	srl	a4,t3,a4
    6524:	00f037b3          	snez	a5,a5
    6528:	8fd9                	or	a5,a5,a4
    652a:	97f6                	add	a5,a5,t4
    652c:	84c2                	mv	s1,a6
    652e:	b5c9                	j	63f0 <__addsf3+0x16c>
    6530:	0ff00793          	li	a5,255
    6534:	f0f80fe3          	beq	a6,a5,6452 <__addsf3+0x1ce>
    6538:	040007b7          	lui	a5,0x4000
    653c:	00fe6e33          	or	t3,t3,a5
    6540:	47ed                	li	a5,27
    6542:	08e7c363          	blt	a5,a4,65c8 <__addsf3+0x344>
    6546:	02000693          	li	a3,32
    654a:	8e99                	sub	a3,a3,a4
    654c:	00de16b3          	sll	a3,t3,a3
    6550:	00ee57b3          	srl	a5,t3,a4
    6554:	00d03733          	snez	a4,a3
    6558:	8fd9                	or	a5,a5,a4
    655a:	40fe87b3          	sub	a5,t4,a5
    655e:	84c2                	mv	s1,a6
    6560:	892e                	mv	s2,a1
    6562:	b345                	j	6302 <__addsf3+0x7e>
    6564:	4785                	li	a5,1
    6566:	bb61                	j	62fe <__addsf3+0x7a>
    6568:	060e0e63          	beqz	t3,65e4 <__addsf3+0x360>
    656c:	177d                	addi	a4,a4,-1
    656e:	01de07b3          	add	a5,t3,t4
    6572:	84c2                	mv	s1,a6
    6574:	e6070ee3          	beqz	a4,63f0 <__addsf3+0x16c>
    6578:	0ff00793          	li	a5,255
    657c:	f8f81ae3          	bne	a6,a5,6510 <__addsf3+0x28c>
    6580:	8336                	mv	t1,a3
    6582:	b565                	j	642a <__addsf3+0x1a6>
    6584:	8336                	mv	t1,a3
    6586:	84c2                	mv	s1,a6
    6588:	892e                	mv	s2,a1
    658a:	b715                	j	64ae <__addsf3+0x22a>
    658c:	ec0e04e3          	beqz	t3,6454 <__addsf3+0x1d0>
    6590:	e80e8de3          	beqz	t4,642a <__addsf3+0x1a6>
    6594:	bd69                	j	642e <__addsf3+0x1aa>
    6596:	020e8d63          	beqz	t4,65d0 <__addsf3+0x34c>
    659a:	862e                	mv	a2,a1
    659c:	87b6                	mv	a5,a3
    659e:	b3f9                	j	636c <__addsf3+0xe8>
    65a0:	0ff00793          	li	a5,255
    65a4:	f2f481e3          	beq	s1,a5,64c6 <__addsf3+0x242>
    65a8:	01de07b3          	add	a5,t3,t4
    65ac:	8385                	srli	a5,a5,0x1
    65ae:	bdd5                	j	64a2 <__addsf3+0x21e>
    65b0:	41ce8433          	sub	s0,t4,t3
    65b4:	892e                	mv	s2,a1
    65b6:	bbb1                	j	6312 <__addsf3+0x8e>
    65b8:	fc0e1ce3          	bnez	t3,6590 <__addsf3+0x30c>
    65bc:	e60e89e3          	beqz	t4,642e <__addsf3+0x1aa>
    65c0:	892e                	mv	s2,a1
    65c2:	bd49                	j	6454 <__addsf3+0x1d0>
    65c4:	4785                	li	a5,1
    65c6:	b525                	j	63ee <__addsf3+0x16a>
    65c8:	4785                	li	a5,1
    65ca:	bf41                	j	655a <__addsf3+0x2d6>
    65cc:	ec079be3          	bnez	a5,64a2 <__addsf3+0x21e>
    65d0:	4601                	li	a2,0
    65d2:	4781                	li	a5,0
    65d4:	bb61                	j	636c <__addsf3+0xe8>
    65d6:	41ce87b3          	sub	a5,t4,t3
    65da:	84c2                	mv	s1,a6
    65dc:	892e                	mv	s2,a1
    65de:	b315                	j	6302 <__addsf3+0x7e>
    65e0:	87b6                	mv	a5,a3
    65e2:	b369                	j	636c <__addsf3+0xe8>
    65e4:	8336                	mv	t1,a3
    65e6:	84c2                	mv	s1,a6
    65e8:	b5d9                	j	64ae <__addsf3+0x22a>
    65ea:	4785                	li	a5,1
    65ec:	bf3d                	j	652a <__addsf3+0x2a6>

000065ee <__divsf3>:
    65ee:	7139                	addi	sp,sp,-64
    65f0:	01755793          	srli	a5,a0,0x17
    65f4:	d84a                	sw	s2,48(sp)
    65f6:	d256                	sw	s5,36(sp)
    65f8:	ce5e                	sw	s7,28(sp)
    65fa:	00951a93          	slli	s5,a0,0x9
    65fe:	01f55913          	srli	s2,a0,0x1f
    6602:	de06                	sw	ra,60(sp)
    6604:	dc22                	sw	s0,56(sp)
    6606:	da26                	sw	s1,52(sp)
    6608:	d64e                	sw	s3,44(sp)
    660a:	d452                	sw	s4,40(sp)
    660c:	d05a                	sw	s6,32(sp)
    660e:	0ff7f793          	andi	a5,a5,255
    6612:	009ada93          	srli	s5,s5,0x9
    6616:	8bca                	mv	s7,s2
    6618:	12078263          	beqz	a5,673c <__divsf3+0x14e>
    661c:	0ff00713          	li	a4,255
    6620:	12e78463          	beq	a5,a4,6748 <__divsf3+0x15a>
    6624:	0a8e                	slli	s5,s5,0x3
    6626:	04000737          	lui	a4,0x4000
    662a:	00eaeab3          	or	s5,s5,a4
    662e:	f8178a13          	addi	s4,a5,-127 # 3ffff81 <_data_lma+0x3ff7319>
    6632:	4401                	li	s0,0
    6634:	4b01                	li	s6,0
    6636:	0175d793          	srli	a5,a1,0x17
    663a:	00959493          	slli	s1,a1,0x9
    663e:	0ff7f793          	andi	a5,a5,255
    6642:	80a5                	srli	s1,s1,0x9
    6644:	01f5d993          	srli	s3,a1,0x1f
    6648:	c7fd                	beqz	a5,6736 <__divsf3+0x148>
    664a:	0ff00713          	li	a4,255
    664e:	02e78763          	beq	a5,a4,667c <__divsf3+0x8e>
    6652:	048e                	slli	s1,s1,0x3
    6654:	f8178793          	addi	a5,a5,-127
    6658:	04000737          	lui	a4,0x4000
    665c:	8cd9                	or	s1,s1,a4
    665e:	40fa0a33          	sub	s4,s4,a5
    6662:	4681                	li	a3,0
    6664:	8c55                	or	s0,s0,a3
    6666:	00002717          	auipc	a4,0x2
    666a:	3a670713          	addi	a4,a4,934 # 8a0c <ODObjs+0x65c>
    666e:	040a                	slli	s0,s0,0x2
    6670:	943a                	add	s0,s0,a4
    6672:	401c                	lw	a5,0(s0)
    6674:	01394933          	xor	s2,s2,s3
    6678:	97ba                	add	a5,a5,a4
    667a:	8782                	jr	a5
    667c:	f01a0a13          	addi	s4,s4,-255
    6680:	e8f9                	bnez	s1,6756 <__divsf3+0x168>
    6682:	4689                	li	a3,2
    6684:	8c55                	or	s0,s0,a3
    6686:	00002717          	auipc	a4,0x2
    668a:	3c670713          	addi	a4,a4,966 # 8a4c <ODObjs+0x69c>
    668e:	040a                	slli	s0,s0,0x2
    6690:	943a                	add	s0,s0,a4
    6692:	401c                	lw	a5,0(s0)
    6694:	01394933          	xor	s2,s2,s3
    6698:	97ba                	add	a5,a5,a4
    669a:	8782                	jr	a5
    669c:	4901                	li	s2,0
    669e:	0ff00713          	li	a4,255
    66a2:	004007b7          	lui	a5,0x400
    66a6:	00979513          	slli	a0,a5,0x9
    66aa:	50f2                	lw	ra,60(sp)
    66ac:	5462                	lw	s0,56(sp)
    66ae:	01771793          	slli	a5,a4,0x17
    66b2:	8125                	srli	a0,a0,0x9
    66b4:	097e                	slli	s2,s2,0x1f
    66b6:	8d5d                	or	a0,a0,a5
    66b8:	01256533          	or	a0,a0,s2
    66bc:	54d2                	lw	s1,52(sp)
    66be:	5942                	lw	s2,48(sp)
    66c0:	59b2                	lw	s3,44(sp)
    66c2:	5a22                	lw	s4,40(sp)
    66c4:	5a92                	lw	s5,36(sp)
    66c6:	5b02                	lw	s6,32(sp)
    66c8:	4bf2                	lw	s7,28(sp)
    66ca:	6121                	addi	sp,sp,64
    66cc:	8082                	ret
    66ce:	0ff00713          	li	a4,255
    66d2:	4781                	li	a5,0
    66d4:	bfc9                	j	66a6 <__divsf3+0xb8>
    66d6:	8aa6                	mv	s5,s1
    66d8:	8bce                	mv	s7,s3
    66da:	8b36                	mv	s6,a3
    66dc:	4789                	li	a5,2
    66de:	1afb0963          	beq	s6,a5,6890 <__divsf3+0x2a2>
    66e2:	478d                	li	a5,3
    66e4:	fafb0ce3          	beq	s6,a5,669c <__divsf3+0xae>
    66e8:	4785                	li	a5,1
    66ea:	0afb0863          	beq	s6,a5,679a <__divsf3+0x1ac>
    66ee:	07fa0713          	addi	a4,s4,127
    66f2:	001bf913          	andi	s2,s7,1
    66f6:	12e05563          	blez	a4,6820 <__divsf3+0x232>
    66fa:	007af793          	andi	a5,s5,7
    66fe:	c799                	beqz	a5,670c <__divsf3+0x11e>
    6700:	00faf793          	andi	a5,s5,15
    6704:	4691                	li	a3,4
    6706:	00d78363          	beq	a5,a3,670c <__divsf3+0x11e>
    670a:	0a91                	addi	s5,s5,4
    670c:	004a9793          	slli	a5,s5,0x4
    6710:	0007d963          	bgez	a5,6722 <__divsf3+0x134>
    6714:	f80007b7          	lui	a5,0xf8000
    6718:	17fd                	addi	a5,a5,-1
    671a:	00fafab3          	and	s5,s5,a5
    671e:	080a0713          	addi	a4,s4,128
    6722:	0fe00793          	li	a5,254
    6726:	fae7c4e3          	blt	a5,a4,66ce <__divsf3+0xe0>
    672a:	006a9793          	slli	a5,s5,0x6
    672e:	83a5                	srli	a5,a5,0x9
    6730:	0ff77713          	andi	a4,a4,255
    6734:	bf8d                	j	66a6 <__divsf3+0xb8>
    6736:	e4b1                	bnez	s1,6782 <__divsf3+0x194>
    6738:	4685                	li	a3,1
    673a:	b7a9                	j	6684 <__divsf3+0x96>
    673c:	020a9463          	bnez	s5,6764 <__divsf3+0x176>
    6740:	4411                	li	s0,4
    6742:	4a01                	li	s4,0
    6744:	4b05                	li	s6,1
    6746:	bdc5                	j	6636 <__divsf3+0x48>
    6748:	000a9963          	bnez	s5,675a <__divsf3+0x16c>
    674c:	4421                	li	s0,8
    674e:	0ff00a13          	li	s4,255
    6752:	4b09                	li	s6,2
    6754:	b5cd                	j	6636 <__divsf3+0x48>
    6756:	468d                	li	a3,3
    6758:	b731                	j	6664 <__divsf3+0x76>
    675a:	4431                	li	s0,12
    675c:	0ff00a13          	li	s4,255
    6760:	4b0d                	li	s6,3
    6762:	bdd1                	j	6636 <__divsf3+0x48>
    6764:	8556                	mv	a0,s5
    6766:	c62e                	sw	a1,12(sp)
    6768:	237d                	jal	6d16 <__clzsi2>
    676a:	ffb50793          	addi	a5,a0,-5
    676e:	00fa9ab3          	sll	s5,s5,a5
    6772:	f8a00793          	li	a5,-118
    6776:	40a78a33          	sub	s4,a5,a0
    677a:	4401                	li	s0,0
    677c:	4b01                	li	s6,0
    677e:	45b2                	lw	a1,12(sp)
    6780:	bd5d                	j	6636 <__divsf3+0x48>
    6782:	8526                	mv	a0,s1
    6784:	2b49                	jal	6d16 <__clzsi2>
    6786:	ffb50713          	addi	a4,a0,-5
    678a:	00aa07b3          	add	a5,s4,a0
    678e:	00e494b3          	sll	s1,s1,a4
    6792:	07678a13          	addi	s4,a5,118 # f8000076 <__freertos_irq_stack_top+0xd7ffb076>
    6796:	4681                	li	a3,0
    6798:	b5f1                	j	6664 <__divsf3+0x76>
    679a:	001bf913          	andi	s2,s7,1
    679e:	4701                	li	a4,0
    67a0:	4781                	li	a5,0
    67a2:	b711                	j	66a6 <__divsf3+0xb8>
    67a4:	6641                	lui	a2,0x10
    67a6:	00549513          	slli	a0,s1,0x5
    67aa:	167d                	addi	a2,a2,-1
    67ac:	01055793          	srli	a5,a0,0x10
    67b0:	8e69                	and	a2,a2,a0
    67b2:	0a9afa63          	bgeu	s5,s1,6866 <__divsf3+0x278>
    67b6:	02fad5b3          	divu	a1,s5,a5
    67ba:	1a7d                	addi	s4,s4,-1
    67bc:	86d6                	mv	a3,s5
    67be:	4701                	li	a4,0
    67c0:	02c58833          	mul	a6,a1,a2
    67c4:	02f6f6b3          	remu	a3,a3,a5
    67c8:	06c2                	slli	a3,a3,0x10
    67ca:	8f55                	or	a4,a4,a3
    67cc:	01077b63          	bgeu	a4,a6,67e2 <__divsf3+0x1f4>
    67d0:	972a                	add	a4,a4,a0
    67d2:	fff58693          	addi	a3,a1,-1
    67d6:	0aa76863          	bltu	a4,a0,6886 <__divsf3+0x298>
    67da:	0b077663          	bgeu	a4,a6,6886 <__divsf3+0x298>
    67de:	15f9                	addi	a1,a1,-2
    67e0:	972a                	add	a4,a4,a0
    67e2:	41070733          	sub	a4,a4,a6
    67e6:	02f756b3          	divu	a3,a4,a5
    67ea:	02f77733          	remu	a4,a4,a5
    67ee:	02c68ab3          	mul	s5,a3,a2
    67f2:	01071793          	slli	a5,a4,0x10
    67f6:	0157fb63          	bgeu	a5,s5,680c <__divsf3+0x21e>
    67fa:	97aa                	add	a5,a5,a0
    67fc:	fff68713          	addi	a4,a3,-1 # 7dffffff <__freertos_irq_stack_top+0x5dffafff>
    6800:	08a7e163          	bltu	a5,a0,6882 <__divsf3+0x294>
    6804:	0757ff63          	bgeu	a5,s5,6882 <__divsf3+0x294>
    6808:	16f9                	addi	a3,a3,-2
    680a:	97aa                	add	a5,a5,a0
    680c:	05c2                	slli	a1,a1,0x10
    680e:	41578ab3          	sub	s5,a5,s5
    6812:	8dd5                	or	a1,a1,a3
    6814:	01503ab3          	snez	s5,s5
    6818:	0155eab3          	or	s5,a1,s5
    681c:	8bca                	mv	s7,s2
    681e:	bdc1                	j	66ee <__divsf3+0x100>
    6820:	4685                	li	a3,1
    6822:	8e99                	sub	a3,a3,a4
    6824:	c711                	beqz	a4,6830 <__divsf3+0x242>
    6826:	466d                	li	a2,27
    6828:	4701                	li	a4,0
    682a:	4781                	li	a5,0
    682c:	e6d64de3          	blt	a2,a3,66a6 <__divsf3+0xb8>
    6830:	09ea0a13          	addi	s4,s4,158
    6834:	014a9a33          	sll	s4,s5,s4
    6838:	00dad7b3          	srl	a5,s5,a3
    683c:	01403ab3          	snez	s5,s4
    6840:	0157e7b3          	or	a5,a5,s5
    6844:	0077f713          	andi	a4,a5,7
    6848:	c719                	beqz	a4,6856 <__divsf3+0x268>
    684a:	00f7f713          	andi	a4,a5,15
    684e:	4691                	li	a3,4
    6850:	00d70363          	beq	a4,a3,6856 <__divsf3+0x268>
    6854:	0791                	addi	a5,a5,4
    6856:	00579713          	slli	a4,a5,0x5
    685a:	02074863          	bltz	a4,688a <__divsf3+0x29c>
    685e:	079a                	slli	a5,a5,0x6
    6860:	83a5                	srli	a5,a5,0x9
    6862:	4701                	li	a4,0
    6864:	b589                	j	66a6 <__divsf3+0xb8>
    6866:	001ad693          	srli	a3,s5,0x1
    686a:	02f6d5b3          	divu	a1,a3,a5
    686e:	01fa9713          	slli	a4,s5,0x1f
    6872:	8341                	srli	a4,a4,0x10
    6874:	02c58833          	mul	a6,a1,a2
    6878:	b7b1                	j	67c4 <__divsf3+0x1d6>
    687a:	8bce                	mv	s7,s3
    687c:	8b36                	mv	s6,a3
    687e:	4a81                	li	s5,0
    6880:	bdb1                	j	66dc <__divsf3+0xee>
    6882:	86ba                	mv	a3,a4
    6884:	b761                	j	680c <__divsf3+0x21e>
    6886:	85b6                	mv	a1,a3
    6888:	bfa9                	j	67e2 <__divsf3+0x1f4>
    688a:	4705                	li	a4,1
    688c:	4781                	li	a5,0
    688e:	bd21                	j	66a6 <__divsf3+0xb8>
    6890:	001bf913          	andi	s2,s7,1
    6894:	0ff00713          	li	a4,255
    6898:	4781                	li	a5,0
    689a:	b531                	j	66a6 <__divsf3+0xb8>

0000689c <__mulsf3>:
    689c:	7179                	addi	sp,sp,-48
    689e:	d422                	sw	s0,40(sp)
    68a0:	01755413          	srli	s0,a0,0x17
    68a4:	ce4e                	sw	s3,28(sp)
    68a6:	cc52                	sw	s4,24(sp)
    68a8:	00951993          	slli	s3,a0,0x9
    68ac:	d606                	sw	ra,44(sp)
    68ae:	d226                	sw	s1,36(sp)
    68b0:	d04a                	sw	s2,32(sp)
    68b2:	ca56                	sw	s5,20(sp)
    68b4:	c85a                	sw	s6,16(sp)
    68b6:	0ff47413          	andi	s0,s0,255
    68ba:	0099d993          	srli	s3,s3,0x9
    68be:	01f55a13          	srli	s4,a0,0x1f
    68c2:	c469                	beqz	s0,698c <__mulsf3+0xf0>
    68c4:	0ff00793          	li	a5,255
    68c8:	0ef40863          	beq	s0,a5,69b8 <__mulsf3+0x11c>
    68cc:	00399793          	slli	a5,s3,0x3
    68d0:	04000737          	lui	a4,0x4000
    68d4:	00e7e9b3          	or	s3,a5,a4
    68d8:	f8140413          	addi	s0,s0,-127 # 3ffff81 <_data_lma+0x3ff7319>
    68dc:	4481                	li	s1,0
    68de:	4b01                	li	s6,0
    68e0:	0175d713          	srli	a4,a1,0x17
    68e4:	00959a93          	slli	s5,a1,0x9
    68e8:	0ff77713          	andi	a4,a4,255
    68ec:	009ada93          	srli	s5,s5,0x9
    68f0:	01f5d913          	srli	s2,a1,0x1f
    68f4:	cf45                	beqz	a4,69ac <__mulsf3+0x110>
    68f6:	0ff00793          	li	a5,255
    68fa:	02f70c63          	beq	a4,a5,6932 <__mulsf3+0x96>
    68fe:	0a8e                	slli	s5,s5,0x3
    6900:	f8170713          	addi	a4,a4,-127 # 3ffff81 <_data_lma+0x3ff7319>
    6904:	040007b7          	lui	a5,0x4000
    6908:	00faeab3          	or	s5,s5,a5
    690c:	943a                	add	s0,s0,a4
    690e:	4601                	li	a2,0
    6910:	012a4533          	xor	a0,s4,s2
    6914:	47bd                	li	a5,15
    6916:	86aa                	mv	a3,a0
    6918:	00140593          	addi	a1,s0,1
    691c:	1097e063          	bltu	a5,s1,6a1c <__mulsf3+0x180>
    6920:	00002717          	auipc	a4,0x2
    6924:	16c70713          	addi	a4,a4,364 # 8a8c <ODObjs+0x6dc>
    6928:	048a                	slli	s1,s1,0x2
    692a:	94ba                	add	s1,s1,a4
    692c:	409c                	lw	a5,0(s1)
    692e:	97ba                	add	a5,a5,a4
    6930:	8782                	jr	a5
    6932:	0ff40413          	addi	s0,s0,255
    6936:	0c0a9663          	bnez	s5,6a02 <__mulsf3+0x166>
    693a:	0024e493          	ori	s1,s1,2
    693e:	4609                	li	a2,2
    6940:	bfc1                	j	6910 <__mulsf3+0x74>
    6942:	4501                	li	a0,0
    6944:	0ff00713          	li	a4,255
    6948:	004007b7          	lui	a5,0x400
    694c:	50b2                	lw	ra,44(sp)
    694e:	5422                	lw	s0,40(sp)
    6950:	07a6                	slli	a5,a5,0x9
    6952:	075e                	slli	a4,a4,0x17
    6954:	83a5                	srli	a5,a5,0x9
    6956:	057e                	slli	a0,a0,0x1f
    6958:	8fd9                	or	a5,a5,a4
    695a:	5492                	lw	s1,36(sp)
    695c:	5902                	lw	s2,32(sp)
    695e:	49f2                	lw	s3,28(sp)
    6960:	4a62                	lw	s4,24(sp)
    6962:	4ad2                	lw	s5,20(sp)
    6964:	4b42                	lw	s6,16(sp)
    6966:	8d5d                	or	a0,a0,a5
    6968:	6145                	addi	sp,sp,48
    696a:	8082                	ret
    696c:	86ca                	mv	a3,s2
    696e:	89d6                	mv	s3,s5
    6970:	8b32                	mv	s6,a2
    6972:	4789                	li	a5,2
    6974:	08fb0f63          	beq	s6,a5,6a12 <__mulsf3+0x176>
    6978:	478d                	li	a5,3
    697a:	fcfb04e3          	beq	s6,a5,6942 <__mulsf3+0xa6>
    697e:	4785                	li	a5,1
    6980:	8536                	mv	a0,a3
    6982:	1afb1063          	bne	s6,a5,6b22 <__mulsf3+0x286>
    6986:	4701                	li	a4,0
    6988:	4781                	li	a5,0
    698a:	b7c9                	j	694c <__mulsf3+0xb0>
    698c:	04099d63          	bnez	s3,69e6 <__mulsf3+0x14a>
    6990:	0175d713          	srli	a4,a1,0x17
    6994:	00959a93          	slli	s5,a1,0x9
    6998:	0ff77713          	andi	a4,a4,255
    699c:	4491                	li	s1,4
    699e:	4401                	li	s0,0
    69a0:	4b05                	li	s6,1
    69a2:	009ada93          	srli	s5,s5,0x9
    69a6:	01f5d913          	srli	s2,a1,0x1f
    69aa:	f731                	bnez	a4,68f6 <__mulsf3+0x5a>
    69ac:	000a9d63          	bnez	s5,69c6 <__mulsf3+0x12a>
    69b0:	0014e493          	ori	s1,s1,1
    69b4:	4605                	li	a2,1
    69b6:	bfa9                	j	6910 <__mulsf3+0x74>
    69b8:	02099263          	bnez	s3,69dc <__mulsf3+0x140>
    69bc:	44a1                	li	s1,8
    69be:	0ff00413          	li	s0,255
    69c2:	4b09                	li	s6,2
    69c4:	bf31                	j	68e0 <__mulsf3+0x44>
    69c6:	8556                	mv	a0,s5
    69c8:	26b9                	jal	6d16 <__clzsi2>
    69ca:	ffb50793          	addi	a5,a0,-5
    69ce:	8c09                	sub	s0,s0,a0
    69d0:	00fa9ab3          	sll	s5,s5,a5
    69d4:	f8a40413          	addi	s0,s0,-118
    69d8:	4601                	li	a2,0
    69da:	bf1d                	j	6910 <__mulsf3+0x74>
    69dc:	44b1                	li	s1,12
    69de:	0ff00413          	li	s0,255
    69e2:	4b0d                	li	s6,3
    69e4:	bdf5                	j	68e0 <__mulsf3+0x44>
    69e6:	854e                	mv	a0,s3
    69e8:	c62e                	sw	a1,12(sp)
    69ea:	2635                	jal	6d16 <__clzsi2>
    69ec:	ffb50793          	addi	a5,a0,-5
    69f0:	f8a00413          	li	s0,-118
    69f4:	00f999b3          	sll	s3,s3,a5
    69f8:	8c09                	sub	s0,s0,a0
    69fa:	4481                	li	s1,0
    69fc:	4b01                	li	s6,0
    69fe:	45b2                	lw	a1,12(sp)
    6a00:	b5c5                	j	68e0 <__mulsf3+0x44>
    6a02:	0034e493          	ori	s1,s1,3
    6a06:	460d                	li	a2,3
    6a08:	b721                	j	6910 <__mulsf3+0x74>
    6a0a:	4789                	li	a5,2
    6a0c:	86d2                	mv	a3,s4
    6a0e:	f6fb15e3          	bne	s6,a5,6978 <__mulsf3+0xdc>
    6a12:	8536                	mv	a0,a3
    6a14:	0ff00713          	li	a4,255
    6a18:	4781                	li	a5,0
    6a1a:	bf0d                	j	694c <__mulsf3+0xb0>
    6a1c:	6341                	lui	t1,0x10
    6a1e:	fff30693          	addi	a3,t1,-1 # ffff <_data_lma+0x7397>
    6a22:	0109d613          	srli	a2,s3,0x10
    6a26:	010ad893          	srli	a7,s5,0x10
    6a2a:	00d9f7b3          	and	a5,s3,a3
    6a2e:	00dafab3          	and	s5,s5,a3
    6a32:	03578833          	mul	a6,a5,s5
    6a36:	02f889b3          	mul	s3,a7,a5
    6a3a:	01085713          	srli	a4,a6,0x10
    6a3e:	03560ab3          	mul	s5,a2,s5
    6a42:	99d6                	add	s3,s3,s5
    6a44:	974e                	add	a4,a4,s3
    6a46:	03160633          	mul	a2,a2,a7
    6a4a:	01577363          	bgeu	a4,s5,6a50 <__mulsf3+0x1b4>
    6a4e:	961a                	add	a2,a2,t1
    6a50:	67c1                	lui	a5,0x10
    6a52:	17fd                	addi	a5,a5,-1
    6a54:	00f776b3          	and	a3,a4,a5
    6a58:	00f87833          	and	a6,a6,a5
    6a5c:	06c2                	slli	a3,a3,0x10
    6a5e:	96c2                	add	a3,a3,a6
    6a60:	00669993          	slli	s3,a3,0x6
    6a64:	01075793          	srli	a5,a4,0x10
    6a68:	013039b3          	snez	s3,s3
    6a6c:	82e9                	srli	a3,a3,0x1a
    6a6e:	97b2                	add	a5,a5,a2
    6a70:	079a                	slli	a5,a5,0x6
    6a72:	00d9e6b3          	or	a3,s3,a3
    6a76:	00d7e9b3          	or	s3,a5,a3
    6a7a:	00499793          	slli	a5,s3,0x4
    6a7e:	0007d963          	bgez	a5,6a90 <__mulsf3+0x1f4>
    6a82:	0019d713          	srli	a4,s3,0x1
    6a86:	0019f793          	andi	a5,s3,1
    6a8a:	00f769b3          	or	s3,a4,a5
    6a8e:	842e                	mv	s0,a1
    6a90:	07f40713          	addi	a4,s0,127
    6a94:	04e05063          	blez	a4,6ad4 <__mulsf3+0x238>
    6a98:	0079f793          	andi	a5,s3,7
    6a9c:	c799                	beqz	a5,6aaa <__mulsf3+0x20e>
    6a9e:	00f9f793          	andi	a5,s3,15
    6aa2:	4691                	li	a3,4
    6aa4:	00d78363          	beq	a5,a3,6aaa <__mulsf3+0x20e>
    6aa8:	0991                	addi	s3,s3,4
    6aaa:	00499793          	slli	a5,s3,0x4
    6aae:	0007d963          	bgez	a5,6ac0 <__mulsf3+0x224>
    6ab2:	f80007b7          	lui	a5,0xf8000
    6ab6:	17fd                	addi	a5,a5,-1
    6ab8:	00f9f9b3          	and	s3,s3,a5
    6abc:	08040713          	addi	a4,s0,128
    6ac0:	0fe00793          	li	a5,254
    6ac4:	04e7cb63          	blt	a5,a4,6b1a <__mulsf3+0x27e>
    6ac8:	00699793          	slli	a5,s3,0x6
    6acc:	83a5                	srli	a5,a5,0x9
    6ace:	0ff77713          	andi	a4,a4,255
    6ad2:	bdad                	j	694c <__mulsf3+0xb0>
    6ad4:	4785                	li	a5,1
    6ad6:	40e786b3          	sub	a3,a5,a4
    6ada:	c711                	beqz	a4,6ae6 <__mulsf3+0x24a>
    6adc:	466d                	li	a2,27
    6ade:	4701                	li	a4,0
    6ae0:	4781                	li	a5,0
    6ae2:	e6d645e3          	blt	a2,a3,694c <__mulsf3+0xb0>
    6ae6:	09e40713          	addi	a4,s0,158
    6aea:	00e99733          	sll	a4,s3,a4
    6aee:	00e03733          	snez	a4,a4
    6af2:	00d9d7b3          	srl	a5,s3,a3
    6af6:	8fd9                	or	a5,a5,a4
    6af8:	0077f713          	andi	a4,a5,7
    6afc:	c719                	beqz	a4,6b0a <__mulsf3+0x26e>
    6afe:	00f7f713          	andi	a4,a5,15
    6b02:	4691                	li	a3,4
    6b04:	00d70363          	beq	a4,a3,6b0a <__mulsf3+0x26e>
    6b08:	0791                	addi	a5,a5,4
    6b0a:	00579713          	slli	a4,a5,0x5
    6b0e:	00074c63          	bltz	a4,6b26 <__mulsf3+0x28a>
    6b12:	079a                	slli	a5,a5,0x6
    6b14:	83a5                	srli	a5,a5,0x9
    6b16:	4701                	li	a4,0
    6b18:	bd15                	j	694c <__mulsf3+0xb0>
    6b1a:	0ff00713          	li	a4,255
    6b1e:	4781                	li	a5,0
    6b20:	b535                	j	694c <__mulsf3+0xb0>
    6b22:	842e                	mv	s0,a1
    6b24:	b7b5                	j	6a90 <__mulsf3+0x1f4>
    6b26:	4705                	li	a4,1
    6b28:	4781                	li	a5,0
    6b2a:	b50d                	j	694c <__mulsf3+0xb0>

00006b2c <__fixunssfsi>:
    6b2c:	01755713          	srli	a4,a0,0x17
    6b30:	00800637          	lui	a2,0x800
    6b34:	fff60793          	addi	a5,a2,-1 # 7fffff <_data_lma+0x7f7397>
    6b38:	0ff77713          	andi	a4,a4,255
    6b3c:	07e00593          	li	a1,126
    6b40:	00a7f6b3          	and	a3,a5,a0
    6b44:	01f55793          	srli	a5,a0,0x1f
    6b48:	4501                	li	a0,0
    6b4a:	00e5f463          	bgeu	a1,a4,6b52 <__fixunssfsi+0x26>
    6b4e:	c399                	beqz	a5,6b54 <__fixunssfsi+0x28>
    6b50:	8082                	ret
    6b52:	8082                	ret
    6b54:	09e00793          	li	a5,158
    6b58:	557d                	li	a0,-1
    6b5a:	fee7ebe3          	bltu	a5,a4,6b50 <__fixunssfsi+0x24>
    6b5e:	09500593          	li	a1,149
    6b62:	00c6e7b3          	or	a5,a3,a2
    6b66:	00e5d763          	bge	a1,a4,6b74 <__fixunssfsi+0x48>
    6b6a:	f6a70713          	addi	a4,a4,-150
    6b6e:	00e79533          	sll	a0,a5,a4
    6b72:	8082                	ret
    6b74:	09600513          	li	a0,150
    6b78:	40e50733          	sub	a4,a0,a4
    6b7c:	00e7d533          	srl	a0,a5,a4
    6b80:	8082                	ret

00006b82 <__floatsisf>:
    6b82:	1141                	addi	sp,sp,-16
    6b84:	c606                	sw	ra,12(sp)
    6b86:	c422                	sw	s0,8(sp)
    6b88:	c226                	sw	s1,4(sp)
    6b8a:	cd0d                	beqz	a0,6bc4 <__floatsisf+0x42>
    6b8c:	41f55793          	srai	a5,a0,0x1f
    6b90:	00a7c433          	xor	s0,a5,a0
    6b94:	8c1d                	sub	s0,s0,a5
    6b96:	84aa                	mv	s1,a0
    6b98:	8522                	mv	a0,s0
    6b9a:	2ab5                	jal	6d16 <__clzsi2>
    6b9c:	09e00793          	li	a5,158
    6ba0:	40a78733          	sub	a4,a5,a0
    6ba4:	09600793          	li	a5,150
    6ba8:	80fd                	srli	s1,s1,0x1f
    6baa:	02e7cc63          	blt	a5,a4,6be2 <__floatsisf+0x60>
    6bae:	46a1                	li	a3,8
    6bb0:	0ff77793          	andi	a5,a4,255
    6bb4:	00a6d563          	bge	a3,a0,6bbe <__floatsisf+0x3c>
    6bb8:	1561                	addi	a0,a0,-8
    6bba:	00a41433          	sll	s0,s0,a0
    6bbe:	0426                	slli	s0,s0,0x9
    6bc0:	8025                	srli	s0,s0,0x9
    6bc2:	a021                	j	6bca <__floatsisf+0x48>
    6bc4:	4481                	li	s1,0
    6bc6:	4781                	li	a5,0
    6bc8:	4401                	li	s0,0
    6bca:	0426                	slli	s0,s0,0x9
    6bcc:	00945513          	srli	a0,s0,0x9
    6bd0:	40b2                	lw	ra,12(sp)
    6bd2:	4422                	lw	s0,8(sp)
    6bd4:	07de                	slli	a5,a5,0x17
    6bd6:	04fe                	slli	s1,s1,0x1f
    6bd8:	8d5d                	or	a0,a0,a5
    6bda:	8d45                	or	a0,a0,s1
    6bdc:	4492                	lw	s1,4(sp)
    6bde:	0141                	addi	sp,sp,16
    6be0:	8082                	ret
    6be2:	09900793          	li	a5,153
    6be6:	00e7dd63          	bge	a5,a4,6c00 <__floatsisf+0x7e>
    6bea:	01b50793          	addi	a5,a0,27
    6bee:	4695                	li	a3,5
    6bf0:	00f417b3          	sll	a5,s0,a5
    6bf4:	8e89                	sub	a3,a3,a0
    6bf6:	00d45433          	srl	s0,s0,a3
    6bfa:	00f037b3          	snez	a5,a5
    6bfe:	8c5d                	or	s0,s0,a5
    6c00:	4795                	li	a5,5
    6c02:	00a7d663          	bge	a5,a0,6c0e <__floatsisf+0x8c>
    6c06:	ffb50793          	addi	a5,a0,-5
    6c0a:	00f41433          	sll	s0,s0,a5
    6c0e:	fc0006b7          	lui	a3,0xfc000
    6c12:	16fd                	addi	a3,a3,-1
    6c14:	00747793          	andi	a5,s0,7
    6c18:	00d47633          	and	a2,s0,a3
    6c1c:	c385                	beqz	a5,6c3c <__floatsisf+0xba>
    6c1e:	00f47793          	andi	a5,s0,15
    6c22:	4591                	li	a1,4
    6c24:	00b78c63          	beq	a5,a1,6c3c <__floatsisf+0xba>
    6c28:	0611                	addi	a2,a2,4
    6c2a:	00561793          	slli	a5,a2,0x5
    6c2e:	0007d763          	bgez	a5,6c3c <__floatsisf+0xba>
    6c32:	09f00793          	li	a5,159
    6c36:	8e75                	and	a2,a2,a3
    6c38:	40a78733          	sub	a4,a5,a0
    6c3c:	00661413          	slli	s0,a2,0x6
    6c40:	8025                	srli	s0,s0,0x9
    6c42:	0ff77793          	andi	a5,a4,255
    6c46:	b751                	j	6bca <__floatsisf+0x48>

00006c48 <__floatunsisf>:
    6c48:	1141                	addi	sp,sp,-16
    6c4a:	c606                	sw	ra,12(sp)
    6c4c:	c422                	sw	s0,8(sp)
    6c4e:	cd15                	beqz	a0,6c8a <__floatunsisf+0x42>
    6c50:	842a                	mv	s0,a0
    6c52:	20d1                	jal	6d16 <__clzsi2>
    6c54:	09e00793          	li	a5,158
    6c58:	40a78733          	sub	a4,a5,a0
    6c5c:	09600793          	li	a5,150
    6c60:	04e7c063          	blt	a5,a4,6ca0 <__floatunsisf+0x58>
    6c64:	46a1                	li	a3,8
    6c66:	0ff77793          	andi	a5,a4,255
    6c6a:	00a6d563          	bge	a3,a0,6c74 <__floatunsisf+0x2c>
    6c6e:	1561                	addi	a0,a0,-8
    6c70:	00a41433          	sll	s0,s0,a0
    6c74:	0426                	slli	s0,s0,0x9
    6c76:	8025                	srli	s0,s0,0x9
    6c78:	0426                	slli	s0,s0,0x9
    6c7a:	00945513          	srli	a0,s0,0x9
    6c7e:	40b2                	lw	ra,12(sp)
    6c80:	4422                	lw	s0,8(sp)
    6c82:	07de                	slli	a5,a5,0x17
    6c84:	8d5d                	or	a0,a0,a5
    6c86:	0141                	addi	sp,sp,16
    6c88:	8082                	ret
    6c8a:	4401                	li	s0,0
    6c8c:	0426                	slli	s0,s0,0x9
    6c8e:	00945513          	srli	a0,s0,0x9
    6c92:	40b2                	lw	ra,12(sp)
    6c94:	4422                	lw	s0,8(sp)
    6c96:	4781                	li	a5,0
    6c98:	07de                	slli	a5,a5,0x17
    6c9a:	8d5d                	or	a0,a0,a5
    6c9c:	0141                	addi	sp,sp,16
    6c9e:	8082                	ret
    6ca0:	09900793          	li	a5,153
    6ca4:	00e7dd63          	bge	a5,a4,6cbe <__floatunsisf+0x76>
    6ca8:	01b50793          	addi	a5,a0,27
    6cac:	4695                	li	a3,5
    6cae:	00f417b3          	sll	a5,s0,a5
    6cb2:	8e89                	sub	a3,a3,a0
    6cb4:	00f037b3          	snez	a5,a5
    6cb8:	00d45433          	srl	s0,s0,a3
    6cbc:	8c5d                	or	s0,s0,a5
    6cbe:	4795                	li	a5,5
    6cc0:	00a7d663          	bge	a5,a0,6ccc <__floatunsisf+0x84>
    6cc4:	ffb50793          	addi	a5,a0,-5
    6cc8:	00f41433          	sll	s0,s0,a5
    6ccc:	fc0006b7          	lui	a3,0xfc000
    6cd0:	16fd                	addi	a3,a3,-1
    6cd2:	00747793          	andi	a5,s0,7
    6cd6:	00d47633          	and	a2,s0,a3
    6cda:	c385                	beqz	a5,6cfa <__floatunsisf+0xb2>
    6cdc:	00f47793          	andi	a5,s0,15
    6ce0:	4591                	li	a1,4
    6ce2:	00b78c63          	beq	a5,a1,6cfa <__floatunsisf+0xb2>
    6ce6:	0611                	addi	a2,a2,4
    6ce8:	00561793          	slli	a5,a2,0x5
    6cec:	0007d763          	bgez	a5,6cfa <__floatunsisf+0xb2>
    6cf0:	09f00793          	li	a5,159
    6cf4:	8e75                	and	a2,a2,a3
    6cf6:	40a78733          	sub	a4,a5,a0
    6cfa:	00661413          	slli	s0,a2,0x6
    6cfe:	8025                	srli	s0,s0,0x9
    6d00:	0426                	slli	s0,s0,0x9
    6d02:	00945513          	srli	a0,s0,0x9
    6d06:	40b2                	lw	ra,12(sp)
    6d08:	4422                	lw	s0,8(sp)
    6d0a:	0ff77793          	andi	a5,a4,255
    6d0e:	07de                	slli	a5,a5,0x17
    6d10:	8d5d                	or	a0,a0,a5
    6d12:	0141                	addi	sp,sp,16
    6d14:	8082                	ret

00006d16 <__clzsi2>:
    6d16:	67c1                	lui	a5,0x10
    6d18:	02f57c63          	bgeu	a0,a5,6d50 <__clzsi2+0x3a>
    6d1c:	0ff00793          	li	a5,255
    6d20:	02000713          	li	a4,32
    6d24:	00a7eb63          	bltu	a5,a0,6d3a <__clzsi2+0x24>
    6d28:	00002797          	auipc	a5,0x2
    6d2c:	da478793          	addi	a5,a5,-604 # 8acc <__clz_tab>
    6d30:	97aa                	add	a5,a5,a0
    6d32:	2388                	lbu	a0,0(a5)
    6d34:	40a70533          	sub	a0,a4,a0
    6d38:	8082                	ret
    6d3a:	8121                	srli	a0,a0,0x8
    6d3c:	00002797          	auipc	a5,0x2
    6d40:	d9078793          	addi	a5,a5,-624 # 8acc <__clz_tab>
    6d44:	97aa                	add	a5,a5,a0
    6d46:	2388                	lbu	a0,0(a5)
    6d48:	4761                	li	a4,24
    6d4a:	40a70533          	sub	a0,a4,a0
    6d4e:	8082                	ret
    6d50:	010007b7          	lui	a5,0x1000
    6d54:	00f56d63          	bltu	a0,a5,6d6e <__clzsi2+0x58>
    6d58:	8161                	srli	a0,a0,0x18
    6d5a:	00002797          	auipc	a5,0x2
    6d5e:	d7278793          	addi	a5,a5,-654 # 8acc <__clz_tab>
    6d62:	97aa                	add	a5,a5,a0
    6d64:	2388                	lbu	a0,0(a5)
    6d66:	4721                	li	a4,8
    6d68:	40a70533          	sub	a0,a4,a0
    6d6c:	8082                	ret
    6d6e:	8141                	srli	a0,a0,0x10
    6d70:	00002797          	auipc	a5,0x2
    6d74:	d5c78793          	addi	a5,a5,-676 # 8acc <__clz_tab>
    6d78:	97aa                	add	a5,a5,a0
    6d7a:	2388                	lbu	a0,0(a5)
    6d7c:	4741                	li	a4,16
    6d7e:	40a70533          	sub	a0,a4,a0
    6d82:	8082                	ret

00006d84 <memcpy>:
    6d84:	00a5c7b3          	xor	a5,a1,a0
    6d88:	8b8d                	andi	a5,a5,3
    6d8a:	00c50733          	add	a4,a0,a2
    6d8e:	e781                	bnez	a5,6d96 <memcpy+0x12>
    6d90:	478d                	li	a5,3
    6d92:	00c7ed63          	bltu	a5,a2,6dac <memcpy+0x28>
    6d96:	87aa                	mv	a5,a0
    6d98:	08e57e63          	bgeu	a0,a4,6e34 <memcpy+0xb0>
    6d9c:	2194                	lbu	a3,0(a1)
    6d9e:	0785                	addi	a5,a5,1
    6da0:	0585                	addi	a1,a1,1
    6da2:	fed78fa3          	sb	a3,-1(a5)
    6da6:	fee7ebe3          	bltu	a5,a4,6d9c <memcpy+0x18>
    6daa:	8082                	ret
    6dac:	00357693          	andi	a3,a0,3
    6db0:	87aa                	mv	a5,a0
    6db2:	ca89                	beqz	a3,6dc4 <memcpy+0x40>
    6db4:	2194                	lbu	a3,0(a1)
    6db6:	0785                	addi	a5,a5,1
    6db8:	0585                	addi	a1,a1,1
    6dba:	fed78fa3          	sb	a3,-1(a5)
    6dbe:	0037f693          	andi	a3,a5,3
    6dc2:	bfc5                	j	6db2 <memcpy+0x2e>
    6dc4:	ffc77693          	andi	a3,a4,-4
    6dc8:	fe068613          	addi	a2,a3,-32 # fbffffe0 <__freertos_irq_stack_top+0xdbffafe0>
    6dcc:	06c7f063          	bgeu	a5,a2,6e2c <memcpy+0xa8>
    6dd0:	0005a383          	lw	t2,0(a1)
    6dd4:	0045a283          	lw	t0,4(a1)
    6dd8:	0085af83          	lw	t6,8(a1)
    6ddc:	00c5af03          	lw	t5,12(a1)
    6de0:	0105ae83          	lw	t4,16(a1)
    6de4:	0145ae03          	lw	t3,20(a1)
    6de8:	0185a303          	lw	t1,24(a1)
    6dec:	01c5a883          	lw	a7,28(a1)
    6df0:	02458593          	addi	a1,a1,36
    6df4:	0077a023          	sw	t2,0(a5)
    6df8:	ffc5a803          	lw	a6,-4(a1)
    6dfc:	0057a223          	sw	t0,4(a5)
    6e00:	01f7a423          	sw	t6,8(a5)
    6e04:	01e7a623          	sw	t5,12(a5)
    6e08:	01d7a823          	sw	t4,16(a5)
    6e0c:	01c7aa23          	sw	t3,20(a5)
    6e10:	0067ac23          	sw	t1,24(a5)
    6e14:	0117ae23          	sw	a7,28(a5)
    6e18:	02478793          	addi	a5,a5,36
    6e1c:	ff07ae23          	sw	a6,-4(a5)
    6e20:	b775                	j	6dcc <memcpy+0x48>
    6e22:	4190                	lw	a2,0(a1)
    6e24:	0791                	addi	a5,a5,4
    6e26:	0591                	addi	a1,a1,4
    6e28:	fec7ae23          	sw	a2,-4(a5)
    6e2c:	fed7ebe3          	bltu	a5,a3,6e22 <memcpy+0x9e>
    6e30:	f6e7e6e3          	bltu	a5,a4,6d9c <memcpy+0x18>
    6e34:	8082                	ret

00006e36 <_free_r>:
    6e36:	c5dd                	beqz	a1,6ee4 <_free_r+0xae>
    6e38:	ffc5a783          	lw	a5,-4(a1)
    6e3c:	1141                	addi	sp,sp,-16
    6e3e:	c422                	sw	s0,8(sp)
    6e40:	c606                	sw	ra,12(sp)
    6e42:	c226                	sw	s1,4(sp)
    6e44:	ffc58413          	addi	s0,a1,-4
    6e48:	0007d363          	bgez	a5,6e4e <_free_r+0x18>
    6e4c:	943e                	add	s0,s0,a5
    6e4e:	84aa                	mv	s1,a0
    6e50:	139000ef          	jal	ra,7788 <__malloc_lock>
    6e54:	1fffa797          	auipc	a5,0x1fffa
    6e58:	80878793          	addi	a5,a5,-2040 # 2000065c <__malloc_free_list>
    6e5c:	439c                	lw	a5,0(a5)
    6e5e:	ef91                	bnez	a5,6e7a <_free_r+0x44>
    6e60:	00042223          	sw	zero,4(s0)
    6e64:	1fff9797          	auipc	a5,0x1fff9
    6e68:	7e87ac23          	sw	s0,2040(a5) # 2000065c <__malloc_free_list>
    6e6c:	4422                	lw	s0,8(sp)
    6e6e:	40b2                	lw	ra,12(sp)
    6e70:	8526                	mv	a0,s1
    6e72:	4492                	lw	s1,4(sp)
    6e74:	0141                	addi	sp,sp,16
    6e76:	1150006f          	j	778a <__malloc_unlock>
    6e7a:	00f47e63          	bgeu	s0,a5,6e96 <_free_r+0x60>
    6e7e:	4014                	lw	a3,0(s0)
    6e80:	00d40733          	add	a4,s0,a3
    6e84:	00e79663          	bne	a5,a4,6e90 <_free_r+0x5a>
    6e88:	4398                	lw	a4,0(a5)
    6e8a:	43dc                	lw	a5,4(a5)
    6e8c:	9736                	add	a4,a4,a3
    6e8e:	c018                	sw	a4,0(s0)
    6e90:	c05c                	sw	a5,4(s0)
    6e92:	bfc9                	j	6e64 <_free_r+0x2e>
    6e94:	87ba                	mv	a5,a4
    6e96:	43d8                	lw	a4,4(a5)
    6e98:	c319                	beqz	a4,6e9e <_free_r+0x68>
    6e9a:	fee47de3          	bgeu	s0,a4,6e94 <_free_r+0x5e>
    6e9e:	4394                	lw	a3,0(a5)
    6ea0:	00d78633          	add	a2,a5,a3
    6ea4:	00861f63          	bne	a2,s0,6ec2 <_free_r+0x8c>
    6ea8:	4010                	lw	a2,0(s0)
    6eaa:	96b2                	add	a3,a3,a2
    6eac:	c394                	sw	a3,0(a5)
    6eae:	00d78633          	add	a2,a5,a3
    6eb2:	fac71de3          	bne	a4,a2,6e6c <_free_r+0x36>
    6eb6:	4310                	lw	a2,0(a4)
    6eb8:	4358                	lw	a4,4(a4)
    6eba:	96b2                	add	a3,a3,a2
    6ebc:	c394                	sw	a3,0(a5)
    6ebe:	c3d8                	sw	a4,4(a5)
    6ec0:	b775                	j	6e6c <_free_r+0x36>
    6ec2:	00c47563          	bgeu	s0,a2,6ecc <_free_r+0x96>
    6ec6:	47b1                	li	a5,12
    6ec8:	c09c                	sw	a5,0(s1)
    6eca:	b74d                	j	6e6c <_free_r+0x36>
    6ecc:	4010                	lw	a2,0(s0)
    6ece:	00c406b3          	add	a3,s0,a2
    6ed2:	00d71663          	bne	a4,a3,6ede <_free_r+0xa8>
    6ed6:	4314                	lw	a3,0(a4)
    6ed8:	4358                	lw	a4,4(a4)
    6eda:	96b2                	add	a3,a3,a2
    6edc:	c014                	sw	a3,0(s0)
    6ede:	c058                	sw	a4,4(s0)
    6ee0:	c3c0                	sw	s0,4(a5)
    6ee2:	b769                	j	6e6c <_free_r+0x36>
    6ee4:	8082                	ret

00006ee6 <_malloc_r>:
    6ee6:	1101                	addi	sp,sp,-32
    6ee8:	ca26                	sw	s1,20(sp)
    6eea:	00358493          	addi	s1,a1,3
    6eee:	98f1                	andi	s1,s1,-4
    6ef0:	ce06                	sw	ra,28(sp)
    6ef2:	cc22                	sw	s0,24(sp)
    6ef4:	c84a                	sw	s2,16(sp)
    6ef6:	c64e                	sw	s3,12(sp)
    6ef8:	04a1                	addi	s1,s1,8
    6efa:	47b1                	li	a5,12
    6efc:	04f4f963          	bgeu	s1,a5,6f4e <_malloc_r+0x68>
    6f00:	44b1                	li	s1,12
    6f02:	04b4e863          	bltu	s1,a1,6f52 <_malloc_r+0x6c>
    6f06:	892a                	mv	s2,a0
    6f08:	081000ef          	jal	ra,7788 <__malloc_lock>
    6f0c:	1fff9797          	auipc	a5,0x1fff9
    6f10:	75078793          	addi	a5,a5,1872 # 2000065c <__malloc_free_list>
    6f14:	4398                	lw	a4,0(a5)
    6f16:	843a                	mv	s0,a4
    6f18:	e439                	bnez	s0,6f66 <_malloc_r+0x80>
    6f1a:	1fff9797          	auipc	a5,0x1fff9
    6f1e:	74678793          	addi	a5,a5,1862 # 20000660 <__malloc_sbrk_start>
    6f22:	439c                	lw	a5,0(a5)
    6f24:	eb81                	bnez	a5,6f34 <_malloc_r+0x4e>
    6f26:	4581                	li	a1,0
    6f28:	854a                	mv	a0,s2
    6f2a:	22c1                	jal	70ea <_sbrk_r>
    6f2c:	1fff9797          	auipc	a5,0x1fff9
    6f30:	72a7aa23          	sw	a0,1844(a5) # 20000660 <__malloc_sbrk_start>
    6f34:	85a6                	mv	a1,s1
    6f36:	854a                	mv	a0,s2
    6f38:	2a4d                	jal	70ea <_sbrk_r>
    6f3a:	59fd                	li	s3,-1
    6f3c:	07351b63          	bne	a0,s3,6fb2 <_malloc_r+0xcc>
    6f40:	47b1                	li	a5,12
    6f42:	00f92023          	sw	a5,0(s2)
    6f46:	854a                	mv	a0,s2
    6f48:	043000ef          	jal	ra,778a <__malloc_unlock>
    6f4c:	a029                	j	6f56 <_malloc_r+0x70>
    6f4e:	fa04dae3          	bgez	s1,6f02 <_malloc_r+0x1c>
    6f52:	47b1                	li	a5,12
    6f54:	c11c                	sw	a5,0(a0)
    6f56:	4501                	li	a0,0
    6f58:	40f2                	lw	ra,28(sp)
    6f5a:	4462                	lw	s0,24(sp)
    6f5c:	44d2                	lw	s1,20(sp)
    6f5e:	4942                	lw	s2,16(sp)
    6f60:	49b2                	lw	s3,12(sp)
    6f62:	6105                	addi	sp,sp,32
    6f64:	8082                	ret
    6f66:	401c                	lw	a5,0(s0)
    6f68:	8f85                	sub	a5,a5,s1
    6f6a:	0407c163          	bltz	a5,6fac <_malloc_r+0xc6>
    6f6e:	46ad                	li	a3,11
    6f70:	00f6f663          	bgeu	a3,a5,6f7c <_malloc_r+0x96>
    6f74:	c01c                	sw	a5,0(s0)
    6f76:	943e                	add	s0,s0,a5
    6f78:	c004                	sw	s1,0(s0)
    6f7a:	a801                	j	6f8a <_malloc_r+0xa4>
    6f7c:	405c                	lw	a5,4(s0)
    6f7e:	02871563          	bne	a4,s0,6fa8 <_malloc_r+0xc2>
    6f82:	1fff9717          	auipc	a4,0x1fff9
    6f86:	6cf72d23          	sw	a5,1754(a4) # 2000065c <__malloc_free_list>
    6f8a:	854a                	mv	a0,s2
    6f8c:	7fe000ef          	jal	ra,778a <__malloc_unlock>
    6f90:	00b40513          	addi	a0,s0,11
    6f94:	00440793          	addi	a5,s0,4
    6f98:	9961                	andi	a0,a0,-8
    6f9a:	40f50733          	sub	a4,a0,a5
    6f9e:	df4d                	beqz	a4,6f58 <_malloc_r+0x72>
    6fa0:	943a                	add	s0,s0,a4
    6fa2:	8f89                	sub	a5,a5,a0
    6fa4:	c01c                	sw	a5,0(s0)
    6fa6:	bf4d                	j	6f58 <_malloc_r+0x72>
    6fa8:	c35c                	sw	a5,4(a4)
    6faa:	b7c5                	j	6f8a <_malloc_r+0xa4>
    6fac:	8722                	mv	a4,s0
    6fae:	4040                	lw	s0,4(s0)
    6fb0:	b7a5                	j	6f18 <_malloc_r+0x32>
    6fb2:	00350413          	addi	s0,a0,3
    6fb6:	9871                	andi	s0,s0,-4
    6fb8:	fc8500e3          	beq	a0,s0,6f78 <_malloc_r+0x92>
    6fbc:	40a405b3          	sub	a1,s0,a0
    6fc0:	854a                	mv	a0,s2
    6fc2:	2225                	jal	70ea <_sbrk_r>
    6fc4:	fb351ae3          	bne	a0,s3,6f78 <_malloc_r+0x92>
    6fc8:	bfa5                	j	6f40 <_malloc_r+0x5a>

00006fca <iprintf>:
    6fca:	7139                	addi	sp,sp,-64
    6fcc:	da3e                	sw	a5,52(sp)
    6fce:	d22e                	sw	a1,36(sp)
    6fd0:	d432                	sw	a2,40(sp)
    6fd2:	d636                	sw	a3,44(sp)
    6fd4:	d83a                	sw	a4,48(sp)
    6fd6:	dc42                	sw	a6,56(sp)
    6fd8:	de46                	sw	a7,60(sp)
    6fda:	82818793          	addi	a5,gp,-2008 # 200005a8 <_impure_ptr>
    6fde:	cc22                	sw	s0,24(sp)
    6fe0:	4380                	lw	s0,0(a5)
    6fe2:	ca26                	sw	s1,20(sp)
    6fe4:	ce06                	sw	ra,28(sp)
    6fe6:	84aa                	mv	s1,a0
    6fe8:	c409                	beqz	s0,6ff2 <iprintf+0x28>
    6fea:	4c1c                	lw	a5,24(s0)
    6fec:	e399                	bnez	a5,6ff2 <iprintf+0x28>
    6fee:	8522                	mv	a0,s0
    6ff0:	2b1d                	jal	7526 <__sinit>
    6ff2:	440c                	lw	a1,8(s0)
    6ff4:	1054                	addi	a3,sp,36
    6ff6:	8626                	mv	a2,s1
    6ff8:	8522                	mv	a0,s0
    6ffa:	c636                	sw	a3,12(sp)
    6ffc:	7fa000ef          	jal	ra,77f6 <_vfiprintf_r>
    7000:	40f2                	lw	ra,28(sp)
    7002:	4462                	lw	s0,24(sp)
    7004:	44d2                	lw	s1,20(sp)
    7006:	6121                	addi	sp,sp,64
    7008:	8082                	ret

0000700a <_puts_r>:
    700a:	1101                	addi	sp,sp,-32
    700c:	ca26                	sw	s1,20(sp)
    700e:	c84a                	sw	s2,16(sp)
    7010:	ce06                	sw	ra,28(sp)
    7012:	cc22                	sw	s0,24(sp)
    7014:	c64e                	sw	s3,12(sp)
    7016:	c452                	sw	s4,8(sp)
    7018:	84aa                	mv	s1,a0
    701a:	892e                	mv	s2,a1
    701c:	c501                	beqz	a0,7024 <_puts_r+0x1a>
    701e:	4d1c                	lw	a5,24(a0)
    7020:	e391                	bnez	a5,7024 <_puts_r+0x1a>
    7022:	2311                	jal	7526 <__sinit>
    7024:	4c9c                	lw	a5,24(s1)
    7026:	4480                	lw	s0,8(s1)
    7028:	e399                	bnez	a5,702e <_puts_r+0x24>
    702a:	8526                	mv	a0,s1
    702c:	29ed                	jal	7526 <__sinit>
    702e:	00002797          	auipc	a5,0x2
    7032:	bbe78793          	addi	a5,a5,-1090 # 8bec <__sf_fake_stdin>
    7036:	02f41b63          	bne	s0,a5,706c <_puts_r+0x62>
    703a:	40c0                	lw	s0,4(s1)
    703c:	245e                	lhu	a5,12(s0)
    703e:	8ba1                	andi	a5,a5,8
    7040:	c7b1                	beqz	a5,708c <_puts_r+0x82>
    7042:	481c                	lw	a5,16(s0)
    7044:	c7a1                	beqz	a5,708c <_puts_r+0x82>
    7046:	59fd                	li	s3,-1
    7048:	4a29                	li	s4,10
    704a:	441c                	lw	a5,8(s0)
    704c:	00094583          	lbu	a1,0(s2)
    7050:	17fd                	addi	a5,a5,-1
    7052:	e9b1                	bnez	a1,70a6 <_puts_r+0x9c>
    7054:	c41c                	sw	a5,8(s0)
    7056:	0607dd63          	bgez	a5,70d0 <_puts_r+0xc6>
    705a:	8622                	mv	a2,s0
    705c:	45a9                	li	a1,10
    705e:	8526                	mv	a0,s1
    7060:	2875                	jal	711c <__swbuf_r>
    7062:	57fd                	li	a5,-1
    7064:	02f50863          	beq	a0,a5,7094 <_puts_r+0x8a>
    7068:	4529                	li	a0,10
    706a:	a035                	j	7096 <_puts_r+0x8c>
    706c:	00002797          	auipc	a5,0x2
    7070:	ba078793          	addi	a5,a5,-1120 # 8c0c <__sf_fake_stdout>
    7074:	00f41463          	bne	s0,a5,707c <_puts_r+0x72>
    7078:	4480                	lw	s0,8(s1)
    707a:	b7c9                	j	703c <_puts_r+0x32>
    707c:	00002797          	auipc	a5,0x2
    7080:	b5078793          	addi	a5,a5,-1200 # 8bcc <__sf_fake_stderr>
    7084:	faf41ce3          	bne	s0,a5,703c <_puts_r+0x32>
    7088:	44c0                	lw	s0,12(s1)
    708a:	bf4d                	j	703c <_puts_r+0x32>
    708c:	85a2                	mv	a1,s0
    708e:	8526                	mv	a0,s1
    7090:	22a1                	jal	71d8 <__swsetup_r>
    7092:	d955                	beqz	a0,7046 <_puts_r+0x3c>
    7094:	557d                	li	a0,-1
    7096:	40f2                	lw	ra,28(sp)
    7098:	4462                	lw	s0,24(sp)
    709a:	44d2                	lw	s1,20(sp)
    709c:	4942                	lw	s2,16(sp)
    709e:	49b2                	lw	s3,12(sp)
    70a0:	4a22                	lw	s4,8(sp)
    70a2:	6105                	addi	sp,sp,32
    70a4:	8082                	ret
    70a6:	c41c                	sw	a5,8(s0)
    70a8:	0905                	addi	s2,s2,1
    70aa:	0007d763          	bgez	a5,70b8 <_puts_r+0xae>
    70ae:	4c18                	lw	a4,24(s0)
    70b0:	00e7ca63          	blt	a5,a4,70c4 <_puts_r+0xba>
    70b4:	01458863          	beq	a1,s4,70c4 <_puts_r+0xba>
    70b8:	401c                	lw	a5,0(s0)
    70ba:	00178713          	addi	a4,a5,1
    70be:	c018                	sw	a4,0(s0)
    70c0:	a38c                	sb	a1,0(a5)
    70c2:	b761                	j	704a <_puts_r+0x40>
    70c4:	8622                	mv	a2,s0
    70c6:	8526                	mv	a0,s1
    70c8:	2891                	jal	711c <__swbuf_r>
    70ca:	f93510e3          	bne	a0,s3,704a <_puts_r+0x40>
    70ce:	b7d9                	j	7094 <_puts_r+0x8a>
    70d0:	401c                	lw	a5,0(s0)
    70d2:	00178713          	addi	a4,a5,1
    70d6:	c018                	sw	a4,0(s0)
    70d8:	4729                	li	a4,10
    70da:	a398                	sb	a4,0(a5)
    70dc:	b771                	j	7068 <_puts_r+0x5e>

000070de <puts>:
    70de:	82818793          	addi	a5,gp,-2008 # 200005a8 <_impure_ptr>
    70e2:	85aa                	mv	a1,a0
    70e4:	4388                	lw	a0,0(a5)
    70e6:	f25ff06f          	j	700a <_puts_r>

000070ea <_sbrk_r>:
    70ea:	1141                	addi	sp,sp,-16
    70ec:	c422                	sw	s0,8(sp)
    70ee:	842a                	mv	s0,a0
    70f0:	852e                	mv	a0,a1
    70f2:	1fffb797          	auipc	a5,0x1fffb
    70f6:	9207a723          	sw	zero,-1746(a5) # 20001a20 <errno>
    70fa:	c606                	sw	ra,12(sp)
    70fc:	f81fe0ef          	jal	ra,607c <_sbrk>
    7100:	57fd                	li	a5,-1
    7102:	00f51963          	bne	a0,a5,7114 <_sbrk_r+0x2a>
    7106:	1fffb797          	auipc	a5,0x1fffb
    710a:	91a78793          	addi	a5,a5,-1766 # 20001a20 <errno>
    710e:	439c                	lw	a5,0(a5)
    7110:	c391                	beqz	a5,7114 <_sbrk_r+0x2a>
    7112:	c01c                	sw	a5,0(s0)
    7114:	40b2                	lw	ra,12(sp)
    7116:	4422                	lw	s0,8(sp)
    7118:	0141                	addi	sp,sp,16
    711a:	8082                	ret

0000711c <__swbuf_r>:
    711c:	1101                	addi	sp,sp,-32
    711e:	cc22                	sw	s0,24(sp)
    7120:	ca26                	sw	s1,20(sp)
    7122:	c84a                	sw	s2,16(sp)
    7124:	ce06                	sw	ra,28(sp)
    7126:	c64e                	sw	s3,12(sp)
    7128:	84aa                	mv	s1,a0
    712a:	892e                	mv	s2,a1
    712c:	8432                	mv	s0,a2
    712e:	c501                	beqz	a0,7136 <__swbuf_r+0x1a>
    7130:	4d1c                	lw	a5,24(a0)
    7132:	e391                	bnez	a5,7136 <__swbuf_r+0x1a>
    7134:	2ecd                	jal	7526 <__sinit>
    7136:	00002797          	auipc	a5,0x2
    713a:	ab678793          	addi	a5,a5,-1354 # 8bec <__sf_fake_stdin>
    713e:	06f41763          	bne	s0,a5,71ac <__swbuf_r+0x90>
    7142:	40c0                	lw	s0,4(s1)
    7144:	4c1c                	lw	a5,24(s0)
    7146:	c41c                	sw	a5,8(s0)
    7148:	245e                	lhu	a5,12(s0)
    714a:	8ba1                	andi	a5,a5,8
    714c:	c3c1                	beqz	a5,71cc <__swbuf_r+0xb0>
    714e:	481c                	lw	a5,16(s0)
    7150:	cfb5                	beqz	a5,71cc <__swbuf_r+0xb0>
    7152:	481c                	lw	a5,16(s0)
    7154:	4008                	lw	a0,0(s0)
    7156:	0ff97993          	andi	s3,s2,255
    715a:	0ff97913          	andi	s2,s2,255
    715e:	8d1d                	sub	a0,a0,a5
    7160:	485c                	lw	a5,20(s0)
    7162:	00f54663          	blt	a0,a5,716e <__swbuf_r+0x52>
    7166:	85a2                	mv	a1,s0
    7168:	8526                	mv	a0,s1
    716a:	2c79                	jal	7408 <_fflush_r>
    716c:	e525                	bnez	a0,71d4 <__swbuf_r+0xb8>
    716e:	441c                	lw	a5,8(s0)
    7170:	0505                	addi	a0,a0,1
    7172:	17fd                	addi	a5,a5,-1
    7174:	c41c                	sw	a5,8(s0)
    7176:	401c                	lw	a5,0(s0)
    7178:	00178713          	addi	a4,a5,1
    717c:	c018                	sw	a4,0(s0)
    717e:	01378023          	sb	s3,0(a5)
    7182:	485c                	lw	a5,20(s0)
    7184:	00a78863          	beq	a5,a0,7194 <__swbuf_r+0x78>
    7188:	245e                	lhu	a5,12(s0)
    718a:	8b85                	andi	a5,a5,1
    718c:	cb81                	beqz	a5,719c <__swbuf_r+0x80>
    718e:	47a9                	li	a5,10
    7190:	00f91663          	bne	s2,a5,719c <__swbuf_r+0x80>
    7194:	85a2                	mv	a1,s0
    7196:	8526                	mv	a0,s1
    7198:	2c85                	jal	7408 <_fflush_r>
    719a:	ed0d                	bnez	a0,71d4 <__swbuf_r+0xb8>
    719c:	40f2                	lw	ra,28(sp)
    719e:	4462                	lw	s0,24(sp)
    71a0:	854a                	mv	a0,s2
    71a2:	44d2                	lw	s1,20(sp)
    71a4:	4942                	lw	s2,16(sp)
    71a6:	49b2                	lw	s3,12(sp)
    71a8:	6105                	addi	sp,sp,32
    71aa:	8082                	ret
    71ac:	00002797          	auipc	a5,0x2
    71b0:	a6078793          	addi	a5,a5,-1440 # 8c0c <__sf_fake_stdout>
    71b4:	00f41463          	bne	s0,a5,71bc <__swbuf_r+0xa0>
    71b8:	4480                	lw	s0,8(s1)
    71ba:	b769                	j	7144 <__swbuf_r+0x28>
    71bc:	00002797          	auipc	a5,0x2
    71c0:	a1078793          	addi	a5,a5,-1520 # 8bcc <__sf_fake_stderr>
    71c4:	f8f410e3          	bne	s0,a5,7144 <__swbuf_r+0x28>
    71c8:	44c0                	lw	s0,12(s1)
    71ca:	bfad                	j	7144 <__swbuf_r+0x28>
    71cc:	85a2                	mv	a1,s0
    71ce:	8526                	mv	a0,s1
    71d0:	2021                	jal	71d8 <__swsetup_r>
    71d2:	d141                	beqz	a0,7152 <__swbuf_r+0x36>
    71d4:	597d                	li	s2,-1
    71d6:	b7d9                	j	719c <__swbuf_r+0x80>

000071d8 <__swsetup_r>:
    71d8:	1141                	addi	sp,sp,-16
    71da:	82818793          	addi	a5,gp,-2008 # 200005a8 <_impure_ptr>
    71de:	c226                	sw	s1,4(sp)
    71e0:	4384                	lw	s1,0(a5)
    71e2:	c422                	sw	s0,8(sp)
    71e4:	c04a                	sw	s2,0(sp)
    71e6:	c606                	sw	ra,12(sp)
    71e8:	892a                	mv	s2,a0
    71ea:	842e                	mv	s0,a1
    71ec:	c489                	beqz	s1,71f6 <__swsetup_r+0x1e>
    71ee:	4c9c                	lw	a5,24(s1)
    71f0:	e399                	bnez	a5,71f6 <__swsetup_r+0x1e>
    71f2:	8526                	mv	a0,s1
    71f4:	2e0d                	jal	7526 <__sinit>
    71f6:	00002797          	auipc	a5,0x2
    71fa:	9f678793          	addi	a5,a5,-1546 # 8bec <__sf_fake_stdin>
    71fe:	02f41b63          	bne	s0,a5,7234 <__swsetup_r+0x5c>
    7202:	40c0                	lw	s0,4(s1)
    7204:	00c41703          	lh	a4,12(s0)
    7208:	01071793          	slli	a5,a4,0x10
    720c:	83c1                	srli	a5,a5,0x10
    720e:	0087f693          	andi	a3,a5,8
    7212:	eab5                	bnez	a3,7286 <__swsetup_r+0xae>
    7214:	0107f693          	andi	a3,a5,16
    7218:	ee95                	bnez	a3,7254 <__swsetup_r+0x7c>
    721a:	47a5                	li	a5,9
    721c:	00f92023          	sw	a5,0(s2)
    7220:	04076713          	ori	a4,a4,64
    7224:	a45a                	sh	a4,12(s0)
    7226:	557d                	li	a0,-1
    7228:	40b2                	lw	ra,12(sp)
    722a:	4422                	lw	s0,8(sp)
    722c:	4492                	lw	s1,4(sp)
    722e:	4902                	lw	s2,0(sp)
    7230:	0141                	addi	sp,sp,16
    7232:	8082                	ret
    7234:	00002797          	auipc	a5,0x2
    7238:	9d878793          	addi	a5,a5,-1576 # 8c0c <__sf_fake_stdout>
    723c:	00f41463          	bne	s0,a5,7244 <__swsetup_r+0x6c>
    7240:	4480                	lw	s0,8(s1)
    7242:	b7c9                	j	7204 <__swsetup_r+0x2c>
    7244:	00002797          	auipc	a5,0x2
    7248:	98878793          	addi	a5,a5,-1656 # 8bcc <__sf_fake_stderr>
    724c:	faf41ce3          	bne	s0,a5,7204 <__swsetup_r+0x2c>
    7250:	44c0                	lw	s0,12(s1)
    7252:	bf4d                	j	7204 <__swsetup_r+0x2c>
    7254:	8b91                	andi	a5,a5,4
    7256:	c785                	beqz	a5,727e <__swsetup_r+0xa6>
    7258:	584c                	lw	a1,52(s0)
    725a:	c991                	beqz	a1,726e <__swsetup_r+0x96>
    725c:	04440793          	addi	a5,s0,68
    7260:	00f58563          	beq	a1,a5,726a <__swsetup_r+0x92>
    7264:	854a                	mv	a0,s2
    7266:	bd1ff0ef          	jal	ra,6e36 <_free_r>
    726a:	02042a23          	sw	zero,52(s0)
    726e:	245e                	lhu	a5,12(s0)
    7270:	00042223          	sw	zero,4(s0)
    7274:	fdb7f793          	andi	a5,a5,-37
    7278:	a45e                	sh	a5,12(s0)
    727a:	481c                	lw	a5,16(s0)
    727c:	c01c                	sw	a5,0(s0)
    727e:	245e                	lhu	a5,12(s0)
    7280:	0087e793          	ori	a5,a5,8
    7284:	a45e                	sh	a5,12(s0)
    7286:	481c                	lw	a5,16(s0)
    7288:	eb99                	bnez	a5,729e <__swsetup_r+0xc6>
    728a:	245e                	lhu	a5,12(s0)
    728c:	20000713          	li	a4,512
    7290:	2807f793          	andi	a5,a5,640
    7294:	00e78563          	beq	a5,a4,729e <__swsetup_r+0xc6>
    7298:	85a2                	mv	a1,s0
    729a:	854a                	mv	a0,s2
    729c:	29a1                	jal	76f4 <__smakebuf_r>
    729e:	245e                	lhu	a5,12(s0)
    72a0:	0017f713          	andi	a4,a5,1
    72a4:	c31d                	beqz	a4,72ca <__swsetup_r+0xf2>
    72a6:	485c                	lw	a5,20(s0)
    72a8:	00042423          	sw	zero,8(s0)
    72ac:	40f007b3          	neg	a5,a5
    72b0:	cc1c                	sw	a5,24(s0)
    72b2:	481c                	lw	a5,16(s0)
    72b4:	4501                	li	a0,0
    72b6:	fbad                	bnez	a5,7228 <__swsetup_r+0x50>
    72b8:	00c41783          	lh	a5,12(s0)
    72bc:	0807f713          	andi	a4,a5,128
    72c0:	d725                	beqz	a4,7228 <__swsetup_r+0x50>
    72c2:	0407e793          	ori	a5,a5,64
    72c6:	a45e                	sh	a5,12(s0)
    72c8:	bfb9                	j	7226 <__swsetup_r+0x4e>
    72ca:	8b89                	andi	a5,a5,2
    72cc:	4701                	li	a4,0
    72ce:	e391                	bnez	a5,72d2 <__swsetup_r+0xfa>
    72d0:	4858                	lw	a4,20(s0)
    72d2:	c418                	sw	a4,8(s0)
    72d4:	bff9                	j	72b2 <__swsetup_r+0xda>

000072d6 <__sflush_r>:
    72d6:	25de                	lhu	a5,12(a1)
    72d8:	1101                	addi	sp,sp,-32
    72da:	cc22                	sw	s0,24(sp)
    72dc:	ca26                	sw	s1,20(sp)
    72de:	ce06                	sw	ra,28(sp)
    72e0:	c84a                	sw	s2,16(sp)
    72e2:	c64e                	sw	s3,12(sp)
    72e4:	0087f713          	andi	a4,a5,8
    72e8:	84aa                	mv	s1,a0
    72ea:	842e                	mv	s0,a1
    72ec:	ef61                	bnez	a4,73c4 <__sflush_r+0xee>
    72ee:	41d8                	lw	a4,4(a1)
    72f0:	00e04d63          	bgtz	a4,730a <__sflush_r+0x34>
    72f4:	41b8                	lw	a4,64(a1)
    72f6:	00e04a63          	bgtz	a4,730a <__sflush_r+0x34>
    72fa:	4501                	li	a0,0
    72fc:	40f2                	lw	ra,28(sp)
    72fe:	4462                	lw	s0,24(sp)
    7300:	44d2                	lw	s1,20(sp)
    7302:	4942                	lw	s2,16(sp)
    7304:	49b2                	lw	s3,12(sp)
    7306:	6105                	addi	sp,sp,32
    7308:	8082                	ret
    730a:	5458                	lw	a4,44(s0)
    730c:	d77d                	beqz	a4,72fa <__sflush_r+0x24>
    730e:	0004a903          	lw	s2,0(s1)
    7312:	01379693          	slli	a3,a5,0x13
    7316:	0004a023          	sw	zero,0(s1)
    731a:	0606dc63          	bgez	a3,7392 <__sflush_r+0xbc>
    731e:	4870                	lw	a2,84(s0)
    7320:	245e                	lhu	a5,12(s0)
    7322:	8b91                	andi	a5,a5,4
    7324:	c799                	beqz	a5,7332 <__sflush_r+0x5c>
    7326:	405c                	lw	a5,4(s0)
    7328:	8e1d                	sub	a2,a2,a5
    732a:	585c                	lw	a5,52(s0)
    732c:	c399                	beqz	a5,7332 <__sflush_r+0x5c>
    732e:	403c                	lw	a5,64(s0)
    7330:	8e1d                	sub	a2,a2,a5
    7332:	545c                	lw	a5,44(s0)
    7334:	500c                	lw	a1,32(s0)
    7336:	4681                	li	a3,0
    7338:	8526                	mv	a0,s1
    733a:	9782                	jalr	a5
    733c:	57fd                	li	a5,-1
    733e:	245a                	lhu	a4,12(s0)
    7340:	00f51d63          	bne	a0,a5,735a <__sflush_r+0x84>
    7344:	4094                	lw	a3,0(s1)
    7346:	47f5                	li	a5,29
    7348:	06d7e963          	bltu	a5,a3,73ba <__sflush_r+0xe4>
    734c:	204007b7          	lui	a5,0x20400
    7350:	0785                	addi	a5,a5,1
    7352:	00d7d7b3          	srl	a5,a5,a3
    7356:	8b85                	andi	a5,a5,1
    7358:	c3ad                	beqz	a5,73ba <__sflush_r+0xe4>
    735a:	481c                	lw	a5,16(s0)
    735c:	00042223          	sw	zero,4(s0)
    7360:	c01c                	sw	a5,0(s0)
    7362:	01371793          	slli	a5,a4,0x13
    7366:	0007d863          	bgez	a5,7376 <__sflush_r+0xa0>
    736a:	57fd                	li	a5,-1
    736c:	00f51463          	bne	a0,a5,7374 <__sflush_r+0x9e>
    7370:	409c                	lw	a5,0(s1)
    7372:	e391                	bnez	a5,7376 <__sflush_r+0xa0>
    7374:	c868                	sw	a0,84(s0)
    7376:	584c                	lw	a1,52(s0)
    7378:	0124a023          	sw	s2,0(s1)
    737c:	ddbd                	beqz	a1,72fa <__sflush_r+0x24>
    737e:	04440793          	addi	a5,s0,68
    7382:	00f58563          	beq	a1,a5,738c <__sflush_r+0xb6>
    7386:	8526                	mv	a0,s1
    7388:	aafff0ef          	jal	ra,6e36 <_free_r>
    738c:	02042a23          	sw	zero,52(s0)
    7390:	b7ad                	j	72fa <__sflush_r+0x24>
    7392:	500c                	lw	a1,32(s0)
    7394:	4601                	li	a2,0
    7396:	4685                	li	a3,1
    7398:	8526                	mv	a0,s1
    739a:	9702                	jalr	a4
    739c:	57fd                	li	a5,-1
    739e:	862a                	mv	a2,a0
    73a0:	f8f510e3          	bne	a0,a5,7320 <__sflush_r+0x4a>
    73a4:	409c                	lw	a5,0(s1)
    73a6:	dfad                	beqz	a5,7320 <__sflush_r+0x4a>
    73a8:	4775                	li	a4,29
    73aa:	00e78563          	beq	a5,a4,73b4 <__sflush_r+0xde>
    73ae:	4759                	li	a4,22
    73b0:	04e79363          	bne	a5,a4,73f6 <__sflush_r+0x120>
    73b4:	0124a023          	sw	s2,0(s1)
    73b8:	b789                	j	72fa <__sflush_r+0x24>
    73ba:	04076713          	ori	a4,a4,64
    73be:	a45a                	sh	a4,12(s0)
    73c0:	557d                	li	a0,-1
    73c2:	bf2d                	j	72fc <__sflush_r+0x26>
    73c4:	0105a983          	lw	s3,16(a1)
    73c8:	f20989e3          	beqz	s3,72fa <__sflush_r+0x24>
    73cc:	0005a903          	lw	s2,0(a1)
    73d0:	8b8d                	andi	a5,a5,3
    73d2:	0135a023          	sw	s3,0(a1)
    73d6:	41390933          	sub	s2,s2,s3
    73da:	4701                	li	a4,0
    73dc:	e391                	bnez	a5,73e0 <__sflush_r+0x10a>
    73de:	49d8                	lw	a4,20(a1)
    73e0:	c418                	sw	a4,8(s0)
    73e2:	f1205ce3          	blez	s2,72fa <__sflush_r+0x24>
    73e6:	541c                	lw	a5,40(s0)
    73e8:	500c                	lw	a1,32(s0)
    73ea:	86ca                	mv	a3,s2
    73ec:	864e                	mv	a2,s3
    73ee:	8526                	mv	a0,s1
    73f0:	9782                	jalr	a5
    73f2:	00a04763          	bgtz	a0,7400 <__sflush_r+0x12a>
    73f6:	245e                	lhu	a5,12(s0)
    73f8:	0407e793          	ori	a5,a5,64
    73fc:	a45e                	sh	a5,12(s0)
    73fe:	b7c9                	j	73c0 <__sflush_r+0xea>
    7400:	99aa                	add	s3,s3,a0
    7402:	40a90933          	sub	s2,s2,a0
    7406:	bff1                	j	73e2 <__sflush_r+0x10c>

00007408 <_fflush_r>:
    7408:	499c                	lw	a5,16(a1)
    740a:	c3a5                	beqz	a5,746a <_fflush_r+0x62>
    740c:	1101                	addi	sp,sp,-32
    740e:	cc22                	sw	s0,24(sp)
    7410:	ce06                	sw	ra,28(sp)
    7412:	842a                	mv	s0,a0
    7414:	c511                	beqz	a0,7420 <_fflush_r+0x18>
    7416:	4d1c                	lw	a5,24(a0)
    7418:	e781                	bnez	a5,7420 <_fflush_r+0x18>
    741a:	c62e                	sw	a1,12(sp)
    741c:	2229                	jal	7526 <__sinit>
    741e:	45b2                	lw	a1,12(sp)
    7420:	00001797          	auipc	a5,0x1
    7424:	7cc78793          	addi	a5,a5,1996 # 8bec <__sf_fake_stdin>
    7428:	00f59c63          	bne	a1,a5,7440 <_fflush_r+0x38>
    742c:	404c                	lw	a1,4(s0)
    742e:	00c59783          	lh	a5,12(a1)
    7432:	c79d                	beqz	a5,7460 <_fflush_r+0x58>
    7434:	8522                	mv	a0,s0
    7436:	4462                	lw	s0,24(sp)
    7438:	40f2                	lw	ra,28(sp)
    743a:	6105                	addi	sp,sp,32
    743c:	e9bff06f          	j	72d6 <__sflush_r>
    7440:	00001797          	auipc	a5,0x1
    7444:	7cc78793          	addi	a5,a5,1996 # 8c0c <__sf_fake_stdout>
    7448:	00f59463          	bne	a1,a5,7450 <_fflush_r+0x48>
    744c:	440c                	lw	a1,8(s0)
    744e:	b7c5                	j	742e <_fflush_r+0x26>
    7450:	00001797          	auipc	a5,0x1
    7454:	77c78793          	addi	a5,a5,1916 # 8bcc <__sf_fake_stderr>
    7458:	fcf59be3          	bne	a1,a5,742e <_fflush_r+0x26>
    745c:	444c                	lw	a1,12(s0)
    745e:	bfc1                	j	742e <_fflush_r+0x26>
    7460:	40f2                	lw	ra,28(sp)
    7462:	4462                	lw	s0,24(sp)
    7464:	4501                	li	a0,0
    7466:	6105                	addi	sp,sp,32
    7468:	8082                	ret
    746a:	4501                	li	a0,0
    746c:	8082                	ret

0000746e <std>:
    746e:	1141                	addi	sp,sp,-16
    7470:	c422                	sw	s0,8(sp)
    7472:	c606                	sw	ra,12(sp)
    7474:	842a                	mv	s0,a0
    7476:	a54e                	sh	a1,12(a0)
    7478:	a572                	sh	a2,14(a0)
    747a:	00052023          	sw	zero,0(a0)
    747e:	00052223          	sw	zero,4(a0)
    7482:	00052423          	sw	zero,8(a0)
    7486:	06052223          	sw	zero,100(a0)
    748a:	00052823          	sw	zero,16(a0)
    748e:	00052a23          	sw	zero,20(a0)
    7492:	00052c23          	sw	zero,24(a0)
    7496:	4621                	li	a2,8
    7498:	4581                	li	a1,0
    749a:	05c50513          	addi	a0,a0,92
    749e:	8b0f90ef          	jal	ra,54e <memset>
    74a2:	00001797          	auipc	a5,0x1
    74a6:	98a78793          	addi	a5,a5,-1654 # 7e2c <__sread>
    74aa:	d05c                	sw	a5,36(s0)
    74ac:	00001797          	auipc	a5,0x1
    74b0:	9ac78793          	addi	a5,a5,-1620 # 7e58 <__swrite>
    74b4:	d41c                	sw	a5,40(s0)
    74b6:	00001797          	auipc	a5,0x1
    74ba:	9ea78793          	addi	a5,a5,-1558 # 7ea0 <__sseek>
    74be:	d45c                	sw	a5,44(s0)
    74c0:	00001797          	auipc	a5,0x1
    74c4:	a1078793          	addi	a5,a5,-1520 # 7ed0 <__sclose>
    74c8:	d000                	sw	s0,32(s0)
    74ca:	d81c                	sw	a5,48(s0)
    74cc:	40b2                	lw	ra,12(sp)
    74ce:	4422                	lw	s0,8(sp)
    74d0:	0141                	addi	sp,sp,16
    74d2:	8082                	ret

000074d4 <_cleanup_r>:
    74d4:	00000597          	auipc	a1,0x0
    74d8:	f3458593          	addi	a1,a1,-204 # 7408 <_fflush_r>
    74dc:	aa99                	j	7632 <_fwalk_reent>

000074de <__sfmoreglue>:
    74de:	1141                	addi	sp,sp,-16
    74e0:	c226                	sw	s1,4(sp)
    74e2:	06800613          	li	a2,104
    74e6:	fff58493          	addi	s1,a1,-1
    74ea:	02c484b3          	mul	s1,s1,a2
    74ee:	c04a                	sw	s2,0(sp)
    74f0:	892e                	mv	s2,a1
    74f2:	c422                	sw	s0,8(sp)
    74f4:	c606                	sw	ra,12(sp)
    74f6:	07448593          	addi	a1,s1,116
    74fa:	9edff0ef          	jal	ra,6ee6 <_malloc_r>
    74fe:	842a                	mv	s0,a0
    7500:	cd01                	beqz	a0,7518 <__sfmoreglue+0x3a>
    7502:	00052023          	sw	zero,0(a0)
    7506:	01252223          	sw	s2,4(a0)
    750a:	0531                	addi	a0,a0,12
    750c:	c408                	sw	a0,8(s0)
    750e:	06848613          	addi	a2,s1,104
    7512:	4581                	li	a1,0
    7514:	83af90ef          	jal	ra,54e <memset>
    7518:	8522                	mv	a0,s0
    751a:	40b2                	lw	ra,12(sp)
    751c:	4422                	lw	s0,8(sp)
    751e:	4492                	lw	s1,4(sp)
    7520:	4902                	lw	s2,0(sp)
    7522:	0141                	addi	sp,sp,16
    7524:	8082                	ret

00007526 <__sinit>:
    7526:	4d1c                	lw	a5,24(a0)
    7528:	e7a5                	bnez	a5,7590 <__sinit+0x6a>
    752a:	1141                	addi	sp,sp,-16
    752c:	c606                	sw	ra,12(sp)
    752e:	c422                	sw	s0,8(sp)
    7530:	00000797          	auipc	a5,0x0
    7534:	fa478793          	addi	a5,a5,-92 # 74d4 <_cleanup_r>
    7538:	d51c                	sw	a5,40(a0)
    753a:	83418793          	addi	a5,gp,-1996 # 200005b4 <_global_impure_ptr>
    753e:	439c                	lw	a5,0(a5)
    7540:	04052423          	sw	zero,72(a0)
    7544:	04052623          	sw	zero,76(a0)
    7548:	04052823          	sw	zero,80(a0)
    754c:	00f51463          	bne	a0,a5,7554 <__sinit+0x2e>
    7550:	4785                	li	a5,1
    7552:	cd1c                	sw	a5,24(a0)
    7554:	842a                	mv	s0,a0
    7556:	2835                	jal	7592 <__sfp>
    7558:	c048                	sw	a0,4(s0)
    755a:	8522                	mv	a0,s0
    755c:	281d                	jal	7592 <__sfp>
    755e:	c408                	sw	a0,8(s0)
    7560:	8522                	mv	a0,s0
    7562:	2805                	jal	7592 <__sfp>
    7564:	c448                	sw	a0,12(s0)
    7566:	4048                	lw	a0,4(s0)
    7568:	4601                	li	a2,0
    756a:	4591                	li	a1,4
    756c:	f03ff0ef          	jal	ra,746e <std>
    7570:	4408                	lw	a0,8(s0)
    7572:	4605                	li	a2,1
    7574:	45a5                	li	a1,9
    7576:	ef9ff0ef          	jal	ra,746e <std>
    757a:	4448                	lw	a0,12(s0)
    757c:	4609                	li	a2,2
    757e:	45c9                	li	a1,18
    7580:	eefff0ef          	jal	ra,746e <std>
    7584:	4785                	li	a5,1
    7586:	cc1c                	sw	a5,24(s0)
    7588:	40b2                	lw	ra,12(sp)
    758a:	4422                	lw	s0,8(sp)
    758c:	0141                	addi	sp,sp,16
    758e:	8082                	ret
    7590:	8082                	ret

00007592 <__sfp>:
    7592:	1141                	addi	sp,sp,-16
    7594:	83418793          	addi	a5,gp,-1996 # 200005b4 <_global_impure_ptr>
    7598:	c226                	sw	s1,4(sp)
    759a:	4384                	lw	s1,0(a5)
    759c:	c04a                	sw	s2,0(sp)
    759e:	c606                	sw	ra,12(sp)
    75a0:	4c9c                	lw	a5,24(s1)
    75a2:	c422                	sw	s0,8(sp)
    75a4:	892a                	mv	s2,a0
    75a6:	e781                	bnez	a5,75ae <__sfp+0x1c>
    75a8:	8526                	mv	a0,s1
    75aa:	f7dff0ef          	jal	ra,7526 <__sinit>
    75ae:	04848493          	addi	s1,s1,72
    75b2:	4480                	lw	s0,8(s1)
    75b4:	40dc                	lw	a5,4(s1)
    75b6:	17fd                	addi	a5,a5,-1
    75b8:	0007d663          	bgez	a5,75c4 <__sfp+0x32>
    75bc:	409c                	lw	a5,0(s1)
    75be:	cfb9                	beqz	a5,761c <__sfp+0x8a>
    75c0:	4084                	lw	s1,0(s1)
    75c2:	bfc5                	j	75b2 <__sfp+0x20>
    75c4:	00c41703          	lh	a4,12(s0)
    75c8:	e739                	bnez	a4,7616 <__sfp+0x84>
    75ca:	77c1                	lui	a5,0xffff0
    75cc:	0785                	addi	a5,a5,1
    75ce:	06042223          	sw	zero,100(s0)
    75d2:	00042023          	sw	zero,0(s0)
    75d6:	00042223          	sw	zero,4(s0)
    75da:	00042423          	sw	zero,8(s0)
    75de:	c45c                	sw	a5,12(s0)
    75e0:	00042823          	sw	zero,16(s0)
    75e4:	00042a23          	sw	zero,20(s0)
    75e8:	00042c23          	sw	zero,24(s0)
    75ec:	4621                	li	a2,8
    75ee:	4581                	li	a1,0
    75f0:	05c40513          	addi	a0,s0,92
    75f4:	f5bf80ef          	jal	ra,54e <memset>
    75f8:	02042a23          	sw	zero,52(s0)
    75fc:	02042c23          	sw	zero,56(s0)
    7600:	04042423          	sw	zero,72(s0)
    7604:	04042623          	sw	zero,76(s0)
    7608:	8522                	mv	a0,s0
    760a:	40b2                	lw	ra,12(sp)
    760c:	4422                	lw	s0,8(sp)
    760e:	4492                	lw	s1,4(sp)
    7610:	4902                	lw	s2,0(sp)
    7612:	0141                	addi	sp,sp,16
    7614:	8082                	ret
    7616:	06840413          	addi	s0,s0,104
    761a:	bf71                	j	75b6 <__sfp+0x24>
    761c:	4591                	li	a1,4
    761e:	854a                	mv	a0,s2
    7620:	ebfff0ef          	jal	ra,74de <__sfmoreglue>
    7624:	c088                	sw	a0,0(s1)
    7626:	fd49                	bnez	a0,75c0 <__sfp+0x2e>
    7628:	47b1                	li	a5,12
    762a:	00f92023          	sw	a5,0(s2)
    762e:	4401                	li	s0,0
    7630:	bfe1                	j	7608 <__sfp+0x76>

00007632 <_fwalk_reent>:
    7632:	7179                	addi	sp,sp,-48
    7634:	d422                	sw	s0,40(sp)
    7636:	d04a                	sw	s2,32(sp)
    7638:	cc52                	sw	s4,24(sp)
    763a:	ca56                	sw	s5,20(sp)
    763c:	c85a                	sw	s6,16(sp)
    763e:	c65e                	sw	s7,12(sp)
    7640:	d606                	sw	ra,44(sp)
    7642:	d226                	sw	s1,36(sp)
    7644:	ce4e                	sw	s3,28(sp)
    7646:	8a2a                	mv	s4,a0
    7648:	8aae                	mv	s5,a1
    764a:	04850413          	addi	s0,a0,72
    764e:	4901                	li	s2,0
    7650:	4b05                	li	s6,1
    7652:	5bfd                	li	s7,-1
    7654:	ec09                	bnez	s0,766e <_fwalk_reent+0x3c>
    7656:	50b2                	lw	ra,44(sp)
    7658:	5422                	lw	s0,40(sp)
    765a:	854a                	mv	a0,s2
    765c:	5492                	lw	s1,36(sp)
    765e:	5902                	lw	s2,32(sp)
    7660:	49f2                	lw	s3,28(sp)
    7662:	4a62                	lw	s4,24(sp)
    7664:	4ad2                	lw	s5,20(sp)
    7666:	4b42                	lw	s6,16(sp)
    7668:	4bb2                	lw	s7,12(sp)
    766a:	6145                	addi	sp,sp,48
    766c:	8082                	ret
    766e:	4404                	lw	s1,8(s0)
    7670:	00442983          	lw	s3,4(s0)
    7674:	19fd                	addi	s3,s3,-1
    7676:	0009d463          	bgez	s3,767e <_fwalk_reent+0x4c>
    767a:	4000                	lw	s0,0(s0)
    767c:	bfe1                	j	7654 <_fwalk_reent+0x22>
    767e:	24de                	lhu	a5,12(s1)
    7680:	00fb7b63          	bgeu	s6,a5,7696 <_fwalk_reent+0x64>
    7684:	00e49783          	lh	a5,14(s1)
    7688:	01778763          	beq	a5,s7,7696 <_fwalk_reent+0x64>
    768c:	85a6                	mv	a1,s1
    768e:	8552                	mv	a0,s4
    7690:	9a82                	jalr	s5
    7692:	00a96933          	or	s2,s2,a0
    7696:	06848493          	addi	s1,s1,104
    769a:	bfe9                	j	7674 <_fwalk_reent+0x42>

0000769c <__swhatbuf_r>:
    769c:	7119                	addi	sp,sp,-128
    769e:	daa6                	sw	s1,116(sp)
    76a0:	84ae                	mv	s1,a1
    76a2:	00e59583          	lh	a1,14(a1)
    76a6:	dca2                	sw	s0,120(sp)
    76a8:	de86                	sw	ra,124(sp)
    76aa:	8432                	mv	s0,a2
    76ac:	0005db63          	bgez	a1,76c2 <__swhatbuf_r+0x26>
    76b0:	24de                	lhu	a5,12(s1)
    76b2:	0006a023          	sw	zero,0(a3)
    76b6:	0807f793          	andi	a5,a5,128
    76ba:	e785                	bnez	a5,76e2 <__swhatbuf_r+0x46>
    76bc:	40000793          	li	a5,1024
    76c0:	a01d                	j	76e6 <__swhatbuf_r+0x4a>
    76c2:	0830                	addi	a2,sp,24
    76c4:	c636                	sw	a3,12(sp)
    76c6:	077000ef          	jal	ra,7f3c <_fstat_r>
    76ca:	46b2                	lw	a3,12(sp)
    76cc:	fe0542e3          	bltz	a0,76b0 <__swhatbuf_r+0x14>
    76d0:	4772                	lw	a4,28(sp)
    76d2:	67bd                	lui	a5,0xf
    76d4:	8ff9                	and	a5,a5,a4
    76d6:	7779                	lui	a4,0xffffe
    76d8:	97ba                	add	a5,a5,a4
    76da:	0017b793          	seqz	a5,a5
    76de:	c29c                	sw	a5,0(a3)
    76e0:	bff1                	j	76bc <__swhatbuf_r+0x20>
    76e2:	04000793          	li	a5,64
    76e6:	c01c                	sw	a5,0(s0)
    76e8:	50f6                	lw	ra,124(sp)
    76ea:	5466                	lw	s0,120(sp)
    76ec:	54d6                	lw	s1,116(sp)
    76ee:	4501                	li	a0,0
    76f0:	6109                	addi	sp,sp,128
    76f2:	8082                	ret

000076f4 <__smakebuf_r>:
    76f4:	25de                	lhu	a5,12(a1)
    76f6:	1101                	addi	sp,sp,-32
    76f8:	cc22                	sw	s0,24(sp)
    76fa:	ce06                	sw	ra,28(sp)
    76fc:	ca26                	sw	s1,20(sp)
    76fe:	c84a                	sw	s2,16(sp)
    7700:	8b89                	andi	a5,a5,2
    7702:	842e                	mv	s0,a1
    7704:	cf89                	beqz	a5,771e <__smakebuf_r+0x2a>
    7706:	04740793          	addi	a5,s0,71
    770a:	c01c                	sw	a5,0(s0)
    770c:	c81c                	sw	a5,16(s0)
    770e:	4785                	li	a5,1
    7710:	c85c                	sw	a5,20(s0)
    7712:	40f2                	lw	ra,28(sp)
    7714:	4462                	lw	s0,24(sp)
    7716:	44d2                	lw	s1,20(sp)
    7718:	4942                	lw	s2,16(sp)
    771a:	6105                	addi	sp,sp,32
    771c:	8082                	ret
    771e:	0074                	addi	a3,sp,12
    7720:	0030                	addi	a2,sp,8
    7722:	84aa                	mv	s1,a0
    7724:	f79ff0ef          	jal	ra,769c <__swhatbuf_r>
    7728:	45a2                	lw	a1,8(sp)
    772a:	892a                	mv	s2,a0
    772c:	8526                	mv	a0,s1
    772e:	fb8ff0ef          	jal	ra,6ee6 <_malloc_r>
    7732:	e919                	bnez	a0,7748 <__smakebuf_r+0x54>
    7734:	00c41783          	lh	a5,12(s0)
    7738:	2007f713          	andi	a4,a5,512
    773c:	fb79                	bnez	a4,7712 <__smakebuf_r+0x1e>
    773e:	9bf1                	andi	a5,a5,-4
    7740:	0027e793          	ori	a5,a5,2
    7744:	a45e                	sh	a5,12(s0)
    7746:	b7c1                	j	7706 <__smakebuf_r+0x12>
    7748:	00000797          	auipc	a5,0x0
    774c:	d8c78793          	addi	a5,a5,-628 # 74d4 <_cleanup_r>
    7750:	d49c                	sw	a5,40(s1)
    7752:	245e                	lhu	a5,12(s0)
    7754:	c008                	sw	a0,0(s0)
    7756:	c808                	sw	a0,16(s0)
    7758:	0807e793          	ori	a5,a5,128
    775c:	a45e                	sh	a5,12(s0)
    775e:	47a2                	lw	a5,8(sp)
    7760:	c85c                	sw	a5,20(s0)
    7762:	47b2                	lw	a5,12(sp)
    7764:	cf81                	beqz	a5,777c <__smakebuf_r+0x88>
    7766:	00e41583          	lh	a1,14(s0)
    776a:	8526                	mv	a0,s1
    776c:	003000ef          	jal	ra,7f6e <_isatty_r>
    7770:	c511                	beqz	a0,777c <__smakebuf_r+0x88>
    7772:	245e                	lhu	a5,12(s0)
    7774:	9bf1                	andi	a5,a5,-4
    7776:	0017e793          	ori	a5,a5,1
    777a:	a45e                	sh	a5,12(s0)
    777c:	245e                	lhu	a5,12(s0)
    777e:	00f96933          	or	s2,s2,a5
    7782:	01241623          	sh	s2,12(s0)
    7786:	b771                	j	7712 <__smakebuf_r+0x1e>

00007788 <__malloc_lock>:
    7788:	8082                	ret

0000778a <__malloc_unlock>:
    778a:	8082                	ret

0000778c <__sfputc_r>:
    778c:	461c                	lw	a5,8(a2)
    778e:	17fd                	addi	a5,a5,-1
    7790:	c61c                	sw	a5,8(a2)
    7792:	0007da63          	bgez	a5,77a6 <__sfputc_r+0x1a>
    7796:	4e18                	lw	a4,24(a2)
    7798:	00e7c563          	blt	a5,a4,77a2 <__sfputc_r+0x16>
    779c:	47a9                	li	a5,10
    779e:	00f59463          	bne	a1,a5,77a6 <__sfputc_r+0x1a>
    77a2:	97bff06f          	j	711c <__swbuf_r>
    77a6:	421c                	lw	a5,0(a2)
    77a8:	852e                	mv	a0,a1
    77aa:	00178713          	addi	a4,a5,1
    77ae:	c218                	sw	a4,0(a2)
    77b0:	a38c                	sb	a1,0(a5)
    77b2:	8082                	ret

000077b4 <__sfputs_r>:
    77b4:	1101                	addi	sp,sp,-32
    77b6:	cc22                	sw	s0,24(sp)
    77b8:	ca26                	sw	s1,20(sp)
    77ba:	c84a                	sw	s2,16(sp)
    77bc:	c64e                	sw	s3,12(sp)
    77be:	c452                	sw	s4,8(sp)
    77c0:	ce06                	sw	ra,28(sp)
    77c2:	892a                	mv	s2,a0
    77c4:	89ae                	mv	s3,a1
    77c6:	8432                	mv	s0,a2
    77c8:	00d604b3          	add	s1,a2,a3
    77cc:	5a7d                	li	s4,-1
    77ce:	00941463          	bne	s0,s1,77d6 <__sfputs_r+0x22>
    77d2:	4501                	li	a0,0
    77d4:	a809                	j	77e6 <__sfputs_r+0x32>
    77d6:	200c                	lbu	a1,0(s0)
    77d8:	864e                	mv	a2,s3
    77da:	854a                	mv	a0,s2
    77dc:	fb1ff0ef          	jal	ra,778c <__sfputc_r>
    77e0:	0405                	addi	s0,s0,1
    77e2:	ff4516e3          	bne	a0,s4,77ce <__sfputs_r+0x1a>
    77e6:	40f2                	lw	ra,28(sp)
    77e8:	4462                	lw	s0,24(sp)
    77ea:	44d2                	lw	s1,20(sp)
    77ec:	4942                	lw	s2,16(sp)
    77ee:	49b2                	lw	s3,12(sp)
    77f0:	4a22                	lw	s4,8(sp)
    77f2:	6105                	addi	sp,sp,32
    77f4:	8082                	ret

000077f6 <_vfiprintf_r>:
    77f6:	7135                	addi	sp,sp,-160
    77f8:	cd22                	sw	s0,152(sp)
    77fa:	cb26                	sw	s1,148(sp)
    77fc:	c94a                	sw	s2,144(sp)
    77fe:	c74e                	sw	s3,140(sp)
    7800:	cf06                	sw	ra,156(sp)
    7802:	c552                	sw	s4,136(sp)
    7804:	c356                	sw	s5,132(sp)
    7806:	c15a                	sw	s6,128(sp)
    7808:	dede                	sw	s7,124(sp)
    780a:	dce2                	sw	s8,120(sp)
    780c:	dae6                	sw	s9,116(sp)
    780e:	89aa                	mv	s3,a0
    7810:	84ae                	mv	s1,a1
    7812:	8932                	mv	s2,a2
    7814:	8436                	mv	s0,a3
    7816:	c509                	beqz	a0,7820 <_vfiprintf_r+0x2a>
    7818:	4d1c                	lw	a5,24(a0)
    781a:	e399                	bnez	a5,7820 <_vfiprintf_r+0x2a>
    781c:	d0bff0ef          	jal	ra,7526 <__sinit>
    7820:	00001797          	auipc	a5,0x1
    7824:	3cc78793          	addi	a5,a5,972 # 8bec <__sf_fake_stdin>
    7828:	0cf49863          	bne	s1,a5,78f8 <_vfiprintf_r+0x102>
    782c:	0049a483          	lw	s1,4(s3)
    7830:	24de                	lhu	a5,12(s1)
    7832:	8ba1                	andi	a5,a5,8
    7834:	c7e5                	beqz	a5,791c <_vfiprintf_r+0x126>
    7836:	489c                	lw	a5,16(s1)
    7838:	c3f5                	beqz	a5,791c <_vfiprintf_r+0x126>
    783a:	02000793          	li	a5,32
    783e:	02f104a3          	sb	a5,41(sp)
    7842:	03000793          	li	a5,48
    7846:	d202                	sw	zero,36(sp)
    7848:	02f10523          	sb	a5,42(sp)
    784c:	c622                	sw	s0,12(sp)
    784e:	02500b93          	li	s7,37
    7852:	00001a97          	auipc	s5,0x1
    7856:	3daa8a93          	addi	s5,s5,986 # 8c2c <__sf_fake_stdout+0x20>
    785a:	4c05                	li	s8,1
    785c:	4b29                	li	s6,10
    785e:	844a                	mv	s0,s2
    7860:	201c                	lbu	a5,0(s0)
    7862:	c399                	beqz	a5,7868 <_vfiprintf_r+0x72>
    7864:	0d779f63          	bne	a5,s7,7942 <_vfiprintf_r+0x14c>
    7868:	41240cb3          	sub	s9,s0,s2
    786c:	000c8e63          	beqz	s9,7888 <_vfiprintf_r+0x92>
    7870:	86e6                	mv	a3,s9
    7872:	864a                	mv	a2,s2
    7874:	85a6                	mv	a1,s1
    7876:	854e                	mv	a0,s3
    7878:	f3dff0ef          	jal	ra,77b4 <__sfputs_r>
    787c:	57fd                	li	a5,-1
    787e:	1cf50f63          	beq	a0,a5,7a5c <_vfiprintf_r+0x266>
    7882:	5692                	lw	a3,36(sp)
    7884:	96e6                	add	a3,a3,s9
    7886:	d236                	sw	a3,36(sp)
    7888:	201c                	lbu	a5,0(s0)
    788a:	1c078963          	beqz	a5,7a5c <_vfiprintf_r+0x266>
    788e:	57fd                	li	a5,-1
    7890:	00140913          	addi	s2,s0,1
    7894:	c802                	sw	zero,16(sp)
    7896:	ce02                	sw	zero,28(sp)
    7898:	ca3e                	sw	a5,20(sp)
    789a:	cc02                	sw	zero,24(sp)
    789c:	040109a3          	sb	zero,83(sp)
    78a0:	d482                	sw	zero,104(sp)
    78a2:	00094583          	lbu	a1,0(s2)
    78a6:	4615                	li	a2,5
    78a8:	8556                	mv	a0,s5
    78aa:	2725                	jal	7fd2 <memchr>
    78ac:	00190413          	addi	s0,s2,1
    78b0:	47c2                	lw	a5,16(sp)
    78b2:	e951                	bnez	a0,7946 <_vfiprintf_r+0x150>
    78b4:	0107f713          	andi	a4,a5,16
    78b8:	c709                	beqz	a4,78c2 <_vfiprintf_r+0xcc>
    78ba:	02000713          	li	a4,32
    78be:	04e109a3          	sb	a4,83(sp)
    78c2:	0087f713          	andi	a4,a5,8
    78c6:	c709                	beqz	a4,78d0 <_vfiprintf_r+0xda>
    78c8:	02b00713          	li	a4,43
    78cc:	04e109a3          	sb	a4,83(sp)
    78d0:	00094683          	lbu	a3,0(s2)
    78d4:	02a00713          	li	a4,42
    78d8:	06e68f63          	beq	a3,a4,7956 <_vfiprintf_r+0x160>
    78dc:	47f2                	lw	a5,28(sp)
    78de:	844a                	mv	s0,s2
    78e0:	4681                	li	a3,0
    78e2:	4625                	li	a2,9
    78e4:	2018                	lbu	a4,0(s0)
    78e6:	00140593          	addi	a1,s0,1
    78ea:	fd070713          	addi	a4,a4,-48 # ffffdfd0 <__freertos_irq_stack_top+0xdfff8fd0>
    78ee:	0ae67763          	bgeu	a2,a4,799c <_vfiprintf_r+0x1a6>
    78f2:	cab5                	beqz	a3,7966 <_vfiprintf_r+0x170>
    78f4:	ce3e                	sw	a5,28(sp)
    78f6:	a885                	j	7966 <_vfiprintf_r+0x170>
    78f8:	00001797          	auipc	a5,0x1
    78fc:	31478793          	addi	a5,a5,788 # 8c0c <__sf_fake_stdout>
    7900:	00f49563          	bne	s1,a5,790a <_vfiprintf_r+0x114>
    7904:	0089a483          	lw	s1,8(s3)
    7908:	b725                	j	7830 <_vfiprintf_r+0x3a>
    790a:	00001797          	auipc	a5,0x1
    790e:	2c278793          	addi	a5,a5,706 # 8bcc <__sf_fake_stderr>
    7912:	f0f49fe3          	bne	s1,a5,7830 <_vfiprintf_r+0x3a>
    7916:	00c9a483          	lw	s1,12(s3)
    791a:	bf19                	j	7830 <_vfiprintf_r+0x3a>
    791c:	85a6                	mv	a1,s1
    791e:	854e                	mv	a0,s3
    7920:	8b9ff0ef          	jal	ra,71d8 <__swsetup_r>
    7924:	d919                	beqz	a0,783a <_vfiprintf_r+0x44>
    7926:	557d                	li	a0,-1
    7928:	40fa                	lw	ra,156(sp)
    792a:	446a                	lw	s0,152(sp)
    792c:	44da                	lw	s1,148(sp)
    792e:	494a                	lw	s2,144(sp)
    7930:	49ba                	lw	s3,140(sp)
    7932:	4a2a                	lw	s4,136(sp)
    7934:	4a9a                	lw	s5,132(sp)
    7936:	4b0a                	lw	s6,128(sp)
    7938:	5bf6                	lw	s7,124(sp)
    793a:	5c66                	lw	s8,120(sp)
    793c:	5cd6                	lw	s9,116(sp)
    793e:	610d                	addi	sp,sp,160
    7940:	8082                	ret
    7942:	0405                	addi	s0,s0,1
    7944:	bf31                	j	7860 <_vfiprintf_r+0x6a>
    7946:	41550533          	sub	a0,a0,s5
    794a:	00ac1533          	sll	a0,s8,a0
    794e:	8fc9                	or	a5,a5,a0
    7950:	c83e                	sw	a5,16(sp)
    7952:	8922                	mv	s2,s0
    7954:	b7b9                	j	78a2 <_vfiprintf_r+0xac>
    7956:	4732                	lw	a4,12(sp)
    7958:	00470693          	addi	a3,a4,4
    795c:	4318                	lw	a4,0(a4)
    795e:	c636                	sw	a3,12(sp)
    7960:	02074763          	bltz	a4,798e <_vfiprintf_r+0x198>
    7964:	ce3a                	sw	a4,28(sp)
    7966:	2018                	lbu	a4,0(s0)
    7968:	02e00793          	li	a5,46
    796c:	04f71d63          	bne	a4,a5,79c6 <_vfiprintf_r+0x1d0>
    7970:	3018                	lbu	a4,1(s0)
    7972:	02a00793          	li	a5,42
    7976:	02f71b63          	bne	a4,a5,79ac <_vfiprintf_r+0x1b6>
    797a:	47b2                	lw	a5,12(sp)
    797c:	0409                	addi	s0,s0,2
    797e:	00478713          	addi	a4,a5,4
    7982:	439c                	lw	a5,0(a5)
    7984:	c63a                	sw	a4,12(sp)
    7986:	0207c163          	bltz	a5,79a8 <_vfiprintf_r+0x1b2>
    798a:	ca3e                	sw	a5,20(sp)
    798c:	a82d                	j	79c6 <_vfiprintf_r+0x1d0>
    798e:	40e00733          	neg	a4,a4
    7992:	0027e793          	ori	a5,a5,2
    7996:	ce3a                	sw	a4,28(sp)
    7998:	c83e                	sw	a5,16(sp)
    799a:	b7f1                	j	7966 <_vfiprintf_r+0x170>
    799c:	036787b3          	mul	a5,a5,s6
    79a0:	4685                	li	a3,1
    79a2:	842e                	mv	s0,a1
    79a4:	97ba                	add	a5,a5,a4
    79a6:	bf3d                	j	78e4 <_vfiprintf_r+0xee>
    79a8:	57fd                	li	a5,-1
    79aa:	b7c5                	j	798a <_vfiprintf_r+0x194>
    79ac:	0405                	addi	s0,s0,1
    79ae:	ca02                	sw	zero,20(sp)
    79b0:	4681                	li	a3,0
    79b2:	4781                	li	a5,0
    79b4:	4625                	li	a2,9
    79b6:	2018                	lbu	a4,0(s0)
    79b8:	00140593          	addi	a1,s0,1
    79bc:	fd070713          	addi	a4,a4,-48
    79c0:	06e67463          	bgeu	a2,a4,7a28 <_vfiprintf_r+0x232>
    79c4:	f2f9                	bnez	a3,798a <_vfiprintf_r+0x194>
    79c6:	200c                	lbu	a1,0(s0)
    79c8:	460d                	li	a2,3
    79ca:	00001517          	auipc	a0,0x1
    79ce:	26a50513          	addi	a0,a0,618 # 8c34 <__sf_fake_stdout+0x28>
    79d2:	2501                	jal	7fd2 <memchr>
    79d4:	cd11                	beqz	a0,79f0 <_vfiprintf_r+0x1fa>
    79d6:	00001797          	auipc	a5,0x1
    79da:	25e78793          	addi	a5,a5,606 # 8c34 <__sf_fake_stdout+0x28>
    79de:	8d1d                	sub	a0,a0,a5
    79e0:	04000793          	li	a5,64
    79e4:	00a797b3          	sll	a5,a5,a0
    79e8:	4542                	lw	a0,16(sp)
    79ea:	0405                	addi	s0,s0,1
    79ec:	8d5d                	or	a0,a0,a5
    79ee:	c82a                	sw	a0,16(sp)
    79f0:	200c                	lbu	a1,0(s0)
    79f2:	4619                	li	a2,6
    79f4:	00001517          	auipc	a0,0x1
    79f8:	24450513          	addi	a0,a0,580 # 8c38 <__sf_fake_stdout+0x2c>
    79fc:	00140913          	addi	s2,s0,1
    7a00:	02b10423          	sb	a1,40(sp)
    7a04:	23f9                	jal	7fd2 <memchr>
    7a06:	c135                	beqz	a0,7a6a <_vfiprintf_r+0x274>
    7a08:	ffff8797          	auipc	a5,0xffff8
    7a0c:	5f878793          	addi	a5,a5,1528 # 0 <_sinit>
    7a10:	e795                	bnez	a5,7a3c <_vfiprintf_r+0x246>
    7a12:	4742                	lw	a4,16(sp)
    7a14:	47b2                	lw	a5,12(sp)
    7a16:	10077713          	andi	a4,a4,256
    7a1a:	cf09                	beqz	a4,7a34 <_vfiprintf_r+0x23e>
    7a1c:	0791                	addi	a5,a5,4
    7a1e:	c63e                	sw	a5,12(sp)
    7a20:	5792                	lw	a5,36(sp)
    7a22:	97d2                	add	a5,a5,s4
    7a24:	d23e                	sw	a5,36(sp)
    7a26:	bd25                	j	785e <_vfiprintf_r+0x68>
    7a28:	036787b3          	mul	a5,a5,s6
    7a2c:	4685                	li	a3,1
    7a2e:	842e                	mv	s0,a1
    7a30:	97ba                	add	a5,a5,a4
    7a32:	b751                	j	79b6 <_vfiprintf_r+0x1c0>
    7a34:	079d                	addi	a5,a5,7
    7a36:	9be1                	andi	a5,a5,-8
    7a38:	07a1                	addi	a5,a5,8
    7a3a:	b7d5                	j	7a1e <_vfiprintf_r+0x228>
    7a3c:	0078                	addi	a4,sp,12
    7a3e:	00000697          	auipc	a3,0x0
    7a42:	d7668693          	addi	a3,a3,-650 # 77b4 <__sfputs_r>
    7a46:	8626                	mv	a2,s1
    7a48:	080c                	addi	a1,sp,16
    7a4a:	854e                	mv	a0,s3
    7a4c:	00000097          	auipc	ra,0x0
    7a50:	000000e7          	jalr	zero # 0 <_sinit>
    7a54:	57fd                	li	a5,-1
    7a56:	8a2a                	mv	s4,a0
    7a58:	fcf514e3          	bne	a0,a5,7a20 <_vfiprintf_r+0x22a>
    7a5c:	24de                	lhu	a5,12(s1)
    7a5e:	0407f793          	andi	a5,a5,64
    7a62:	ec0792e3          	bnez	a5,7926 <_vfiprintf_r+0x130>
    7a66:	5512                	lw	a0,36(sp)
    7a68:	b5c1                	j	7928 <_vfiprintf_r+0x132>
    7a6a:	0078                	addi	a4,sp,12
    7a6c:	00000697          	auipc	a3,0x0
    7a70:	d4868693          	addi	a3,a3,-696 # 77b4 <__sfputs_r>
    7a74:	8626                	mv	a2,s1
    7a76:	080c                	addi	a1,sp,16
    7a78:	854e                	mv	a0,s3
    7a7a:	2a01                	jal	7b8a <_printf_i>
    7a7c:	bfe1                	j	7a54 <_vfiprintf_r+0x25e>

00007a7e <_printf_common>:
    7a7e:	7179                	addi	sp,sp,-48
    7a80:	ca56                	sw	s5,20(sp)
    7a82:	499c                	lw	a5,16(a1)
    7a84:	8aba                	mv	s5,a4
    7a86:	4598                	lw	a4,8(a1)
    7a88:	d422                	sw	s0,40(sp)
    7a8a:	d226                	sw	s1,36(sp)
    7a8c:	ce4e                	sw	s3,28(sp)
    7a8e:	cc52                	sw	s4,24(sp)
    7a90:	d606                	sw	ra,44(sp)
    7a92:	d04a                	sw	s2,32(sp)
    7a94:	c85a                	sw	s6,16(sp)
    7a96:	c65e                	sw	s7,12(sp)
    7a98:	89aa                	mv	s3,a0
    7a9a:	842e                	mv	s0,a1
    7a9c:	84b2                	mv	s1,a2
    7a9e:	8a36                	mv	s4,a3
    7aa0:	00e7d363          	bge	a5,a4,7aa6 <_printf_common+0x28>
    7aa4:	87ba                	mv	a5,a4
    7aa6:	c09c                	sw	a5,0(s1)
    7aa8:	04344703          	lbu	a4,67(s0)
    7aac:	c319                	beqz	a4,7ab2 <_printf_common+0x34>
    7aae:	0785                	addi	a5,a5,1
    7ab0:	c09c                	sw	a5,0(s1)
    7ab2:	401c                	lw	a5,0(s0)
    7ab4:	0207f793          	andi	a5,a5,32
    7ab8:	c781                	beqz	a5,7ac0 <_printf_common+0x42>
    7aba:	409c                	lw	a5,0(s1)
    7abc:	0789                	addi	a5,a5,2
    7abe:	c09c                	sw	a5,0(s1)
    7ac0:	00042903          	lw	s2,0(s0)
    7ac4:	00697913          	andi	s2,s2,6
    7ac8:	00091a63          	bnez	s2,7adc <_printf_common+0x5e>
    7acc:	01940b13          	addi	s6,s0,25
    7ad0:	5bfd                	li	s7,-1
    7ad2:	445c                	lw	a5,12(s0)
    7ad4:	4098                	lw	a4,0(s1)
    7ad6:	8f99                	sub	a5,a5,a4
    7ad8:	04f94c63          	blt	s2,a5,7b30 <_printf_common+0xb2>
    7adc:	401c                	lw	a5,0(s0)
    7ade:	04344683          	lbu	a3,67(s0)
    7ae2:	0207f793          	andi	a5,a5,32
    7ae6:	00d036b3          	snez	a3,a3
    7aea:	eba5                	bnez	a5,7b5a <_printf_common+0xdc>
    7aec:	04340613          	addi	a2,s0,67
    7af0:	85d2                	mv	a1,s4
    7af2:	854e                	mv	a0,s3
    7af4:	9a82                	jalr	s5
    7af6:	57fd                	li	a5,-1
    7af8:	04f50363          	beq	a0,a5,7b3e <_printf_common+0xc0>
    7afc:	401c                	lw	a5,0(s0)
    7afe:	4611                	li	a2,4
    7b00:	4098                	lw	a4,0(s1)
    7b02:	8b99                	andi	a5,a5,6
    7b04:	4454                	lw	a3,12(s0)
    7b06:	4481                	li	s1,0
    7b08:	00c79763          	bne	a5,a2,7b16 <_printf_common+0x98>
    7b0c:	40e684b3          	sub	s1,a3,a4
    7b10:	0004d363          	bgez	s1,7b16 <_printf_common+0x98>
    7b14:	4481                	li	s1,0
    7b16:	441c                	lw	a5,8(s0)
    7b18:	4818                	lw	a4,16(s0)
    7b1a:	00f75463          	bge	a4,a5,7b22 <_printf_common+0xa4>
    7b1e:	8f99                	sub	a5,a5,a4
    7b20:	94be                	add	s1,s1,a5
    7b22:	4901                	li	s2,0
    7b24:	0469                	addi	s0,s0,26
    7b26:	5b7d                	li	s6,-1
    7b28:	05249863          	bne	s1,s2,7b78 <_printf_common+0xfa>
    7b2c:	4501                	li	a0,0
    7b2e:	a809                	j	7b40 <_printf_common+0xc2>
    7b30:	4685                	li	a3,1
    7b32:	865a                	mv	a2,s6
    7b34:	85d2                	mv	a1,s4
    7b36:	854e                	mv	a0,s3
    7b38:	9a82                	jalr	s5
    7b3a:	01751e63          	bne	a0,s7,7b56 <_printf_common+0xd8>
    7b3e:	557d                	li	a0,-1
    7b40:	50b2                	lw	ra,44(sp)
    7b42:	5422                	lw	s0,40(sp)
    7b44:	5492                	lw	s1,36(sp)
    7b46:	5902                	lw	s2,32(sp)
    7b48:	49f2                	lw	s3,28(sp)
    7b4a:	4a62                	lw	s4,24(sp)
    7b4c:	4ad2                	lw	s5,20(sp)
    7b4e:	4b42                	lw	s6,16(sp)
    7b50:	4bb2                	lw	s7,12(sp)
    7b52:	6145                	addi	sp,sp,48
    7b54:	8082                	ret
    7b56:	0905                	addi	s2,s2,1
    7b58:	bfad                	j	7ad2 <_printf_common+0x54>
    7b5a:	00d40733          	add	a4,s0,a3
    7b5e:	03000613          	li	a2,48
    7b62:	04c701a3          	sb	a2,67(a4)
    7b66:	04544703          	lbu	a4,69(s0)
    7b6a:	00168793          	addi	a5,a3,1
    7b6e:	97a2                	add	a5,a5,s0
    7b70:	0689                	addi	a3,a3,2
    7b72:	04e781a3          	sb	a4,67(a5)
    7b76:	bf9d                	j	7aec <_printf_common+0x6e>
    7b78:	4685                	li	a3,1
    7b7a:	8622                	mv	a2,s0
    7b7c:	85d2                	mv	a1,s4
    7b7e:	854e                	mv	a0,s3
    7b80:	9a82                	jalr	s5
    7b82:	fb650ee3          	beq	a0,s6,7b3e <_printf_common+0xc0>
    7b86:	0905                	addi	s2,s2,1
    7b88:	b745                	j	7b28 <_printf_common+0xaa>

00007b8a <_printf_i>:
    7b8a:	7179                	addi	sp,sp,-48
    7b8c:	d422                	sw	s0,40(sp)
    7b8e:	d226                	sw	s1,36(sp)
    7b90:	d04a                	sw	s2,32(sp)
    7b92:	ce4e                	sw	s3,28(sp)
    7b94:	d606                	sw	ra,44(sp)
    7b96:	cc52                	sw	s4,24(sp)
    7b98:	ca56                	sw	s5,20(sp)
    7b9a:	c85a                	sw	s6,16(sp)
    7b9c:	89b6                	mv	s3,a3
    7b9e:	2d94                	lbu	a3,24(a1)
    7ba0:	06900793          	li	a5,105
    7ba4:	8932                	mv	s2,a2
    7ba6:	84aa                	mv	s1,a0
    7ba8:	842e                	mv	s0,a1
    7baa:	04358613          	addi	a2,a1,67
    7bae:	02f68d63          	beq	a3,a5,7be8 <_printf_i+0x5e>
    7bb2:	06d7e263          	bltu	a5,a3,7c16 <_printf_i+0x8c>
    7bb6:	05800793          	li	a5,88
    7bba:	18f68663          	beq	a3,a5,7d46 <_printf_i+0x1bc>
    7bbe:	00d7ed63          	bltu	a5,a3,7bd8 <_printf_i+0x4e>
    7bc2:	20068e63          	beqz	a3,7dde <_printf_i+0x254>
    7bc6:	04300793          	li	a5,67
    7bca:	0af68e63          	beq	a3,a5,7c86 <_printf_i+0xfc>
    7bce:	04240a93          	addi	s5,s0,66
    7bd2:	04d40123          	sb	a3,66(s0)
    7bd6:	a0c9                	j	7c98 <_printf_i+0x10e>
    7bd8:	06300793          	li	a5,99
    7bdc:	0af68563          	beq	a3,a5,7c86 <_printf_i+0xfc>
    7be0:	06400793          	li	a5,100
    7be4:	fef695e3          	bne	a3,a5,7bce <_printf_i+0x44>
    7be8:	401c                	lw	a5,0(s0)
    7bea:	4308                	lw	a0,0(a4)
    7bec:	0807f693          	andi	a3,a5,128
    7bf0:	00450593          	addi	a1,a0,4
    7bf4:	c6c5                	beqz	a3,7c9c <_printf_i+0x112>
    7bf6:	411c                	lw	a5,0(a0)
    7bf8:	c30c                	sw	a1,0(a4)
    7bfa:	0007d863          	bgez	a5,7c0a <_printf_i+0x80>
    7bfe:	02d00713          	li	a4,45
    7c02:	40f007b3          	neg	a5,a5
    7c06:	04e401a3          	sb	a4,67(s0)
    7c0a:	00001697          	auipc	a3,0x1
    7c0e:	03668693          	addi	a3,a3,54 # 8c40 <__sf_fake_stdout+0x34>
    7c12:	4729                	li	a4,10
    7c14:	a865                	j	7ccc <_printf_i+0x142>
    7c16:	07000793          	li	a5,112
    7c1a:	16f68263          	beq	a3,a5,7d7e <_printf_i+0x1f4>
    7c1e:	02d7e563          	bltu	a5,a3,7c48 <_printf_i+0xbe>
    7c22:	06e00793          	li	a5,110
    7c26:	18f68963          	beq	a3,a5,7db8 <_printf_i+0x22e>
    7c2a:	06f00793          	li	a5,111
    7c2e:	faf690e3          	bne	a3,a5,7bce <_printf_i+0x44>
    7c32:	400c                	lw	a1,0(s0)
    7c34:	431c                	lw	a5,0(a4)
    7c36:	0805f813          	andi	a6,a1,128
    7c3a:	00478513          	addi	a0,a5,4
    7c3e:	06080763          	beqz	a6,7cac <_printf_i+0x122>
    7c42:	c308                	sw	a0,0(a4)
    7c44:	439c                	lw	a5,0(a5)
    7c46:	a885                	j	7cb6 <_printf_i+0x12c>
    7c48:	07500793          	li	a5,117
    7c4c:	fef683e3          	beq	a3,a5,7c32 <_printf_i+0xa8>
    7c50:	07800793          	li	a5,120
    7c54:	12f68963          	beq	a3,a5,7d86 <_printf_i+0x1fc>
    7c58:	07300793          	li	a5,115
    7c5c:	f6f699e3          	bne	a3,a5,7bce <_printf_i+0x44>
    7c60:	431c                	lw	a5,0(a4)
    7c62:	41d0                	lw	a2,4(a1)
    7c64:	4581                	li	a1,0
    7c66:	00478693          	addi	a3,a5,4
    7c6a:	c314                	sw	a3,0(a4)
    7c6c:	0007aa83          	lw	s5,0(a5)
    7c70:	8556                	mv	a0,s5
    7c72:	2685                	jal	7fd2 <memchr>
    7c74:	c501                	beqz	a0,7c7c <_printf_i+0xf2>
    7c76:	41550533          	sub	a0,a0,s5
    7c7a:	c048                	sw	a0,4(s0)
    7c7c:	405c                	lw	a5,4(s0)
    7c7e:	c81c                	sw	a5,16(s0)
    7c80:	040401a3          	sb	zero,67(s0)
    7c84:	a861                	j	7d1c <_printf_i+0x192>
    7c86:	431c                	lw	a5,0(a4)
    7c88:	04240a93          	addi	s5,s0,66
    7c8c:	00478693          	addi	a3,a5,4
    7c90:	439c                	lw	a5,0(a5)
    7c92:	c314                	sw	a3,0(a4)
    7c94:	04f40123          	sb	a5,66(s0)
    7c98:	4785                	li	a5,1
    7c9a:	b7d5                	j	7c7e <_printf_i+0xf4>
    7c9c:	0407f693          	andi	a3,a5,64
    7ca0:	411c                	lw	a5,0(a0)
    7ca2:	c30c                	sw	a1,0(a4)
    7ca4:	dab9                	beqz	a3,7bfa <_printf_i+0x70>
    7ca6:	07c2                	slli	a5,a5,0x10
    7ca8:	87c1                	srai	a5,a5,0x10
    7caa:	bf81                	j	7bfa <_printf_i+0x70>
    7cac:	0405f593          	andi	a1,a1,64
    7cb0:	c308                	sw	a0,0(a4)
    7cb2:	d9c9                	beqz	a1,7c44 <_printf_i+0xba>
    7cb4:	239e                	lhu	a5,0(a5)
    7cb6:	06f00713          	li	a4,111
    7cba:	0ee68763          	beq	a3,a4,7da8 <_printf_i+0x21e>
    7cbe:	00001697          	auipc	a3,0x1
    7cc2:	f8268693          	addi	a3,a3,-126 # 8c40 <__sf_fake_stdout+0x34>
    7cc6:	4729                	li	a4,10
    7cc8:	040401a3          	sb	zero,67(s0)
    7ccc:	404c                	lw	a1,4(s0)
    7cce:	c40c                	sw	a1,8(s0)
    7cd0:	0005c563          	bltz	a1,7cda <_printf_i+0x150>
    7cd4:	4008                	lw	a0,0(s0)
    7cd6:	996d                	andi	a0,a0,-5
    7cd8:	c008                	sw	a0,0(s0)
    7cda:	e399                	bnez	a5,7ce0 <_printf_i+0x156>
    7cdc:	8ab2                	mv	s5,a2
    7cde:	cd89                	beqz	a1,7cf8 <_printf_i+0x16e>
    7ce0:	8ab2                	mv	s5,a2
    7ce2:	02e7f5b3          	remu	a1,a5,a4
    7ce6:	1afd                	addi	s5,s5,-1
    7ce8:	95b6                	add	a1,a1,a3
    7cea:	218c                	lbu	a1,0(a1)
    7cec:	00ba8023          	sb	a1,0(s5)
    7cf0:	02e7d5b3          	divu	a1,a5,a4
    7cf4:	0ce7f063          	bgeu	a5,a4,7db4 <_printf_i+0x22a>
    7cf8:	47a1                	li	a5,8
    7cfa:	00f71e63          	bne	a4,a5,7d16 <_printf_i+0x18c>
    7cfe:	401c                	lw	a5,0(s0)
    7d00:	8b85                	andi	a5,a5,1
    7d02:	cb91                	beqz	a5,7d16 <_printf_i+0x18c>
    7d04:	4058                	lw	a4,4(s0)
    7d06:	481c                	lw	a5,16(s0)
    7d08:	00e7c763          	blt	a5,a4,7d16 <_printf_i+0x18c>
    7d0c:	03000793          	li	a5,48
    7d10:	fefa8fa3          	sb	a5,-1(s5)
    7d14:	1afd                	addi	s5,s5,-1
    7d16:	41560633          	sub	a2,a2,s5
    7d1a:	c810                	sw	a2,16(s0)
    7d1c:	874e                	mv	a4,s3
    7d1e:	86ca                	mv	a3,s2
    7d20:	0070                	addi	a2,sp,12
    7d22:	85a2                	mv	a1,s0
    7d24:	8526                	mv	a0,s1
    7d26:	d59ff0ef          	jal	ra,7a7e <_printf_common>
    7d2a:	5a7d                	li	s4,-1
    7d2c:	0b451d63          	bne	a0,s4,7de6 <_printf_i+0x25c>
    7d30:	557d                	li	a0,-1
    7d32:	50b2                	lw	ra,44(sp)
    7d34:	5422                	lw	s0,40(sp)
    7d36:	5492                	lw	s1,36(sp)
    7d38:	5902                	lw	s2,32(sp)
    7d3a:	49f2                	lw	s3,28(sp)
    7d3c:	4a62                	lw	s4,24(sp)
    7d3e:	4ad2                	lw	s5,20(sp)
    7d40:	4b42                	lw	s6,16(sp)
    7d42:	6145                	addi	sp,sp,48
    7d44:	8082                	ret
    7d46:	04d582a3          	sb	a3,69(a1)
    7d4a:	00001697          	auipc	a3,0x1
    7d4e:	ef668693          	addi	a3,a3,-266 # 8c40 <__sf_fake_stdout+0x34>
    7d52:	400c                	lw	a1,0(s0)
    7d54:	4308                	lw	a0,0(a4)
    7d56:	0805f813          	andi	a6,a1,128
    7d5a:	411c                	lw	a5,0(a0)
    7d5c:	0511                	addi	a0,a0,4
    7d5e:	02080d63          	beqz	a6,7d98 <_printf_i+0x20e>
    7d62:	c308                	sw	a0,0(a4)
    7d64:	0015f713          	andi	a4,a1,1
    7d68:	c701                	beqz	a4,7d70 <_printf_i+0x1e6>
    7d6a:	0205e593          	ori	a1,a1,32
    7d6e:	c00c                	sw	a1,0(s0)
    7d70:	4741                	li	a4,16
    7d72:	fbb9                	bnez	a5,7cc8 <_printf_i+0x13e>
    7d74:	400c                	lw	a1,0(s0)
    7d76:	fdf5f593          	andi	a1,a1,-33
    7d7a:	c00c                	sw	a1,0(s0)
    7d7c:	b7b1                	j	7cc8 <_printf_i+0x13e>
    7d7e:	419c                	lw	a5,0(a1)
    7d80:	0207e793          	ori	a5,a5,32
    7d84:	c19c                	sw	a5,0(a1)
    7d86:	07800793          	li	a5,120
    7d8a:	04f402a3          	sb	a5,69(s0)
    7d8e:	00001697          	auipc	a3,0x1
    7d92:	ec668693          	addi	a3,a3,-314 # 8c54 <__sf_fake_stdout+0x48>
    7d96:	bf75                	j	7d52 <_printf_i+0x1c8>
    7d98:	0405f813          	andi	a6,a1,64
    7d9c:	c308                	sw	a0,0(a4)
    7d9e:	fc0803e3          	beqz	a6,7d64 <_printf_i+0x1da>
    7da2:	07c2                	slli	a5,a5,0x10
    7da4:	83c1                	srli	a5,a5,0x10
    7da6:	bf7d                	j	7d64 <_printf_i+0x1da>
    7da8:	00001697          	auipc	a3,0x1
    7dac:	e9868693          	addi	a3,a3,-360 # 8c40 <__sf_fake_stdout+0x34>
    7db0:	4721                	li	a4,8
    7db2:	bf19                	j	7cc8 <_printf_i+0x13e>
    7db4:	87ae                	mv	a5,a1
    7db6:	b735                	j	7ce2 <_printf_i+0x158>
    7db8:	4194                	lw	a3,0(a1)
    7dba:	431c                	lw	a5,0(a4)
    7dbc:	49cc                	lw	a1,20(a1)
    7dbe:	0806f813          	andi	a6,a3,128
    7dc2:	00478513          	addi	a0,a5,4
    7dc6:	00080663          	beqz	a6,7dd2 <_printf_i+0x248>
    7dca:	c308                	sw	a0,0(a4)
    7dcc:	439c                	lw	a5,0(a5)
    7dce:	c38c                	sw	a1,0(a5)
    7dd0:	a039                	j	7dde <_printf_i+0x254>
    7dd2:	c308                	sw	a0,0(a4)
    7dd4:	0406f693          	andi	a3,a3,64
    7dd8:	439c                	lw	a5,0(a5)
    7dda:	daf5                	beqz	a3,7dce <_printf_i+0x244>
    7ddc:	a38e                	sh	a1,0(a5)
    7dde:	00042823          	sw	zero,16(s0)
    7de2:	8ab2                	mv	s5,a2
    7de4:	bf25                	j	7d1c <_printf_i+0x192>
    7de6:	4814                	lw	a3,16(s0)
    7de8:	8656                	mv	a2,s5
    7dea:	85ca                	mv	a1,s2
    7dec:	8526                	mv	a0,s1
    7dee:	9982                	jalr	s3
    7df0:	f54500e3          	beq	a0,s4,7d30 <_printf_i+0x1a6>
    7df4:	401c                	lw	a5,0(s0)
    7df6:	8b89                	andi	a5,a5,2
    7df8:	e78d                	bnez	a5,7e22 <_printf_i+0x298>
    7dfa:	47b2                	lw	a5,12(sp)
    7dfc:	4448                	lw	a0,12(s0)
    7dfe:	f2f55ae3          	bge	a0,a5,7d32 <_printf_i+0x1a8>
    7e02:	853e                	mv	a0,a5
    7e04:	b73d                	j	7d32 <_printf_i+0x1a8>
    7e06:	4685                	li	a3,1
    7e08:	8656                	mv	a2,s5
    7e0a:	85ca                	mv	a1,s2
    7e0c:	8526                	mv	a0,s1
    7e0e:	9982                	jalr	s3
    7e10:	f36500e3          	beq	a0,s6,7d30 <_printf_i+0x1a6>
    7e14:	0a05                	addi	s4,s4,1
    7e16:	445c                	lw	a5,12(s0)
    7e18:	4732                	lw	a4,12(sp)
    7e1a:	8f99                	sub	a5,a5,a4
    7e1c:	fefa45e3          	blt	s4,a5,7e06 <_printf_i+0x27c>
    7e20:	bfe9                	j	7dfa <_printf_i+0x270>
    7e22:	4a01                	li	s4,0
    7e24:	01940a93          	addi	s5,s0,25
    7e28:	5b7d                	li	s6,-1
    7e2a:	b7f5                	j	7e16 <_printf_i+0x28c>

00007e2c <__sread>:
    7e2c:	1141                	addi	sp,sp,-16
    7e2e:	c422                	sw	s0,8(sp)
    7e30:	842e                	mv	s0,a1
    7e32:	00e59583          	lh	a1,14(a1)
    7e36:	c606                	sw	ra,12(sp)
    7e38:	2a4d                	jal	7fea <_read_r>
    7e3a:	00054963          	bltz	a0,7e4c <__sread+0x20>
    7e3e:	487c                	lw	a5,84(s0)
    7e40:	97aa                	add	a5,a5,a0
    7e42:	c87c                	sw	a5,84(s0)
    7e44:	40b2                	lw	ra,12(sp)
    7e46:	4422                	lw	s0,8(sp)
    7e48:	0141                	addi	sp,sp,16
    7e4a:	8082                	ret
    7e4c:	245e                	lhu	a5,12(s0)
    7e4e:	777d                	lui	a4,0xfffff
    7e50:	177d                	addi	a4,a4,-1
    7e52:	8ff9                	and	a5,a5,a4
    7e54:	a45e                	sh	a5,12(s0)
    7e56:	b7fd                	j	7e44 <__sread+0x18>

00007e58 <__swrite>:
    7e58:	25de                	lhu	a5,12(a1)
    7e5a:	1101                	addi	sp,sp,-32
    7e5c:	cc22                	sw	s0,24(sp)
    7e5e:	ca26                	sw	s1,20(sp)
    7e60:	c84a                	sw	s2,16(sp)
    7e62:	c64e                	sw	s3,12(sp)
    7e64:	ce06                	sw	ra,28(sp)
    7e66:	1007f793          	andi	a5,a5,256
    7e6a:	84aa                	mv	s1,a0
    7e6c:	842e                	mv	s0,a1
    7e6e:	8932                	mv	s2,a2
    7e70:	89b6                	mv	s3,a3
    7e72:	c791                	beqz	a5,7e7e <__swrite+0x26>
    7e74:	00e59583          	lh	a1,14(a1)
    7e78:	4689                	li	a3,2
    7e7a:	4601                	li	a2,0
    7e7c:	220d                	jal	7f9e <_lseek_r>
    7e7e:	245e                	lhu	a5,12(s0)
    7e80:	777d                	lui	a4,0xfffff
    7e82:	177d                	addi	a4,a4,-1
    7e84:	8ff9                	and	a5,a5,a4
    7e86:	a45e                	sh	a5,12(s0)
    7e88:	00e41583          	lh	a1,14(s0)
    7e8c:	4462                	lw	s0,24(sp)
    7e8e:	40f2                	lw	ra,28(sp)
    7e90:	86ce                	mv	a3,s3
    7e92:	864a                	mv	a2,s2
    7e94:	49b2                	lw	s3,12(sp)
    7e96:	4942                	lw	s2,16(sp)
    7e98:	8526                	mv	a0,s1
    7e9a:	44d2                	lw	s1,20(sp)
    7e9c:	6105                	addi	sp,sp,32
    7e9e:	a825                	j	7ed6 <_write_r>

00007ea0 <__sseek>:
    7ea0:	1141                	addi	sp,sp,-16
    7ea2:	c422                	sw	s0,8(sp)
    7ea4:	842e                	mv	s0,a1
    7ea6:	00e59583          	lh	a1,14(a1)
    7eaa:	c606                	sw	ra,12(sp)
    7eac:	28cd                	jal	7f9e <_lseek_r>
    7eae:	57fd                	li	a5,-1
    7eb0:	245a                	lhu	a4,12(s0)
    7eb2:	00f51a63          	bne	a0,a5,7ec6 <__sseek+0x26>
    7eb6:	77fd                	lui	a5,0xfffff
    7eb8:	17fd                	addi	a5,a5,-1
    7eba:	8ff9                	and	a5,a5,a4
    7ebc:	a45e                	sh	a5,12(s0)
    7ebe:	40b2                	lw	ra,12(sp)
    7ec0:	4422                	lw	s0,8(sp)
    7ec2:	0141                	addi	sp,sp,16
    7ec4:	8082                	ret
    7ec6:	6785                	lui	a5,0x1
    7ec8:	8fd9                	or	a5,a5,a4
    7eca:	a45e                	sh	a5,12(s0)
    7ecc:	c868                	sw	a0,84(s0)
    7ece:	bfc5                	j	7ebe <__sseek+0x1e>

00007ed0 <__sclose>:
    7ed0:	00e59583          	lh	a1,14(a1)
    7ed4:	a825                	j	7f0c <_close_r>

00007ed6 <_write_r>:
    7ed6:	1141                	addi	sp,sp,-16
    7ed8:	c422                	sw	s0,8(sp)
    7eda:	842a                	mv	s0,a0
    7edc:	852e                	mv	a0,a1
    7ede:	85b2                	mv	a1,a2
    7ee0:	8636                	mv	a2,a3
    7ee2:	1fffa797          	auipc	a5,0x1fffa
    7ee6:	b207af23          	sw	zero,-1218(a5) # 20001a20 <errno>
    7eea:	c606                	sw	ra,12(sp)
    7eec:	952fe0ef          	jal	ra,603e <_write>
    7ef0:	57fd                	li	a5,-1
    7ef2:	00f51963          	bne	a0,a5,7f04 <_write_r+0x2e>
    7ef6:	1fffa797          	auipc	a5,0x1fffa
    7efa:	b2a78793          	addi	a5,a5,-1238 # 20001a20 <errno>
    7efe:	439c                	lw	a5,0(a5)
    7f00:	c391                	beqz	a5,7f04 <_write_r+0x2e>
    7f02:	c01c                	sw	a5,0(s0)
    7f04:	40b2                	lw	ra,12(sp)
    7f06:	4422                	lw	s0,8(sp)
    7f08:	0141                	addi	sp,sp,16
    7f0a:	8082                	ret

00007f0c <_close_r>:
    7f0c:	1141                	addi	sp,sp,-16
    7f0e:	c422                	sw	s0,8(sp)
    7f10:	842a                	mv	s0,a0
    7f12:	852e                	mv	a0,a1
    7f14:	1fffa797          	auipc	a5,0x1fffa
    7f18:	b007a623          	sw	zero,-1268(a5) # 20001a20 <errno>
    7f1c:	c606                	sw	ra,12(sp)
    7f1e:	2201                	jal	801e <_close>
    7f20:	57fd                	li	a5,-1
    7f22:	00f51963          	bne	a0,a5,7f34 <_close_r+0x28>
    7f26:	1fffa797          	auipc	a5,0x1fffa
    7f2a:	afa78793          	addi	a5,a5,-1286 # 20001a20 <errno>
    7f2e:	439c                	lw	a5,0(a5)
    7f30:	c391                	beqz	a5,7f34 <_close_r+0x28>
    7f32:	c01c                	sw	a5,0(s0)
    7f34:	40b2                	lw	ra,12(sp)
    7f36:	4422                	lw	s0,8(sp)
    7f38:	0141                	addi	sp,sp,16
    7f3a:	8082                	ret

00007f3c <_fstat_r>:
    7f3c:	1141                	addi	sp,sp,-16
    7f3e:	c422                	sw	s0,8(sp)
    7f40:	842a                	mv	s0,a0
    7f42:	852e                	mv	a0,a1
    7f44:	85b2                	mv	a1,a2
    7f46:	1fffa797          	auipc	a5,0x1fffa
    7f4a:	ac07ad23          	sw	zero,-1318(a5) # 20001a20 <errno>
    7f4e:	c606                	sw	ra,12(sp)
    7f50:	28f9                	jal	802e <_fstat>
    7f52:	57fd                	li	a5,-1
    7f54:	00f51963          	bne	a0,a5,7f66 <_fstat_r+0x2a>
    7f58:	1fffa797          	auipc	a5,0x1fffa
    7f5c:	ac878793          	addi	a5,a5,-1336 # 20001a20 <errno>
    7f60:	439c                	lw	a5,0(a5)
    7f62:	c391                	beqz	a5,7f66 <_fstat_r+0x2a>
    7f64:	c01c                	sw	a5,0(s0)
    7f66:	40b2                	lw	ra,12(sp)
    7f68:	4422                	lw	s0,8(sp)
    7f6a:	0141                	addi	sp,sp,16
    7f6c:	8082                	ret

00007f6e <_isatty_r>:
    7f6e:	1141                	addi	sp,sp,-16
    7f70:	c422                	sw	s0,8(sp)
    7f72:	842a                	mv	s0,a0
    7f74:	852e                	mv	a0,a1
    7f76:	1fffa797          	auipc	a5,0x1fffa
    7f7a:	aa07a523          	sw	zero,-1366(a5) # 20001a20 <errno>
    7f7e:	c606                	sw	ra,12(sp)
    7f80:	287d                	jal	803e <_isatty>
    7f82:	57fd                	li	a5,-1
    7f84:	00f51963          	bne	a0,a5,7f96 <_isatty_r+0x28>
    7f88:	1fffa797          	auipc	a5,0x1fffa
    7f8c:	a9878793          	addi	a5,a5,-1384 # 20001a20 <errno>
    7f90:	439c                	lw	a5,0(a5)
    7f92:	c391                	beqz	a5,7f96 <_isatty_r+0x28>
    7f94:	c01c                	sw	a5,0(s0)
    7f96:	40b2                	lw	ra,12(sp)
    7f98:	4422                	lw	s0,8(sp)
    7f9a:	0141                	addi	sp,sp,16
    7f9c:	8082                	ret

00007f9e <_lseek_r>:
    7f9e:	1141                	addi	sp,sp,-16
    7fa0:	c422                	sw	s0,8(sp)
    7fa2:	842a                	mv	s0,a0
    7fa4:	852e                	mv	a0,a1
    7fa6:	85b2                	mv	a1,a2
    7fa8:	8636                	mv	a2,a3
    7faa:	1fffa797          	auipc	a5,0x1fffa
    7fae:	a607ab23          	sw	zero,-1418(a5) # 20001a20 <errno>
    7fb2:	c606                	sw	ra,12(sp)
    7fb4:	2869                	jal	804e <_lseek>
    7fb6:	57fd                	li	a5,-1
    7fb8:	00f51963          	bne	a0,a5,7fca <_lseek_r+0x2c>
    7fbc:	1fffa797          	auipc	a5,0x1fffa
    7fc0:	a6478793          	addi	a5,a5,-1436 # 20001a20 <errno>
    7fc4:	439c                	lw	a5,0(a5)
    7fc6:	c391                	beqz	a5,7fca <_lseek_r+0x2c>
    7fc8:	c01c                	sw	a5,0(s0)
    7fca:	40b2                	lw	ra,12(sp)
    7fcc:	4422                	lw	s0,8(sp)
    7fce:	0141                	addi	sp,sp,16
    7fd0:	8082                	ret

00007fd2 <memchr>:
    7fd2:	0ff5f593          	andi	a1,a1,255
    7fd6:	962a                	add	a2,a2,a0
    7fd8:	00c51463          	bne	a0,a2,7fe0 <memchr+0xe>
    7fdc:	4501                	li	a0,0
    7fde:	8082                	ret
    7fe0:	211c                	lbu	a5,0(a0)
    7fe2:	feb78ee3          	beq	a5,a1,7fde <memchr+0xc>
    7fe6:	0505                	addi	a0,a0,1
    7fe8:	bfc5                	j	7fd8 <memchr+0x6>

00007fea <_read_r>:
    7fea:	1141                	addi	sp,sp,-16
    7fec:	c422                	sw	s0,8(sp)
    7fee:	842a                	mv	s0,a0
    7ff0:	852e                	mv	a0,a1
    7ff2:	85b2                	mv	a1,a2
    7ff4:	8636                	mv	a2,a3
    7ff6:	1fffa797          	auipc	a5,0x1fffa
    7ffa:	a207a523          	sw	zero,-1494(a5) # 20001a20 <errno>
    7ffe:	c606                	sw	ra,12(sp)
    8000:	28b9                	jal	805e <_read>
    8002:	57fd                	li	a5,-1
    8004:	00f51963          	bne	a0,a5,8016 <_read_r+0x2c>
    8008:	1fffa797          	auipc	a5,0x1fffa
    800c:	a1878793          	addi	a5,a5,-1512 # 20001a20 <errno>
    8010:	439c                	lw	a5,0(a5)
    8012:	c391                	beqz	a5,8016 <_read_r+0x2c>
    8014:	c01c                	sw	a5,0(s0)
    8016:	40b2                	lw	ra,12(sp)
    8018:	4422                	lw	s0,8(sp)
    801a:	0141                	addi	sp,sp,16
    801c:	8082                	ret

0000801e <_close>:
    801e:	05800793          	li	a5,88
    8022:	1fffa717          	auipc	a4,0x1fffa
    8026:	9ef72f23          	sw	a5,-1538(a4) # 20001a20 <errno>
    802a:	557d                	li	a0,-1
    802c:	8082                	ret

0000802e <_fstat>:
    802e:	05800793          	li	a5,88
    8032:	1fffa717          	auipc	a4,0x1fffa
    8036:	9ef72723          	sw	a5,-1554(a4) # 20001a20 <errno>
    803a:	557d                	li	a0,-1
    803c:	8082                	ret

0000803e <_isatty>:
    803e:	05800793          	li	a5,88
    8042:	1fffa717          	auipc	a4,0x1fffa
    8046:	9cf72f23          	sw	a5,-1570(a4) # 20001a20 <errno>
    804a:	4501                	li	a0,0
    804c:	8082                	ret

0000804e <_lseek>:
    804e:	05800793          	li	a5,88
    8052:	1fffa717          	auipc	a4,0x1fffa
    8056:	9cf72723          	sw	a5,-1586(a4) # 20001a20 <errno>
    805a:	557d                	li	a0,-1
    805c:	8082                	ret

0000805e <_read>:
    805e:	05800793          	li	a5,88
    8062:	1fffa717          	auipc	a4,0x1fffa
    8066:	9af72f23          	sw	a5,-1602(a4) # 20001a20 <errno>
    806a:	557d                	li	a0,-1
    806c:	8082                	ret
	...

00008070 <CalPoint>:
    8070:	0000 7fe6 0005 636b 000a 4de0 000f 3d73     ......kc...M..s=
    8080:	0011 3801 0012 357d 0014 30d4 0015 2eac     ...8..}5...0....
    8090:	0016 2c9f 0017 2aad 0019 2710 001a 2562     ...,...*...'..b%
    80a0:	001b 23ca 001c 2245 001d 20d3 001e 1f73     ...#..E"... ..s.
    80b0:	0023 197b 0028 14c3 002d 1103 0032 0e09     #.{.(...-...2...
    80c0:	6148 6472 6146 6c75 5f74 6148 646e 656c     HardFault_Handle
    80d0:	0d72 0000 656d 6370 2020 253a 3830 0d78     r...mepc  :%08x.
    80e0:	000a 0000 636d 7561 6573 253a 3830 0d78     ....mcause:%08x.
    80f0:	000a 0000 746d 6176 206c 253a 3830 0d78     ....mtval :%08x.
    8100:	000a 0000 0ba0 0000 0ba0 0000 0ba0 0000     ................
    8110:	0ba0 0000 0ba0 0000 0ba0 0000 0ba0 0000     ................
    8120:	0ba0 0000 0ba0 0000 0ba0 0000 0ba0 0000     ................
    8130:	0ba0 0000 0ba0 0000 0ba0 0000 0bae 0000     ................
    8140:	0bae 0000 0bae 0000 0bba 0000 0bba 0000     ................
    8150:	0bba 0000 0bba 0000 0bcc 0000 0c12 0000     ................
    8160:	0c22 0000 0c44 0000 0c30 0000 0c34 0000     "...D...0...4...
    8170:	0c3a 0000 0000 447a 0000 4120 0000 3d80     :.....zD.. A...=
    8180:	da74 40a0 4067 3a53 6666 3ee6 149c 0000     t..@g@S:ff.>....
    8190:	149c 0000 14a8 0000 14a8 0000 14b8 0000     ................
    81a0:	14b8 0000 1466 0000 14c8 0000 14cc 0000     ....f...........
    81b0:	14d0 0000 14d4 0000 14d8 0000 14dc 0000     ................
    81c0:	14e0 0000                                   ....

000081c4 <DigitMask>:
    81c4:	063f 4f5b 6e66 077d 6f7f 0000 7453 7261     ?.[Ofn}..o..Star
    81d4:	0074 0000 6873 756f 646c 276e 2074 7572     t...shouldn't ru
    81e4:	206e 7461 6820 7265 2165 0021 6557 6120     n at here!!.We a
    81f4:	696c 6576 2121 000d 7250 636f 7365 5473     live!!..ProcessT
    8204:	7361 006b 6e49 7570 7374 6154 6b73 0000     ask.InputsTask..
    8214:	6544 5466 7361 006b b717 38d1 0000 3f80     DefTask....8...?

00008224 <ADC_chennel_ref>:
    8224:	0100 0302 0504 0706 0908 0b0a 0d0c 0f0e     ................
    8234:	1110 0000 3b00 0000 3b1a 0000 3b4e 0000     .....;...;..N;..
    8244:	3b62 0000 3b76 0000 3b88 0000 3bfa 0000     b;..v;...;...;..
    8254:	3c10 0000 3c6c 0000 3c96 0000 3b3a 0000     .<..l<...<..:;..
    8264:	3c56 0000 40bc 0000 40ca 0000 40d2 0000     V<...@...@...@..
    8274:	40d6 0000 40da 0000 40de 0000 40e2 0000     .@...@...@...@..

00008284 <timers>:
    8284:	2c00 4001 0000 4000 0400 4000 0800 4000     .,.@...@...@...@
    8294:	0c00 4000 2e2e 462f 6572 5265 4f54 2f53     ...@../FreeRTOS/
    82a4:	6f70 7472 6261 656c 4d2f 6d65 614d 676e     portable/MemMang
    82b4:	682f 6165 5f70 2e34 0063 0000 7265 2072     /heap_4.c...err 
    82c4:	7461 6c20 6e69 2065 6425 6f20 2066 6966     at line %d of fi
    82d4:	656c 2220 7325 2e22 0d20 200a 0000 0000     le "%s". .. ....
    82e4:	2e2e 462f 6572 5265 4f54 2f53 6f70 7472     ../FreeRTOS/port
    82f4:	6261 656c 472f 4343 522f 5349 2d43 2f56     able/GCC/RISC-V/
    8304:	6f70 7472 632e 0000 2e2e 462f 6572 5265     port.c..../FreeR
    8314:	4f54 2f53 7571 7565 2e65 0063 58a8 0000     TOS/queue.c..X..
    8324:	589e 0000 58be 0000 58d0 0000 58ca 0000     .X...X...X...X..
    8334:	5a62 0000 5a58 0000 5a76 0000 5a88 0000     bZ..XZ..vZ...Z..
    8344:	5a82 0000 2e2e 462f 6572 5265 4f54 2f53     .Z..../FreeRTOS/
    8354:	6174 6b73 2e73 0063 4449 454c 0000 0000     tasks.c.IDLE....
    8364:	5e2c 0000 5e2c 0000 5e70 0000 5e7c 0000     ,^..,^..p^..|^..
    8374:	5ec0 0000 5e2c 0000 5e2c 0000 5e70 0000     .^..,^..,^..p^..
    8384:	5e7c 0000 6d54 5172 0000 0000 2e2e 462f     |^..TmrQ....../F
    8394:	6572 5265 4f54 2f53 6974 656d 7372 632e     reeRTOS/timers.c
    83a4:	0000 0000 6d54 2072 7653 0063               ....Tmr Svc.

000083b0 <ODObjs>:
    83b0:	0350 2000 0041 0000 0004 0000 031c 2000     P.. A.......... 
    83c0:	0001 0000 0001 0000 0000 0000 0000 0000     ................
    83d0:	4103 0000 0004 0000 0004 0000 0354 2000     .A..........T.. 
    83e0:	0081 0000 000b 0000 0360 2000 0081 0000     ........`.. ....
    83f0:	0004 0000 0365 2000 0081 0000 0004 0000     ....e.. ........
    8400:	031d 2000 0083 0000 000e 0000 0598 2000     ... ........... 
    8410:	0040 0000 0004 0000 059c 2000 0043 0000     @.......... C...
    8420:	0002 0000 059e 2000 0043 0000 0002 0000     ....... C.......
    8430:	036c 2000 0100 0000 0001 0000 0370 2000     l.. ........p.. 
    8440:	4101 0000 0004 0000 0374 2000 4102 0000     .A......t.. .A..
    8450:	0004 0000 0378 2000 4103 0000 0004 0000     ....x.. .A......
    8460:	037c 2000 4104 0000 0004 0000 032c 2000     |.. .A......,.. 
    8470:	0100 0000 0001 0000 0330 2000 4101 0000     ........0.. .A..
    8480:	0004 0000 0334 2000 0102 0000 0001 0000     ....4.. ........
    8490:	0380 2000 0100 0000 0001 0000 0384 2000     ... ........... 
    84a0:	4101 0000 0004 0000 0388 2000 0102 0000     .A......... ....
    84b0:	0001 0000 038c 2000 0100 0000 0001 0000     ....... ........
    84c0:	0390 2000 4101 0000 0004 0000 0394 2000     ... .A......... 
    84d0:	0102 0000 0001 0000 0398 2000 0100 0000     ........... ....
    84e0:	0001 0000 039c 2000 4101 0000 0004 0000     ....... .A......
    84f0:	03a0 2000 0102 0000 0001 0000 0338 2000     ... ........8.. 
    8500:	0100 0000 0001 0000 033c 2000 4101 0000     ........<.. .A..
    8510:	0004 0000 0340 2000 4102 0000 0004 0000     ....@.. .A......
    8520:	0344 2000 4103 0000 0004 0000 03a4 2000     D.. .A......... 
    8530:	0100 0000 0001 0000 03a8 2000 4101 0000     ........... .A..
    8540:	0004 0000 03ac 2000 4102 0000 0004 0000     ....... .A......
    8550:	03b0 2000 4103 0000 0004 0000 03b4 2000     ... .A......... 
    8560:	4104 0000 0004 0000 03b8 2000 4105 0000     .A......... .A..
    8570:	0004 0000 03bc 2000 4106 0000 0004 0000     ....... .A......
    8580:	03c0 2000 0100 0000 0001 0000 03c4 2000     ... ........... 
    8590:	4101 0000 0004 0000 03c8 2000 4102 0000     .A......... .A..
    85a0:	0004 0000 03cc 2000 4103 0000 0004 0000     ....... .A......
    85b0:	03d0 2000 4104 0000 0004 0000 03d4 2000     ... .A......... 
    85c0:	4105 0000 0004 0000 03d8 2000 4106 0000     .A......... .A..
    85d0:	0004 0000 03dc 2000 0100 0000 0001 0000     ....... ........
    85e0:	03e0 2000 4101 0000 0004 0000 03e4 2000     ... .A......... 
    85f0:	4102 0000 0004 0000 03e8 2000 4103 0000     .A......... .A..
    8600:	0004 0000 03ec 2000 0100 0000 0001 0000     ....... ........
    8610:	03f0 2000 4101 0000 0004 0000 03f4 2000     ... .A......... 
    8620:	0102 0000 0001 0000 03f6 2000 4103 0000     ........... .A..
    8630:	0002 0000 03f8 2000 0104 0000 0001 0000     ....... ........
    8640:	03fa 2000 4105 0000 0002 0000 03fc 2000     ... .A......... 
    8650:	0106 0000 0001 0000 02d8 2000 0100 0000     ........... ....
    8660:	0001 0000 02dc 2000 4101 0000 0004 0000     ....... .A......
    8670:	02e0 2000 0102 0000 0001 0000 02e2 2000     ... ........... 
    8680:	4103 0000 0002 0000 02e4 2000 0104 0000     .A......... ....
    8690:	0001 0000 02e6 2000 4105 0000 0002 0000     ....... .A......
    86a0:	02e8 2000 0106 0000 0001 0000 02ec 2000     ... ........... 
    86b0:	0100 0000 0001 0000 02f0 2000 4101 0000     ........... .A..
    86c0:	0004 0000 02f4 2000 0102 0000 0001 0000     ....... ........
    86d0:	02f6 2000 4103 0000 0002 0000 02f8 2000     ... .A......... 
    86e0:	0104 0000 0001 0000 02fa 2000 4105 0000     ........... .A..
    86f0:	0002 0000 02fc 2000 0106 0000 0001 0000     ....... ........
    8700:	0400 2000 0100 0000 0001 0000 0404 2000     ... ........... 
    8710:	4101 0000 0004 0000 0408 2000 4102 0000     .A......... .A..
    8720:	0004 0000 040c 2000 4103 0000 0004 0000     ....... .A......
    8730:	0410 2000 4104 0000 0004 0000 0414 2000     ... .A......... 
    8740:	4105 0000 0004 0000 0300 2000 0100 0000     .A......... ....
    8750:	0001 0000 0304 2000 4101 0000 0004 0000     ....... .A......
    8760:	0308 2000 4102 0000 0004 0000 030c 2000     ... .A......... 
    8770:	4103 0000 0004 0000 0310 2000 0100 0000     .A......... ....
    8780:	0001 0000 0314 2000 4101 0000 0004 0000     ....... .A......
    8790:	0318 2000 4102 0000 0004 0000 0348 2000     ... .A......H.. 
    87a0:	0000 0000 0a01 0000 0001 0000 0001 0000     ................
    87b0:	0349 2000 0000 0000 0a01 0000 0001 0000     I.. ............
    87c0:	0001 0000 034a 2000 0000 0000 4a01 0000     ....J.. .....J..
    87d0:	0002 0000 0002 0000 0000 0000 0049 0000     ............I...
    87e0:	0004 0000 034b 2000 0000 0000 4301 0000     ....K.. .....C..
    87f0:	0004 0000 0004 0000 034c 2000 0000 0000     ........L.. ....
    8800:	4501 0000 0002 0000 0002 0000 0418 2000     .E............. 
    8810:	0000 0000 0501 0000 0001 0000 0004 0000     ................
    8820:	0419 2000 0000 0000 4301 0000 0002 0000     ... .....C......
    8830:	0002 0000 041a 2000 0000 0000 0301 0000     ....... ........
    8840:	0001 0000 0001 0000 041b 2000 041c 2000     ........... ... 
    8850:	4301 0000 0002 0000 0002 0000 0428 2000     .C..........(.. 
    8860:	042a 2000 4301 0000 0002 0000 0002 0000     *.. .C..........
    8870:	0436 2000 0438 2000 4301 0000 0002 0000     6.. 8.. .C......
    8880:	0002 0000 0444 2000 0446 2000 4301 0000     ....D.. F.. .C..
    8890:	0002 0000 0002 0000 0452 2000 0454 2000     ........R.. T.. 
    88a0:	4301 0000 0002 0000 0002 0000 0460 2000     .C..........`.. 
    88b0:	0462 2000 4301 0000 0002 0000 0002 0000     b.. .C..........
    88c0:	046e 2000 0470 2000 4301 0000 0002 0000     n.. p.. .C......
    88d0:	0002 0000 047c 2000 047e 2000 4301 0000     ....|.. ~.. .C..
    88e0:	0002 0000 0002 0000 048a 2000 048c 2000     ........... ... 
    88f0:	4301 0000 0002 0000 0002 0000 0498 2000     .C............. 
    8900:	049a 2000 4301 0000 0002 0000 0002 0000     ... .C..........
    8910:	04a6 2000 04a8 2000 4301 0000 0002 0000     ... ... .C......
    8920:	0002 0000 04b4 2000 04b6 2000 4301 0000     ....... ... .C..
    8930:	0002 0000 0002 0000 04c2 2000 04c4 2000     ........... ... 
    8940:	4301 0000 0002 0000 0002 0000 04d0 2000     .C............. 
    8950:	04d2 2000 4301 0000 0002 0000 0002 0000     ... .C..........
    8960:	04de 2000 04e0 2000 4301 0000 0002 0000     ... ... .C......
    8970:	0002 0000 04ee 2000 04f0 2000 4301 0000     ....... ... .C..
    8980:	0004 0000 0004 0000 0518 2000 0000 0000     ........... ....
    8990:	0301 0000 0001 0000 0001 0000 0000 0000     ................
    89a0:	0002 0000 0001 0000 0519 2000 0000 0000     ........... ....
    89b0:	0301 0000 0001 0000 0001 0000 051a 2000     ............... 
    89c0:	0000 0000 4301 0000 0004 0000 0004 0000     .....C..........
    89d0:	051b 2000 0000 0000 4301 0000 0004 0000     ... .....C......
    89e0:	0004 0000 051c 2000 0000 0000 4301 0000     ....... .....C..
    89f0:	0004 0000 0004 0000 051d 2000 0000 0000     ........... ....
    8a00:	4301 0000 0002 0000 0002 0000 dd98 ffff     .C..............
    8a10:	dcc2 ffff dd92 ffff dcca ffff dd92 ffff     ................
    8a20:	dc90 ffff dd92 ffff dcca ffff dcc2 ffff     ................
    8a30:	dcc2 ffff dc90 ffff dcca ffff dcd0 ffff     ................
    8a40:	dcd0 ffff dcd0 ffff dc90 ffff dc82 ffff     ................
    8a50:	dc82 ffff dd52 ffff de2e ffff dd52 ffff     ....R.......R...
    8a60:	dc50 ffff dd52 ffff de2e ffff dc82 ffff     P...R...........
    8a70:	dc82 ffff dc50 ffff de2e ffff dc90 ffff     ....P...........
    8a80:	dc90 ffff dc90 ffff dc50 ffff df90 ffff     ........P.......
    8a90:	dee2 ffff dee2 ffff dee0 ffff dee6 ffff     ................
    8aa0:	dee6 ffff deb6 ffff dee0 ffff dee6 ffff     ................
    8ab0:	deb6 ffff dee6 ffff dee0 ffff df7e ffff     ............~...
    8ac0:	df7e ffff df7e ffff deb6 ffff               ~...~.......

00008acc <__clz_tab>:
    8acc:	0100 0202 0303 0303 0404 0404 0404 0404     ................
    8adc:	0505 0505 0505 0505 0505 0505 0505 0505     ................
    8aec:	0606 0606 0606 0606 0606 0606 0606 0606     ................
    8afc:	0606 0606 0606 0606 0606 0606 0606 0606     ................
    8b0c:	0707 0707 0707 0707 0707 0707 0707 0707     ................
    8b1c:	0707 0707 0707 0707 0707 0707 0707 0707     ................
    8b2c:	0707 0707 0707 0707 0707 0707 0707 0707     ................
    8b3c:	0707 0707 0707 0707 0707 0707 0707 0707     ................
    8b4c:	0808 0808 0808 0808 0808 0808 0808 0808     ................
    8b5c:	0808 0808 0808 0808 0808 0808 0808 0808     ................
    8b6c:	0808 0808 0808 0808 0808 0808 0808 0808     ................
    8b7c:	0808 0808 0808 0808 0808 0808 0808 0808     ................
    8b8c:	0808 0808 0808 0808 0808 0808 0808 0808     ................
    8b9c:	0808 0808 0808 0808 0808 0808 0808 0808     ................
    8bac:	0808 0808 0808 0808 0808 0808 0808 0808     ................
    8bbc:	0808 0808 0808 0808 0808 0808 0808 0808     ................

00008bcc <__sf_fake_stderr>:
	...

00008bec <__sf_fake_stdin>:
	...

00008c0c <__sf_fake_stdout>:
	...
    8c2c:	2d23 2b30 0020 0000 6c68 004c 6665 4567     #-0+ ...hlL.efgE
    8c3c:	4746 0000 3130 3332 3534 3736 3938 4241     FG..0123456789AB
    8c4c:	4443 4645 0000 0000 3130 3332 3534 3736     CDEF....01234567
    8c5c:	3938 6261 6463 6665 0000 0000               89abcdef....
