
DASH.elf:     file format elf32-littleriscv
DASH.elf
architecture: riscv:rv32, flags 0x00000112:
EXEC_P, HAS_SYMS, D_PAGED
start address 0x00000000

Program Header:
    LOAD off    0x00001000 vaddr 0x00000000 paddr 0x00000000 align 2**12
         filesz 0x00004e78 memsz 0x00004e78 flags r-x
    LOAD off    0x00006000 vaddr 0x20000000 paddr 0x00004e78 align 2**12
         filesz 0x000000a0 memsz 0x00000dd0 flags rw-
    LOAD off    0x00006800 vaddr 0x20004800 paddr 0x20004800 align 2**12
         filesz 0x00000000 memsz 0x00000800 flags rw-

Sections:
Idx Name          Size      VMA       LMA       File off  Algn
  0 .init         00000038  00000000  00000000  00001000  2**1
                  CONTENTS, ALLOC, LOAD, READONLY, CODE
  1 .vector       00000108  00000038  00000038  00001038  2**1
                  CONTENTS, ALLOC, LOAD, READONLY, CODE
  2 .text         00004c78  00000200  00000200  00001200  2**8
                  CONTENTS, ALLOC, LOAD, READONLY, CODE
  3 .fini         00000000  00004e78  00004e78  000060a0  2**0
                  CONTENTS, ALLOC, LOAD, CODE
  4 .dalign       00000000  20000000  20000000  000060a0  2**0
                  CONTENTS
  5 .dlalign      00000000  00004e78  00004e78  000060a0  2**0
                  CONTENTS
  6 .data         000000a0  20000000  00004e78  00006000  2**2
                  CONTENTS, ALLOC, LOAD, DATA
  7 .bss          00000d30  200000a0  00004f18  000060a0  2**2
                  ALLOC
  8 .stack        00000800  20004800  20004800  00006800  2**0
                  ALLOC
  9 .debug_info   0002a499  00000000  00000000  000060a0  2**0
                  CONTENTS, READONLY, DEBUGGING
 10 .debug_abbrev 000068fd  00000000  00000000  00030539  2**0
                  CONTENTS, READONLY, DEBUGGING
 11 .debug_loc    0000c5b6  00000000  00000000  00036e36  2**0
                  CONTENTS, READONLY, DEBUGGING
 12 .debug_aranges 000013d8  00000000  00000000  000433f0  2**3
                  CONTENTS, READONLY, DEBUGGING
 13 .debug_ranges 000019a0  00000000  00000000  000447c8  2**3
                  CONTENTS, READONLY, DEBUGGING
 14 .debug_line   0001fd6d  00000000  00000000  00046168  2**0
                  CONTENTS, READONLY, DEBUGGING
 15 .debug_str    000075fc  00000000  00000000  00065ed5  2**0
                  CONTENTS, READONLY, DEBUGGING
 16 .comment      00000033  00000000  00000000  0006d4d1  2**0
                  CONTENTS, READONLY
 17 .debug_frame  00003fa0  00000000  00000000  0006d504  2**2
                  CONTENTS, READONLY, DEBUGGING
 18 .stab         00000084  00000000  00000000  000714a4  2**2
                  CONTENTS, READONLY, DEBUGGING
 19 .stabstr      00000117  00000000  00000000  00071528  2**0
                  CONTENTS, READONLY, DEBUGGING
SYMBOL TABLE:
00000000 l    d  .init	00000000 .init
00000038 l    d  .vector	00000000 .vector
00000200 l    d  .text	00000000 .text
00004e78 l    d  .fini	00000000 .fini
20000000 l    d  .dalign	00000000 .dalign
00004e78 l    d  .dlalign	00000000 .dlalign
20000000 l    d  .data	00000000 .data
200000a0 l    d  .bss	00000000 .bss
20004800 l    d  .stack	00000000 .stack
00000000 l    d  .debug_info	00000000 .debug_info
00000000 l    d  .debug_abbrev	00000000 .debug_abbrev
00000000 l    d  .debug_loc	00000000 .debug_loc
00000000 l    d  .debug_aranges	00000000 .debug_aranges
00000000 l    d  .debug_ranges	00000000 .debug_ranges
00000000 l    d  .debug_line	00000000 .debug_line
00000000 l    d  .debug_str	00000000 .debug_str
00000000 l    d  .comment	00000000 .comment
00000000 l    d  .debug_frame	00000000 .debug_frame
00000000 l    d  .stab	00000000 .stab
00000000 l    d  .stabstr	00000000 .stabstr
00000000 l    df *ABS*	00000000 ./Startup/startup_ch32v20x_D6.o
00000038 l       .vector	00000000 _vector_base
00000000 l    df *ABS*	00000000 ./FreeRTOS/portable/GCC/RISC-V/portASM.o
0000025c l       .text	00000000 processed_source
00000428 l       .text	00000000 chip_specific_stack_frame
00000000 l    df *ABS*	00000000 DataModel.c
200000a0 l     O .bss	00000004 odometr
00000000 l    df *ABS*	00000000 ch32v20x_it.c
00000000 l    df *ABS*	00000000 init.c
00000000 l    df *ABS*	00000000 main.c
00000000 l    df *ABS*	00000000 system_ch32v20x.c
00000000 l    df *ABS*	00000000 system_init.c
00000944 l     F .text	0000007a StartDefaultTask
2000033c l     O .bss	00000064 data
200003a0 l     O .bss	00000200 defaultTaskBuffer
200005a0 l     O .bss	0000005c defaultTaskControlBlock
200005fc l     O .bss	00000200 uxIdleTaskStack
200007fc l     O .bss	00000200 uxTimerTaskStack
200009fc l     O .bss	0000005c xIdleTaskTCB
20000a58 l     O .bss	0000005c xTimerTaskTCB
00000000 l    df *ABS*	00000000 ch32v20x_adc.c
00000000 l    df *ABS*	00000000 ch32v20x_can.c
00000000 l    df *ABS*	00000000 ch32v20x_dma.c
00000000 l    df *ABS*	00000000 ch32v20x_gpio.c
00000000 l    df *ABS*	00000000 ch32v20x_i2c.c
00000000 l    df *ABS*	00000000 ch32v20x_misc.c
00000000 l    df *ABS*	00000000 ch32v20x_rcc.c
20000010 l     O .data	00000010 APBAHBPrescTable
20000084 l     O .data	00000004 ADCPrescTable
00000000 l    df *ABS*	00000000 ch32v20x_rtc.c
00000000 l    df *ABS*	00000000 ch32v20x_tim.c
00000000 l    df *ABS*	00000000 ch32v20x_usart.c
00000000 l    df *ABS*	00000000 hw_lib_eeprom.c
20000ab4 l     O .bss	00000028 Dev
00000000 l    df *ABS*	00000000 hal_can.c
20000adc l     O .bss	0000000c CAN
00000000 l    df *ABS*	00000000 hal_dma.c
00000000 l    df *ABS*	00000000 hal_gpio.c
00000000 l    df *ABS*	00000000 hal_i2c.c
00001934 l     F .text	000000ec I2C_Master_Transmit
00001a20 l     F .text	00000148 I2C_Master_Revice
00001b68 l     F .text	000001d6 I2C_FSM
00000000 l    df *ABS*	00000000 hal_rtc.c
200000b0 l     O .bss	00000004 func
00000000 l    df *ABS*	00000000 hal_timers.c
20000b24 l     O .bss	0000003c config
00000000 l    df *ABS*	00000000 heap_4.c
000020ce l     F .text	0000004c prvInsertBlockIntoFreeList
200000b4 l     O .bss	00000004 pxEnd
200000b8 l     O .bss	00000004 xBlockAllocatedBit
200000bc l     O .bss	00000004 xFreeBytesRemaining
200000c0 l     O .bss	00000004 xNumberOfSuccessfulFrees
200000c4 l     O .bss	00000008 xStart
00000000 l    df *ABS*	00000000 port.c
20000088 l     O .data	00000004 uxCriticalNesting
00000000 l    df *ABS*	00000000 list.c
00000000 l    df *ABS*	00000000 queue.c
000023da l     F .text	0000001a prvIsQueueEmpty
000023f4 l     F .text	00000028 prvCopyDataFromQueue
0000241c l     F .text	0000006e prvUnlockQueue
00000000 l    df *ABS*	00000000 tasks.c
00002808 l     F .text	00000002 prvIdleTask
0000280a l     F .text	00000102 prvAddNewTaskToReadyList
0000290c l     F .text	00000024 prvResetNextTaskUnblockTime
00002930 l     F .text	000000c8 prvInitialiseNewTask.isra.2
000029f8 l     F .text	000000a8 prvAddCurrentTaskToDelayedList
20000ba0 l     O .bss	0000012c pxReadyTasksLists
20000ccc l     O .bss	00000014 xDelayedTaskList1
20000ce0 l     O .bss	00000014 xDelayedTaskList2
20000cf4 l     O .bss	00000014 xPendingReadyList
20000d08 l     O .bss	00000014 xSuspendedTaskList
200000d0 l     O .bss	00000004 pxDelayedTaskList
200000d4 l     O .bss	00000004 pxOverflowDelayedTaskList
200000d8 l     O .bss	00000004 uxCurrentNumberOfTasks
200000dc l     O .bss	00000004 uxSchedulerSuspended
200000e0 l     O .bss	00000004 uxTaskNumber
200000e4 l     O .bss	00000004 uxTopReadyPriority
200000e8 l     O .bss	00000004 xNextTaskUnblockTime
200000ec l     O .bss	00000004 xNumOfOverflows
200000f0 l     O .bss	00000004 xPendedTicks
200000f4 l     O .bss	00000004 xSchedulerRunning
200000f8 l     O .bss	00000004 xTickCount
200000fc l     O .bss	00000004 xYieldPending
00000000 l    df *ABS*	00000000 timers.c
00003538 l     F .text	00000066 prvCheckForValidListAndQueue
0000359e l     F .text	00000046 prvInsertTimerInActiveList
000035e4 l     F .text	00000028 prvReloadTimer
0000360c l     F .text	00000044 prvProcessExpiredTimer
00003650 l     F .text	0000002e prvSwitchTimerLists
0000367e l     F .text	00000194 prvTimerTask
20000d1c l     O .bss	00000040 ucStaticTimerQueueStorage.5806
20000d5c l     O .bss	00000014 xActiveTimerList1
20000d70 l     O .bss	00000014 xActiveTimerList2
20000d84 l     O .bss	00000048 xStaticTimerQueue.5805
20000100 l     O .bss	00000004 pxCurrentTimerList
20000104 l     O .bss	00000004 pxOverflowTimerList
20000108 l     O .bss	00000004 xLastTime.5762
2000010c l     O .bss	00000004 xTimerQueue
20000110 l     O .bss	00000004 xTimerTaskHandle
00000000 l    df *ABS*	00000000 debug.c
20000114 l     O .bss	00000002 p_ms
20000116 l     O .bss	00000001 p_us
20000090 l     O .data	00000004 curbrk.4664
00000000 l    df *ABS*	00000000 core_riscv.c
00000000 l    df *ABS*	00000000 memcpy.c
00000000 l    df *ABS*	00000000 nano-mallocr.c
00000000 l    df *ABS*	00000000 nano-mallocr.c
00000000 l    df *ABS*	00000000 printf.c
00000000 l    df *ABS*	00000000 puts.c
00000000 l    df *ABS*	00000000 sbrkr.c
00000000 l    df *ABS*	00000000 wbuf.c
00000000 l    df *ABS*	00000000 wsetup.c
00000000 l    df *ABS*	00000000 fflush.c
00000000 l    df *ABS*	00000000 findfp.c
0000406a l     F .text	00000066 std
00000000 l    df *ABS*	00000000 fwalk.c
00000000 l    df *ABS*	00000000 makebuf.c
00000000 l    df *ABS*	00000000 mlock.c
00000000 l    df *ABS*	00000000 nano-vfprintf.c
00004388 l     F .text	00000028 __sfputc_r
00000000 l    df *ABS*	00000000 nano-vfprintf_i.c
00000000 l    df *ABS*	00000000 stdio.c
00000000 l    df *ABS*	00000000 writer.c
00000000 l    df *ABS*	00000000 closer.c
00000000 l    df *ABS*	00000000 fstatr.c
00000000 l    df *ABS*	00000000 isattyr.c
00000000 l    df *ABS*	00000000 lseekr.c
00000000 l    df *ABS*	00000000 memchr.c
00000000 l    df *ABS*	00000000 readr.c
00000000 l    df *ABS*	00000000 close.c
00000000 l    df *ABS*	00000000 fstat.c
00000000 l    df *ABS*	00000000 isatty.c
00000000 l    df *ABS*	00000000 lseek.c
00000000 l    df *ABS*	00000000 read.c
00000000 l    df *ABS*	00000000 impure.c
20000020 l     O .data	00000060 impure_data
00000000 l    df *ABS*	00000000 reent.c
00000a32  w      .text	00000000 EXTI2_IRQHandler
00004b52 g     F .text	00000028 _isatty_r
00003c0e g     F .text	000000d4 _puts_r
00004b7a g     F .text	0000002c _lseek_r
000009e6 g     F .text	0000002a vSYStaskInit
0000231e g     F .text	00000042 vPortExitCritical
00003bce g     F .text	00000040 printf
20000880 g       .data	00000000 __global_pointer$
000004f6 g     F .text	00000028 .hidden __riscv_save_8
00000c6c g     F .text	0000000a DMA_GetITStatus
00000a58  w      .text	00000000 TIM1_CC_IRQHandler
00001008 g     F .text	00000008 I2C_ReceiveData
00004a9c g     F .text	00000030 __sseek
00004122 g     F .text	0000006c __sinit
00003d18 g     F .text	000000bc __swbuf_r
00000634 g     F .text	00000066 HardFault_Handler
00000bca g     F .text	00000094 CAN_ClearITPendingBit
000027ac g     F .text	0000005c vQueueWaitForMessageRestricted
000040da g     F .text	00000048 __sfmoreglue
00004386 g     F .text	00000002 __malloc_unlock
00001238 g     F .text	00000014 RTC_ClearFlag
00000542 g     F .text	0000000c .hidden __riscv_restore_3
0000228c g     F .text	0000007c SysTick_Handler
00001094 g     F .text	000000aa NVIC_Init
00000a24  w      .text	00000000 PVD_IRQHandler
00000b0e g     F .text	0000001c ADC_GetITStatus
0000052e g     F .text	00000020 .hidden __riscv_restore_10
00000632 g     F .text	00000002 NMI_Handler
00000a34  w      .text	00000000 EXTI3_IRQHandler
000004f6 g     F .text	00000028 .hidden __riscv_save_11
200000cc g     O .bss	00000004 pxCurrentTCB
00001372 g     F .text	0000000a USART_GetFlagStatus
00004b28 g     F .text	0000002a _fstat_r
20000dcc g     O .bss	00000004 errno
200000a0 g       .bss	00000000 _sbss
00000800 g       *ABS*	00000000 __stack_size
000038b8 g     F .text	0000005a USART_Printf_Init
000018ee g     F .text	0000003a HAL_InitGpioAF
0000319c g     F .text	00000016 vTaskInternalSetTimeOutState
00000542 g     F .text	0000000c .hidden __riscv_restore_2
0000142c g     F .text	0000001e eEEPROMRd
20000120 g     O .bss	0000021b DATA_MODEL_REGISTER
000021fe g     F .text	0000008e xPortStartScheduler
00000ff2 g     F .text	00000012 I2C_ITConfig
00003988 g     F .text	000000b2 memcpy
00002ffa g     F .text	00000048 vTaskPlaceOnEventList
000040d0 g     F .text	0000000a _cleanup_r
00000d90 g     F .text	000000f2 GPIO_PinRemapConfig
000021c0  w    F .text	0000003e vPortSetupTimerInterrupt
00000a2e  w      .text	00000000 EXTI0_IRQHandler
00001ece g     F .text	0000004a I2C2_EV_IRQHandler
00003ce2 g     F .text	0000000c puts
0000211a g     F .text	000000a6 vPortFree
20000080 g     O .data	00000004 SystemCoreClock
20005000 g       .stack	00000000 __freertos_irq_stack_top
00000b2a g     F .text	0000000a ADC_ClearITPendingBit
00004bf6 g     F .text	0000000c _fstat
00000038 g       .init	00000000 _einit
0000128e g     F .text	0000000c TIM_ClearITPendingBit
000011fc g     F .text	0000001e RCC_APB2PeriphClockCmd
000004ee g     F .text	00000030 .hidden __riscv_save_12
0000069a g     F .text	00000022 ADC1_2_IRQHandler
00003294 g     F .text	000000b8 ulTaskGenericNotifyTake
00000c7e g     F .text	000000fa GPIO_Init
00000a1c  w      .text	00000000 Break_Point_Handler
0000052e g     F .text	00000020 .hidden __riscv_restore_11
200000a8 g     O .bss	00000004 NVIC_Priority_Group
00000a68  w      .text	00000000 SPI1_IRQHandler
00001354 g     F .text	00000016 USART_Cmd
00003cee g     F .text	0000002a _sbrk_r
00000a26  w      .text	00000000 TAMPER_IRQHandler
0000051e g     F .text	0000000c .hidden __riscv_save_1
000006bc g     F .text	000000c8 vInit_DeviceConfig
00000542 g     F .text	0000000c .hidden __riscv_restore_0
00004bbe g     F .text	0000002c _read_r
00002386 g     F .text	00000006 vListInitialiseItem
00000504 g     F .text	0000001a .hidden __riscv_save_7
000025f2 g     F .text	00000152 xQueueReceive
20000b60 g     O .bss	00000040 xQueueRegistry
0000236c g     F .text	00000006 vPortClearInterruptMask
00000c76 g     F .text	00000008 DMA_ClearITPendingBit
000009d2 g     F .text	00000014 vApplicationGetTimerTaskMemory
0000121a g     F .text	0000001e RCC_APB1PeriphClockCmd
00000b34 g     F .text	00000056 CAN_GetFlagStatus
00001d3e g     F .text	000000fc InitI2CDMA
00000a18  w      .text	00000000 Ecall_M_Mode_Handler
20004800 g       .stack	00000000 _heap_end
00004c02 g     F .text	0000000c _isatty
2000009c g     O .data	00000004 _global_impure_ptr
00000538 g     F .text	00000016 .hidden __riscv_restore_5
000016fa g     F .text	00000060 DMA1_Channel4_IRQHandler
00001004 g     F .text	00000004 I2C_SendData
00003950 g     F .text	00000026 _sbrk
00002372 g     F .text	00000014 vListInitialise
00000e82 g     F .text	000000f2 I2C_Init
00000c5e g     F .text	0000000e DMA_GetFlagStatus
00000538 g     F .text	00000016 .hidden __riscv_restore_6
00000a70  w      .text	00000000 USART3_IRQHandler
00002bee g     F .text	0000000a xTaskGetTickCount
00001f62 g     F .text	00000024 RTC_IRQHandler
20000dd0 g       .bss	00000000 _ebss
0000175a g     F .text	00000064 DMA1_Channel7_IRQHandler
00001390 g     F .text	00000006 xGetEEPROM
0000157a g     F .text	00000060 CAN1_RX1_IRQHandler
00003886 g     F .text	00000032 Delay_Init
000030b8 g     F .text	000000e4 xTaskRemoveFromEventList
00001f86 g     F .text	00000070 TIM4_IRQHandler
000004f6 g     F .text	00000028 .hidden __riscv_save_9
000017be g     F .text	0000000e HAL_InitGpioLib
00000f8c g     F .text	0000001a I2C_GenerateSTART
00004ddc g     O .text	00000020 __sf_fake_stderr
00000504 g     F .text	0000001a .hidden __riscv_save_4
00001e3a g     F .text	0000004a I2C1_EV_IRQHandler
20000098 g     O .data	00000004 xISRStackTop
00001276 g     F .text	00000018 TIM_GetITStatus
00000a78  w      .text	00000000 USBHD_IRQHandler
0000113e g     F .text	000000be RCC_GetClocksFreq
00000a42  w      .text	00000000 DMA1_Channel6_IRQHandler
000043b0 g     F .text	00000042 __sfputs_r
00000a7c  w      .text	00000000 UART4_IRQHandler
00004ba6 g     F .text	00000018 memchr
0000129a g     F .text	000000ba USART_Init
000031b2 g     F .text	000000b0 xTaskCheckForTimeOut
00003a3a g     F .text	000000b0 _free_r
00001ff6 g     F .text	00000070 TIM3_IRQHandler
00000a2c  w      .text	00000000 RCC_IRQHandler
0000051e g     F .text	0000000c .hidden __riscv_save_3
00000b8a g     F .text	00000040 CAN_ClearFlag
00000a56  w      .text	00000000 TIM1_TRG_COM_IRQHandler
00001638 g     F .text	00000060 DMA1_Channel1_IRQHandler
00000000 g       .init	00000000 _start
00002bde g     F .text	00000010 vTaskSuspendAll
20000000 g     O .data	00000010 AHBPrescTable
0000104c g     F .text	00000032 I2C_GetFlagStatus
00004c0e g     F .text	0000000c _lseek
000023ba g     F .text	00000020 uxListRemove
00000a72  w      .text	00000000 EXTI15_10_IRQHandler
00002aa0 g     F .text	000000a4 xTaskCreateStatic
00000a7e  w      .text	00000000 DMA1_Channel8_IRQHandler
00002f64 g     F .text	00000096 vTaskSwitchContext
0000187e g     F .text	00000026 HAL_InitGpioOut
00002546 g     F .text	000000ac xQueueGenericCreateStatic
00000f74 g     F .text	00000018 I2C_Cmd
00003042 g     F .text	00000076 vTaskPlaceOnEventListRestricted
0000124c g     F .text	00000020 RTC_GetITStatus
00000d78 g     F .text	00000018 GPIO_ResetBits
0000397c g     F .text	00000006 __get_MCAUSE
00004b00 g     F .text	00000028 _close_r
0000107e g     F .text	0000000c I2C_ClearFlag
20000000 g       .dalign	00000000 _data_vma
000009be g     F .text	00000014 vApplicationGetIdleTaskMemory
200000a4 g     O .bss	00000001 MCU_Version
00003dd4 g     F .text	000000fe __swsetup_r
00000a50  w      .text	00000000 EXTI9_5_IRQHandler
0000418e g     F .text	000000a0 __sfp
000004f6 g     F .text	00000028 .hidden __riscv_save_10
00004a28 g     F .text	0000002c __sread
00001010 g     F .text	00000012 I2C_Send7bitAddress
00004384 g     F .text	00000002 __malloc_lock
00000538 g     F .text	00000016 .hidden __riscv_restore_4
00003982 g     F .text	00000006 __get_MTVAL
0000052e g     F .text	00000020 .hidden __riscv_restore_8
00003976 g     F .text	00000006 __get_MEPC
00004004 g     F .text	00000066 _fflush_r
00000504 g     F .text	0000001a .hidden __riscv_save_6
00000a6a  w      .text	00000000 SPI2_IRQHandler
00004dfc g     O .text	00000020 __sf_fake_stdin
0000054e g     F .text	000000a8 memset
0000052e g     F .text	00000020 .hidden __riscv_restore_9
00000538 g     F .text	00000016 .hidden __riscv_restore_7
00000784 g     F .text	00000040 main
0000238c g     F .text	0000002e vListInsert
00004acc g     F .text	00000006 __sclose
00003812 g     F .text	00000074 xTimerCreateTimerTask
00003aea g     F .text	000000e4 _malloc_r
00001698 g     F .text	00000062 DMA1_Channel5_IRQHandler
0000326e g     F .text	0000000a xTaskGetCurrentTaskHandle
00000a36  w      .text	00000000 EXTI4_IRQHandler
0000151c g     F .text	0000005e USB_LP_CAN1_RX0_IRQHandler
000007c4 g     F .text	000000ee SystemInit
0000334c g     F .text	000001ec xTaskGenericNotifyFromISR
00003bce g     F .text	00000040 iprintf
00002da0 g     F .text	00000160 xTaskResumeAll
2000008c g     O .data	00000004 uxTopUsedPriority
0000144a g     F .text	000000d2 USB_HP_CAN1_TX_IRQHandler
00002360 g     F .text	0000000c xPortSetInterruptMask
00002b44 g     F .text	0000009a vTaskStartScheduler
00000000 g       .init	00000000 _sinit
000005f6 g     F .text	0000003c vSaveData
00000a7a  w      .text	00000000 USBHDWakeUp_IRQHandler
00004ad2 g     F .text	0000002e _write_r
0000137c g     F .text	00000014 vInitEEPROM
00000300 g       .text	00000000 xPortStartFirstTask
00000a3c  w      .text	00000000 DMA1_Channel3_IRQHandler
0000467a g     F .text	0000010c _printf_common
20000094 g     O .data	00000004 _impure_ptr
00000a54  w      .text	00000000 TIM1_UP_IRQHandler
00003ed2 g     F .text	00000132 __sflush_r
00000a22  w      .text	00000000 WWDG_IRQHandler
000018c8 g     F .text	00000026 HAL_InitGpioIn
00000a1a  w      .text	00000000 Ecall_U_Mode_Handler
00003262 g     F .text	0000000c vTaskMissedYield
00002066 g     F .text	00000068 TIM2_IRQHandler
20005000 g       .stack	00000000 _eusrstack
0000051e g     F .text	0000000c .hidden __riscv_save_2
00000200 g       .text	00000000 SW_Handler
00002744 g     F .text	00000068 vQueueAddToRegistry
00002bf8 g     F .text	000001a8 xTaskIncrementTick
00000a52  w      .text	00000000 TIM1_BRK_IRQHandler
00004298 g     F .text	00000058 __swhatbuf_r
0000136a g     F .text	00000008 USART_SendData
00000a30  w      .text	00000000 EXTI1_IRQHandler
00001022 g     F .text	00000014 I2C_ReadRegister
00000504 g     F .text	0000001a .hidden __riscv_save_5
0000248a g     F .text	000000bc xQueueGenericReset
00003912 g     F .text	0000003e _write
200000a0 g       .data	00000000 _edata
20000dd0 g       .bss	00000000 _end
00000a74  w      .text	00000000 RTCAlarm_IRQHandler
00001396 g     F .text	00000096 eEEPROMWr
00004e78 g       .dlalign	00000000 _data_lma
00000a6e  w      .text	00000000 USART2_IRQHandler
00004a54 g     F .text	00000048 __swrite
000043f2 g     F .text	00000288 _vfiprintf_r
0000422e g     F .text	0000006a _fwalk_reent
000008b2 g     F .text	00000092 SystemCoreClockUpdate
0000126c g     F .text	0000000a RTC_ClearITPendingBit
200000ac g     O .bss	00000004 pEEPROM
00001f18 g     F .text	0000004a I2C2_ER_IRQHandler
00002f00 g     F .text	00000064 vTaskDelay
00000a3a  w      .text	00000000 DMA1_Channel2_IRQHandler
00004e1c g     O .text	00000020 __sf_fake_stdout
00000fda g     F .text	00000018 I2C_DualAddressCmd
0000052a g     F .text	00000024 .hidden __riscv_restore_12
00003278 g     F .text	0000001c xTaskGetSchedulerState
00000a12 g     F .text	00000002 vSYSeventInit
00004c1a g     F .text	0000000c _read
00000a80  w      .text	00000000 handle_reset
000015da g     F .text	0000005e CAN1_SCE_IRQHandler
00000a2a  w      .text	00000000 FLASH_IRQHandler
0000051e g     F .text	0000000c .hidden __riscv_save_0
00000a10 g     F .text	00000002 vSYSqueueInit
00000a6c  w      .text	00000000 USART1_IRQHandler
000042f0 g     F .text	00000094 __smakebuf_r
00000fc0 g     F .text	0000001a I2C_AcknowledgeConfig
00000400 g       .text	00000000 pxPortInitialiseStack
00004786 g     F .text	000002a2 _printf_i
2000011c g     O .bss	00000004 __malloc_sbrk_start
00001036 g     F .text	00000016 I2C_CheckEvent
00000fa6 g     F .text	0000001a I2C_GenerateSTOP
00001e84 g     F .text	0000004a I2C1_ER_IRQHandler
0000108a g     F .text	0000000a NVIC_PriorityGroupConfig
00002308 g     F .text	00000016 vPortEnterCritical
000018a4 g     F .text	00000024 HAL_InitGpioAIN
20000118 g     O .bss	00000004 __malloc_free_list
20000b04 g     O .bss	00000020 InitPort
00000542 g     F .text	0000000c .hidden __riscv_restore_1
000043f2 g     F .text	00000288 _vfprintf_r
000017cc g     F .text	000000b2 HAL_InitGpioRCC
20000ae8 g     O .bss	0000001c DMA_CALLback
00001928 g     F .text	0000000c HAL_ResetBit
00000a76  w      .text	00000000 USBWakeUp_IRQHandler
00004bea g     F .text	0000000c _close



Disassembly of section .init:

00000000 <_sinit>:
   0:	2810006f          	j	a80 <handle_reset>
   4:	00000013          	nop
   8:	00000013          	nop
   c:	00000013          	nop
  10:	00000013          	nop
  14:	00000013          	nop
  18:	00000013          	nop
  1c:	00000013          	nop
  20:	00000013          	nop
  24:	00000013          	nop
  28:	00000013          	nop
  2c:	00000013          	nop
  30:	00000013          	nop
  34:	00100073          	ebreak

Disassembly of section .vector:

00000038 <_vector_base>:
	...
  40:	0632                	slli	a2,a2,0xc
  42:	0000                	unimp
  44:	0634                	addi	a3,sp,776
  46:	0000                	unimp
  48:	0000                	unimp
  4a:	0000                	unimp
  4c:	0a18                	addi	a4,sp,272
	...
  56:	0000                	unimp
  58:	0a1a                	slli	s4,s4,0x6
  5a:	0000                	unimp
  5c:	0a1c                	addi	a5,sp,272
	...
  66:	0000                	unimp
  68:	228c                	lbu	a1,0(a3)
  6a:	0000                	unimp
  6c:	0000                	unimp
  6e:	0000                	unimp
  70:	0200                	addi	s0,sp,256
  72:	0000                	unimp
  74:	0000                	unimp
  76:	0000                	unimp
  78:	0a22                	slli	s4,s4,0x8
  7a:	0000                	unimp
  7c:	0a24                	addi	s1,sp,280
  7e:	0000                	unimp
  80:	0a26                	slli	s4,s4,0x9
  82:	0000                	unimp
  84:	1f62                	slli	t5,t5,0x38
  86:	0000                	unimp
  88:	0a2a                	slli	s4,s4,0xa
  8a:	0000                	unimp
  8c:	0a2c                	addi	a1,sp,280
  8e:	0000                	unimp
  90:	0a2e                	slli	s4,s4,0xb
  92:	0000                	unimp
  94:	0a30                	addi	a2,sp,280
  96:	0000                	unimp
  98:	0a32                	slli	s4,s4,0xc
  9a:	0000                	unimp
  9c:	0a34                	addi	a3,sp,280
  9e:	0000                	unimp
  a0:	0a36                	slli	s4,s4,0xd
  a2:	0000                	unimp
  a4:	1638                	addi	a4,sp,808
  a6:	0000                	unimp
  a8:	0a3a                	slli	s4,s4,0xe
  aa:	0000                	unimp
  ac:	0a3c                	addi	a5,sp,280
  ae:	0000                	unimp
  b0:	16fa                	slli	a3,a3,0x3e
  b2:	0000                	unimp
  b4:	1698                	addi	a4,sp,864
  b6:	0000                	unimp
  b8:	0a42                	slli	s4,s4,0x10
  ba:	0000                	unimp
  bc:	175a                	slli	a4,a4,0x36
  be:	0000                	unimp
  c0:	069a                	slli	a3,a3,0x6
  c2:	0000                	unimp
  c4:	144a                	slli	s0,s0,0x32
  c6:	0000                	unimp
  c8:	151c                	addi	a5,sp,672
  ca:	0000                	unimp
  cc:	157a                	slli	a0,a0,0x3e
  ce:	0000                	unimp
  d0:	15da                	slli	a1,a1,0x36
  d2:	0000                	unimp
  d4:	0a50                	addi	a2,sp,276
  d6:	0000                	unimp
  d8:	0a52                	slli	s4,s4,0x14
  da:	0000                	unimp
  dc:	0a54                	addi	a3,sp,276
  de:	0000                	unimp
  e0:	0a56                	slli	s4,s4,0x15
  e2:	0000                	unimp
  e4:	0a58                	addi	a4,sp,276
  e6:	0000                	unimp
  e8:	2066                	lhu	s1,6(s0)
  ea:	0000                	unimp
  ec:	1ff6                	slli	t6,t6,0x3d
  ee:	0000                	unimp
  f0:	1f86                	slli	t6,t6,0x21
  f2:	0000                	unimp
  f4:	1e3a                	slli	t3,t3,0x2e
  f6:	0000                	unimp
  f8:	1e84                	addi	s1,sp,880
  fa:	0000                	unimp
  fc:	1ece                	slli	t4,t4,0x33
  fe:	0000                	unimp
 100:	1f18                	addi	a4,sp,944
 102:	0000                	unimp
 104:	0a68                	addi	a0,sp,284
 106:	0000                	unimp
 108:	0a6a                	slli	s4,s4,0x1a
 10a:	0000                	unimp
 10c:	0a6c                	addi	a1,sp,284
 10e:	0000                	unimp
 110:	0a6e                	slli	s4,s4,0x1b
 112:	0000                	unimp
 114:	0a70                	addi	a2,sp,284
 116:	0000                	unimp
 118:	0a72                	slli	s4,s4,0x1c
 11a:	0000                	unimp
 11c:	0a74                	addi	a3,sp,284
 11e:	0000                	unimp
 120:	0a76                	slli	s4,s4,0x1d
 122:	0000                	unimp
 124:	0a78                	addi	a4,sp,284
 126:	0000                	unimp
 128:	0a7a                	slli	s4,s4,0x1e
 12a:	0000                	unimp
 12c:	0a7c                	addi	a5,sp,284
 12e:	0000                	unimp
 130:	0a7e                	slli	s4,s4,0x1f
	...

Disassembly of section .text:

00000200 <SW_Handler>:
     200:	f8810113          	addi	sp,sp,-120
     204:	c206                	sw	ra,4(sp)
     206:	c416                	sw	t0,8(sp)
     208:	c61a                	sw	t1,12(sp)
     20a:	c81e                	sw	t2,16(sp)
     20c:	ca22                	sw	s0,20(sp)
     20e:	cc26                	sw	s1,24(sp)
     210:	ce2a                	sw	a0,28(sp)
     212:	d02e                	sw	a1,32(sp)
     214:	d232                	sw	a2,36(sp)
     216:	d436                	sw	a3,40(sp)
     218:	d63a                	sw	a4,44(sp)
     21a:	d83e                	sw	a5,48(sp)
     21c:	da42                	sw	a6,52(sp)
     21e:	dc46                	sw	a7,56(sp)
     220:	de4a                	sw	s2,60(sp)
     222:	c0ce                	sw	s3,64(sp)
     224:	c2d2                	sw	s4,68(sp)
     226:	c4d6                	sw	s5,72(sp)
     228:	c6da                	sw	s6,76(sp)
     22a:	c8de                	sw	s7,80(sp)
     22c:	cae2                	sw	s8,84(sp)
     22e:	cce6                	sw	s9,88(sp)
     230:	ceea                	sw	s10,92(sp)
     232:	d0ee                	sw	s11,96(sp)
     234:	d2f2                	sw	t3,100(sp)
     236:	d4f6                	sw	t4,104(sp)
     238:	d6fa                	sw	t5,108(sp)
     23a:	d8fe                	sw	t6,112(sp)
     23c:	300022f3          	csrr	t0,mstatus
     240:	da96                	sw	t0,116(sp)
     242:	20000297          	auipc	t0,0x20000
     246:	e8a2a283          	lw	t0,-374(t0) # 200000cc <pxCurrentTCB>
     24a:	0022a023          	sw	sp,0(t0)
     24e:	341025f3          	csrr	a1,mepc
     252:	c02e                	sw	a1,0(sp)
     254:	8181a103          	lw	sp,-2024(gp) # 20000098 <xISRStackTop>
     258:	50d020ef          	jal	ra,2f64 <vTaskSwitchContext>

0000025c <processed_source>:
     25c:	20000317          	auipc	t1,0x20000
     260:	e7032303          	lw	t1,-400(t1) # 200000cc <pxCurrentTCB>
     264:	00032103          	lw	sp,0(t1)
     268:	4282                	lw	t0,0(sp)
     26a:	34129073          	csrw	mepc,t0
     26e:	52d6                	lw	t0,116(sp)
     270:	30029073          	csrw	mstatus,t0
     274:	4092                	lw	ra,4(sp)
     276:	42a2                	lw	t0,8(sp)
     278:	4332                	lw	t1,12(sp)
     27a:	43c2                	lw	t2,16(sp)
     27c:	4452                	lw	s0,20(sp)
     27e:	44e2                	lw	s1,24(sp)
     280:	4572                	lw	a0,28(sp)
     282:	5582                	lw	a1,32(sp)
     284:	5612                	lw	a2,36(sp)
     286:	56a2                	lw	a3,40(sp)
     288:	5732                	lw	a4,44(sp)
     28a:	57c2                	lw	a5,48(sp)
     28c:	5852                	lw	a6,52(sp)
     28e:	58e2                	lw	a7,56(sp)
     290:	5972                	lw	s2,60(sp)
     292:	4986                	lw	s3,64(sp)
     294:	4a16                	lw	s4,68(sp)
     296:	4aa6                	lw	s5,72(sp)
     298:	4b36                	lw	s6,76(sp)
     29a:	4bc6                	lw	s7,80(sp)
     29c:	4c56                	lw	s8,84(sp)
     29e:	4ce6                	lw	s9,88(sp)
     2a0:	4d76                	lw	s10,92(sp)
     2a2:	5d86                	lw	s11,96(sp)
     2a4:	5e16                	lw	t3,100(sp)
     2a6:	5ea6                	lw	t4,104(sp)
     2a8:	5f36                	lw	t5,108(sp)
     2aa:	5fc6                	lw	t6,112(sp)
     2ac:	07810113          	addi	sp,sp,120
     2b0:	30200073          	mret
     2b4:	00000013          	nop
     2b8:	00000013          	nop
     2bc:	00000013          	nop
     2c0:	00000013          	nop
     2c4:	00000013          	nop
     2c8:	00000013          	nop
     2cc:	00000013          	nop
     2d0:	00000013          	nop
     2d4:	00000013          	nop
     2d8:	00000013          	nop
     2dc:	00000013          	nop
     2e0:	00000013          	nop
     2e4:	00000013          	nop
     2e8:	00000013          	nop
     2ec:	00000013          	nop
     2f0:	00000013          	nop
     2f4:	00000013          	nop
     2f8:	00000013          	nop
     2fc:	00000013          	nop

00000300 <xPortStartFirstTask>:
     300:	8181a283          	lw	t0,-2024(gp) # 20000098 <xISRStackTop>
     304:	e0028293          	addi	t0,t0,-512
     308:	34029073          	csrw	mscratch,t0
     30c:	20000117          	auipc	sp,0x20000
     310:	dc012103          	lw	sp,-576(sp) # 200000cc <pxCurrentTCB>
     314:	4102                	lw	sp,0(sp)
     316:	4082                	lw	ra,0(sp)
     318:	4332                	lw	t1,12(sp)
     31a:	43c2                	lw	t2,16(sp)
     31c:	4452                	lw	s0,20(sp)
     31e:	44e2                	lw	s1,24(sp)
     320:	4572                	lw	a0,28(sp)
     322:	5582                	lw	a1,32(sp)
     324:	5612                	lw	a2,36(sp)
     326:	56a2                	lw	a3,40(sp)
     328:	5732                	lw	a4,44(sp)
     32a:	57c2                	lw	a5,48(sp)
     32c:	5852                	lw	a6,52(sp)
     32e:	58e2                	lw	a7,56(sp)
     330:	5972                	lw	s2,60(sp)
     332:	4986                	lw	s3,64(sp)
     334:	4a16                	lw	s4,68(sp)
     336:	4aa6                	lw	s5,72(sp)
     338:	4b36                	lw	s6,76(sp)
     33a:	4bc6                	lw	s7,80(sp)
     33c:	4c56                	lw	s8,84(sp)
     33e:	4ce6                	lw	s9,88(sp)
     340:	4d76                	lw	s10,92(sp)
     342:	5d86                	lw	s11,96(sp)
     344:	5e16                	lw	t3,100(sp)
     346:	5ea6                	lw	t4,104(sp)
     348:	5f36                	lw	t5,108(sp)
     34a:	5fc6                	lw	t6,112(sp)
     34c:	52d6                	lw	t0,116(sp)
     34e:	02a1                	addi	t0,t0,8
     350:	30029073          	csrw	mstatus,t0
     354:	42a2                	lw	t0,8(sp)
     356:	07810113          	addi	sp,sp,120
     35a:	8082                	ret
     35c:	00000013          	nop
     360:	00000013          	nop
     364:	00000013          	nop
     368:	00000013          	nop
     36c:	00000013          	nop
     370:	00000013          	nop
     374:	00000013          	nop
     378:	00000013          	nop
     37c:	00000013          	nop
     380:	00000013          	nop
     384:	00000013          	nop
     388:	00000013          	nop
     38c:	00000013          	nop
     390:	00000013          	nop
     394:	00000013          	nop
     398:	00000013          	nop
     39c:	00000013          	nop
     3a0:	00000013          	nop
     3a4:	00000013          	nop
     3a8:	00000013          	nop
     3ac:	00000013          	nop
     3b0:	00000013          	nop
     3b4:	00000013          	nop
     3b8:	00000013          	nop
     3bc:	00000013          	nop
     3c0:	00000013          	nop
     3c4:	00000013          	nop
     3c8:	00000013          	nop
     3cc:	00000013          	nop
     3d0:	00000013          	nop
     3d4:	00000013          	nop
     3d8:	00000013          	nop
     3dc:	00000013          	nop
     3e0:	00000013          	nop
     3e4:	00000013          	nop
     3e8:	00000013          	nop
     3ec:	00000013          	nop
     3f0:	00000013          	nop
     3f4:	00000013          	nop
     3f8:	00000013          	nop
     3fc:	00000013          	nop

00000400 <pxPortInitialiseStack>:
     400:	300022f3          	csrr	t0,mstatus
     404:	ff72f293          	andi	t0,t0,-9
     408:	18800313          	li	t1,392
     40c:	0312                	slli	t1,t1,0x4
     40e:	0062e2b3          	or	t0,t0,t1
     412:	1571                	addi	a0,a0,-4
     414:	00552023          	sw	t0,0(a0)
     418:	fa850513          	addi	a0,a0,-88
     41c:	c110                	sw	a2,0(a0)
     41e:	1521                	addi	a0,a0,-24
     420:	00052023          	sw	zero,0(a0)
     424:	00000293          	li	t0,0

00000428 <chip_specific_stack_frame>:
     428:	00028763          	beqz	t0,436 <chip_specific_stack_frame+0xe>
     42c:	1571                	addi	a0,a0,-4
     42e:	00052023          	sw	zero,0(a0)
     432:	12fd                	addi	t0,t0,-1
     434:	bfd5                	j	428 <chip_specific_stack_frame>
     436:	1571                	addi	a0,a0,-4
     438:	c10c                	sw	a1,0(a0)
     43a:	8082                	ret
	...

000004ee <__riscv_save_12>:
     4ee:	7139                	addi	sp,sp,-64
     4f0:	4301                	li	t1,0
     4f2:	c66e                	sw	s11,12(sp)
     4f4:	a019                	j	4fa <__riscv_save_10+0x4>

000004f6 <__riscv_save_10>:
     4f6:	7139                	addi	sp,sp,-64
     4f8:	5341                	li	t1,-16
     4fa:	c86a                	sw	s10,16(sp)
     4fc:	ca66                	sw	s9,20(sp)
     4fe:	cc62                	sw	s8,24(sp)
     500:	ce5e                	sw	s7,28(sp)
     502:	a019                	j	508 <__riscv_save_4+0x4>

00000504 <__riscv_save_4>:
     504:	7139                	addi	sp,sp,-64
     506:	5301                	li	t1,-32
     508:	d05a                	sw	s6,32(sp)
     50a:	d256                	sw	s5,36(sp)
     50c:	d452                	sw	s4,40(sp)
     50e:	d64e                	sw	s3,44(sp)
     510:	d84a                	sw	s2,48(sp)
     512:	da26                	sw	s1,52(sp)
     514:	dc22                	sw	s0,56(sp)
     516:	de06                	sw	ra,60(sp)
     518:	40610133          	sub	sp,sp,t1
     51c:	8282                	jr	t0

0000051e <__riscv_save_0>:
     51e:	1141                	addi	sp,sp,-16
     520:	c04a                	sw	s2,0(sp)
     522:	c226                	sw	s1,4(sp)
     524:	c422                	sw	s0,8(sp)
     526:	c606                	sw	ra,12(sp)
     528:	8282                	jr	t0

0000052a <__riscv_restore_12>:
     52a:	4db2                	lw	s11,12(sp)
     52c:	0141                	addi	sp,sp,16

0000052e <__riscv_restore_10>:
     52e:	4d02                	lw	s10,0(sp)
     530:	4c92                	lw	s9,4(sp)
     532:	4c22                	lw	s8,8(sp)
     534:	4bb2                	lw	s7,12(sp)
     536:	0141                	addi	sp,sp,16

00000538 <__riscv_restore_4>:
     538:	4b02                	lw	s6,0(sp)
     53a:	4a92                	lw	s5,4(sp)
     53c:	4a22                	lw	s4,8(sp)
     53e:	49b2                	lw	s3,12(sp)
     540:	0141                	addi	sp,sp,16

00000542 <__riscv_restore_0>:
     542:	4902                	lw	s2,0(sp)
     544:	4492                	lw	s1,4(sp)
     546:	4422                	lw	s0,8(sp)
     548:	40b2                	lw	ra,12(sp)
     54a:	0141                	addi	sp,sp,16
     54c:	8082                	ret

0000054e <memset>:
     54e:	433d                	li	t1,15
     550:	872a                	mv	a4,a0
     552:	02c37363          	bgeu	t1,a2,578 <memset+0x2a>
     556:	00f77793          	andi	a5,a4,15
     55a:	efbd                	bnez	a5,5d8 <memset+0x8a>
     55c:	e5ad                	bnez	a1,5c6 <memset+0x78>
     55e:	ff067693          	andi	a3,a2,-16
     562:	8a3d                	andi	a2,a2,15
     564:	96ba                	add	a3,a3,a4
     566:	c30c                	sw	a1,0(a4)
     568:	c34c                	sw	a1,4(a4)
     56a:	c70c                	sw	a1,8(a4)
     56c:	c74c                	sw	a1,12(a4)
     56e:	0741                	addi	a4,a4,16
     570:	fed76be3          	bltu	a4,a3,566 <memset+0x18>
     574:	e211                	bnez	a2,578 <memset+0x2a>
     576:	8082                	ret
     578:	40c306b3          	sub	a3,t1,a2
     57c:	068a                	slli	a3,a3,0x2
     57e:	00000297          	auipc	t0,0x0
     582:	9696                	add	a3,a3,t0
     584:	00a68067          	jr	10(a3)
     588:	00b70723          	sb	a1,14(a4)
     58c:	00b706a3          	sb	a1,13(a4)
     590:	00b70623          	sb	a1,12(a4)
     594:	00b705a3          	sb	a1,11(a4)
     598:	00b70523          	sb	a1,10(a4)
     59c:	00b704a3          	sb	a1,9(a4)
     5a0:	00b70423          	sb	a1,8(a4)
     5a4:	00b703a3          	sb	a1,7(a4)
     5a8:	00b70323          	sb	a1,6(a4)
     5ac:	00b702a3          	sb	a1,5(a4)
     5b0:	00b70223          	sb	a1,4(a4)
     5b4:	00b701a3          	sb	a1,3(a4)
     5b8:	00b70123          	sb	a1,2(a4)
     5bc:	00b700a3          	sb	a1,1(a4)
     5c0:	00b70023          	sb	a1,0(a4)
     5c4:	8082                	ret
     5c6:	0ff5f593          	andi	a1,a1,255
     5ca:	00859693          	slli	a3,a1,0x8
     5ce:	8dd5                	or	a1,a1,a3
     5d0:	01059693          	slli	a3,a1,0x10
     5d4:	8dd5                	or	a1,a1,a3
     5d6:	b761                	j	55e <memset+0x10>
     5d8:	00279693          	slli	a3,a5,0x2
     5dc:	00000297          	auipc	t0,0x0
     5e0:	9696                	add	a3,a3,t0
     5e2:	8286                	mv	t0,ra
     5e4:	fa8680e7          	jalr	-88(a3)
     5e8:	8096                	mv	ra,t0
     5ea:	17c1                	addi	a5,a5,-16
     5ec:	8f1d                	sub	a4,a4,a5
     5ee:	963e                	add	a2,a2,a5
     5f0:	f8c374e3          	bgeu	t1,a2,578 <memset+0x2a>
     5f4:	b7a5                	j	55c <memset+0xe>

000005f6 <vSaveData>:
     5f6:	f29ff2ef          	jal	t0,51e <__riscv_save_0>
     5fa:	200007b7          	lui	a5,0x20000
     5fe:	0a07a783          	lw	a5,160(a5) # 200000a0 <_edata>
     602:	06400713          	li	a4,100
     606:	200005b7          	lui	a1,0x20000
     60a:	02e7d7b3          	divu	a5,a5,a4
     60e:	12058593          	addi	a1,a1,288 # 20000120 <DATA_MODEL_REGISTER>
     612:	4681                	li	a3,0
     614:	4621                	li	a2,8
     616:	0595                	addi	a1,a1,5
     618:	4515                	li	a0,5
     61a:	0087d713          	srli	a4,a5,0x8
     61e:	a1dc                	sb	a5,4(a1)
     620:	b1d8                	sb	a4,5(a1)
     622:	0107d713          	srli	a4,a5,0x10
     626:	83e1                	srli	a5,a5,0x18
     628:	a1f8                	sb	a4,6(a1)
     62a:	b1fc                	sb	a5,7(a1)
     62c:	56b000ef          	jal	ra,1396 <eEEPROMWr>
     630:	bf09                	j	542 <__riscv_restore_0>

00000632 <NMI_Handler>:
     632:	a001                	j	632 <NMI_Handler>

00000634 <HardFault_Handler>:
     634:	7139                	addi	sp,sp,-64
     636:	d62a                	sw	a0,44(sp)
     638:	00005537          	lui	a0,0x5
     63c:	c2850513          	addi	a0,a0,-984 # 4c28 <_read+0xe>
     640:	de06                	sw	ra,60(sp)
     642:	dc16                	sw	t0,56(sp)
     644:	da1a                	sw	t1,52(sp)
     646:	d81e                	sw	t2,48(sp)
     648:	d232                	sw	a2,36(sp)
     64a:	d036                	sw	a3,32(sp)
     64c:	ce3a                	sw	a4,28(sp)
     64e:	cc3e                	sw	a5,24(sp)
     650:	ca42                	sw	a6,20(sp)
     652:	c846                	sw	a7,16(sp)
     654:	c672                	sw	t3,12(sp)
     656:	c476                	sw	t4,8(sp)
     658:	c27a                	sw	t5,4(sp)
     65a:	c07e                	sw	t6,0(sp)
     65c:	d42e                	sw	a1,40(sp)
     65e:	684030ef          	jal	ra,3ce2 <puts>
     662:	314030ef          	jal	ra,3976 <__get_MEPC>
     666:	85aa                	mv	a1,a0
     668:	00005537          	lui	a0,0x5
     66c:	c3c50513          	addi	a0,a0,-964 # 4c3c <_read+0x22>
     670:	55e030ef          	jal	ra,3bce <iprintf>
     674:	308030ef          	jal	ra,397c <__get_MCAUSE>
     678:	85aa                	mv	a1,a0
     67a:	00005537          	lui	a0,0x5
     67e:	c4c50513          	addi	a0,a0,-948 # 4c4c <_read+0x32>
     682:	54c030ef          	jal	ra,3bce <iprintf>
     686:	2fc030ef          	jal	ra,3982 <__get_MTVAL>
     68a:	85aa                	mv	a1,a0
     68c:	00005537          	lui	a0,0x5
     690:	c5c50513          	addi	a0,a0,-932 # 4c5c <_read+0x42>
     694:	53a030ef          	jal	ra,3bce <iprintf>
     698:	a001                	j	698 <HardFault_Handler+0x64>

0000069a <ADC1_2_IRQHandler>:
     69a:	e85ff2ef          	jal	t0,51e <__riscv_save_0>
     69e:	40012437          	lui	s0,0x40012
     6a2:	14000593          	li	a1,320
     6a6:	40040513          	addi	a0,s0,1024 # 40012400 <__freertos_irq_stack_top+0x2000d400>
     6aa:	2195                	jal	b0e <ADC_GetITStatus>
     6ac:	c519                	beqz	a0,6ba <ADC1_2_IRQHandler+0x20>
     6ae:	37a1                	jal	5f6 <vSaveData>
     6b0:	14000593          	li	a1,320
     6b4:	40040513          	addi	a0,s0,1024
     6b8:	298d                	jal	b2a <ADC_ClearITPendingBit>
     6ba:	b561                	j	542 <__riscv_restore_0>

000006bc <vInit_DeviceConfig>:
     6bc:	e63ff2ef          	jal	t0,51e <__riscv_save_0>
     6c0:	40011437          	lui	s0,0x40011
     6c4:	0fa010ef          	jal	ra,17be <HAL_InitGpioLib>
     6c8:	80040513          	addi	a0,s0,-2048 # 40010800 <__freertos_irq_stack_top+0x2000b800>
     6cc:	10000593          	li	a1,256
     6d0:	258010ef          	jal	ra,1928 <HAL_ResetBit>
     6d4:	c0040513          	addi	a0,s0,-1024
     6d8:	45c1                	li	a1,16
     6da:	1a4010ef          	jal	ra,187e <HAL_InitGpioOut>
     6de:	6485                	lui	s1,0x1
     6e0:	c2048593          	addi	a1,s1,-992 # c20 <CAN_ClearITPendingBit+0x56>
     6e4:	c0040513          	addi	a0,s0,-1024
     6e8:	1e0010ef          	jal	ra,18c8 <HAL_InitGpioIn>
     6ec:	00180637          	lui	a2,0x180
     6f0:	c0040513          	addi	a0,s0,-1024
     6f4:	46e1                	li	a3,24
     6f6:	10060613          	addi	a2,a2,256 # 180100 <_data_lma+0x17b288>
     6fa:	45a1                	li	a1,8
     6fc:	1f2010ef          	jal	ra,18ee <HAL_InitGpioAF>
     700:	80048593          	addi	a1,s1,-2048
     704:	80040513          	addi	a0,s0,-2048
     708:	46e1                	li	a3,24
     70a:	4601                	li	a2,0
     70c:	1e2010ef          	jal	ra,18ee <HAL_InitGpioAF>
     710:	46e1                	li	a3,24
     712:	4601                	li	a2,0
     714:	c0040513          	addi	a0,s0,-1024
     718:	458d                	li	a1,3
     71a:	1d4010ef          	jal	ra,18ee <HAL_InitGpioAF>
     71e:	80040513          	addi	a0,s0,-2048
     722:	04f00593          	li	a1,79
     726:	17e010ef          	jal	ra,18a4 <HAL_InitGpioAIN>
     72a:	80040513          	addi	a0,s0,-2048
     72e:	46e1                	li	a3,24
     730:	4601                	li	a2,0
     732:	0b000593          	li	a1,176
     736:	1b8010ef          	jal	ra,18ee <HAL_InitGpioAF>
     73a:	c0040513          	addi	a0,s0,-1024
     73e:	46e1                	li	a3,24
     740:	4601                	li	a2,0
     742:	65ad                	lui	a1,0xb
     744:	1aa010ef          	jal	ra,18ee <HAL_InitGpioAF>
     748:	c0040513          	addi	a0,s0,-1024
     74c:	04800693          	li	a3,72
     750:	001d4637          	lui	a2,0x1d4
     754:	10000593          	li	a1,256
     758:	196010ef          	jal	ra,18ee <HAL_InitGpioAF>
     75c:	c0040513          	addi	a0,s0,-1024
     760:	46e1                	li	a3,24
     762:	001d4637          	lui	a2,0x1d4
     766:	20000593          	li	a1,512
     76a:	184010ef          	jal	ra,18ee <HAL_InitGpioAF>
     76e:	46f1                	li	a3,28
     770:	4601                	li	a2,0
     772:	0c000593          	li	a1,192
     776:	c0040513          	addi	a0,s0,-1024
     77a:	174010ef          	jal	ra,18ee <HAL_InitGpioAF>
     77e:	3ff000ef          	jal	ra,137c <vInitEEPROM>
     782:	b3c1                	j	542 <__riscv_restore_0>

00000784 <main>:
     784:	d9bff2ef          	jal	t0,51e <__riscv_save_0>
     788:	4505                	li	a0,1
     78a:	101000ef          	jal	ra,108a <NVIC_PriorityGroupConfig>
     78e:	2215                	jal	8b2 <SystemCoreClockUpdate>
     790:	0f6030ef          	jal	ra,3886 <Delay_Init>
     794:	6571                	lui	a0,0x1c
     796:	20050513          	addi	a0,a0,512 # 1c200 <_data_lma+0x17388>
     79a:	11e030ef          	jal	ra,38b8 <USART_Printf_Init>
     79e:	00005537          	lui	a0,0x5
     7a2:	c6c50513          	addi	a0,a0,-916 # 4c6c <_read+0x52>
     7a6:	53c030ef          	jal	ra,3ce2 <puts>
     7aa:	3f09                	jal	6bc <vInit_DeviceConfig>
     7ac:	00005437          	lui	s0,0x5
     7b0:	248d                	jal	a12 <vSYSeventInit>
     7b2:	2cb9                	jal	a10 <vSYSqueueInit>
     7b4:	2c0d                	jal	9e6 <vSYStaskInit>
     7b6:	38e020ef          	jal	ra,2b44 <vTaskStartScheduler>
     7ba:	c7440513          	addi	a0,s0,-908 # 4c74 <_read+0x5a>
     7be:	524030ef          	jal	ra,3ce2 <puts>
     7c2:	bfe5                	j	7ba <main+0x36>

000007c4 <SystemInit>:
     7c4:	400217b7          	lui	a5,0x40021
     7c8:	4398                	lw	a4,0(a5)
     7ca:	f8ff06b7          	lui	a3,0xf8ff0
     7ce:	1141                	addi	sp,sp,-16
     7d0:	00176713          	ori	a4,a4,1
     7d4:	c398                	sw	a4,0(a5)
     7d6:	43d8                	lw	a4,4(a5)
     7d8:	00020637          	lui	a2,0x20
     7dc:	8f75                	and	a4,a4,a3
     7de:	c3d8                	sw	a4,4(a5)
     7e0:	4398                	lw	a4,0(a5)
     7e2:	fef706b7          	lui	a3,0xfef70
     7e6:	16fd                	addi	a3,a3,-1
     7e8:	8f75                	and	a4,a4,a3
     7ea:	c398                	sw	a4,0(a5)
     7ec:	4398                	lw	a4,0(a5)
     7ee:	fffc06b7          	lui	a3,0xfffc0
     7f2:	16fd                	addi	a3,a3,-1
     7f4:	8f75                	and	a4,a4,a3
     7f6:	c398                	sw	a4,0(a5)
     7f8:	43d8                	lw	a4,4(a5)
     7fa:	ff8106b7          	lui	a3,0xff810
     7fe:	16fd                	addi	a3,a3,-1
     800:	8f75                	and	a4,a4,a3
     802:	c3d8                	sw	a4,4(a5)
     804:	009f0737          	lui	a4,0x9f0
     808:	c798                	sw	a4,8(a5)
     80a:	c402                	sw	zero,8(sp)
     80c:	c602                	sw	zero,12(sp)
     80e:	4398                	lw	a4,0(a5)
     810:	66c1                	lui	a3,0x10
     812:	8f55                	or	a4,a4,a3
     814:	c398                	sw	a4,0(a5)
     816:	400216b7          	lui	a3,0x40021
     81a:	6705                	lui	a4,0x1
     81c:	429c                	lw	a5,0(a3)
     81e:	8ff1                	and	a5,a5,a2
     820:	c63e                	sw	a5,12(sp)
     822:	47a2                	lw	a5,8(sp)
     824:	0785                	addi	a5,a5,1
     826:	c43e                	sw	a5,8(sp)
     828:	47b2                	lw	a5,12(sp)
     82a:	e781                	bnez	a5,832 <__stack_size+0x32>
     82c:	47a2                	lw	a5,8(sp)
     82e:	fee797e3          	bne	a5,a4,81c <__stack_size+0x1c>
     832:	400217b7          	lui	a5,0x40021
     836:	439c                	lw	a5,0(a5)
     838:	00e79713          	slli	a4,a5,0xe
     83c:	06075963          	bgez	a4,8ae <__stack_size+0xae>
     840:	4785                	li	a5,1
     842:	c63e                	sw	a5,12(sp)
     844:	4732                	lw	a4,12(sp)
     846:	4785                	li	a5,1
     848:	06f71163          	bne	a4,a5,8aa <__stack_size+0xaa>
     84c:	400217b7          	lui	a5,0x40021
     850:	43d8                	lw	a4,4(a5)
     852:	6689                	lui	a3,0x2
     854:	c3d8                	sw	a4,4(a5)
     856:	43d8                	lw	a4,4(a5)
     858:	8f55                	or	a4,a4,a3
     85a:	c3d8                	sw	a4,4(a5)
     85c:	43d8                	lw	a4,4(a5)
     85e:	ffc106b7          	lui	a3,0xffc10
     862:	16fd                	addi	a3,a3,-1
     864:	40076713          	ori	a4,a4,1024
     868:	c3d8                	sw	a4,4(a5)
     86a:	43d8                	lw	a4,4(a5)
     86c:	8f75                	and	a4,a4,a3
     86e:	c3d8                	sw	a4,4(a5)
     870:	43d8                	lw	a4,4(a5)
     872:	003d06b7          	lui	a3,0x3d0
     876:	8f55                	or	a4,a4,a3
     878:	c3d8                	sw	a4,4(a5)
     87a:	4398                	lw	a4,0(a5)
     87c:	010006b7          	lui	a3,0x1000
     880:	8f55                	or	a4,a4,a3
     882:	c398                	sw	a4,0(a5)
     884:	4398                	lw	a4,0(a5)
     886:	00671693          	slli	a3,a4,0x6
     88a:	fe06dde3          	bgez	a3,884 <__stack_size+0x84>
     88e:	43d8                	lw	a4,4(a5)
     890:	400216b7          	lui	a3,0x40021
     894:	9b71                	andi	a4,a4,-4
     896:	c3d8                	sw	a4,4(a5)
     898:	43d8                	lw	a4,4(a5)
     89a:	00276713          	ori	a4,a4,2
     89e:	c3d8                	sw	a4,4(a5)
     8a0:	4721                	li	a4,8
     8a2:	42dc                	lw	a5,4(a3)
     8a4:	8bb1                	andi	a5,a5,12
     8a6:	fee79ee3          	bne	a5,a4,8a2 <__stack_size+0xa2>
     8aa:	0141                	addi	sp,sp,16
     8ac:	8082                	ret
     8ae:	c602                	sw	zero,12(sp)
     8b0:	bf51                	j	844 <__stack_size+0x44>

000008b2 <SystemCoreClockUpdate>:
     8b2:	400216b7          	lui	a3,0x40021
     8b6:	42dc                	lw	a5,4(a3)
     8b8:	20000737          	lui	a4,0x20000
     8bc:	4611                	li	a2,4
     8be:	8bb1                	andi	a5,a5,12
     8c0:	08070713          	addi	a4,a4,128 # 20000080 <SystemCoreClock>
     8c4:	00c78563          	beq	a5,a2,8ce <SystemCoreClockUpdate+0x1c>
     8c8:	4621                	li	a2,8
     8ca:	02c78863          	beq	a5,a2,8fa <SystemCoreClockUpdate+0x48>
     8ce:	007a17b7          	lui	a5,0x7a1
     8d2:	20078793          	addi	a5,a5,512 # 7a1200 <_data_lma+0x79c388>
     8d6:	c31c                	sw	a5,0(a4)
     8d8:	400217b7          	lui	a5,0x40021
     8dc:	43dc                	lw	a5,4(a5)
     8de:	8391                	srli	a5,a5,0x4
     8e0:	00f7f693          	andi	a3,a5,15
     8e4:	200007b7          	lui	a5,0x20000
     8e8:	00078793          	mv	a5,a5
     8ec:	97b6                	add	a5,a5,a3
     8ee:	2394                	lbu	a3,0(a5)
     8f0:	431c                	lw	a5,0(a4)
     8f2:	00d7d7b3          	srl	a5,a5,a3
     8f6:	c31c                	sw	a5,0(a4)
     8f8:	8082                	ret
     8fa:	42dc                	lw	a5,4(a3)
     8fc:	42d4                	lw	a3,4(a3)
     8fe:	6641                	lui	a2,0x10
     900:	83c9                	srli	a5,a5,0x12
     902:	8bbd                	andi	a5,a5,15
     904:	8ef1                	and	a3,a3,a2
     906:	0789                	addi	a5,a5,2
     908:	4645                	li	a2,17
     90a:	00c79363          	bne	a5,a2,910 <SystemCoreClockUpdate+0x5e>
     90e:	47c9                	li	a5,18
     910:	ee81                	bnez	a3,928 <SystemCoreClockUpdate+0x76>
     912:	400246b7          	lui	a3,0x40024
     916:	8006a683          	lw	a3,-2048(a3) # 40023800 <__freertos_irq_stack_top+0x2001e800>
     91a:	8ac1                	andi	a3,a3,16
     91c:	ce89                	beqz	a3,936 <SystemCoreClockUpdate+0x84>
     91e:	007a16b7          	lui	a3,0x7a1
     922:	20068693          	addi	a3,a3,512 # 7a1200 <_data_lma+0x79c388>
     926:	a821                	j	93e <SystemCoreClockUpdate+0x8c>
     928:	400216b7          	lui	a3,0x40021
     92c:	42d4                	lw	a3,4(a3)
     92e:	00e69613          	slli	a2,a3,0xe
     932:	fe0656e3          	bgez	a2,91e <SystemCoreClockUpdate+0x6c>
     936:	003d16b7          	lui	a3,0x3d1
     93a:	90068693          	addi	a3,a3,-1792 # 3d0900 <_data_lma+0x3cba88>
     93e:	02d787b3          	mul	a5,a5,a3
     942:	bf51                	j	8d6 <SystemCoreClockUpdate+0x24>

00000944 <StartDefaultTask>:
     944:	bc1ff2ef          	jal	t0,504 <__riscv_save_4>
     948:	000059b7          	lui	s3,0x5
     94c:	abc18493          	addi	s1,gp,-1348 # 2000033c <data>
     950:	06400913          	li	s2,100
     954:	c8c98513          	addi	a0,s3,-884 # 4c8c <_read+0x72>
     958:	276030ef          	jal	ra,3bce <iprintf>
     95c:	4781                	li	a5,0
     95e:	00f48733          	add	a4,s1,a5
     962:	a31c                	sb	a5,0(a4)
     964:	0785                	addi	a5,a5,1
     966:	ff279ce3          	bne	a5,s2,95e <StartDefaultTask+0x1a>
     96a:	4689                	li	a3,2
     96c:	4679                	li	a2,30
     96e:	85a6                	mv	a1,s1
     970:	4501                	li	a0,0
     972:	225000ef          	jal	ra,1396 <eEEPROMWr>
     976:	4781                	li	a5,0
     978:	00f48733          	add	a4,s1,a5
     97c:	00070023          	sb	zero,0(a4)
     980:	0785                	addi	a5,a5,1
     982:	ff279be3          	bne	a5,s2,978 <StartDefaultTask+0x34>
     986:	4689                	li	a3,2
     988:	4679                	li	a2,30
     98a:	abc18593          	addi	a1,gp,-1348 # 2000033c <data>
     98e:	4501                	li	a0,0
     990:	29d000ef          	jal	ra,142c <eEEPROMRd>
     994:	4781                	li	a5,0
     996:	00f48733          	add	a4,s1,a5
     99a:	00278693          	addi	a3,a5,2 # 20000002 <_data_vma+0x2>
     99e:	a314                	sb	a3,0(a4)
     9a0:	0785                	addi	a5,a5,1
     9a2:	ff279ae3          	bne	a5,s2,996 <StartDefaultTask+0x52>
     9a6:	4689                	li	a3,2
     9a8:	4679                	li	a2,30
     9aa:	abc18593          	addi	a1,gp,-1348 # 2000033c <data>
     9ae:	4501                	li	a0,0
     9b0:	1e7000ef          	jal	ra,1396 <eEEPROMWr>
     9b4:	06400513          	li	a0,100
     9b8:	548020ef          	jal	ra,2f00 <vTaskDelay>
     9bc:	bf61                	j	954 <StartDefaultTask+0x10>

000009be <vApplicationGetIdleTaskMemory>:
     9be:	17c18793          	addi	a5,gp,380 # 200009fc <xIdleTaskTCB>
     9c2:	c11c                	sw	a5,0(a0)
     9c4:	d7c18793          	addi	a5,gp,-644 # 200005fc <uxIdleTaskStack>
     9c8:	c19c                	sw	a5,0(a1)
     9ca:	08000793          	li	a5,128
     9ce:	c21c                	sw	a5,0(a2)
     9d0:	8082                	ret

000009d2 <vApplicationGetTimerTaskMemory>:
     9d2:	1d818793          	addi	a5,gp,472 # 20000a58 <xTimerTaskTCB>
     9d6:	c11c                	sw	a5,0(a0)
     9d8:	f7c18793          	addi	a5,gp,-132 # 200007fc <uxTimerTaskStack>
     9dc:	c19c                	sw	a5,0(a1)
     9de:	08000793          	li	a5,128
     9e2:	c21c                	sw	a5,0(a2)
     9e4:	8082                	ret

000009e6 <vSYStaskInit>:
     9e6:	b39ff2ef          	jal	t0,51e <__riscv_save_0>
     9ea:	000055b7          	lui	a1,0x5
     9ee:	00001537          	lui	a0,0x1
     9f2:	d2018813          	addi	a6,gp,-736 # 200005a0 <defaultTaskControlBlock>
     9f6:	b2018793          	addi	a5,gp,-1248 # 200003a0 <defaultTaskBuffer>
     9fa:	470d                	li	a4,3
     9fc:	4685                	li	a3,1
     9fe:	08000613          	li	a2,128
     a02:	ca058593          	addi	a1,a1,-864 # 4ca0 <_read+0x86>
     a06:	94450513          	addi	a0,a0,-1724 # 944 <StartDefaultTask>
     a0a:	096020ef          	jal	ra,2aa0 <xTaskCreateStatic>
     a0e:	be15                	j	542 <__riscv_restore_0>

00000a10 <vSYSqueueInit>:
     a10:	8082                	ret

00000a12 <vSYSeventInit>:
     a12:	8082                	ret
     a14:	a001                	j	a14 <vSYSeventInit+0x2>
     a16:	a001                	j	a16 <vSYSeventInit+0x4>

00000a18 <Ecall_M_Mode_Handler>:
     a18:	a001                	j	a18 <Ecall_M_Mode_Handler>

00000a1a <Ecall_U_Mode_Handler>:
     a1a:	a001                	j	a1a <Ecall_U_Mode_Handler>

00000a1c <Break_Point_Handler>:
     a1c:	a001                	j	a1c <Break_Point_Handler>
     a1e:	a001                	j	a1e <Break_Point_Handler+0x2>
     a20:	a001                	j	a20 <Break_Point_Handler+0x4>

00000a22 <WWDG_IRQHandler>:
     a22:	a001                	j	a22 <WWDG_IRQHandler>

00000a24 <PVD_IRQHandler>:
     a24:	a001                	j	a24 <PVD_IRQHandler>

00000a26 <TAMPER_IRQHandler>:
     a26:	a001                	j	a26 <TAMPER_IRQHandler>
     a28:	a001                	j	a28 <TAMPER_IRQHandler+0x2>

00000a2a <FLASH_IRQHandler>:
     a2a:	a001                	j	a2a <FLASH_IRQHandler>

00000a2c <RCC_IRQHandler>:
     a2c:	a001                	j	a2c <RCC_IRQHandler>

00000a2e <EXTI0_IRQHandler>:
     a2e:	a001                	j	a2e <EXTI0_IRQHandler>

00000a30 <EXTI1_IRQHandler>:
     a30:	a001                	j	a30 <EXTI1_IRQHandler>

00000a32 <EXTI2_IRQHandler>:
     a32:	a001                	j	a32 <EXTI2_IRQHandler>

00000a34 <EXTI3_IRQHandler>:
     a34:	a001                	j	a34 <EXTI3_IRQHandler>

00000a36 <EXTI4_IRQHandler>:
     a36:	a001                	j	a36 <EXTI4_IRQHandler>
     a38:	a001                	j	a38 <EXTI4_IRQHandler+0x2>

00000a3a <DMA1_Channel2_IRQHandler>:
     a3a:	a001                	j	a3a <DMA1_Channel2_IRQHandler>

00000a3c <DMA1_Channel3_IRQHandler>:
     a3c:	a001                	j	a3c <DMA1_Channel3_IRQHandler>
     a3e:	a001                	j	a3e <DMA1_Channel3_IRQHandler+0x2>
     a40:	a001                	j	a40 <DMA1_Channel3_IRQHandler+0x4>

00000a42 <DMA1_Channel6_IRQHandler>:
     a42:	a001                	j	a42 <DMA1_Channel6_IRQHandler>
     a44:	a001                	j	a44 <DMA1_Channel6_IRQHandler+0x2>
     a46:	a001                	j	a46 <DMA1_Channel6_IRQHandler+0x4>
     a48:	a001                	j	a48 <DMA1_Channel6_IRQHandler+0x6>
     a4a:	a001                	j	a4a <DMA1_Channel6_IRQHandler+0x8>
     a4c:	a001                	j	a4c <DMA1_Channel6_IRQHandler+0xa>
     a4e:	a001                	j	a4e <DMA1_Channel6_IRQHandler+0xc>

00000a50 <EXTI9_5_IRQHandler>:
     a50:	a001                	j	a50 <EXTI9_5_IRQHandler>

00000a52 <TIM1_BRK_IRQHandler>:
     a52:	a001                	j	a52 <TIM1_BRK_IRQHandler>

00000a54 <TIM1_UP_IRQHandler>:
     a54:	a001                	j	a54 <TIM1_UP_IRQHandler>

00000a56 <TIM1_TRG_COM_IRQHandler>:
     a56:	a001                	j	a56 <TIM1_TRG_COM_IRQHandler>

00000a58 <TIM1_CC_IRQHandler>:
     a58:	a001                	j	a58 <TIM1_CC_IRQHandler>
     a5a:	a001                	j	a5a <TIM1_CC_IRQHandler+0x2>
     a5c:	a001                	j	a5c <TIM1_CC_IRQHandler+0x4>
     a5e:	a001                	j	a5e <TIM1_CC_IRQHandler+0x6>
     a60:	a001                	j	a60 <TIM1_CC_IRQHandler+0x8>
     a62:	a001                	j	a62 <TIM1_CC_IRQHandler+0xa>
     a64:	a001                	j	a64 <TIM1_CC_IRQHandler+0xc>
     a66:	a001                	j	a66 <TIM1_CC_IRQHandler+0xe>

00000a68 <SPI1_IRQHandler>:
     a68:	a001                	j	a68 <SPI1_IRQHandler>

00000a6a <SPI2_IRQHandler>:
     a6a:	a001                	j	a6a <SPI2_IRQHandler>

00000a6c <USART1_IRQHandler>:
     a6c:	a001                	j	a6c <USART1_IRQHandler>

00000a6e <USART2_IRQHandler>:
     a6e:	a001                	j	a6e <USART2_IRQHandler>

00000a70 <USART3_IRQHandler>:
     a70:	a001                	j	a70 <USART3_IRQHandler>

00000a72 <EXTI15_10_IRQHandler>:
     a72:	a001                	j	a72 <EXTI15_10_IRQHandler>

00000a74 <RTCAlarm_IRQHandler>:
     a74:	a001                	j	a74 <RTCAlarm_IRQHandler>

00000a76 <USBWakeUp_IRQHandler>:
     a76:	a001                	j	a76 <USBWakeUp_IRQHandler>

00000a78 <USBHD_IRQHandler>:
     a78:	a001                	j	a78 <USBHD_IRQHandler>

00000a7a <USBHDWakeUp_IRQHandler>:
     a7a:	a001                	j	a7a <USBHDWakeUp_IRQHandler>

00000a7c <UART4_IRQHandler>:
     a7c:	a001                	j	a7c <UART4_IRQHandler>

00000a7e <DMA1_Channel8_IRQHandler>:
     a7e:	a001                	j	a7e <DMA1_Channel8_IRQHandler>

00000a80 <handle_reset>:
     a80:	20000197          	auipc	gp,0x20000
     a84:	e0018193          	addi	gp,gp,-512 # 20000880 <__global_pointer$>
     a88:	20004117          	auipc	sp,0x20004
     a8c:	57810113          	addi	sp,sp,1400 # 20005000 <__freertos_irq_stack_top>
     a90:	00004517          	auipc	a0,0x4
     a94:	3e850513          	addi	a0,a0,1000 # 4e78 <_data_lma>
     a98:	1ffff597          	auipc	a1,0x1ffff
     a9c:	56858593          	addi	a1,a1,1384 # 20000000 <_data_vma>
     aa0:	82018613          	addi	a2,gp,-2016 # 200000a0 <_edata>
     aa4:	00c5fa63          	bgeu	a1,a2,ab8 <handle_reset+0x38>
     aa8:	00052283          	lw	t0,0(a0)
     aac:	0055a023          	sw	t0,0(a1)
     ab0:	0511                	addi	a0,a0,4
     ab2:	0591                	addi	a1,a1,4
     ab4:	fec5eae3          	bltu	a1,a2,aa8 <handle_reset+0x28>
     ab8:	1ffff517          	auipc	a0,0x1ffff
     abc:	5e850513          	addi	a0,a0,1512 # 200000a0 <_edata>
     ac0:	55018593          	addi	a1,gp,1360 # 20000dd0 <_ebss>
     ac4:	00b57763          	bgeu	a0,a1,ad2 <handle_reset+0x52>
     ac8:	00052023          	sw	zero,0(a0)
     acc:	0511                	addi	a0,a0,4
     ace:	feb56de3          	bltu	a0,a1,ac8 <handle_reset+0x48>
     ad2:	42fd                	li	t0,31
     ad4:	bc029073          	csrw	0xbc0,t0
     ad8:	4289                	li	t0,2
     ada:	80429073          	csrw	0x804,t0
     ade:	000022b7          	lui	t0,0x2
     ae2:	80028293          	addi	t0,t0,-2048 # 1800 <HAL_InitGpioRCC+0x34>
     ae6:	3002a073          	csrs	mstatus,t0
     aea:	fffff297          	auipc	t0,0xfffff
     aee:	54e28293          	addi	t0,t0,1358 # 38 <_einit>
     af2:	0032e293          	ori	t0,t0,3
     af6:	30529073          	csrw	mtvec,t0
     afa:	ccbff0ef          	jal	ra,7c4 <SystemInit>
     afe:	00000297          	auipc	t0,0x0
     b02:	c8628293          	addi	t0,t0,-890 # 784 <main>
     b06:	34129073          	csrw	mepc,t0
     b0a:	30200073          	mret

00000b0e <ADC_GetITStatus>:
     b0e:	4158                	lw	a4,4(a0)
     b10:	4114                	lw	a3,0(a0)
     b12:	0085d793          	srli	a5,a1,0x8
     b16:	8ff5                	and	a5,a5,a3
     b18:	c799                	beqz	a5,b26 <ADC_GetITStatus+0x18>
     b1a:	0ff5f513          	andi	a0,a1,255
     b1e:	8d79                	and	a0,a0,a4
     b20:	00a03533          	snez	a0,a0
     b24:	8082                	ret
     b26:	4501                	li	a0,0
     b28:	8082                	ret

00000b2a <ADC_ClearITPendingBit>:
     b2a:	81a1                	srli	a1,a1,0x8
     b2c:	fff5c593          	not	a1,a1
     b30:	c10c                	sw	a1,0(a0)
     b32:	8082                	ret

00000b34 <CAN_GetFlagStatus>:
     b34:	00f007b7          	lui	a5,0xf00
     b38:	8fed                	and	a5,a5,a1
     b3a:	cb89                	beqz	a5,b4c <CAN_GetFlagStatus+0x18>
     b3c:	4d10                	lw	a2,24(a0)
     b3e:	00b67533          	and	a0,a2,a1
     b42:	0532                	slli	a0,a0,0xc
     b44:	8131                	srli	a0,a0,0xc
     b46:	00a03533          	snez	a0,a0
     b4a:	8082                	ret
     b4c:	00759793          	slli	a5,a1,0x7
     b50:	0007d663          	bgez	a5,b5c <CAN_GetFlagStatus+0x28>
     b54:	4154                	lw	a3,4(a0)
     b56:	00b6f533          	and	a0,a3,a1
     b5a:	b7e5                	j	b42 <CAN_GetFlagStatus+0xe>
     b5c:	00459793          	slli	a5,a1,0x4
     b60:	0007d563          	bgez	a5,b6a <CAN_GetFlagStatus+0x36>
     b64:	4508                	lw	a0,8(a0)
     b66:	8d6d                	and	a0,a0,a1
     b68:	bfe9                	j	b42 <CAN_GetFlagStatus+0xe>
     b6a:	001006b7          	lui	a3,0x100
     b6e:	00659793          	slli	a5,a1,0x6
     b72:	16fd                	addi	a3,a3,-1
     b74:	0007d763          	bgez	a5,b82 <CAN_GetFlagStatus+0x4e>
     b78:	4558                	lw	a4,12(a0)
     b7a:	00b77533          	and	a0,a4,a1
     b7e:	8d75                	and	a0,a0,a3
     b80:	b7d9                	j	b46 <CAN_GetFlagStatus+0x12>
     b82:	491c                	lw	a5,16(a0)
     b84:	00b7f533          	and	a0,a5,a1
     b88:	bfdd                	j	b7e <CAN_GetFlagStatus+0x4a>

00000b8a <CAN_ClearFlag>:
     b8a:	30f007b7          	lui	a5,0x30f00
     b8e:	07078793          	addi	a5,a5,112 # 30f00070 <__freertos_irq_stack_top+0x10efb070>
     b92:	00f59563          	bne	a1,a5,b9c <CAN_ClearFlag+0x12>
     b96:	00052c23          	sw	zero,24(a0)
     b9a:	8082                	ret
     b9c:	00c59793          	slli	a5,a1,0xc
     ba0:	00659713          	slli	a4,a1,0x6
     ba4:	83b1                	srli	a5,a5,0xc
     ba6:	00075463          	bgez	a4,bae <CAN_ClearFlag+0x24>
     baa:	c55c                	sw	a5,12(a0)
     bac:	8082                	ret
     bae:	00559713          	slli	a4,a1,0x5
     bb2:	00075463          	bgez	a4,bba <CAN_ClearFlag+0x30>
     bb6:	c91c                	sw	a5,16(a0)
     bb8:	8082                	ret
     bba:	00459713          	slli	a4,a1,0x4
     bbe:	00075463          	bgez	a4,bc6 <CAN_ClearFlag+0x3c>
     bc2:	c51c                	sw	a5,8(a0)
     bc4:	8082                	ret
     bc6:	c15c                	sw	a5,4(a0)
     bc8:	8082                	ret

00000bca <CAN_ClearITPendingBit>:
     bca:	10000793          	li	a5,256
     bce:	06f58663          	beq	a1,a5,c3a <CAN_ClearITPendingBit+0x70>
     bd2:	02b7e763          	bltu	a5,a1,c00 <CAN_ClearITPendingBit+0x36>
     bd6:	47a1                	li	a5,8
     bd8:	06f58863          	beq	a1,a5,c48 <CAN_ClearITPendingBit+0x7e>
     bdc:	00b7e963          	bltu	a5,a1,bee <CAN_ClearITPendingBit+0x24>
     be0:	4705                	li	a4,1
     be2:	04e58e63          	beq	a1,a4,c3e <CAN_ClearITPendingBit+0x74>
     be6:	4711                	li	a4,4
     be8:	06e58163          	beq	a1,a4,c4a <CAN_ClearITPendingBit+0x80>
     bec:	8082                	ret
     bee:	02000713          	li	a4,32
     bf2:	04e58f63          	beq	a1,a4,c50 <CAN_ClearITPendingBit+0x86>
     bf6:	04000793          	li	a5,64
     bfa:	04f58a63          	beq	a1,a5,c4e <CAN_ClearITPendingBit+0x84>
     bfe:	8082                	ret
     c00:	80058793          	addi	a5,a1,-2048
     c04:	cb8d                	beqz	a5,c36 <CAN_ClearITPendingBit+0x6c>
     c06:	6785                	lui	a5,0x1
     c08:	80078793          	addi	a5,a5,-2048 # 800 <__stack_size>
     c0c:	00b7eb63          	bltu	a5,a1,c22 <CAN_ClearITPendingBit+0x58>
     c10:	20000793          	li	a5,512
     c14:	02f58363          	beq	a1,a5,c3a <CAN_ClearITPendingBit+0x70>
     c18:	40000793          	li	a5,1024
     c1c:	00f58f63          	beq	a1,a5,c3a <CAN_ClearITPendingBit+0x70>
     c20:	8082                	ret
     c22:	67c1                	lui	a5,0x10
     c24:	02f58863          	beq	a1,a5,c54 <CAN_ClearITPendingBit+0x8a>
     c28:	000207b7          	lui	a5,0x20
     c2c:	02f58763          	beq	a1,a5,c5a <CAN_ClearITPendingBit+0x90>
     c30:	67a1                	lui	a5,0x8
     c32:	02f59363          	bne	a1,a5,c58 <CAN_ClearITPendingBit+0x8e>
     c36:	00052c23          	sw	zero,24(a0)
     c3a:	4791                	li	a5,4
     c3c:	a829                	j	c56 <CAN_ClearITPendingBit+0x8c>
     c3e:	67c1                	lui	a5,0x10
     c40:	10178793          	addi	a5,a5,257 # 10101 <_data_lma+0xb289>
     c44:	c51c                	sw	a5,8(a0)
     c46:	8082                	ret
     c48:	47c1                	li	a5,16
     c4a:	c55c                	sw	a5,12(a0)
     c4c:	8082                	ret
     c4e:	47c1                	li	a5,16
     c50:	c91c                	sw	a5,16(a0)
     c52:	8082                	ret
     c54:	47a1                	li	a5,8
     c56:	c15c                	sw	a5,4(a0)
     c58:	8082                	ret
     c5a:	47c1                	li	a5,16
     c5c:	bfed                	j	c56 <CAN_ClearITPendingBit+0x8c>

00000c5e <DMA_GetFlagStatus>:
     c5e:	400207b7          	lui	a5,0x40020
     c62:	439c                	lw	a5,0(a5)
     c64:	8d7d                	and	a0,a0,a5
     c66:	00a03533          	snez	a0,a0
     c6a:	8082                	ret

00000c6c <DMA_GetITStatus>:
     c6c:	8b3ff2ef          	jal	t0,51e <__riscv_save_0>
     c70:	37fd                	jal	c5e <DMA_GetFlagStatus>
     c72:	8d1ff06f          	j	542 <__riscv_restore_0>

00000c76 <DMA_ClearITPendingBit>:
     c76:	400207b7          	lui	a5,0x40020
     c7a:	c3c8                	sw	a0,4(a5)
     c7c:	8082                	ret

00000c7e <GPIO_Init>:
     c7e:	459c                	lw	a5,8(a1)
     c80:	0107f713          	andi	a4,a5,16
     c84:	00f7f813          	andi	a6,a5,15
     c88:	c701                	beqz	a4,c90 <GPIO_Init+0x12>
     c8a:	41d8                	lw	a4,4(a1)
     c8c:	00e86833          	or	a6,a6,a4
     c90:	40022737          	lui	a4,0x40022
     c94:	5b14                	lw	a3,48(a4)
     c96:	0f000737          	lui	a4,0xf000
     c9a:	8f75                	and	a4,a4,a3
     c9c:	eb5d                	bnez	a4,d52 <GPIO_Init+0xd4>
     c9e:	20000737          	lui	a4,0x20000
     ca2:	4685                	li	a3,1
     ca4:	0ad70223          	sb	a3,164(a4) # 200000a4 <MCU_Version>
     ca8:	40011737          	lui	a4,0x40011
     cac:	00e51563          	bne	a0,a4,cb6 <GPIO_Init+0x38>
     cb0:	219a                	lhu	a4,0(a1)
     cb2:	8335                	srli	a4,a4,0xd
     cb4:	a19a                	sh	a4,0(a1)
     cb6:	218e                	lhu	a1,0(a1)
     cb8:	0ff5f713          	andi	a4,a1,255
     cbc:	c339                	beqz	a4,d02 <GPIO_Init+0x84>
     cbe:	4118                	lw	a4,0(a0)
     cc0:	4681                	li	a3,0
     cc2:	4e85                	li	t4,1
     cc4:	4f3d                	li	t5,15
     cc6:	02800f93          	li	t6,40
     cca:	04800293          	li	t0,72
     cce:	4e21                	li	t3,8
     cd0:	00de9633          	sll	a2,t4,a3
     cd4:	00c5f8b3          	and	a7,a1,a2
     cd8:	03161163          	bne	a2,a7,cfa <GPIO_Init+0x7c>
     cdc:	00269893          	slli	a7,a3,0x2
     ce0:	011f1333          	sll	t1,t5,a7
     ce4:	fff34313          	not	t1,t1
     ce8:	00e37733          	and	a4,t1,a4
     cec:	011818b3          	sll	a7,a6,a7
     cf0:	00e8e733          	or	a4,a7,a4
     cf4:	07f79963          	bne	a5,t6,d66 <GPIO_Init+0xe8>
     cf8:	c950                	sw	a2,20(a0)
     cfa:	0685                	addi	a3,a3,1
     cfc:	fdc69ae3          	bne	a3,t3,cd0 <GPIO_Init+0x52>
     d00:	c118                	sw	a4,0(a0)
     d02:	0ff00713          	li	a4,255
     d06:	04b77563          	bgeu	a4,a1,d50 <GPIO_Init+0xd2>
     d0a:	4154                	lw	a3,4(a0)
     d0c:	4621                	li	a2,8
     d0e:	4e85                	li	t4,1
     d10:	4f3d                	li	t5,15
     d12:	02800f93          	li	t6,40
     d16:	04800293          	li	t0,72
     d1a:	4e41                	li	t3,16
     d1c:	00ce98b3          	sll	a7,t4,a2
     d20:	0115f733          	and	a4,a1,a7
     d24:	02e89263          	bne	a7,a4,d48 <GPIO_Init+0xca>
     d28:	00261713          	slli	a4,a2,0x2
     d2c:	1701                	addi	a4,a4,-32
     d2e:	00ef1333          	sll	t1,t5,a4
     d32:	fff34313          	not	t1,t1
     d36:	00d376b3          	and	a3,t1,a3
     d3a:	00e81733          	sll	a4,a6,a4
     d3e:	8ed9                	or	a3,a3,a4
     d40:	03f79763          	bne	a5,t6,d6e <GPIO_Init+0xf0>
     d44:	01152a23          	sw	a7,20(a0)
     d48:	0605                	addi	a2,a2,1
     d4a:	fdc619e3          	bne	a2,t3,d1c <GPIO_Init+0x9e>
     d4e:	c154                	sw	a3,4(a0)
     d50:	8082                	ret
     d52:	40011737          	lui	a4,0x40011
     d56:	f6e510e3          	bne	a0,a4,cb6 <GPIO_Init+0x38>
     d5a:	20000737          	lui	a4,0x20000
     d5e:	0a474703          	lbu	a4,164(a4) # 200000a4 <MCU_Version>
     d62:	db31                	beqz	a4,cb6 <GPIO_Init+0x38>
     d64:	b7b1                	j	cb0 <GPIO_Init+0x32>
     d66:	f8579ae3          	bne	a5,t0,cfa <GPIO_Init+0x7c>
     d6a:	c910                	sw	a2,16(a0)
     d6c:	b779                	j	cfa <GPIO_Init+0x7c>
     d6e:	fc579de3          	bne	a5,t0,d48 <GPIO_Init+0xca>
     d72:	01152823          	sw	a7,16(a0)
     d76:	bfc9                	j	d48 <GPIO_Init+0xca>

00000d78 <GPIO_ResetBits>:
     d78:	400117b7          	lui	a5,0x40011
     d7c:	00f51863          	bne	a0,a5,d8c <GPIO_ResetBits+0x14>
     d80:	200007b7          	lui	a5,0x20000
     d84:	0a47c783          	lbu	a5,164(a5) # 200000a4 <MCU_Version>
     d88:	c391                	beqz	a5,d8c <GPIO_ResetBits+0x14>
     d8a:	81b5                	srli	a1,a1,0xd
     d8c:	c94c                	sw	a1,20(a0)
     d8e:	8082                	ret

00000d90 <GPIO_PinRemapConfig>:
     d90:	400107b7          	lui	a5,0x40010
     d94:	04055a63          	bgez	a0,de8 <GPIO_PinRemapConfig+0x58>
     d98:	4fdc                	lw	a5,28(a5)
     d9a:	01055693          	srli	a3,a0,0x10
     d9e:	01051813          	slli	a6,a0,0x10
     da2:	00300737          	lui	a4,0x300
     da6:	00f6f613          	andi	a2,a3,15
     daa:	01085813          	srli	a6,a6,0x10
     dae:	00e576b3          	and	a3,a0,a4
     db2:	06055e63          	bgez	a0,e2e <GPIO_PinRemapConfig+0x9e>
     db6:	04e69963          	bne	a3,a4,e08 <GPIO_PinRemapConfig+0x78>
     dba:	01060693          	addi	a3,a2,16 # 10010 <_data_lma+0xb198>
     dbe:	460d                	li	a2,3
     dc0:	00d616b3          	sll	a3,a2,a3
     dc4:	fff6c693          	not	a3,a3
     dc8:	8ff5                	and	a5,a5,a3
     dca:	c999                	beqz	a1,de0 <GPIO_PinRemapConfig+0x50>
     dcc:	01555713          	srli	a4,a0,0x15
     dd0:	3ff77713          	andi	a4,a4,1023
     dd4:	0712                	slli	a4,a4,0x4
     dd6:	00e81733          	sll	a4,a6,a4
     dda:	8fd9                	or	a5,a5,a4
     ddc:	06055563          	bgez	a0,e46 <GPIO_PinRemapConfig+0xb6>
     de0:	40010737          	lui	a4,0x40010
     de4:	cf5c                	sw	a5,28(a4)
     de6:	8082                	ret
     de8:	40022737          	lui	a4,0x40022
     dec:	5b14                	lw	a3,48(a4)
     dee:	43dc                	lw	a5,4(a5)
     df0:	0f000737          	lui	a4,0xf000
     df4:	8f75                	and	a4,a4,a3
     df6:	f355                	bnez	a4,d9a <GPIO_PinRemapConfig+0xa>
     df8:	0017d713          	srli	a4,a5,0x1
     dfc:	76f9                	lui	a3,0xffffe
     dfe:	07ce                	slli	a5,a5,0x13
     e00:	8f75                	and	a4,a4,a3
     e02:	83cd                	srli	a5,a5,0x13
     e04:	8fd9                	or	a5,a5,a4
     e06:	bf51                	j	d9a <GPIO_PinRemapConfig+0xa>
     e08:	00b51713          	slli	a4,a0,0xb
     e0c:	00075663          	bgez	a4,e18 <GPIO_PinRemapConfig+0x88>
     e10:	468d                	li	a3,3
     e12:	00c696b3          	sll	a3,a3,a2
     e16:	b77d                	j	dc4 <GPIO_PinRemapConfig+0x34>
     e18:	01555713          	srli	a4,a0,0x15
     e1c:	3ff77713          	andi	a4,a4,1023
     e20:	0712                	slli	a4,a4,0x4
     e22:	00e81733          	sll	a4,a6,a4
     e26:	fff74713          	not	a4,a4
     e2a:	8ff9                	and	a5,a5,a4
     e2c:	bf79                	j	dca <GPIO_PinRemapConfig+0x3a>
     e2e:	02e69063          	bne	a3,a4,e4e <GPIO_PinRemapConfig+0xbe>
     e32:	40010637          	lui	a2,0x40010
     e36:	4254                	lw	a3,4(a2)
     e38:	f1000737          	lui	a4,0xf1000
     e3c:	177d                	addi	a4,a4,-1
     e3e:	8ff9                	and	a5,a5,a4
     e40:	8f75                	and	a4,a4,a3
     e42:	c258                	sw	a4,4(a2)
     e44:	f5c1                	bnez	a1,dcc <GPIO_PinRemapConfig+0x3c>
     e46:	40010737          	lui	a4,0x40010
     e4a:	c35c                	sw	a5,4(a4)
     e4c:	8082                	ret
     e4e:	00b51713          	slli	a4,a0,0xb
     e52:	00075c63          	bgez	a4,e6a <GPIO_PinRemapConfig+0xda>
     e56:	468d                	li	a3,3
     e58:	00c696b3          	sll	a3,a3,a2
     e5c:	fff6c693          	not	a3,a3
     e60:	8efd                	and	a3,a3,a5
     e62:	0f0007b7          	lui	a5,0xf000
     e66:	8fd5                	or	a5,a5,a3
     e68:	bff1                	j	e44 <GPIO_PinRemapConfig+0xb4>
     e6a:	01555713          	srli	a4,a0,0x15
     e6e:	0712                	slli	a4,a4,0x4
     e70:	00e81733          	sll	a4,a6,a4
     e74:	fff74713          	not	a4,a4
     e78:	8f7d                	and	a4,a4,a5
     e7a:	0f0007b7          	lui	a5,0xf000
     e7e:	8fd9                	or	a5,a5,a4
     e80:	b7d1                	j	e44 <GPIO_PinRemapConfig+0xb4>

00000e82 <I2C_Init>:
     e82:	e9cff2ef          	jal	t0,51e <__riscv_save_0>
     e86:	7179                	addi	sp,sp,-48
     e88:	842a                	mv	s0,a0
     e8a:	2146                	lhu	s1,4(a0)
     e8c:	0868                	addi	a0,sp,28
     e8e:	c62e                	sw	a1,12(sp)
     e90:	247d                	jal	113e <RCC_GetClocksFreq>
     e92:	5792                	lw	a5,36(sp)
     e94:	000f4737          	lui	a4,0xf4
     e98:	24070713          	addi	a4,a4,576 # f4240 <_data_lma+0xef3c8>
     e9c:	02e7d733          	divu	a4,a5,a4
     ea0:	04c2                	slli	s1,s1,0x10
     ea2:	80c1                	srli	s1,s1,0x10
     ea4:	fc04f493          	andi	s1,s1,-64
     ea8:	04c2                	slli	s1,s1,0x10
     eaa:	80c1                	srli	s1,s1,0x10
     eac:	45b2                	lw	a1,12(sp)
     eae:	6561                	lui	a0,0x18
     eb0:	6a050513          	addi	a0,a0,1696 # 186a0 <_data_lma+0x13828>
     eb4:	01071613          	slli	a2,a4,0x10
     eb8:	8241                	srli	a2,a2,0x10
     eba:	8cd1                	or	s1,s1,a2
     ebc:	a046                	sh	s1,4(s0)
     ebe:	2016                	lhu	a3,0(s0)
     ec0:	06c2                	slli	a3,a3,0x10
     ec2:	82c1                	srli	a3,a3,0x10
     ec4:	9af9                	andi	a3,a3,-2
     ec6:	06c2                	slli	a3,a3,0x10
     ec8:	82c1                	srli	a3,a3,0x10
     eca:	a016                	sh	a3,0(s0)
     ecc:	4194                	lw	a3,0(a1)
     ece:	04d56963          	bltu	a0,a3,f20 <I2C_Init+0x9e>
     ed2:	0686                	slli	a3,a3,0x1
     ed4:	02d7d7b3          	divu	a5,a5,a3
     ed8:	4691                	li	a3,4
     eda:	01079713          	slli	a4,a5,0x10
     ede:	8341                	srli	a4,a4,0x10
     ee0:	87ba                	mv	a5,a4
     ee2:	00d77363          	bgeu	a4,a3,ee8 <I2C_Init+0x66>
     ee6:	4791                	li	a5,4
     ee8:	0605                	addi	a2,a2,1
     eea:	0642                	slli	a2,a2,0x10
     eec:	07c2                	slli	a5,a5,0x10
     eee:	8241                	srli	a2,a2,0x10
     ef0:	83c1                	srli	a5,a5,0x10
     ef2:	b012                	sh	a2,32(s0)
     ef4:	ac5e                	sh	a5,28(s0)
     ef6:	201e                	lhu	a5,0(s0)
     ef8:	21da                	lhu	a4,4(a1)
     efa:	25b6                	lhu	a3,10(a1)
     efc:	0017e793          	ori	a5,a5,1
     f00:	a01e                	sh	a5,0(s0)
     f02:	201e                	lhu	a5,0(s0)
     f04:	8f55                	or	a4,a4,a3
     f06:	07c2                	slli	a5,a5,0x10
     f08:	83c1                	srli	a5,a5,0x10
     f0a:	bf57f793          	andi	a5,a5,-1035
     f0e:	8fd9                	or	a5,a5,a4
     f10:	a01e                	sh	a5,0(s0)
     f12:	259a                	lhu	a4,8(a1)
     f14:	25de                	lhu	a5,12(a1)
     f16:	8fd9                	or	a5,a5,a4
     f18:	a41e                	sh	a5,8(s0)
     f1a:	6145                	addi	sp,sp,48
     f1c:	e26ff06f          	j	542 <__riscv_restore_0>
     f20:	21ea                	lhu	a0,6(a1)
     f22:	6631                	lui	a2,0xc
     f24:	167d                	addi	a2,a2,-1
     f26:	02c51d63          	bne	a0,a2,f60 <I2C_Init+0xde>
     f2a:	460d                	li	a2,3
     f2c:	02c686b3          	mul	a3,a3,a2
     f30:	02d7d7b3          	divu	a5,a5,a3
     f34:	07c2                	slli	a5,a5,0x10
     f36:	83c1                	srli	a5,a5,0x10
     f38:	01479693          	slli	a3,a5,0x14
     f3c:	e299                	bnez	a3,f42 <I2C_Init+0xc0>
     f3e:	0017e793          	ori	a5,a5,1
     f42:	66a1                	lui	a3,0x8
     f44:	8fd5                	or	a5,a5,a3
     f46:	12c00693          	li	a3,300
     f4a:	02d70733          	mul	a4,a4,a3
     f4e:	3e800693          	li	a3,1000
     f52:	02d74733          	div	a4,a4,a3
     f56:	0705                	addi	a4,a4,1
     f58:	0742                	slli	a4,a4,0x10
     f5a:	8341                	srli	a4,a4,0x10
     f5c:	b01a                	sh	a4,32(s0)
     f5e:	bf59                	j	ef4 <I2C_Init+0x72>
     f60:	4665                	li	a2,25
     f62:	02c686b3          	mul	a3,a3,a2
     f66:	02d7d7b3          	divu	a5,a5,a3
     f6a:	6691                	lui	a3,0x4
     f6c:	07c2                	slli	a5,a5,0x10
     f6e:	83c1                	srli	a5,a5,0x10
     f70:	8fd5                	or	a5,a5,a3
     f72:	b7d9                	j	f38 <I2C_Init+0xb6>

00000f74 <I2C_Cmd>:
     f74:	211e                	lhu	a5,0(a0)
     f76:	c589                	beqz	a1,f80 <I2C_Cmd+0xc>
     f78:	0017e793          	ori	a5,a5,1
     f7c:	a11e                	sh	a5,0(a0)
     f7e:	8082                	ret
     f80:	07c2                	slli	a5,a5,0x10
     f82:	83c1                	srli	a5,a5,0x10
     f84:	9bf9                	andi	a5,a5,-2
     f86:	07c2                	slli	a5,a5,0x10
     f88:	83c1                	srli	a5,a5,0x10
     f8a:	bfcd                	j	f7c <I2C_Cmd+0x8>

00000f8c <I2C_GenerateSTART>:
     f8c:	211e                	lhu	a5,0(a0)
     f8e:	c589                	beqz	a1,f98 <I2C_GenerateSTART+0xc>
     f90:	1007e793          	ori	a5,a5,256
     f94:	a11e                	sh	a5,0(a0)
     f96:	8082                	ret
     f98:	07c2                	slli	a5,a5,0x10
     f9a:	83c1                	srli	a5,a5,0x10
     f9c:	eff7f793          	andi	a5,a5,-257
     fa0:	07c2                	slli	a5,a5,0x10
     fa2:	83c1                	srli	a5,a5,0x10
     fa4:	bfc5                	j	f94 <I2C_GenerateSTART+0x8>

00000fa6 <I2C_GenerateSTOP>:
     fa6:	211e                	lhu	a5,0(a0)
     fa8:	c589                	beqz	a1,fb2 <I2C_GenerateSTOP+0xc>
     faa:	2007e793          	ori	a5,a5,512
     fae:	a11e                	sh	a5,0(a0)
     fb0:	8082                	ret
     fb2:	07c2                	slli	a5,a5,0x10
     fb4:	83c1                	srli	a5,a5,0x10
     fb6:	dff7f793          	andi	a5,a5,-513
     fba:	07c2                	slli	a5,a5,0x10
     fbc:	83c1                	srli	a5,a5,0x10
     fbe:	bfc5                	j	fae <I2C_GenerateSTOP+0x8>

00000fc0 <I2C_AcknowledgeConfig>:
     fc0:	211e                	lhu	a5,0(a0)
     fc2:	c589                	beqz	a1,fcc <I2C_AcknowledgeConfig+0xc>
     fc4:	4007e793          	ori	a5,a5,1024
     fc8:	a11e                	sh	a5,0(a0)
     fca:	8082                	ret
     fcc:	07c2                	slli	a5,a5,0x10
     fce:	83c1                	srli	a5,a5,0x10
     fd0:	bff7f793          	andi	a5,a5,-1025
     fd4:	07c2                	slli	a5,a5,0x10
     fd6:	83c1                	srli	a5,a5,0x10
     fd8:	bfc5                	j	fc8 <I2C_AcknowledgeConfig+0x8>

00000fda <I2C_DualAddressCmd>:
     fda:	255e                	lhu	a5,12(a0)
     fdc:	c589                	beqz	a1,fe6 <I2C_DualAddressCmd+0xc>
     fde:	0017e793          	ori	a5,a5,1
     fe2:	a55e                	sh	a5,12(a0)
     fe4:	8082                	ret
     fe6:	07c2                	slli	a5,a5,0x10
     fe8:	83c1                	srli	a5,a5,0x10
     fea:	9bf9                	andi	a5,a5,-2
     fec:	07c2                	slli	a5,a5,0x10
     fee:	83c1                	srli	a5,a5,0x10
     ff0:	bfcd                	j	fe2 <I2C_DualAddressCmd+0x8>

00000ff2 <I2C_ITConfig>:
     ff2:	215e                	lhu	a5,4(a0)
     ff4:	c601                	beqz	a2,ffc <I2C_ITConfig+0xa>
     ff6:	8ddd                	or	a1,a1,a5
     ff8:	a14e                	sh	a1,4(a0)
     ffa:	8082                	ret
     ffc:	fff5c593          	not	a1,a1
    1000:	8dfd                	and	a1,a1,a5
    1002:	bfdd                	j	ff8 <I2C_ITConfig+0x6>

00001004 <I2C_SendData>:
    1004:	a90e                	sh	a1,16(a0)
    1006:	8082                	ret

00001008 <I2C_ReceiveData>:
    1008:	290a                	lhu	a0,16(a0)
    100a:	0ff57513          	andi	a0,a0,255
    100e:	8082                	ret

00001010 <I2C_Send7bitAddress>:
    1010:	0fe5f793          	andi	a5,a1,254
    1014:	c219                	beqz	a2,101a <I2C_Send7bitAddress+0xa>
    1016:	0015e793          	ori	a5,a1,1
    101a:	07c2                	slli	a5,a5,0x10
    101c:	83c1                	srli	a5,a5,0x10
    101e:	a91e                	sh	a5,16(a0)
    1020:	8082                	ret

00001022 <I2C_ReadRegister>:
    1022:	1141                	addi	sp,sp,-16
    1024:	c602                	sw	zero,12(sp)
    1026:	c62a                	sw	a0,12(sp)
    1028:	47b2                	lw	a5,12(sp)
    102a:	95be                	add	a1,a1,a5
    102c:	c62e                	sw	a1,12(sp)
    102e:	47b2                	lw	a5,12(sp)
    1030:	238a                	lhu	a0,0(a5)
    1032:	0141                	addi	sp,sp,16
    1034:	8082                	ret

00001036 <I2C_CheckEvent>:
    1036:	295e                	lhu	a5,20(a0)
    1038:	2d0a                	lhu	a0,24(a0)
    103a:	0542                	slli	a0,a0,0x10
    103c:	8d5d                	or	a0,a0,a5
    103e:	8d6d                	and	a0,a0,a1
    1040:	0522                	slli	a0,a0,0x8
    1042:	8121                	srli	a0,a0,0x8
    1044:	8d0d                	sub	a0,a0,a1
    1046:	00153513          	seqz	a0,a0
    104a:	8082                	ret

0000104c <I2C_GetFlagStatus>:
    104c:	1141                	addi	sp,sp,-16
    104e:	c402                	sw	zero,8(sp)
    1050:	c602                	sw	zero,12(sp)
    1052:	01c5d793          	srli	a5,a1,0x1c
    1056:	c62a                	sw	a0,12(sp)
    1058:	c43e                	sw	a5,8(sp)
    105a:	47a2                	lw	a5,8(sp)
    105c:	05a2                	slli	a1,a1,0x8
    105e:	81a1                	srli	a1,a1,0x8
    1060:	cb99                	beqz	a5,1076 <I2C_GetFlagStatus+0x2a>
    1062:	47b2                	lw	a5,12(sp)
    1064:	07d1                	addi	a5,a5,20
    1066:	c63e                	sw	a5,12(sp)
    1068:	47b2                	lw	a5,12(sp)
    106a:	4388                	lw	a0,0(a5)
    106c:	0141                	addi	sp,sp,16
    106e:	8d6d                	and	a0,a0,a1
    1070:	00a03533          	snez	a0,a0
    1074:	8082                	ret
    1076:	47b2                	lw	a5,12(sp)
    1078:	81c1                	srli	a1,a1,0x10
    107a:	07e1                	addi	a5,a5,24
    107c:	b7ed                	j	1066 <I2C_GetFlagStatus+0x1a>

0000107e <I2C_ClearFlag>:
    107e:	fff5c593          	not	a1,a1
    1082:	05c2                	slli	a1,a1,0x10
    1084:	81c1                	srli	a1,a1,0x10
    1086:	a94e                	sh	a1,20(a0)
    1088:	8082                	ret

0000108a <NVIC_PriorityGroupConfig>:
    108a:	200007b7          	lui	a5,0x20000
    108e:	0aa7a423          	sw	a0,168(a5) # 200000a8 <NVIC_Priority_Group>
    1092:	8082                	ret

00001094 <NVIC_Init>:
    1094:	200007b7          	lui	a5,0x20000
    1098:	0a878793          	addi	a5,a5,168 # 200000a8 <NVIC_Priority_Group>
    109c:	4394                	lw	a3,0(a5)
    109e:	2118                	lbu	a4,0(a0)
    10a0:	e681                	bnez	a3,10a8 <NVIC_Init+0x14>
    10a2:	213c                	lbu	a5,2(a0)
    10a4:	0792                	slli	a5,a5,0x4
    10a6:	a821                	j	10be <NVIC_Init+0x2a>
    10a8:	4394                	lw	a3,0(a5)
    10aa:	4605                	li	a2,1
    10ac:	02c69f63          	bne	a3,a2,10ea <NVIC_Init+0x56>
    10b0:	213c                	lbu	a5,2(a0)
    10b2:	3110                	lbu	a2,1(a0)
    10b4:	0792                	slli	a5,a5,0x4
    10b6:	00d61463          	bne	a2,a3,10be <NVIC_Init+0x2a>
    10ba:	f807e793          	ori	a5,a5,-128
    10be:	e000e6b7          	lui	a3,0xe000e
    10c2:	0ff7f793          	andi	a5,a5,255
    10c6:	96ba                	add	a3,a3,a4
    10c8:	40f68023          	sb	a5,1024(a3) # e000e400 <__freertos_irq_stack_top+0xc0009400>
    10cc:	4685                	li	a3,1
    10ce:	00575793          	srli	a5,a4,0x5
    10d2:	00e69733          	sll	a4,a3,a4
    10d6:	4154                	lw	a3,4(a0)
    10d8:	c2a5                	beqz	a3,1138 <NVIC_Init+0xa4>
    10da:	04078793          	addi	a5,a5,64
    10de:	078a                	slli	a5,a5,0x2
    10e0:	e000e6b7          	lui	a3,0xe000e
    10e4:	97b6                	add	a5,a5,a3
    10e6:	c398                	sw	a4,0(a5)
    10e8:	8082                	ret
    10ea:	438c                	lw	a1,0(a5)
    10ec:	4689                	li	a3,2
    10ee:	02d59163          	bne	a1,a3,1110 <NVIC_Init+0x7c>
    10f2:	3114                	lbu	a3,1(a0)
    10f4:	213c                	lbu	a5,2(a0)
    10f6:	00d66563          	bltu	a2,a3,1100 <NVIC_Init+0x6c>
    10fa:	068a                	slli	a3,a3,0x2
    10fc:	97b6                	add	a5,a5,a3
    10fe:	b75d                	j	10a4 <NVIC_Init+0x10>
    1100:	03e68693          	addi	a3,a3,62 # e000e03e <__freertos_irq_stack_top+0xc000903e>
    1104:	068a                	slli	a3,a3,0x2
    1106:	97b6                	add	a5,a5,a3
    1108:	0ff7f793          	andi	a5,a5,255
    110c:	0792                	slli	a5,a5,0x4
    110e:	b775                	j	10ba <NVIC_Init+0x26>
    1110:	4390                	lw	a2,0(a5)
    1112:	468d                	li	a3,3
    1114:	00d61c63          	bne	a2,a3,112c <NVIC_Init+0x98>
    1118:	3114                	lbu	a3,1(a0)
    111a:	213c                	lbu	a5,2(a0)
    111c:	00d66463          	bltu	a2,a3,1124 <NVIC_Init+0x90>
    1120:	0686                	slli	a3,a3,0x1
    1122:	bfe9                	j	10fc <NVIC_Init+0x68>
    1124:	07c68693          	addi	a3,a3,124
    1128:	0686                	slli	a3,a3,0x1
    112a:	bff1                	j	1106 <NVIC_Init+0x72>
    112c:	4394                	lw	a3,0(a5)
    112e:	4791                	li	a5,4
    1130:	f8f69ee3          	bne	a3,a5,10cc <NVIC_Init+0x38>
    1134:	311c                	lbu	a5,1(a0)
    1136:	b7bd                	j	10a4 <NVIC_Init+0x10>
    1138:	06078793          	addi	a5,a5,96
    113c:	b74d                	j	10de <NVIC_Init+0x4a>

0000113e <RCC_GetClocksFreq>:
    113e:	40021737          	lui	a4,0x40021
    1142:	435c                	lw	a5,4(a4)
    1144:	4691                	li	a3,4
    1146:	8bb1                	andi	a5,a5,12
    1148:	00d78563          	beq	a5,a3,1152 <RCC_GetClocksFreq+0x14>
    114c:	46a1                	li	a3,8
    114e:	06d78263          	beq	a5,a3,11b2 <RCC_GetClocksFreq+0x74>
    1152:	007a17b7          	lui	a5,0x7a1
    1156:	20078793          	addi	a5,a5,512 # 7a1200 <_data_lma+0x79c388>
    115a:	c11c                	sw	a5,0(a0)
    115c:	40021637          	lui	a2,0x40021
    1160:	425c                	lw	a5,4(a2)
    1162:	20000737          	lui	a4,0x20000
    1166:	01070713          	addi	a4,a4,16 # 20000010 <APBAHBPrescTable>
    116a:	8391                	srli	a5,a5,0x4
    116c:	8bbd                	andi	a5,a5,15
    116e:	97ba                	add	a5,a5,a4
    1170:	2394                	lbu	a3,0(a5)
    1172:	411c                	lw	a5,0(a0)
    1174:	00d7d7b3          	srl	a5,a5,a3
    1178:	c15c                	sw	a5,4(a0)
    117a:	4254                	lw	a3,4(a2)
    117c:	82a1                	srli	a3,a3,0x8
    117e:	8a9d                	andi	a3,a3,7
    1180:	96ba                	add	a3,a3,a4
    1182:	2294                	lbu	a3,0(a3)
    1184:	00d7d6b3          	srl	a3,a5,a3
    1188:	c514                	sw	a3,8(a0)
    118a:	4254                	lw	a3,4(a2)
    118c:	82ad                	srli	a3,a3,0xb
    118e:	8a9d                	andi	a3,a3,7
    1190:	9736                	add	a4,a4,a3
    1192:	2318                	lbu	a4,0(a4)
    1194:	00e7d7b3          	srl	a5,a5,a4
    1198:	c55c                	sw	a5,12(a0)
    119a:	4258                	lw	a4,4(a2)
    119c:	8339                	srli	a4,a4,0xe
    119e:	00377693          	andi	a3,a4,3
    11a2:	80418713          	addi	a4,gp,-2044 # 20000084 <ADCPrescTable>
    11a6:	9736                	add	a4,a4,a3
    11a8:	2318                	lbu	a4,0(a4)
    11aa:	02e7d7b3          	divu	a5,a5,a4
    11ae:	c91c                	sw	a5,16(a0)
    11b0:	8082                	ret
    11b2:	435c                	lw	a5,4(a4)
    11b4:	4358                	lw	a4,4(a4)
    11b6:	66c1                	lui	a3,0x10
    11b8:	83c9                	srli	a5,a5,0x12
    11ba:	8bbd                	andi	a5,a5,15
    11bc:	8f75                	and	a4,a4,a3
    11be:	0789                	addi	a5,a5,2
    11c0:	46c5                	li	a3,17
    11c2:	00d79363          	bne	a5,a3,11c8 <RCC_GetClocksFreq+0x8a>
    11c6:	47c9                	li	a5,18
    11c8:	ef01                	bnez	a4,11e0 <RCC_GetClocksFreq+0xa2>
    11ca:	40024737          	lui	a4,0x40024
    11ce:	80072703          	lw	a4,-2048(a4) # 40023800 <__freertos_irq_stack_top+0x2001e800>
    11d2:	8b41                	andi	a4,a4,16
    11d4:	cf09                	beqz	a4,11ee <RCC_GetClocksFreq+0xb0>
    11d6:	007a1737          	lui	a4,0x7a1
    11da:	20070713          	addi	a4,a4,512 # 7a1200 <_data_lma+0x79c388>
    11de:	a821                	j	11f6 <RCC_GetClocksFreq+0xb8>
    11e0:	40021737          	lui	a4,0x40021
    11e4:	4358                	lw	a4,4(a4)
    11e6:	00e71693          	slli	a3,a4,0xe
    11ea:	fe06d6e3          	bgez	a3,11d6 <RCC_GetClocksFreq+0x98>
    11ee:	003d1737          	lui	a4,0x3d1
    11f2:	90070713          	addi	a4,a4,-1792 # 3d0900 <_data_lma+0x3cba88>
    11f6:	02e787b3          	mul	a5,a5,a4
    11fa:	b785                	j	115a <RCC_GetClocksFreq+0x1c>

000011fc <RCC_APB2PeriphClockCmd>:
    11fc:	c599                	beqz	a1,120a <RCC_APB2PeriphClockCmd+0xe>
    11fe:	40021737          	lui	a4,0x40021
    1202:	4f1c                	lw	a5,24(a4)
    1204:	8d5d                	or	a0,a0,a5
    1206:	cf08                	sw	a0,24(a4)
    1208:	8082                	ret
    120a:	400217b7          	lui	a5,0x40021
    120e:	4f98                	lw	a4,24(a5)
    1210:	fff54513          	not	a0,a0
    1214:	8d79                	and	a0,a0,a4
    1216:	cf88                	sw	a0,24(a5)
    1218:	8082                	ret

0000121a <RCC_APB1PeriphClockCmd>:
    121a:	c599                	beqz	a1,1228 <RCC_APB1PeriphClockCmd+0xe>
    121c:	40021737          	lui	a4,0x40021
    1220:	4f5c                	lw	a5,28(a4)
    1222:	8d5d                	or	a0,a0,a5
    1224:	cf48                	sw	a0,28(a4)
    1226:	8082                	ret
    1228:	400217b7          	lui	a5,0x40021
    122c:	4fd8                	lw	a4,28(a5)
    122e:	fff54513          	not	a0,a0
    1232:	8d79                	and	a0,a0,a4
    1234:	cfc8                	sw	a0,28(a5)
    1236:	8082                	ret

00001238 <RTC_ClearFlag>:
    1238:	400037b7          	lui	a5,0x40003
    123c:	8047d703          	lhu	a4,-2044(a5) # 40002804 <__freertos_irq_stack_top+0x1fffd804>
    1240:	fff54513          	not	a0,a0
    1244:	8d79                	and	a0,a0,a4
    1246:	80a79223          	sh	a0,-2044(a5)
    124a:	8082                	ret

0000124c <RTC_GetITStatus>:
    124c:	40003737          	lui	a4,0x40003
    1250:	80475783          	lhu	a5,-2044(a4) # 40002804 <__freertos_irq_stack_top+0x1fffd804>
    1254:	80075703          	lhu	a4,-2048(a4)
    1258:	07c2                	slli	a5,a5,0x10
    125a:	8f69                	and	a4,a4,a0
    125c:	83c1                	srli	a5,a5,0x10
    125e:	c709                	beqz	a4,1268 <RTC_GetITStatus+0x1c>
    1260:	8d7d                	and	a0,a0,a5
    1262:	00a03533          	snez	a0,a0
    1266:	8082                	ret
    1268:	4501                	li	a0,0
    126a:	8082                	ret

0000126c <RTC_ClearITPendingBit>:
    126c:	ab2ff2ef          	jal	t0,51e <__riscv_save_0>
    1270:	37e1                	jal	1238 <RTC_ClearFlag>
    1272:	ad0ff06f          	j	542 <__riscv_restore_0>

00001276 <TIM_GetITStatus>:
    1276:	291e                	lhu	a5,16(a0)
    1278:	254a                	lhu	a0,12(a0)
    127a:	8fed                	and	a5,a5,a1
    127c:	0542                	slli	a0,a0,0x10
    127e:	8141                	srli	a0,a0,0x10
    1280:	c789                	beqz	a5,128a <TIM_GetITStatus+0x14>
    1282:	8d6d                	and	a0,a0,a1
    1284:	00a03533          	snez	a0,a0
    1288:	8082                	ret
    128a:	4501                	li	a0,0
    128c:	8082                	ret

0000128e <TIM_ClearITPendingBit>:
    128e:	fff5c593          	not	a1,a1
    1292:	05c2                	slli	a1,a1,0x10
    1294:	81c1                	srli	a1,a1,0x10
    1296:	a90e                	sh	a1,16(a0)
    1298:	8082                	ret

0000129a <USART_Init>:
    129a:	a84ff2ef          	jal	t0,51e <__riscv_save_0>
    129e:	2916                	lhu	a3,16(a0)
    12a0:	77f5                	lui	a5,0xffffd
    12a2:	17fd                	addi	a5,a5,-1
    12a4:	8ff5                	and	a5,a5,a3
    12a6:	21f6                	lhu	a3,6(a1)
    12a8:	25da                	lhu	a4,12(a1)
    12aa:	7179                	addi	sp,sp,-48
    12ac:	8fd5                	or	a5,a5,a3
    12ae:	a91e                	sh	a5,16(a0)
    12b0:	2556                	lhu	a3,12(a0)
    12b2:	77fd                	lui	a5,0xfffff
    12b4:	9f378793          	addi	a5,a5,-1549 # ffffe9f3 <__freertos_irq_stack_top+0xdfff99f3>
    12b8:	8ff5                	and	a5,a5,a3
    12ba:	21d6                	lhu	a3,4(a1)
    12bc:	842a                	mv	s0,a0
    12be:	c62e                	sw	a1,12(sp)
    12c0:	8fd5                	or	a5,a5,a3
    12c2:	2596                	lhu	a3,8(a1)
    12c4:	8fd5                	or	a5,a5,a3
    12c6:	25b6                	lhu	a3,10(a1)
    12c8:	8fd5                	or	a5,a5,a3
    12ca:	a55e                	sh	a5,12(a0)
    12cc:	295e                	lhu	a5,20(a0)
    12ce:	07c2                	slli	a5,a5,0x10
    12d0:	83c1                	srli	a5,a5,0x10
    12d2:	cff7f793          	andi	a5,a5,-769
    12d6:	8fd9                	or	a5,a5,a4
    12d8:	a95e                	sh	a5,20(a0)
    12da:	0868                	addi	a0,sp,28
    12dc:	358d                	jal	113e <RCC_GetClocksFreq>
    12de:	400147b7          	lui	a5,0x40014
    12e2:	80078793          	addi	a5,a5,-2048 # 40013800 <__freertos_irq_stack_top+0x2000e800>
    12e6:	45b2                	lw	a1,12(sp)
    12e8:	04f41a63          	bne	s0,a5,133c <USART_Init+0xa2>
    12ec:	57a2                	lw	a5,40(sp)
    12ee:	2456                	lhu	a3,12(s0)
    12f0:	4765                	li	a4,25
    12f2:	02e787b3          	mul	a5,a5,a4
    12f6:	06c2                	slli	a3,a3,0x10
    12f8:	86c1                	srai	a3,a3,0x10
    12fa:	4198                	lw	a4,0(a1)
    12fc:	0406d263          	bgez	a3,1340 <USART_Init+0xa6>
    1300:	0706                	slli	a4,a4,0x1
    1302:	2452                	lhu	a2,12(s0)
    1304:	0642                	slli	a2,a2,0x10
    1306:	02e7d7b3          	divu	a5,a5,a4
    130a:	06400713          	li	a4,100
    130e:	8641                	srai	a2,a2,0x10
    1310:	02e7d6b3          	divu	a3,a5,a4
    1314:	02e7f7b3          	remu	a5,a5,a4
    1318:	0692                	slli	a3,a3,0x4
    131a:	02065563          	bgez	a2,1344 <USART_Init+0xaa>
    131e:	078e                	slli	a5,a5,0x3
    1320:	03278793          	addi	a5,a5,50
    1324:	02e7d7b3          	divu	a5,a5,a4
    1328:	0077f713          	andi	a4,a5,7
    132c:	00d767b3          	or	a5,a4,a3
    1330:	07c2                	slli	a5,a5,0x10
    1332:	83c1                	srli	a5,a5,0x10
    1334:	a41e                	sh	a5,8(s0)
    1336:	6145                	addi	sp,sp,48
    1338:	a0aff06f          	j	542 <__riscv_restore_0>
    133c:	5792                	lw	a5,36(sp)
    133e:	bf45                	j	12ee <USART_Init+0x54>
    1340:	070a                	slli	a4,a4,0x2
    1342:	b7c1                	j	1302 <USART_Init+0x68>
    1344:	0792                	slli	a5,a5,0x4
    1346:	03278793          	addi	a5,a5,50
    134a:	02e7d7b3          	divu	a5,a5,a4
    134e:	8bbd                	andi	a5,a5,15
    1350:	8fd5                	or	a5,a5,a3
    1352:	bff9                	j	1330 <USART_Init+0x96>

00001354 <USART_Cmd>:
    1354:	c591                	beqz	a1,1360 <USART_Cmd+0xc>
    1356:	255e                	lhu	a5,12(a0)
    1358:	6709                	lui	a4,0x2
    135a:	8fd9                	or	a5,a5,a4
    135c:	a55e                	sh	a5,12(a0)
    135e:	8082                	ret
    1360:	255a                	lhu	a4,12(a0)
    1362:	77f9                	lui	a5,0xffffe
    1364:	17fd                	addi	a5,a5,-1
    1366:	8ff9                	and	a5,a5,a4
    1368:	bfd5                	j	135c <USART_Cmd+0x8>

0000136a <USART_SendData>:
    136a:	1ff5f593          	andi	a1,a1,511
    136e:	a14e                	sh	a1,4(a0)
    1370:	8082                	ret

00001372 <USART_GetFlagStatus>:
    1372:	210a                	lhu	a0,0(a0)
    1374:	8d6d                	and	a0,a0,a1
    1376:	00a03533          	snez	a0,a0
    137a:	8082                	ret

0000137c <vInitEEPROM>:
    137c:	9a2ff2ef          	jal	t0,51e <__riscv_save_0>
    1380:	40005537          	lui	a0,0x40005
    1384:	40050513          	addi	a0,a0,1024 # 40005400 <__freertos_irq_stack_top+0x20000400>
    1388:	1b7000ef          	jal	ra,1d3e <InitI2CDMA>
    138c:	9b6ff06f          	j	542 <__riscv_restore_0>

00001390 <xGetEEPROM>:
    1390:	23418513          	addi	a0,gp,564 # 20000ab4 <Dev>
    1394:	8082                	ret

00001396 <eEEPROMWr>:
    1396:	6785                	lui	a5,0x1
    1398:	00c50733          	add	a4,a0,a2
    139c:	f0078793          	addi	a5,a5,-256 # f00 <I2C_Init+0x7e>
    13a0:	08e7c463          	blt	a5,a4,1428 <eEEPROMWr+0x92>
    13a4:	952ff2ef          	jal	t0,4f6 <__riscv_save_10>
    13a8:	84aa                	mv	s1,a0
    13aa:	8432                	mv	s0,a2
    13ac:	4509                	li	a0,2
    13ae:	c615                	beqz	a2,13da <eEEPROMWr+0x44>
    13b0:	4785                	li	a5,1
    13b2:	8aae                	mv	s5,a1
    13b4:	8b36                	mv	s6,a3
    13b6:	23418a13          	addi	s4,gp,564 # 20000ab4 <Dev>
    13ba:	4981                	li	s3,0
    13bc:	02000b93          	li	s7,32
    13c0:	00f61f63          	bne	a2,a5,13de <eEEPROMWr+0x48>
    13c4:	024a2803          	lw	a6,36(s4)
    13c8:	87b6                	mv	a5,a3
    13ca:	862e                	mv	a2,a1
    13cc:	06400713          	li	a4,100
    13d0:	4689                	li	a3,2
    13d2:	85a6                	mv	a1,s1
    13d4:	0a000513          	li	a0,160
    13d8:	9802                	jalr	a6
    13da:	954ff06f          	j	52e <__riscv_restore_10>
    13de:	01f4f793          	andi	a5,s1,31
    13e2:	40fb87b3          	sub	a5,s7,a5
    13e6:	07c2                	slli	a5,a5,0x10
    13e8:	83c1                	srli	a5,a5,0x10
    13ea:	893e                	mv	s2,a5
    13ec:	00f47363          	bgeu	s0,a5,13f2 <eEEPROMWr+0x5c>
    13f0:	8922                	mv	s2,s0
    13f2:	0942                	slli	s2,s2,0x10
    13f4:	01095913          	srli	s2,s2,0x10
    13f8:	024a2803          	lw	a6,36(s4)
    13fc:	41240433          	sub	s0,s0,s2
    1400:	013a8633          	add	a2,s5,s3
    1404:	85a6                	mv	a1,s1
    1406:	99ca                	add	s3,s3,s2
    1408:	0442                	slli	s0,s0,0x10
    140a:	94ca                	add	s1,s1,s2
    140c:	87da                	mv	a5,s6
    140e:	4729                	li	a4,10
    1410:	86ca                	mv	a3,s2
    1412:	0a000513          	li	a0,160
    1416:	09c2                	slli	s3,s3,0x10
    1418:	04c2                	slli	s1,s1,0x10
    141a:	8041                	srli	s0,s0,0x10
    141c:	9802                	jalr	a6
    141e:	0109d993          	srli	s3,s3,0x10
    1422:	80c1                	srli	s1,s1,0x10
    1424:	fc4d                	bnez	s0,13de <eEEPROMWr+0x48>
    1426:	bf55                	j	13da <eEEPROMWr+0x44>
    1428:	4509                	li	a0,2
    142a:	8082                	ret

0000142c <eEEPROMRd>:
    142c:	8f2ff2ef          	jal	t0,51e <__riscv_save_0>
    1430:	2541a803          	lw	a6,596(gp) # 20000ad4 <Dev+0x20>
    1434:	06400713          	li	a4,100
    1438:	87b6                	mv	a5,a3
    143a:	86b2                	mv	a3,a2
    143c:	862e                	mv	a2,a1
    143e:	85aa                	mv	a1,a0
    1440:	0a000513          	li	a0,160
    1444:	9802                	jalr	a6
    1446:	8fcff06f          	j	542 <__riscv_restore_0>

0000144a <USB_HP_CAN1_TX_IRQHandler>:
    144a:	715d                	addi	sp,sp,-80
    144c:	de22                	sw	s0,60(sp)
    144e:	dc26                	sw	s1,56(sp)
    1450:	40006437          	lui	s0,0x40006
    1454:	380004b7          	lui	s1,0x38000
    1458:	da2a                	sw	a0,52(sp)
    145a:	d82e                	sw	a1,48(sp)
    145c:	40040513          	addi	a0,s0,1024 # 40006400 <__freertos_irq_stack_top+0x20001400>
    1460:	00148593          	addi	a1,s1,1 # 38000001 <__freertos_irq_stack_top+0x17ffb001>
    1464:	d03e                	sw	a5,32(sp)
    1466:	c686                	sw	ra,76(sp)
    1468:	c496                	sw	t0,72(sp)
    146a:	c29a                	sw	t1,68(sp)
    146c:	c09e                	sw	t2,64(sp)
    146e:	d632                	sw	a2,44(sp)
    1470:	d436                	sw	a3,40(sp)
    1472:	d23a                	sw	a4,36(sp)
    1474:	ce42                	sw	a6,28(sp)
    1476:	cc46                	sw	a7,24(sp)
    1478:	ca72                	sw	t3,20(sp)
    147a:	c876                	sw	t4,16(sp)
    147c:	c67a                	sw	t5,12(sp)
    147e:	c47e                	sw	t6,8(sp)
    1480:	eb4ff0ef          	jal	ra,b34 <CAN_GetFlagStatus>
    1484:	4785                	li	a5,1
    1486:	00f51863          	bne	a0,a5,1496 <USB_HP_CAN1_TX_IRQHandler+0x4c>
    148a:	00148593          	addi	a1,s1,1
    148e:	40040513          	addi	a0,s0,1024
    1492:	ef8ff0ef          	jal	ra,b8a <CAN_ClearFlag>
    1496:	380004b7          	lui	s1,0x38000
    149a:	40006437          	lui	s0,0x40006
    149e:	10048593          	addi	a1,s1,256 # 38000100 <__freertos_irq_stack_top+0x17ffb100>
    14a2:	40040513          	addi	a0,s0,1024 # 40006400 <__freertos_irq_stack_top+0x20001400>
    14a6:	e8eff0ef          	jal	ra,b34 <CAN_GetFlagStatus>
    14aa:	4785                	li	a5,1
    14ac:	00f51863          	bne	a0,a5,14bc <USB_HP_CAN1_TX_IRQHandler+0x72>
    14b0:	10048593          	addi	a1,s1,256
    14b4:	40040513          	addi	a0,s0,1024
    14b8:	ed2ff0ef          	jal	ra,b8a <CAN_ClearFlag>
    14bc:	40006437          	lui	s0,0x40006
    14c0:	380105b7          	lui	a1,0x38010
    14c4:	40040513          	addi	a0,s0,1024 # 40006400 <__freertos_irq_stack_top+0x20001400>
    14c8:	e6cff0ef          	jal	ra,b34 <CAN_GetFlagStatus>
    14cc:	4785                	li	a5,1
    14ce:	00f51863          	bne	a0,a5,14de <USB_HP_CAN1_TX_IRQHandler+0x94>
    14d2:	380105b7          	lui	a1,0x38010
    14d6:	40040513          	addi	a0,s0,1024
    14da:	eb0ff0ef          	jal	ra,b8a <CAN_ClearFlag>
    14de:	2601a783          	lw	a5,608(gp) # 20000ae0 <CAN+0x4>
    14e2:	9782                	jalr	a5
    14e4:	40006537          	lui	a0,0x40006
    14e8:	4585                	li	a1,1
    14ea:	40050513          	addi	a0,a0,1024 # 40006400 <__freertos_irq_stack_top+0x20001400>
    14ee:	edcff0ef          	jal	ra,bca <CAN_ClearITPendingBit>
    14f2:	5472                	lw	s0,60(sp)
    14f4:	40b6                	lw	ra,76(sp)
    14f6:	42a6                	lw	t0,72(sp)
    14f8:	4316                	lw	t1,68(sp)
    14fa:	4386                	lw	t2,64(sp)
    14fc:	54e2                	lw	s1,56(sp)
    14fe:	5552                	lw	a0,52(sp)
    1500:	55c2                	lw	a1,48(sp)
    1502:	5632                	lw	a2,44(sp)
    1504:	56a2                	lw	a3,40(sp)
    1506:	5712                	lw	a4,36(sp)
    1508:	5782                	lw	a5,32(sp)
    150a:	4872                	lw	a6,28(sp)
    150c:	48e2                	lw	a7,24(sp)
    150e:	4e52                	lw	t3,20(sp)
    1510:	4ec2                	lw	t4,16(sp)
    1512:	4f32                	lw	t5,12(sp)
    1514:	4fa2                	lw	t6,8(sp)
    1516:	6161                	addi	sp,sp,80
    1518:	30200073          	mret

0000151c <USB_LP_CAN1_RX0_IRQHandler>:
    151c:	7139                	addi	sp,sp,-64
    151e:	cc3e                	sw	a5,24(sp)
    1520:	25c1a783          	lw	a5,604(gp) # 20000adc <CAN>
    1524:	de06                	sw	ra,60(sp)
    1526:	dc16                	sw	t0,56(sp)
    1528:	da1a                	sw	t1,52(sp)
    152a:	d81e                	sw	t2,48(sp)
    152c:	d62a                	sw	a0,44(sp)
    152e:	d42e                	sw	a1,40(sp)
    1530:	d232                	sw	a2,36(sp)
    1532:	d036                	sw	a3,32(sp)
    1534:	ce3a                	sw	a4,28(sp)
    1536:	ca42                	sw	a6,20(sp)
    1538:	c846                	sw	a7,16(sp)
    153a:	c672                	sw	t3,12(sp)
    153c:	c476                	sw	t4,8(sp)
    153e:	c27a                	sw	t5,4(sp)
    1540:	c07e                	sw	t6,0(sp)
    1542:	4501                	li	a0,0
    1544:	9782                	jalr	a5
    1546:	40006537          	lui	a0,0x40006
    154a:	4591                	li	a1,4
    154c:	40050513          	addi	a0,a0,1024 # 40006400 <__freertos_irq_stack_top+0x20001400>
    1550:	e7aff0ef          	jal	ra,bca <CAN_ClearITPendingBit>
    1554:	50f2                	lw	ra,60(sp)
    1556:	52e2                	lw	t0,56(sp)
    1558:	5352                	lw	t1,52(sp)
    155a:	53c2                	lw	t2,48(sp)
    155c:	5532                	lw	a0,44(sp)
    155e:	55a2                	lw	a1,40(sp)
    1560:	5612                	lw	a2,36(sp)
    1562:	5682                	lw	a3,32(sp)
    1564:	4772                	lw	a4,28(sp)
    1566:	47e2                	lw	a5,24(sp)
    1568:	4852                	lw	a6,20(sp)
    156a:	48c2                	lw	a7,16(sp)
    156c:	4e32                	lw	t3,12(sp)
    156e:	4ea2                	lw	t4,8(sp)
    1570:	4f12                	lw	t5,4(sp)
    1572:	4f82                	lw	t6,0(sp)
    1574:	6121                	addi	sp,sp,64
    1576:	30200073          	mret

0000157a <CAN1_RX1_IRQHandler>:
    157a:	7139                	addi	sp,sp,-64
    157c:	cc3e                	sw	a5,24(sp)
    157e:	25c1a783          	lw	a5,604(gp) # 20000adc <CAN>
    1582:	de06                	sw	ra,60(sp)
    1584:	dc16                	sw	t0,56(sp)
    1586:	da1a                	sw	t1,52(sp)
    1588:	d81e                	sw	t2,48(sp)
    158a:	d62a                	sw	a0,44(sp)
    158c:	d42e                	sw	a1,40(sp)
    158e:	d232                	sw	a2,36(sp)
    1590:	d036                	sw	a3,32(sp)
    1592:	ce3a                	sw	a4,28(sp)
    1594:	ca42                	sw	a6,20(sp)
    1596:	c846                	sw	a7,16(sp)
    1598:	c672                	sw	t3,12(sp)
    159a:	c476                	sw	t4,8(sp)
    159c:	c27a                	sw	t5,4(sp)
    159e:	c07e                	sw	t6,0(sp)
    15a0:	4505                	li	a0,1
    15a2:	9782                	jalr	a5
    15a4:	40006537          	lui	a0,0x40006
    15a8:	02000593          	li	a1,32
    15ac:	40050513          	addi	a0,a0,1024 # 40006400 <__freertos_irq_stack_top+0x20001400>
    15b0:	e1aff0ef          	jal	ra,bca <CAN_ClearITPendingBit>
    15b4:	50f2                	lw	ra,60(sp)
    15b6:	52e2                	lw	t0,56(sp)
    15b8:	5352                	lw	t1,52(sp)
    15ba:	53c2                	lw	t2,48(sp)
    15bc:	5532                	lw	a0,44(sp)
    15be:	55a2                	lw	a1,40(sp)
    15c0:	5612                	lw	a2,36(sp)
    15c2:	5682                	lw	a3,32(sp)
    15c4:	4772                	lw	a4,28(sp)
    15c6:	47e2                	lw	a5,24(sp)
    15c8:	4852                	lw	a6,20(sp)
    15ca:	48c2                	lw	a7,16(sp)
    15cc:	4e32                	lw	t3,12(sp)
    15ce:	4ea2                	lw	t4,8(sp)
    15d0:	4f12                	lw	t5,4(sp)
    15d2:	4f82                	lw	t6,0(sp)
    15d4:	6121                	addi	sp,sp,64
    15d6:	30200073          	mret

000015da <CAN1_SCE_IRQHandler>:
    15da:	7139                	addi	sp,sp,-64
    15dc:	d62a                	sw	a0,44(sp)
    15de:	40006537          	lui	a0,0x40006
    15e2:	d42e                	sw	a1,40(sp)
    15e4:	40050513          	addi	a0,a0,1024 # 40006400 <__freertos_irq_stack_top+0x20001400>
    15e8:	40000593          	li	a1,1024
    15ec:	de06                	sw	ra,60(sp)
    15ee:	dc16                	sw	t0,56(sp)
    15f0:	da1a                	sw	t1,52(sp)
    15f2:	d81e                	sw	t2,48(sp)
    15f4:	d232                	sw	a2,36(sp)
    15f6:	d036                	sw	a3,32(sp)
    15f8:	ce3a                	sw	a4,28(sp)
    15fa:	cc3e                	sw	a5,24(sp)
    15fc:	ca42                	sw	a6,20(sp)
    15fe:	c846                	sw	a7,16(sp)
    1600:	c672                	sw	t3,12(sp)
    1602:	c476                	sw	t4,8(sp)
    1604:	c27a                	sw	t5,4(sp)
    1606:	c07e                	sw	t6,0(sp)
    1608:	dc2ff0ef          	jal	ra,bca <CAN_ClearITPendingBit>
    160c:	2641a783          	lw	a5,612(gp) # 20000ae4 <CAN+0x8>
    1610:	9782                	jalr	a5
    1612:	50f2                	lw	ra,60(sp)
    1614:	52e2                	lw	t0,56(sp)
    1616:	5352                	lw	t1,52(sp)
    1618:	53c2                	lw	t2,48(sp)
    161a:	5532                	lw	a0,44(sp)
    161c:	55a2                	lw	a1,40(sp)
    161e:	5612                	lw	a2,36(sp)
    1620:	5682                	lw	a3,32(sp)
    1622:	4772                	lw	a4,28(sp)
    1624:	47e2                	lw	a5,24(sp)
    1626:	4852                	lw	a6,20(sp)
    1628:	48c2                	lw	a7,16(sp)
    162a:	4e32                	lw	t3,12(sp)
    162c:	4ea2                	lw	t4,8(sp)
    162e:	4f12                	lw	t5,4(sp)
    1630:	4f82                	lw	t6,0(sp)
    1632:	6121                	addi	sp,sp,64
    1634:	30200073          	mret

00001638 <DMA1_Channel1_IRQHandler>:
    1638:	7139                	addi	sp,sp,-64
    163a:	d62a                	sw	a0,44(sp)
    163c:	4509                	li	a0,2
    163e:	cc3e                	sw	a5,24(sp)
    1640:	de06                	sw	ra,60(sp)
    1642:	dc16                	sw	t0,56(sp)
    1644:	da1a                	sw	t1,52(sp)
    1646:	d81e                	sw	t2,48(sp)
    1648:	d42e                	sw	a1,40(sp)
    164a:	d232                	sw	a2,36(sp)
    164c:	d036                	sw	a3,32(sp)
    164e:	ce3a                	sw	a4,28(sp)
    1650:	ca42                	sw	a6,20(sp)
    1652:	c846                	sw	a7,16(sp)
    1654:	c672                	sw	t3,12(sp)
    1656:	c476                	sw	t4,8(sp)
    1658:	c27a                	sw	t5,4(sp)
    165a:	c07e                	sw	t6,0(sp)
    165c:	e10ff0ef          	jal	ra,c6c <DMA_GetITStatus>
    1660:	4785                	li	a5,1
    1662:	00f51863          	bne	a0,a5,1672 <DMA1_Channel1_IRQHandler+0x3a>
    1666:	2681a783          	lw	a5,616(gp) # 20000ae8 <DMA_CALLback>
    166a:	9782                	jalr	a5
    166c:	4505                	li	a0,1
    166e:	e08ff0ef          	jal	ra,c76 <DMA_ClearITPendingBit>
    1672:	50f2                	lw	ra,60(sp)
    1674:	52e2                	lw	t0,56(sp)
    1676:	5352                	lw	t1,52(sp)
    1678:	53c2                	lw	t2,48(sp)
    167a:	5532                	lw	a0,44(sp)
    167c:	55a2                	lw	a1,40(sp)
    167e:	5612                	lw	a2,36(sp)
    1680:	5682                	lw	a3,32(sp)
    1682:	4772                	lw	a4,28(sp)
    1684:	47e2                	lw	a5,24(sp)
    1686:	4852                	lw	a6,20(sp)
    1688:	48c2                	lw	a7,16(sp)
    168a:	4e32                	lw	t3,12(sp)
    168c:	4ea2                	lw	t4,8(sp)
    168e:	4f12                	lw	t5,4(sp)
    1690:	4f82                	lw	t6,0(sp)
    1692:	6121                	addi	sp,sp,64
    1694:	30200073          	mret

00001698 <DMA1_Channel5_IRQHandler>:
    1698:	7139                	addi	sp,sp,-64
    169a:	d62a                	sw	a0,44(sp)
    169c:	00020537          	lui	a0,0x20
    16a0:	cc3e                	sw	a5,24(sp)
    16a2:	de06                	sw	ra,60(sp)
    16a4:	dc16                	sw	t0,56(sp)
    16a6:	da1a                	sw	t1,52(sp)
    16a8:	d81e                	sw	t2,48(sp)
    16aa:	d42e                	sw	a1,40(sp)
    16ac:	d232                	sw	a2,36(sp)
    16ae:	d036                	sw	a3,32(sp)
    16b0:	ce3a                	sw	a4,28(sp)
    16b2:	ca42                	sw	a6,20(sp)
    16b4:	c846                	sw	a7,16(sp)
    16b6:	c672                	sw	t3,12(sp)
    16b8:	c476                	sw	t4,8(sp)
    16ba:	c27a                	sw	t5,4(sp)
    16bc:	c07e                	sw	t6,0(sp)
    16be:	daeff0ef          	jal	ra,c6c <DMA_GetITStatus>
    16c2:	4785                	li	a5,1
    16c4:	00f51863          	bne	a0,a5,16d4 <DMA1_Channel5_IRQHandler+0x3c>
    16c8:	2781a783          	lw	a5,632(gp) # 20000af8 <DMA_CALLback+0x10>
    16cc:	9782                	jalr	a5
    16ce:	6541                	lui	a0,0x10
    16d0:	da6ff0ef          	jal	ra,c76 <DMA_ClearITPendingBit>
    16d4:	50f2                	lw	ra,60(sp)
    16d6:	52e2                	lw	t0,56(sp)
    16d8:	5352                	lw	t1,52(sp)
    16da:	53c2                	lw	t2,48(sp)
    16dc:	5532                	lw	a0,44(sp)
    16de:	55a2                	lw	a1,40(sp)
    16e0:	5612                	lw	a2,36(sp)
    16e2:	5682                	lw	a3,32(sp)
    16e4:	4772                	lw	a4,28(sp)
    16e6:	47e2                	lw	a5,24(sp)
    16e8:	4852                	lw	a6,20(sp)
    16ea:	48c2                	lw	a7,16(sp)
    16ec:	4e32                	lw	t3,12(sp)
    16ee:	4ea2                	lw	t4,8(sp)
    16f0:	4f12                	lw	t5,4(sp)
    16f2:	4f82                	lw	t6,0(sp)
    16f4:	6121                	addi	sp,sp,64
    16f6:	30200073          	mret

000016fa <DMA1_Channel4_IRQHandler>:
    16fa:	7139                	addi	sp,sp,-64
    16fc:	d62a                	sw	a0,44(sp)
    16fe:	6509                	lui	a0,0x2
    1700:	cc3e                	sw	a5,24(sp)
    1702:	de06                	sw	ra,60(sp)
    1704:	dc16                	sw	t0,56(sp)
    1706:	da1a                	sw	t1,52(sp)
    1708:	d81e                	sw	t2,48(sp)
    170a:	d42e                	sw	a1,40(sp)
    170c:	d232                	sw	a2,36(sp)
    170e:	d036                	sw	a3,32(sp)
    1710:	ce3a                	sw	a4,28(sp)
    1712:	ca42                	sw	a6,20(sp)
    1714:	c846                	sw	a7,16(sp)
    1716:	c672                	sw	t3,12(sp)
    1718:	c476                	sw	t4,8(sp)
    171a:	c27a                	sw	t5,4(sp)
    171c:	c07e                	sw	t6,0(sp)
    171e:	d4eff0ef          	jal	ra,c6c <DMA_GetITStatus>
    1722:	4785                	li	a5,1
    1724:	00f51863          	bne	a0,a5,1734 <DMA1_Channel4_IRQHandler+0x3a>
    1728:	2741a783          	lw	a5,628(gp) # 20000af4 <DMA_CALLback+0xc>
    172c:	9782                	jalr	a5
    172e:	6505                	lui	a0,0x1
    1730:	d46ff0ef          	jal	ra,c76 <DMA_ClearITPendingBit>
    1734:	50f2                	lw	ra,60(sp)
    1736:	52e2                	lw	t0,56(sp)
    1738:	5352                	lw	t1,52(sp)
    173a:	53c2                	lw	t2,48(sp)
    173c:	5532                	lw	a0,44(sp)
    173e:	55a2                	lw	a1,40(sp)
    1740:	5612                	lw	a2,36(sp)
    1742:	5682                	lw	a3,32(sp)
    1744:	4772                	lw	a4,28(sp)
    1746:	47e2                	lw	a5,24(sp)
    1748:	4852                	lw	a6,20(sp)
    174a:	48c2                	lw	a7,16(sp)
    174c:	4e32                	lw	t3,12(sp)
    174e:	4ea2                	lw	t4,8(sp)
    1750:	4f12                	lw	t5,4(sp)
    1752:	4f82                	lw	t6,0(sp)
    1754:	6121                	addi	sp,sp,64
    1756:	30200073          	mret

0000175a <DMA1_Channel7_IRQHandler>:
    175a:	7139                	addi	sp,sp,-64
    175c:	d62a                	sw	a0,44(sp)
    175e:	02000537          	lui	a0,0x2000
    1762:	cc3e                	sw	a5,24(sp)
    1764:	de06                	sw	ra,60(sp)
    1766:	dc16                	sw	t0,56(sp)
    1768:	da1a                	sw	t1,52(sp)
    176a:	d81e                	sw	t2,48(sp)
    176c:	d42e                	sw	a1,40(sp)
    176e:	d232                	sw	a2,36(sp)
    1770:	d036                	sw	a3,32(sp)
    1772:	ce3a                	sw	a4,28(sp)
    1774:	ca42                	sw	a6,20(sp)
    1776:	c846                	sw	a7,16(sp)
    1778:	c672                	sw	t3,12(sp)
    177a:	c476                	sw	t4,8(sp)
    177c:	c27a                	sw	t5,4(sp)
    177e:	c07e                	sw	t6,0(sp)
    1780:	cecff0ef          	jal	ra,c6c <DMA_GetITStatus>
    1784:	4785                	li	a5,1
    1786:	00f51963          	bne	a0,a5,1798 <DMA1_Channel7_IRQHandler+0x3e>
    178a:	2801a783          	lw	a5,640(gp) # 20000b00 <DMA_CALLback+0x18>
    178e:	9782                	jalr	a5
    1790:	01000537          	lui	a0,0x1000
    1794:	ce2ff0ef          	jal	ra,c76 <DMA_ClearITPendingBit>
    1798:	50f2                	lw	ra,60(sp)
    179a:	52e2                	lw	t0,56(sp)
    179c:	5352                	lw	t1,52(sp)
    179e:	53c2                	lw	t2,48(sp)
    17a0:	5532                	lw	a0,44(sp)
    17a2:	55a2                	lw	a1,40(sp)
    17a4:	5612                	lw	a2,36(sp)
    17a6:	5682                	lw	a3,32(sp)
    17a8:	4772                	lw	a4,28(sp)
    17aa:	47e2                	lw	a5,24(sp)
    17ac:	4852                	lw	a6,20(sp)
    17ae:	48c2                	lw	a7,16(sp)
    17b0:	4e32                	lw	t3,12(sp)
    17b2:	4ea2                	lw	t4,8(sp)
    17b4:	4f12                	lw	t5,4(sp)
    17b6:	4f82                	lw	t6,0(sp)
    17b8:	6121                	addi	sp,sp,64
    17ba:	30200073          	mret

000017be <HAL_InitGpioLib>:
    17be:	28418793          	addi	a5,gp,644 # 20000b04 <InitPort>
    17c2:	0007a023          	sw	zero,0(a5)
    17c6:	0007a223          	sw	zero,4(a5)
    17ca:	8082                	ret

000017cc <HAL_InitGpioRCC>:
    17cc:	d53fe2ef          	jal	t0,51e <__riscv_save_0>
    17d0:	40011737          	lui	a4,0x40011
    17d4:	c0070693          	addi	a3,a4,-1024 # 40010c00 <__freertos_irq_stack_top+0x2000bc00>
    17d8:	4785                	li	a5,1
    17da:	02d50a63          	beq	a0,a3,180e <HAL_InitGpioRCC+0x42>
    17de:	4789                	li	a5,2
    17e0:	02e50763          	beq	a0,a4,180e <HAL_InitGpioRCC+0x42>
    17e4:	40070713          	addi	a4,a4,1024
    17e8:	478d                	li	a5,3
    17ea:	02e50263          	beq	a0,a4,180e <HAL_InitGpioRCC+0x42>
    17ee:	40012737          	lui	a4,0x40012
    17f2:	80070693          	addi	a3,a4,-2048 # 40011800 <__freertos_irq_stack_top+0x2000c800>
    17f6:	4791                	li	a5,4
    17f8:	00d50b63          	beq	a0,a3,180e <HAL_InitGpioRCC+0x42>
    17fc:	c0070693          	addi	a3,a4,-1024
    1800:	4795                	li	a5,5
    1802:	00d50663          	beq	a0,a3,180e <HAL_InitGpioRCC+0x42>
    1806:	4781                	li	a5,0
    1808:	00e51363          	bne	a0,a4,180e <HAL_InitGpioRCC+0x42>
    180c:	4799                	li	a5,6
    180e:	28418693          	addi	a3,gp,644 # 20000b04 <InitPort>
    1812:	00279413          	slli	s0,a5,0x2
    1816:	008687b3          	add	a5,a3,s0
    181a:	439c                	lw	a5,0(a5)
    181c:	28418493          	addi	s1,gp,644 # 20000b04 <InitPort>
    1820:	ef99                	bnez	a5,183e <HAL_InitGpioRCC+0x72>
    1822:	400117b7          	lui	a5,0x40011
    1826:	80078713          	addi	a4,a5,-2048 # 40010800 <__freertos_irq_stack_top+0x2000b800>
    182a:	00e51c63          	bne	a0,a4,1842 <HAL_InitGpioRCC+0x76>
    182e:	4585                	li	a1,1
    1830:	4511                	li	a0,4
    1832:	9cbff0ef          	jal	ra,11fc <RCC_APB2PeriphClockCmd>
    1836:	008487b3          	add	a5,s1,s0
    183a:	4705                	li	a4,1
    183c:	c398                	sw	a4,0(a5)
    183e:	d05fe06f          	j	542 <__riscv_restore_0>
    1842:	c0078713          	addi	a4,a5,-1024
    1846:	00e51563          	bne	a0,a4,1850 <HAL_InitGpioRCC+0x84>
    184a:	4585                	li	a1,1
    184c:	4521                	li	a0,8
    184e:	b7d5                	j	1832 <HAL_InitGpioRCC+0x66>
    1850:	00f51563          	bne	a0,a5,185a <HAL_InitGpioRCC+0x8e>
    1854:	4585                	li	a1,1
    1856:	4541                	li	a0,16
    1858:	bfe9                	j	1832 <HAL_InitGpioRCC+0x66>
    185a:	40078793          	addi	a5,a5,1024
    185e:	00f51663          	bne	a0,a5,186a <HAL_InitGpioRCC+0x9e>
    1862:	4585                	li	a1,1
    1864:	02000513          	li	a0,32
    1868:	b7e9                	j	1832 <HAL_InitGpioRCC+0x66>
    186a:	400127b7          	lui	a5,0x40012
    186e:	80078793          	addi	a5,a5,-2048 # 40011800 <__freertos_irq_stack_top+0x2000c800>
    1872:	fcf512e3          	bne	a0,a5,1836 <HAL_InitGpioRCC+0x6a>
    1876:	4585                	li	a1,1
    1878:	04000513          	li	a0,64
    187c:	bf5d                	j	1832 <HAL_InitGpioRCC+0x66>

0000187e <HAL_InitGpioOut>:
    187e:	ca1fe2ef          	jal	t0,51e <__riscv_save_0>
    1882:	1101                	addi	sp,sp,-32
    1884:	842a                	mv	s0,a0
    1886:	c62e                	sw	a1,12(sp)
    1888:	3791                	jal	17cc <HAL_InitGpioRCC>
    188a:	45b2                	lw	a1,12(sp)
    188c:	47c1                	li	a5,16
    188e:	ce3e                	sw	a5,28(sp)
    1890:	82ec                	sh	a1,20(sp)
    1892:	4789                	li	a5,2
    1894:	084c                	addi	a1,sp,20
    1896:	8522                	mv	a0,s0
    1898:	cc3e                	sw	a5,24(sp)
    189a:	be4ff0ef          	jal	ra,c7e <GPIO_Init>
    189e:	6105                	addi	sp,sp,32
    18a0:	ca3fe06f          	j	542 <__riscv_restore_0>

000018a4 <HAL_InitGpioAIN>:
    18a4:	c7bfe2ef          	jal	t0,51e <__riscv_save_0>
    18a8:	1101                	addi	sp,sp,-32
    18aa:	842a                	mv	s0,a0
    18ac:	c62e                	sw	a1,12(sp)
    18ae:	3f39                	jal	17cc <HAL_InitGpioRCC>
    18b0:	45b2                	lw	a1,12(sp)
    18b2:	478d                	li	a5,3
    18b4:	8522                	mv	a0,s0
    18b6:	82ec                	sh	a1,20(sp)
    18b8:	084c                	addi	a1,sp,20
    18ba:	cc3e                	sw	a5,24(sp)
    18bc:	ce02                	sw	zero,28(sp)
    18be:	bc0ff0ef          	jal	ra,c7e <GPIO_Init>
    18c2:	6105                	addi	sp,sp,32
    18c4:	c7ffe06f          	j	542 <__riscv_restore_0>

000018c8 <HAL_InitGpioIn>:
    18c8:	c57fe2ef          	jal	t0,51e <__riscv_save_0>
    18cc:	1101                	addi	sp,sp,-32
    18ce:	842a                	mv	s0,a0
    18d0:	c62e                	sw	a1,12(sp)
    18d2:	3ded                	jal	17cc <HAL_InitGpioRCC>
    18d4:	45b2                	lw	a1,12(sp)
    18d6:	4791                	li	a5,4
    18d8:	ce3e                	sw	a5,28(sp)
    18da:	82ec                	sh	a1,20(sp)
    18dc:	478d                	li	a5,3
    18de:	084c                	addi	a1,sp,20
    18e0:	8522                	mv	a0,s0
    18e2:	cc3e                	sw	a5,24(sp)
    18e4:	b9aff0ef          	jal	ra,c7e <GPIO_Init>
    18e8:	6105                	addi	sp,sp,32
    18ea:	c59fe06f          	j	542 <__riscv_restore_0>

000018ee <HAL_InitGpioAF>:
    18ee:	c17fe2ef          	jal	t0,504 <__riscv_save_4>
    18f2:	1141                	addi	sp,sp,-16
    18f4:	8432                	mv	s0,a2
    18f6:	84aa                	mv	s1,a0
    18f8:	89ae                	mv	s3,a1
    18fa:	8936                	mv	s2,a3
    18fc:	3dc1                	jal	17cc <HAL_InitGpioRCC>
    18fe:	c809                	beqz	s0,1910 <HAL_InitGpioAF+0x22>
    1900:	4585                	li	a1,1
    1902:	4505                	li	a0,1
    1904:	8f9ff0ef          	jal	ra,11fc <RCC_APB2PeriphClockCmd>
    1908:	4585                	li	a1,1
    190a:	8522                	mv	a0,s0
    190c:	c84ff0ef          	jal	ra,d90 <GPIO_PinRemapConfig>
    1910:	478d                	li	a5,3
    1912:	004c                	addi	a1,sp,4
    1914:	8526                	mv	a0,s1
    1916:	01311223          	sh	s3,4(sp)
    191a:	c64a                	sw	s2,12(sp)
    191c:	c43e                	sw	a5,8(sp)
    191e:	b60ff0ef          	jal	ra,c7e <GPIO_Init>
    1922:	0141                	addi	sp,sp,16
    1924:	c15fe06f          	j	538 <__riscv_restore_4>

00001928 <HAL_ResetBit>:
    1928:	bf7fe2ef          	jal	t0,51e <__riscv_save_0>
    192c:	c4cff0ef          	jal	ra,d78 <GPIO_ResetBits>
    1930:	c13fe06f          	j	542 <__riscv_restore_0>

00001934 <I2C_Master_Transmit>:
    1934:	bd1fe2ef          	jal	t0,504 <__riscv_save_4>
    1938:	20000437          	lui	s0,0x20000
    193c:	0ac42703          	lw	a4,172(s0) # 200000ac <pEEPROM>
    1940:	89b6                	mv	s3,a3
    1942:	4685                	li	a3,1
    1944:	b348                	sb	a0,5(a4)
    1946:	4b08                	lw	a0,16(a4)
    1948:	a31c                	sb	a5,0(a4)
    194a:	479d                	li	a5,7
    194c:	c750                	sw	a2,12(a4)
    194e:	a36e                	sh	a1,6(a4)
    1950:	8a32                	mv	s4,a2
    1952:	b314                	sb	a3,1(a4)
    1954:	00071523          	sh	zero,10(a4)
    1958:	01371423          	sh	s3,8(a4)
    195c:	cf5c                	sw	a5,28(a4)
    195e:	4601                	li	a2,0
    1960:	70000593          	li	a1,1792
    1964:	e8eff0ef          	jal	ra,ff2 <I2C_ITConfig>
    1968:	0ac40413          	addi	s0,s0,172
    196c:	401c                	lw	a5,0(s0)
    196e:	000205b7          	lui	a1,0x20
    1972:	4b88                	lw	a0,16(a5)
    1974:	ed8ff0ef          	jal	ra,104c <I2C_GetFlagStatus>
    1978:	f975                	bnez	a0,196c <I2C_Master_Transmit+0x38>
    197a:	401c                	lw	a5,0(s0)
    197c:	4585                	li	a1,1
    197e:	000304b7          	lui	s1,0x30
    1982:	4b88                	lw	a0,16(a5)
    1984:	0485                	addi	s1,s1,1
    1986:	e06ff0ef          	jal	ra,f8c <I2C_GenerateSTART>
    198a:	401c                	lw	a5,0(s0)
    198c:	85a6                	mv	a1,s1
    198e:	4b88                	lw	a0,16(a5)
    1990:	ea6ff0ef          	jal	ra,1036 <I2C_CheckEvent>
    1994:	d97d                	beqz	a0,198a <I2C_Master_Transmit+0x56>
    1996:	401c                	lw	a5,0(s0)
    1998:	4601                	li	a2,0
    199a:	0a000593          	li	a1,160
    199e:	4b88                	lw	a0,16(a5)
    19a0:	000704b7          	lui	s1,0x70
    19a4:	08248493          	addi	s1,s1,130 # 70082 <_data_lma+0x6b20a>
    19a8:	e68ff0ef          	jal	ra,1010 <I2C_Send7bitAddress>
    19ac:	401c                	lw	a5,0(s0)
    19ae:	85a6                	mv	a1,s1
    19b0:	4b88                	lw	a0,16(a5)
    19b2:	e84ff0ef          	jal	ra,1036 <I2C_CheckEvent>
    19b6:	d97d                	beqz	a0,19ac <I2C_Master_Transmit+0x78>
    19b8:	401c                	lw	a5,0(s0)
    19ba:	000704b7          	lui	s1,0x70
    19be:	08448493          	addi	s1,s1,132 # 70084 <_data_lma+0x6b20c>
    19c2:	23ee                	lhu	a1,6(a5)
    19c4:	4b88                	lw	a0,16(a5)
    19c6:	81a1                	srli	a1,a1,0x8
    19c8:	89bd                	andi	a1,a1,15
    19ca:	e3aff0ef          	jal	ra,1004 <I2C_SendData>
    19ce:	401c                	lw	a5,0(s0)
    19d0:	85a6                	mv	a1,s1
    19d2:	4b88                	lw	a0,16(a5)
    19d4:	e62ff0ef          	jal	ra,1036 <I2C_CheckEvent>
    19d8:	d97d                	beqz	a0,19ce <I2C_Master_Transmit+0x9a>
    19da:	401c                	lw	a5,0(s0)
    19dc:	00070937          	lui	s2,0x70
    19e0:	4481                	li	s1,0
    19e2:	23ec                	lbu	a1,6(a5)
    19e4:	4b88                	lw	a0,16(a5)
    19e6:	08490913          	addi	s2,s2,132 # 70084 <_data_lma+0x6b20c>
    19ea:	e1aff0ef          	jal	ra,1004 <I2C_SendData>
    19ee:	0134ca63          	blt	s1,s3,1a02 <I2C_Master_Transmit+0xce>
    19f2:	401c                	lw	a5,0(s0)
    19f4:	4585                	li	a1,1
    19f6:	4b88                	lw	a0,16(a5)
    19f8:	daeff0ef          	jal	ra,fa6 <I2C_GenerateSTOP>
    19fc:	4501                	li	a0,0
    19fe:	b3bfe06f          	j	538 <__riscv_restore_4>
    1a02:	401c                	lw	a5,0(s0)
    1a04:	85ca                	mv	a1,s2
    1a06:	4b88                	lw	a0,16(a5)
    1a08:	e2eff0ef          	jal	ra,1036 <I2C_CheckEvent>
    1a0c:	d97d                	beqz	a0,1a02 <I2C_Master_Transmit+0xce>
    1a0e:	401c                	lw	a5,0(s0)
    1a10:	009a0733          	add	a4,s4,s1
    1a14:	230c                	lbu	a1,0(a4)
    1a16:	4b88                	lw	a0,16(a5)
    1a18:	0485                	addi	s1,s1,1
    1a1a:	deaff0ef          	jal	ra,1004 <I2C_SendData>
    1a1e:	bfc1                	j	19ee <I2C_Master_Transmit+0xba>

00001a20 <I2C_Master_Revice>:
    1a20:	ae5fe2ef          	jal	t0,504 <__riscv_save_4>
    1a24:	20000437          	lui	s0,0x20000
    1a28:	0ac40993          	addi	s3,s0,172 # 200000ac <pEEPROM>
    1a2c:	0009a483          	lw	s1,0(s3)
    1a30:	893a                	mv	s2,a4
    1a32:	4705                	li	a4,1
    1a34:	b098                	sb	a4,1(s1)
    1a36:	a09c                	sb	a5,0(s1)
    1a38:	a496                	sh	a3,8(s1)
    1a3a:	c4d0                	sw	a2,12(s1)
    1a3c:	a0ee                	sh	a1,6(s1)
    1a3e:	00049523          	sh	zero,10(s1)
    1a42:	b0c8                	sb	a0,5(s1)
    1a44:	02b010ef          	jal	ra,326e <xTaskGetCurrentTaskHandle>
    1a48:	0009a783          	lw	a5,0(s3)
    1a4c:	c8c8                	sw	a0,20(s1)
    1a4e:	4719                	li	a4,6
    1a50:	4b88                	lw	a0,16(a5)
    1a52:	cfd8                	sw	a4,28(a5)
    1a54:	4601                	li	a2,0
    1a56:	70000593          	li	a1,1792
    1a5a:	d98ff0ef          	jal	ra,ff2 <I2C_ITConfig>
    1a5e:	0ac40413          	addi	s0,s0,172
    1a62:	401c                	lw	a5,0(s0)
    1a64:	000205b7          	lui	a1,0x20
    1a68:	4b88                	lw	a0,16(a5)
    1a6a:	de2ff0ef          	jal	ra,104c <I2C_GetFlagStatus>
    1a6e:	f975                	bnez	a0,1a62 <I2C_Master_Revice+0x42>
    1a70:	401c                	lw	a5,0(s0)
    1a72:	4585                	li	a1,1
    1a74:	000304b7          	lui	s1,0x30
    1a78:	4b88                	lw	a0,16(a5)
    1a7a:	0485                	addi	s1,s1,1
    1a7c:	d10ff0ef          	jal	ra,f8c <I2C_GenerateSTART>
    1a80:	401c                	lw	a5,0(s0)
    1a82:	85a6                	mv	a1,s1
    1a84:	4b88                	lw	a0,16(a5)
    1a86:	db0ff0ef          	jal	ra,1036 <I2C_CheckEvent>
    1a8a:	d97d                	beqz	a0,1a80 <I2C_Master_Revice+0x60>
    1a8c:	401c                	lw	a5,0(s0)
    1a8e:	4601                	li	a2,0
    1a90:	0a000593          	li	a1,160
    1a94:	4b88                	lw	a0,16(a5)
    1a96:	000704b7          	lui	s1,0x70
    1a9a:	08248493          	addi	s1,s1,130 # 70082 <_data_lma+0x6b20a>
    1a9e:	d72ff0ef          	jal	ra,1010 <I2C_Send7bitAddress>
    1aa2:	401c                	lw	a5,0(s0)
    1aa4:	85a6                	mv	a1,s1
    1aa6:	4b88                	lw	a0,16(a5)
    1aa8:	d8eff0ef          	jal	ra,1036 <I2C_CheckEvent>
    1aac:	d97d                	beqz	a0,1aa2 <I2C_Master_Revice+0x82>
    1aae:	401c                	lw	a5,0(s0)
    1ab0:	000704b7          	lui	s1,0x70
    1ab4:	08448493          	addi	s1,s1,132 # 70084 <_data_lma+0x6b20c>
    1ab8:	23ee                	lhu	a1,6(a5)
    1aba:	4b88                	lw	a0,16(a5)
    1abc:	81a1                	srli	a1,a1,0x8
    1abe:	89bd                	andi	a1,a1,15
    1ac0:	d44ff0ef          	jal	ra,1004 <I2C_SendData>
    1ac4:	401c                	lw	a5,0(s0)
    1ac6:	85a6                	mv	a1,s1
    1ac8:	4b88                	lw	a0,16(a5)
    1aca:	d6cff0ef          	jal	ra,1036 <I2C_CheckEvent>
    1ace:	d97d                	beqz	a0,1ac4 <I2C_Master_Revice+0xa4>
    1ad0:	401c                	lw	a5,0(s0)
    1ad2:	000704b7          	lui	s1,0x70
    1ad6:	08448493          	addi	s1,s1,132 # 70084 <_data_lma+0x6b20c>
    1ada:	23ec                	lbu	a1,6(a5)
    1adc:	4b88                	lw	a0,16(a5)
    1ade:	d26ff0ef          	jal	ra,1004 <I2C_SendData>
    1ae2:	401c                	lw	a5,0(s0)
    1ae4:	85a6                	mv	a1,s1
    1ae6:	4b88                	lw	a0,16(a5)
    1ae8:	d4eff0ef          	jal	ra,1036 <I2C_CheckEvent>
    1aec:	d97d                	beqz	a0,1ae2 <I2C_Master_Revice+0xc2>
    1aee:	401c                	lw	a5,0(s0)
    1af0:	4585                	li	a1,1
    1af2:	000304b7          	lui	s1,0x30
    1af6:	4b88                	lw	a0,16(a5)
    1af8:	0485                	addi	s1,s1,1
    1afa:	c92ff0ef          	jal	ra,f8c <I2C_GenerateSTART>
    1afe:	401c                	lw	a5,0(s0)
    1b00:	85a6                	mv	a1,s1
    1b02:	4b88                	lw	a0,16(a5)
    1b04:	d32ff0ef          	jal	ra,1036 <I2C_CheckEvent>
    1b08:	d97d                	beqz	a0,1afe <I2C_Master_Revice+0xde>
    1b0a:	401c                	lw	a5,0(s0)
    1b0c:	4605                	li	a2,1
    1b0e:	0a000593          	li	a1,160
    1b12:	4b88                	lw	a0,16(a5)
    1b14:	000304b7          	lui	s1,0x30
    1b18:	0489                	addi	s1,s1,2
    1b1a:	cf6ff0ef          	jal	ra,1010 <I2C_Send7bitAddress>
    1b1e:	401c                	lw	a5,0(s0)
    1b20:	85a6                	mv	a1,s1
    1b22:	4b88                	lw	a0,16(a5)
    1b24:	d12ff0ef          	jal	ra,1036 <I2C_CheckEvent>
    1b28:	d97d                	beqz	a0,1b1e <I2C_Master_Revice+0xfe>
    1b2a:	401c                	lw	a5,0(s0)
    1b2c:	4585                	li	a1,1
    1b2e:	4b88                	lw	a0,16(a5)
    1b30:	c90ff0ef          	jal	ra,fc0 <I2C_AcknowledgeConfig>
    1b34:	401c                	lw	a5,0(s0)
    1b36:	4605                	li	a2,1
    1b38:	70000593          	li	a1,1792
    1b3c:	4b88                	lw	a0,16(a5)
    1b3e:	cb4ff0ef          	jal	ra,ff2 <I2C_ITConfig>
    1b42:	401c                	lw	a5,0(s0)
    1b44:	864a                	mv	a2,s2
    1b46:	55fd                	li	a1,-1
    1b48:	2388                	lbu	a0,0(a5)
    1b4a:	74a010ef          	jal	ra,3294 <ulTaskGenericNotifyTake>
    1b4e:	401c                	lw	a5,0(s0)
    1b50:	84aa                	mv	s1,a0
    1b52:	4601                	li	a2,0
    1b54:	4b88                	lw	a0,16(a5)
    1b56:	70000593          	li	a1,1792
    1b5a:	c98ff0ef          	jal	ra,ff2 <I2C_ITConfig>
    1b5e:	4501                	li	a0,0
    1b60:	e091                	bnez	s1,1b64 <I2C_Master_Revice+0x144>
    1b62:	450d                	li	a0,3
    1b64:	9d5fe06f          	j	538 <__riscv_restore_4>

00001b68 <I2C_FSM>:
    1b68:	9b7fe2ef          	jal	t0,51e <__riscv_save_0>
    1b6c:	20000437          	lui	s0,0x20000
    1b70:	0ac40493          	addi	s1,s0,172 # 200000ac <pEEPROM>
    1b74:	409c                	lw	a5,0(s1)
    1b76:	1141                	addi	sp,sp,-16
    1b78:	45d1                	li	a1,20
    1b7a:	4b88                	lw	a0,16(a5)
    1b7c:	c602                	sw	zero,12(sp)
    1b7e:	ca4ff0ef          	jal	ra,1022 <I2C_ReadRegister>
    1b82:	409c                	lw	a5,0(s1)
    1b84:	46ad                	li	a3,11
    1b86:	4fd8                	lw	a4,28(a5)
    1b88:	177d                	addi	a4,a4,-1
    1b8a:	02e6e563          	bltu	a3,a4,1bb4 <I2C_FSM+0x4c>
    1b8e:	6695                	lui	a3,0x5
    1b90:	070a                	slli	a4,a4,0x2
    1b92:	ca868693          	addi	a3,a3,-856 # 4ca8 <_read+0x8e>
    1b96:	9736                	add	a4,a4,a3
    1b98:	4318                	lw	a4,0(a4)
    1b9a:	0ac40413          	addi	s0,s0,172
    1b9e:	8702                	jr	a4
    1ba0:	8905                	andi	a0,a0,1
    1ba2:	c909                	beqz	a0,1bb4 <I2C_FSM+0x4c>
    1ba4:	33cc                	lbu	a1,5(a5)
    1ba6:	4b88                	lw	a0,16(a5)
    1ba8:	4601                	li	a2,0
    1baa:	c66ff0ef          	jal	ra,1010 <I2C_Send7bitAddress>
    1bae:	401c                	lw	a5,0(s0)
    1bb0:	4709                	li	a4,2
    1bb2:	cfd8                	sw	a4,28(a5)
    1bb4:	0141                	addi	sp,sp,16
    1bb6:	98dfe06f          	j	542 <__riscv_restore_0>
    1bba:	8909                	andi	a0,a0,2
    1bbc:	dd65                	beqz	a0,1bb4 <I2C_FSM+0x4c>
    1bbe:	4b88                	lw	a0,16(a5)
    1bc0:	45e1                	li	a1,24
    1bc2:	c60ff0ef          	jal	ra,1022 <I2C_ReadRegister>
    1bc6:	401c                	lw	a5,0(s0)
    1bc8:	23ee                	lhu	a1,6(a5)
    1bca:	4b88                	lw	a0,16(a5)
    1bcc:	81a1                	srli	a1,a1,0x8
    1bce:	89fd                	andi	a1,a1,31
    1bd0:	c34ff0ef          	jal	ra,1004 <I2C_SendData>
    1bd4:	401c                	lw	a5,0(s0)
    1bd6:	472d                	li	a4,11
    1bd8:	bfe9                	j	1bb2 <I2C_FSM+0x4a>
    1bda:	08057513          	andi	a0,a0,128
    1bde:	d979                	beqz	a0,1bb4 <I2C_FSM+0x4c>
    1be0:	23ec                	lbu	a1,6(a5)
    1be2:	4b88                	lw	a0,16(a5)
    1be4:	c20ff0ef          	jal	ra,1004 <I2C_SendData>
    1be8:	401c                	lw	a5,0(s0)
    1bea:	470d                	li	a4,3
    1bec:	b7d9                	j	1bb2 <I2C_FSM+0x4a>
    1bee:	08057513          	andi	a0,a0,128
    1bf2:	d169                	beqz	a0,1bb4 <I2C_FSM+0x4c>
    1bf4:	4b88                	lw	a0,16(a5)
    1bf6:	4585                	li	a1,1
    1bf8:	b94ff0ef          	jal	ra,f8c <I2C_GenerateSTART>
    1bfc:	401c                	lw	a5,0(s0)
    1bfe:	4711                	li	a4,4
    1c00:	bf4d                	j	1bb2 <I2C_FSM+0x4a>
    1c02:	8905                	andi	a0,a0,1
    1c04:	d945                	beqz	a0,1bb4 <I2C_FSM+0x4c>
    1c06:	33cc                	lbu	a1,5(a5)
    1c08:	4b88                	lw	a0,16(a5)
    1c0a:	4605                	li	a2,1
    1c0c:	c04ff0ef          	jal	ra,1010 <I2C_Send7bitAddress>
    1c10:	401c                	lw	a5,0(s0)
    1c12:	4715                	li	a4,5
    1c14:	bf79                	j	1bb2 <I2C_FSM+0x4a>
    1c16:	8909                	andi	a0,a0,2
    1c18:	dd51                	beqz	a0,1bb4 <I2C_FSM+0x4c>
    1c1a:	4b88                	lw	a0,16(a5)
    1c1c:	45e1                	li	a1,24
    1c1e:	c04ff0ef          	jal	ra,1022 <I2C_ReadRegister>
    1c22:	401c                	lw	a5,0(s0)
    1c24:	4719                	li	a4,6
    1c26:	b771                	j	1bb2 <I2C_FSM+0x4a>
    1c28:	04057513          	andi	a0,a0,64
    1c2c:	d541                	beqz	a0,1bb4 <I2C_FSM+0x4c>
    1c2e:	2796                	lhu	a3,8(a5)
    1c30:	27ba                	lhu	a4,10(a5)
    1c32:	4b88                	lw	a0,16(a5)
    1c34:	16fd                	addi	a3,a3,-1
    1c36:	00d75b63          	bge	a4,a3,1c4c <I2C_FSM+0xe4>
    1c3a:	47c0                	lw	s0,12(a5)
    1c3c:	00170693          	addi	a3,a4,1
    1c40:	a7b6                	sh	a3,10(a5)
    1c42:	943a                	add	s0,s0,a4
    1c44:	bc4ff0ef          	jal	ra,1008 <I2C_ReceiveData>
    1c48:	a008                	sb	a0,0(s0)
    1c4a:	b7ad                	j	1bb4 <I2C_FSM+0x4c>
    1c4c:	4581                	li	a1,0
    1c4e:	b72ff0ef          	jal	ra,fc0 <I2C_AcknowledgeConfig>
    1c52:	401c                	lw	a5,0(s0)
    1c54:	27ba                	lhu	a4,10(a5)
    1c56:	47c4                	lw	s1,12(a5)
    1c58:	4b88                	lw	a0,16(a5)
    1c5a:	00170693          	addi	a3,a4,1
    1c5e:	a7b6                	sh	a3,10(a5)
    1c60:	94ba                	add	s1,s1,a4
    1c62:	ba6ff0ef          	jal	ra,1008 <I2C_ReceiveData>
    1c66:	a088                	sb	a0,0(s1)
    1c68:	401c                	lw	a5,0(s0)
    1c6a:	4b88                	lw	a0,16(a5)
    1c6c:	4585                	li	a1,1
    1c6e:	b38ff0ef          	jal	ra,fa6 <I2C_GenerateSTOP>
    1c72:	4008                	lw	a0,0(s0)
    1c74:	007c                	addi	a5,sp,12
    1c76:	4701                	li	a4,0
    1c78:	210c                	lbu	a1,0(a0)
    1c7a:	4948                	lw	a0,20(a0)
    1c7c:	468d                	li	a3,3
    1c7e:	4605                	li	a2,1
    1c80:	6cc010ef          	jal	ra,334c <xTaskGenericNotifyFromISR>
    1c84:	47b2                	lw	a5,12(sp)
    1c86:	c791                	beqz	a5,1c92 <I2C_FSM+0x12a>
    1c88:	e000e7b7          	lui	a5,0xe000e
    1c8c:	6711                	lui	a4,0x4
    1c8e:	20e7a023          	sw	a4,512(a5) # e000e200 <__freertos_irq_stack_top+0xc0009200>
    1c92:	401c                	lw	a5,0(s0)
    1c94:	0007ae23          	sw	zero,28(a5)
    1c98:	bf31                	j	1bb4 <I2C_FSM+0x4c>
    1c9a:	8905                	andi	a0,a0,1
    1c9c:	f0050ce3          	beqz	a0,1bb4 <I2C_FSM+0x4c>
    1ca0:	33cc                	lbu	a1,5(a5)
    1ca2:	4b88                	lw	a0,16(a5)
    1ca4:	4601                	li	a2,0
    1ca6:	b6aff0ef          	jal	ra,1010 <I2C_Send7bitAddress>
    1caa:	401c                	lw	a5,0(s0)
    1cac:	4721                	li	a4,8
    1cae:	b711                	j	1bb2 <I2C_FSM+0x4a>
    1cb0:	40057713          	andi	a4,a0,1024
    1cb4:	c305                	beqz	a4,1cd4 <I2C_FSM+0x16c>
    1cb6:	4b88                	lw	a0,16(a5)
    1cb8:	100005b7          	lui	a1,0x10000
    1cbc:	40058593          	addi	a1,a1,1024 # 10000400 <_data_lma+0xfffb588>
    1cc0:	bbeff0ef          	jal	ra,107e <I2C_ClearFlag>
    1cc4:	401c                	lw	a5,0(s0)
    1cc6:	4585                	li	a1,1
    1cc8:	4b88                	lw	a0,16(a5)
    1cca:	ac2ff0ef          	jal	ra,f8c <I2C_GenerateSTART>
    1cce:	401c                	lw	a5,0(s0)
    1cd0:	471d                	li	a4,7
    1cd2:	b5c5                	j	1bb2 <I2C_FSM+0x4a>
    1cd4:	8909                	andi	a0,a0,2
    1cd6:	ec050fe3          	beqz	a0,1bb4 <I2C_FSM+0x4c>
    1cda:	4b88                	lw	a0,16(a5)
    1cdc:	45e1                	li	a1,24
    1cde:	b44ff0ef          	jal	ra,1022 <I2C_ReadRegister>
    1ce2:	401c                	lw	a5,0(s0)
    1ce4:	23ee                	lhu	a1,6(a5)
    1ce6:	4b88                	lw	a0,16(a5)
    1ce8:	81a1                	srli	a1,a1,0x8
    1cea:	89fd                	andi	a1,a1,31
    1cec:	b18ff0ef          	jal	ra,1004 <I2C_SendData>
    1cf0:	401c                	lw	a5,0(s0)
    1cf2:	4731                	li	a4,12
    1cf4:	bd7d                	j	1bb2 <I2C_FSM+0x4a>
    1cf6:	08057513          	andi	a0,a0,128
    1cfa:	ea050de3          	beqz	a0,1bb4 <I2C_FSM+0x4c>
    1cfe:	23ec                	lbu	a1,6(a5)
    1d00:	4b88                	lw	a0,16(a5)
    1d02:	b02ff0ef          	jal	ra,1004 <I2C_SendData>
    1d06:	401c                	lw	a5,0(s0)
    1d08:	4725                	li	a4,9
    1d0a:	b565                	j	1bb2 <I2C_FSM+0x4a>
    1d0c:	08057513          	andi	a0,a0,128
    1d10:	ea0502e3          	beqz	a0,1bb4 <I2C_FSM+0x4c>
    1d14:	27b6                	lhu	a3,10(a5)
    1d16:	279a                	lhu	a4,8(a5)
    1d18:	00e6fd63          	bgeu	a3,a4,1d32 <I2C_FSM+0x1ca>
    1d1c:	47d8                	lw	a4,12(a5)
    1d1e:	4b88                	lw	a0,16(a5)
    1d20:	9736                	add	a4,a4,a3
    1d22:	230c                	lbu	a1,0(a4)
    1d24:	ae0ff0ef          	jal	ra,1004 <I2C_SendData>
    1d28:	4018                	lw	a4,0(s0)
    1d2a:	273e                	lhu	a5,10(a4)
    1d2c:	0785                	addi	a5,a5,1
    1d2e:	a73e                	sh	a5,10(a4)
    1d30:	b551                	j	1bb4 <I2C_FSM+0x4c>
    1d32:	4729                	li	a4,10
    1d34:	bdbd                	j	1bb2 <I2C_FSM+0x4a>
    1d36:	8911                	andi	a0,a0,4
    1d38:	e6050ee3          	beqz	a0,1bb4 <I2C_FSM+0x4c>
    1d3c:	b73d                	j	1c6a <I2C_FSM+0x102>

00001d3e <InitI2CDMA>:
    1d3e:	fe0fe2ef          	jal	t0,51e <__riscv_save_0>
    1d42:	1101                	addi	sp,sp,-32
    1d44:	4581                	li	a1,0
    1d46:	842a                	mv	s0,a0
    1d48:	c402                	sw	zero,8(sp)
    1d4a:	c602                	sw	zero,12(sp)
    1d4c:	a28ff0ef          	jal	ra,f74 <I2C_Cmd>
    1d50:	400057b7          	lui	a5,0x40005
    1d54:	40078793          	addi	a5,a5,1024 # 40005400 <__freertos_irq_stack_top+0x20000400>
    1d58:	0af41463          	bne	s0,a5,1e00 <InitI2CDMA+0xc2>
    1d5c:	4585                	li	a1,1
    1d5e:	00200537          	lui	a0,0x200
    1d62:	cb8ff0ef          	jal	ra,121a <RCC_APB1PeriphClockCmd>
    1d66:	67e1                	lui	a5,0x18
    1d68:	6a078793          	addi	a5,a5,1696 # 186a0 <_data_lma+0x13828>
    1d6c:	40000713          	li	a4,1024
    1d70:	ca02                	sw	zero,20(sp)
    1d72:	cc02                	sw	zero,24(sp)
    1d74:	ce02                	sw	zero,28(sp)
    1d76:	c83e                	sw	a5,16(sp)
    1d78:	080c                	addi	a1,sp,16
    1d7a:	6791                	lui	a5,0x4
    1d7c:	8522                	mv	a0,s0
    1d7e:	83fc                	sh	a5,22(sp)
    1d80:	86fc                	sh	a5,28(sp)
    1d82:	85f8                	sh	a4,26(sp)
    1d84:	8feff0ef          	jal	ra,e82 <I2C_Init>
    1d88:	4585                	li	a1,1
    1d8a:	8522                	mv	a0,s0
    1d8c:	9e8ff0ef          	jal	ra,f74 <I2C_Cmd>
    1d90:	e00ff0ef          	jal	ra,1390 <xGetEEPROM>
    1d94:	000027b7          	lui	a5,0x2
    1d98:	a2078793          	addi	a5,a5,-1504 # 1a20 <I2C_Master_Revice>
    1d9c:	d11c                	sw	a5,32(a0)
    1d9e:	000027b7          	lui	a5,0x2
    1da2:	200004b7          	lui	s1,0x20000
    1da6:	93478793          	addi	a5,a5,-1740 # 1934 <I2C_Master_Transmit>
    1daa:	0aa4a623          	sw	a0,172(s1) # 200000ac <pEEPROM>
    1dae:	d15c                	sw	a5,36(a0)
    1db0:	400057b7          	lui	a5,0x40005
    1db4:	c900                	sw	s0,16(a0)
    1db6:	000500a3          	sb	zero,1(a0) # 200001 <_data_lma+0x1fb189>
    1dba:	40078793          	addi	a5,a5,1024 # 40005400 <__freertos_irq_stack_top+0x20000400>
    1dbe:	0ac48493          	addi	s1,s1,172
    1dc2:	04f41963          	bne	s0,a5,1e14 <InitI2CDMA+0xd6>
    1dc6:	12f00793          	li	a5,303
    1dca:	847c                	sh	a5,8(sp)
    1dcc:	478d                	li	a5,3
    1dce:	855c                	sb	a5,10(sp)
    1dd0:	0028                	addi	a0,sp,8
    1dd2:	4785                	li	a5,1
    1dd4:	c63e                	sw	a5,12(sp)
    1dd6:	abeff0ef          	jal	ra,1094 <NVIC_Init>
    1dda:	03000793          	li	a5,48
    1dde:	0028                	addi	a0,sp,8
    1de0:	845c                	sb	a5,8(sp)
    1de2:	ab2ff0ef          	jal	ra,1094 <NVIC_Init>
    1de6:	409c                	lw	a5,0(s1)
    1de8:	4581                	li	a1,0
    1dea:	4b88                	lw	a0,16(a5)
    1dec:	9eeff0ef          	jal	ra,fda <I2C_DualAddressCmd>
    1df0:	409c                	lw	a5,0(s1)
    1df2:	4585                	li	a1,1
    1df4:	4b88                	lw	a0,16(a5)
    1df6:	97eff0ef          	jal	ra,f74 <I2C_Cmd>
    1dfa:	6105                	addi	sp,sp,32
    1dfc:	f46fe06f          	j	542 <__riscv_restore_0>
    1e00:	400067b7          	lui	a5,0x40006
    1e04:	80078793          	addi	a5,a5,-2048 # 40005800 <__freertos_irq_stack_top+0x20000800>
    1e08:	f4f41fe3          	bne	s0,a5,1d66 <InitI2CDMA+0x28>
    1e0c:	4585                	li	a1,1
    1e0e:	00400537          	lui	a0,0x400
    1e12:	bf81                	j	1d62 <InitI2CDMA+0x24>
    1e14:	400067b7          	lui	a5,0x40006
    1e18:	80078793          	addi	a5,a5,-2048 # 40005800 <__freertos_irq_stack_top+0x20000800>
    1e1c:	fcf415e3          	bne	s0,a5,1de6 <InitI2CDMA+0xa8>
    1e20:	13100793          	li	a5,305
    1e24:	847c                	sh	a5,8(sp)
    1e26:	478d                	li	a5,3
    1e28:	855c                	sb	a5,10(sp)
    1e2a:	0028                	addi	a0,sp,8
    1e2c:	4785                	li	a5,1
    1e2e:	c63e                	sw	a5,12(sp)
    1e30:	a64ff0ef          	jal	ra,1094 <NVIC_Init>
    1e34:	03200793          	li	a5,50
    1e38:	b75d                	j	1dde <InitI2CDMA+0xa0>

00001e3a <I2C1_EV_IRQHandler>:
    1e3a:	7139                	addi	sp,sp,-64
    1e3c:	de06                	sw	ra,60(sp)
    1e3e:	dc16                	sw	t0,56(sp)
    1e40:	da1a                	sw	t1,52(sp)
    1e42:	d81e                	sw	t2,48(sp)
    1e44:	d62a                	sw	a0,44(sp)
    1e46:	d42e                	sw	a1,40(sp)
    1e48:	d232                	sw	a2,36(sp)
    1e4a:	d036                	sw	a3,32(sp)
    1e4c:	ce3a                	sw	a4,28(sp)
    1e4e:	cc3e                	sw	a5,24(sp)
    1e50:	ca42                	sw	a6,20(sp)
    1e52:	c846                	sw	a7,16(sp)
    1e54:	c672                	sw	t3,12(sp)
    1e56:	c476                	sw	t4,8(sp)
    1e58:	c27a                	sw	t5,4(sp)
    1e5a:	c07e                	sw	t6,0(sp)
    1e5c:	3331                	jal	1b68 <I2C_FSM>
    1e5e:	50f2                	lw	ra,60(sp)
    1e60:	52e2                	lw	t0,56(sp)
    1e62:	5352                	lw	t1,52(sp)
    1e64:	53c2                	lw	t2,48(sp)
    1e66:	5532                	lw	a0,44(sp)
    1e68:	55a2                	lw	a1,40(sp)
    1e6a:	5612                	lw	a2,36(sp)
    1e6c:	5682                	lw	a3,32(sp)
    1e6e:	4772                	lw	a4,28(sp)
    1e70:	47e2                	lw	a5,24(sp)
    1e72:	4852                	lw	a6,20(sp)
    1e74:	48c2                	lw	a7,16(sp)
    1e76:	4e32                	lw	t3,12(sp)
    1e78:	4ea2                	lw	t4,8(sp)
    1e7a:	4f12                	lw	t5,4(sp)
    1e7c:	4f82                	lw	t6,0(sp)
    1e7e:	6121                	addi	sp,sp,64
    1e80:	30200073          	mret

00001e84 <I2C1_ER_IRQHandler>:
    1e84:	7139                	addi	sp,sp,-64
    1e86:	de06                	sw	ra,60(sp)
    1e88:	dc16                	sw	t0,56(sp)
    1e8a:	da1a                	sw	t1,52(sp)
    1e8c:	d81e                	sw	t2,48(sp)
    1e8e:	d62a                	sw	a0,44(sp)
    1e90:	d42e                	sw	a1,40(sp)
    1e92:	d232                	sw	a2,36(sp)
    1e94:	d036                	sw	a3,32(sp)
    1e96:	ce3a                	sw	a4,28(sp)
    1e98:	cc3e                	sw	a5,24(sp)
    1e9a:	ca42                	sw	a6,20(sp)
    1e9c:	c846                	sw	a7,16(sp)
    1e9e:	c672                	sw	t3,12(sp)
    1ea0:	c476                	sw	t4,8(sp)
    1ea2:	c27a                	sw	t5,4(sp)
    1ea4:	c07e                	sw	t6,0(sp)
    1ea6:	31c9                	jal	1b68 <I2C_FSM>
    1ea8:	50f2                	lw	ra,60(sp)
    1eaa:	52e2                	lw	t0,56(sp)
    1eac:	5352                	lw	t1,52(sp)
    1eae:	53c2                	lw	t2,48(sp)
    1eb0:	5532                	lw	a0,44(sp)
    1eb2:	55a2                	lw	a1,40(sp)
    1eb4:	5612                	lw	a2,36(sp)
    1eb6:	5682                	lw	a3,32(sp)
    1eb8:	4772                	lw	a4,28(sp)
    1eba:	47e2                	lw	a5,24(sp)
    1ebc:	4852                	lw	a6,20(sp)
    1ebe:	48c2                	lw	a7,16(sp)
    1ec0:	4e32                	lw	t3,12(sp)
    1ec2:	4ea2                	lw	t4,8(sp)
    1ec4:	4f12                	lw	t5,4(sp)
    1ec6:	4f82                	lw	t6,0(sp)
    1ec8:	6121                	addi	sp,sp,64
    1eca:	30200073          	mret

00001ece <I2C2_EV_IRQHandler>:
    1ece:	7139                	addi	sp,sp,-64
    1ed0:	de06                	sw	ra,60(sp)
    1ed2:	dc16                	sw	t0,56(sp)
    1ed4:	da1a                	sw	t1,52(sp)
    1ed6:	d81e                	sw	t2,48(sp)
    1ed8:	d62a                	sw	a0,44(sp)
    1eda:	d42e                	sw	a1,40(sp)
    1edc:	d232                	sw	a2,36(sp)
    1ede:	d036                	sw	a3,32(sp)
    1ee0:	ce3a                	sw	a4,28(sp)
    1ee2:	cc3e                	sw	a5,24(sp)
    1ee4:	ca42                	sw	a6,20(sp)
    1ee6:	c846                	sw	a7,16(sp)
    1ee8:	c672                	sw	t3,12(sp)
    1eea:	c476                	sw	t4,8(sp)
    1eec:	c27a                	sw	t5,4(sp)
    1eee:	c07e                	sw	t6,0(sp)
    1ef0:	39a5                	jal	1b68 <I2C_FSM>
    1ef2:	50f2                	lw	ra,60(sp)
    1ef4:	52e2                	lw	t0,56(sp)
    1ef6:	5352                	lw	t1,52(sp)
    1ef8:	53c2                	lw	t2,48(sp)
    1efa:	5532                	lw	a0,44(sp)
    1efc:	55a2                	lw	a1,40(sp)
    1efe:	5612                	lw	a2,36(sp)
    1f00:	5682                	lw	a3,32(sp)
    1f02:	4772                	lw	a4,28(sp)
    1f04:	47e2                	lw	a5,24(sp)
    1f06:	4852                	lw	a6,20(sp)
    1f08:	48c2                	lw	a7,16(sp)
    1f0a:	4e32                	lw	t3,12(sp)
    1f0c:	4ea2                	lw	t4,8(sp)
    1f0e:	4f12                	lw	t5,4(sp)
    1f10:	4f82                	lw	t6,0(sp)
    1f12:	6121                	addi	sp,sp,64
    1f14:	30200073          	mret

00001f18 <I2C2_ER_IRQHandler>:
    1f18:	7139                	addi	sp,sp,-64
    1f1a:	de06                	sw	ra,60(sp)
    1f1c:	dc16                	sw	t0,56(sp)
    1f1e:	da1a                	sw	t1,52(sp)
    1f20:	d81e                	sw	t2,48(sp)
    1f22:	d62a                	sw	a0,44(sp)
    1f24:	d42e                	sw	a1,40(sp)
    1f26:	d232                	sw	a2,36(sp)
    1f28:	d036                	sw	a3,32(sp)
    1f2a:	ce3a                	sw	a4,28(sp)
    1f2c:	cc3e                	sw	a5,24(sp)
    1f2e:	ca42                	sw	a6,20(sp)
    1f30:	c846                	sw	a7,16(sp)
    1f32:	c672                	sw	t3,12(sp)
    1f34:	c476                	sw	t4,8(sp)
    1f36:	c27a                	sw	t5,4(sp)
    1f38:	c07e                	sw	t6,0(sp)
    1f3a:	313d                	jal	1b68 <I2C_FSM>
    1f3c:	50f2                	lw	ra,60(sp)
    1f3e:	52e2                	lw	t0,56(sp)
    1f40:	5352                	lw	t1,52(sp)
    1f42:	53c2                	lw	t2,48(sp)
    1f44:	5532                	lw	a0,44(sp)
    1f46:	55a2                	lw	a1,40(sp)
    1f48:	5612                	lw	a2,36(sp)
    1f4a:	5682                	lw	a3,32(sp)
    1f4c:	4772                	lw	a4,28(sp)
    1f4e:	47e2                	lw	a5,24(sp)
    1f50:	4852                	lw	a6,20(sp)
    1f52:	48c2                	lw	a7,16(sp)
    1f54:	4e32                	lw	t3,12(sp)
    1f56:	4ea2                	lw	t4,8(sp)
    1f58:	4f12                	lw	t5,4(sp)
    1f5a:	4f82                	lw	t6,0(sp)
    1f5c:	6121                	addi	sp,sp,64
    1f5e:	30200073          	mret

00001f62 <RTC_IRQHandler>:
    1f62:	dbcfe2ef          	jal	t0,51e <__riscv_save_0>
    1f66:	4505                	li	a0,1
    1f68:	ae4ff0ef          	jal	ra,124c <RTC_GetITStatus>
    1f6c:	4785                	li	a5,1
    1f6e:	00f51a63          	bne	a0,a5,1f82 <RTC_IRQHandler+0x20>
    1f72:	200007b7          	lui	a5,0x20000
    1f76:	0b07a783          	lw	a5,176(a5) # 200000b0 <func>
    1f7a:	9782                	jalr	a5
    1f7c:	4505                	li	a0,1
    1f7e:	aeeff0ef          	jal	ra,126c <RTC_ClearITPendingBit>
    1f82:	dc0fe06f          	j	542 <__riscv_restore_0>

00001f86 <TIM4_IRQHandler>:
    1f86:	715d                	addi	sp,sp,-80
    1f88:	de22                	sw	s0,60(sp)
    1f8a:	40001437          	lui	s0,0x40001
    1f8e:	dc2a                	sw	a0,56(sp)
    1f90:	da2e                	sw	a1,52(sp)
    1f92:	80040513          	addi	a0,s0,-2048 # 40000800 <__freertos_irq_stack_top+0x1fffb800>
    1f96:	4585                	li	a1,1
    1f98:	d23e                	sw	a5,36(sp)
    1f9a:	c686                	sw	ra,76(sp)
    1f9c:	c496                	sw	t0,72(sp)
    1f9e:	c29a                	sw	t1,68(sp)
    1fa0:	c09e                	sw	t2,64(sp)
    1fa2:	d832                	sw	a2,48(sp)
    1fa4:	d636                	sw	a3,44(sp)
    1fa6:	d43a                	sw	a4,40(sp)
    1fa8:	d042                	sw	a6,32(sp)
    1faa:	ce46                	sw	a7,28(sp)
    1fac:	cc72                	sw	t3,24(sp)
    1fae:	ca76                	sw	t4,20(sp)
    1fb0:	c87a                	sw	t5,16(sp)
    1fb2:	c67e                	sw	t6,12(sp)
    1fb4:	ac2ff0ef          	jal	ra,1276 <TIM_GetITStatus>
    1fb8:	4785                	li	a5,1
    1fba:	00f51a63          	bne	a0,a5,1fce <TIM4_IRQHandler+0x48>
    1fbe:	2d01a783          	lw	a5,720(gp) # 20000b50 <config+0x2c>
    1fc2:	9782                	jalr	a5
    1fc4:	4585                	li	a1,1
    1fc6:	80040513          	addi	a0,s0,-2048
    1fca:	ac4ff0ef          	jal	ra,128e <TIM_ClearITPendingBit>
    1fce:	5472                	lw	s0,60(sp)
    1fd0:	40b6                	lw	ra,76(sp)
    1fd2:	42a6                	lw	t0,72(sp)
    1fd4:	4316                	lw	t1,68(sp)
    1fd6:	4386                	lw	t2,64(sp)
    1fd8:	5562                	lw	a0,56(sp)
    1fda:	55d2                	lw	a1,52(sp)
    1fdc:	5642                	lw	a2,48(sp)
    1fde:	56b2                	lw	a3,44(sp)
    1fe0:	5722                	lw	a4,40(sp)
    1fe2:	5792                	lw	a5,36(sp)
    1fe4:	5802                	lw	a6,32(sp)
    1fe6:	48f2                	lw	a7,28(sp)
    1fe8:	4e62                	lw	t3,24(sp)
    1fea:	4ed2                	lw	t4,20(sp)
    1fec:	4f42                	lw	t5,16(sp)
    1fee:	4fb2                	lw	t6,12(sp)
    1ff0:	6161                	addi	sp,sp,80
    1ff2:	30200073          	mret

00001ff6 <TIM3_IRQHandler>:
    1ff6:	715d                	addi	sp,sp,-80
    1ff8:	de22                	sw	s0,60(sp)
    1ffa:	40000437          	lui	s0,0x40000
    1ffe:	dc2a                	sw	a0,56(sp)
    2000:	da2e                	sw	a1,52(sp)
    2002:	40040513          	addi	a0,s0,1024 # 40000400 <__freertos_irq_stack_top+0x1fffb400>
    2006:	4585                	li	a1,1
    2008:	d23e                	sw	a5,36(sp)
    200a:	c686                	sw	ra,76(sp)
    200c:	c496                	sw	t0,72(sp)
    200e:	c29a                	sw	t1,68(sp)
    2010:	c09e                	sw	t2,64(sp)
    2012:	d832                	sw	a2,48(sp)
    2014:	d636                	sw	a3,44(sp)
    2016:	d43a                	sw	a4,40(sp)
    2018:	d042                	sw	a6,32(sp)
    201a:	ce46                	sw	a7,28(sp)
    201c:	cc72                	sw	t3,24(sp)
    201e:	ca76                	sw	t4,20(sp)
    2020:	c87a                	sw	t5,16(sp)
    2022:	c67e                	sw	t6,12(sp)
    2024:	a52ff0ef          	jal	ra,1276 <TIM_GetITStatus>
    2028:	4785                	li	a5,1
    202a:	00f51a63          	bne	a0,a5,203e <TIM3_IRQHandler+0x48>
    202e:	2c41a783          	lw	a5,708(gp) # 20000b44 <config+0x20>
    2032:	9782                	jalr	a5
    2034:	4585                	li	a1,1
    2036:	40040513          	addi	a0,s0,1024
    203a:	a54ff0ef          	jal	ra,128e <TIM_ClearITPendingBit>
    203e:	5472                	lw	s0,60(sp)
    2040:	40b6                	lw	ra,76(sp)
    2042:	42a6                	lw	t0,72(sp)
    2044:	4316                	lw	t1,68(sp)
    2046:	4386                	lw	t2,64(sp)
    2048:	5562                	lw	a0,56(sp)
    204a:	55d2                	lw	a1,52(sp)
    204c:	5642                	lw	a2,48(sp)
    204e:	56b2                	lw	a3,44(sp)
    2050:	5722                	lw	a4,40(sp)
    2052:	5792                	lw	a5,36(sp)
    2054:	5802                	lw	a6,32(sp)
    2056:	48f2                	lw	a7,28(sp)
    2058:	4e62                	lw	t3,24(sp)
    205a:	4ed2                	lw	t4,20(sp)
    205c:	4f42                	lw	t5,16(sp)
    205e:	4fb2                	lw	t6,12(sp)
    2060:	6161                	addi	sp,sp,80
    2062:	30200073          	mret

00002066 <TIM2_IRQHandler>:
    2066:	7139                	addi	sp,sp,-64
    2068:	d62a                	sw	a0,44(sp)
    206a:	d42e                	sw	a1,40(sp)
    206c:	40000537          	lui	a0,0x40000
    2070:	4585                	li	a1,1
    2072:	cc3e                	sw	a5,24(sp)
    2074:	de06                	sw	ra,60(sp)
    2076:	dc16                	sw	t0,56(sp)
    2078:	da1a                	sw	t1,52(sp)
    207a:	d81e                	sw	t2,48(sp)
    207c:	d232                	sw	a2,36(sp)
    207e:	d036                	sw	a3,32(sp)
    2080:	ce3a                	sw	a4,28(sp)
    2082:	ca42                	sw	a6,20(sp)
    2084:	c846                	sw	a7,16(sp)
    2086:	c672                	sw	t3,12(sp)
    2088:	c476                	sw	t4,8(sp)
    208a:	c27a                	sw	t5,4(sp)
    208c:	c07e                	sw	t6,0(sp)
    208e:	9e8ff0ef          	jal	ra,1276 <TIM_GetITStatus>
    2092:	4785                	li	a5,1
    2094:	00f51a63          	bne	a0,a5,20a8 <TIM2_IRQHandler+0x42>
    2098:	2b81a783          	lw	a5,696(gp) # 20000b38 <config+0x14>
    209c:	9782                	jalr	a5
    209e:	4585                	li	a1,1
    20a0:	40000537          	lui	a0,0x40000
    20a4:	9eaff0ef          	jal	ra,128e <TIM_ClearITPendingBit>
    20a8:	50f2                	lw	ra,60(sp)
    20aa:	52e2                	lw	t0,56(sp)
    20ac:	5352                	lw	t1,52(sp)
    20ae:	53c2                	lw	t2,48(sp)
    20b0:	5532                	lw	a0,44(sp)
    20b2:	55a2                	lw	a1,40(sp)
    20b4:	5612                	lw	a2,36(sp)
    20b6:	5682                	lw	a3,32(sp)
    20b8:	4772                	lw	a4,28(sp)
    20ba:	47e2                	lw	a5,24(sp)
    20bc:	4852                	lw	a6,20(sp)
    20be:	48c2                	lw	a7,16(sp)
    20c0:	4e32                	lw	t3,12(sp)
    20c2:	4ea2                	lw	t4,8(sp)
    20c4:	4f12                	lw	t5,4(sp)
    20c6:	4f82                	lw	t6,0(sp)
    20c8:	6121                	addi	sp,sp,64
    20ca:	30200073          	mret

000020ce <prvInsertBlockIntoFreeList>:
    20ce:	200007b7          	lui	a5,0x20000
    20d2:	0c478793          	addi	a5,a5,196 # 200000c4 <xStart>
    20d6:	4398                	lw	a4,0(a5)
    20d8:	02a76f63          	bltu	a4,a0,2116 <prvInsertBlockIntoFreeList+0x48>
    20dc:	43d0                	lw	a2,4(a5)
    20de:	00c786b3          	add	a3,a5,a2
    20e2:	00d51663          	bne	a0,a3,20ee <prvInsertBlockIntoFreeList+0x20>
    20e6:	4154                	lw	a3,4(a0)
    20e8:	853e                	mv	a0,a5
    20ea:	96b2                	add	a3,a3,a2
    20ec:	c3d4                	sw	a3,4(a5)
    20ee:	4150                	lw	a2,4(a0)
    20f0:	00c506b3          	add	a3,a0,a2
    20f4:	00d71c63          	bne	a4,a3,210c <prvInsertBlockIntoFreeList+0x3e>
    20f8:	200006b7          	lui	a3,0x20000
    20fc:	0b46a683          	lw	a3,180(a3) # 200000b4 <pxEnd>
    2100:	00d70663          	beq	a4,a3,210c <prvInsertBlockIntoFreeList+0x3e>
    2104:	4354                	lw	a3,4(a4)
    2106:	4318                	lw	a4,0(a4)
    2108:	96b2                	add	a3,a3,a2
    210a:	c154                	sw	a3,4(a0)
    210c:	c118                	sw	a4,0(a0)
    210e:	00f50363          	beq	a0,a5,2114 <prvInsertBlockIntoFreeList+0x46>
    2112:	c388                	sw	a0,0(a5)
    2114:	8082                	ret
    2116:	87ba                	mv	a5,a4
    2118:	bf7d                	j	20d6 <prvInsertBlockIntoFreeList+0x8>

0000211a <vPortFree>:
    211a:	c155                	beqz	a0,21be <vPortFree+0xa4>
    211c:	c02fe2ef          	jal	t0,51e <__riscv_save_0>
    2120:	200007b7          	lui	a5,0x20000
    2124:	ff452703          	lw	a4,-12(a0) # 3ffffff4 <__freertos_irq_stack_top+0x1fffaff4>
    2128:	0b87a783          	lw	a5,184(a5) # 200000b8 <xBlockAllocatedBit>
    212c:	842a                	mv	s0,a0
    212e:	00f776b3          	and	a3,a4,a5
    2132:	e29d                	bnez	a3,2158 <vPortFree+0x3e>
    2134:	6789                	lui	a5,0x2
    2136:	80078793          	addi	a5,a5,-2048 # 1800 <HAL_InitGpioRCC+0x34>
    213a:	30079073          	csrw	mstatus,a5
    213e:	00005637          	lui	a2,0x5
    2142:	00005537          	lui	a0,0x5
    2146:	cd860613          	addi	a2,a2,-808 # 4cd8 <_read+0xbe>
    214a:	12400593          	li	a1,292
    214e:	d0050513          	addi	a0,a0,-768 # 4d00 <_read+0xe6>
    2152:	27d010ef          	jal	ra,3bce <iprintf>
    2156:	a001                	j	2156 <vPortFree+0x3c>
    2158:	ff052683          	lw	a3,-16(a0)
    215c:	c29d                	beqz	a3,2182 <vPortFree+0x68>
    215e:	6789                	lui	a5,0x2
    2160:	80078793          	addi	a5,a5,-2048 # 1800 <HAL_InitGpioRCC+0x34>
    2164:	30079073          	csrw	mstatus,a5
    2168:	00005637          	lui	a2,0x5
    216c:	00005537          	lui	a0,0x5
    2170:	cd860613          	addi	a2,a2,-808 # 4cd8 <_read+0xbe>
    2174:	12500593          	li	a1,293
    2178:	d0050513          	addi	a0,a0,-768 # 4d00 <_read+0xe6>
    217c:	253010ef          	jal	ra,3bce <iprintf>
    2180:	a001                	j	2180 <vPortFree+0x66>
    2182:	fff7c793          	not	a5,a5
    2186:	8ff9                	and	a5,a5,a4
    2188:	fef52a23          	sw	a5,-12(a0)
    218c:	253000ef          	jal	ra,2bde <vTaskSuspendAll>
    2190:	200007b7          	lui	a5,0x20000
    2194:	0bc78793          	addi	a5,a5,188 # 200000bc <xFreeBytesRemaining>
    2198:	4394                	lw	a3,0(a5)
    219a:	ff442703          	lw	a4,-12(s0)
    219e:	ff040513          	addi	a0,s0,-16
    21a2:	9736                	add	a4,a4,a3
    21a4:	c398                	sw	a4,0(a5)
    21a6:	3725                	jal	20ce <prvInsertBlockIntoFreeList>
    21a8:	200007b7          	lui	a5,0x20000
    21ac:	0c078793          	addi	a5,a5,192 # 200000c0 <xNumberOfSuccessfulFrees>
    21b0:	4398                	lw	a4,0(a5)
    21b2:	0705                	addi	a4,a4,1
    21b4:	c398                	sw	a4,0(a5)
    21b6:	3eb000ef          	jal	ra,2da0 <xTaskResumeAll>
    21ba:	b88fe06f          	j	542 <__riscv_restore_0>
    21be:	8082                	ret

000021c0 <vPortSetupTimerInterrupt>:
    21c0:	e000e7b7          	lui	a5,0xe000e
    21c4:	5741                	li	a4,-16
    21c6:	40e78723          	sb	a4,1038(a5) # e000e40e <__freertos_irq_stack_top+0xc000940e>
    21ca:	40e78623          	sb	a4,1036(a5)
    21ce:	e000f7b7          	lui	a5,0xe000f
    21d2:	0007a023          	sw	zero,0(a5) # e000f000 <__freertos_irq_stack_top+0xc000a000>
    21d6:	0007a223          	sw	zero,4(a5)
    21da:	4681                	li	a3,0
    21dc:	c794                	sw	a3,8(a5)
    21de:	4701                	li	a4,0
    21e0:	c7d8                	sw	a4,12(a5)
    21e2:	20000737          	lui	a4,0x20000
    21e6:	08072583          	lw	a1,128(a4) # 20000080 <SystemCoreClock>
    21ea:	3e800713          	li	a4,1000
    21ee:	4681                	li	a3,0
    21f0:	02e5d633          	divu	a2,a1,a4
    21f4:	473d                	li	a4,15
    21f6:	cb90                	sw	a2,16(a5)
    21f8:	cbd4                	sw	a3,20(a5)
    21fa:	c398                	sw	a4,0(a5)
    21fc:	8082                	ret

000021fe <xPortStartScheduler>:
    21fe:	b20fe2ef          	jal	t0,51e <__riscv_save_0>
    2202:	1141                	addi	sp,sp,-16
    2204:	c602                	sw	zero,12(sp)
    2206:	305027f3          	csrr	a5,mtvec
    220a:	c63e                	sw	a5,12(sp)
    220c:	47b2                	lw	a5,12(sp)
    220e:	470d                	li	a4,3
    2210:	8b8d                	andi	a5,a5,3
    2212:	02e78463          	beq	a5,a4,223a <xPortStartScheduler+0x3c>
    2216:	6789                	lui	a5,0x2
    2218:	80078793          	addi	a5,a5,-2048 # 1800 <HAL_InitGpioRCC+0x34>
    221c:	30079073          	csrw	mstatus,a5
    2220:	00005637          	lui	a2,0x5
    2224:	00005537          	lui	a0,0x5
    2228:	d2460613          	addi	a2,a2,-732 # 4d24 <_read+0x10a>
    222c:	0b600593          	li	a1,182
    2230:	d0050513          	addi	a0,a0,-768 # 4d00 <_read+0xe6>
    2234:	19b010ef          	jal	ra,3bce <iprintf>
    2238:	a001                	j	2238 <xPortStartScheduler+0x3a>
    223a:	200057b7          	lui	a5,0x20005
    223e:	00078793          	mv	a5,a5
    2242:	8bbd                	andi	a5,a5,15
    2244:	c39d                	beqz	a5,226a <xPortStartScheduler+0x6c>
    2246:	6789                	lui	a5,0x2
    2248:	80078793          	addi	a5,a5,-2048 # 1800 <HAL_InitGpioRCC+0x34>
    224c:	30079073          	csrw	mstatus,a5
    2250:	00005637          	lui	a2,0x5
    2254:	00005537          	lui	a0,0x5
    2258:	d2460613          	addi	a2,a2,-732 # 4d24 <_read+0x10a>
    225c:	0bb00593          	li	a1,187
    2260:	d0050513          	addi	a0,a0,-768 # 4d00 <_read+0xe6>
    2264:	16b010ef          	jal	ra,3bce <iprintf>
    2268:	a001                	j	2268 <xPortStartScheduler+0x6a>
    226a:	3f99                	jal	21c0 <vPortSetupTimerInterrupt>
    226c:	e000e7b7          	lui	a5,0xe000e
    2270:	6711                	lui	a4,0x4
    2272:	10e7a023          	sw	a4,256(a5) # e000e100 <__freertos_irq_stack_top+0xc0009100>
    2276:	6705                	lui	a4,0x1
    2278:	10e7a023          	sw	a4,256(a5)
    227c:	8001a423          	sw	zero,-2040(gp) # 20000088 <uxCriticalNesting>
    2280:	880fe0ef          	jal	ra,300 <xPortStartFirstTask>
    2284:	4501                	li	a0,0
    2286:	0141                	addi	sp,sp,16
    2288:	abafe06f          	j	542 <__riscv_restore_0>

0000228c <SysTick_Handler>:
    228c:	7139                	addi	sp,sp,-64
    228e:	de06                	sw	ra,60(sp)
    2290:	dc16                	sw	t0,56(sp)
    2292:	da1a                	sw	t1,52(sp)
    2294:	d81e                	sw	t2,48(sp)
    2296:	d62a                	sw	a0,44(sp)
    2298:	d42e                	sw	a1,40(sp)
    229a:	d232                	sw	a2,36(sp)
    229c:	d036                	sw	a3,32(sp)
    229e:	ce3a                	sw	a4,28(sp)
    22a0:	cc3e                	sw	a5,24(sp)
    22a2:	ca42                	sw	a6,20(sp)
    22a4:	c846                	sw	a7,16(sp)
    22a6:	c672                	sw	t3,12(sp)
    22a8:	c476                	sw	t4,8(sp)
    22aa:	c27a                	sw	t5,4(sp)
    22ac:	c07e                	sw	t6,0(sp)
    22ae:	34011173          	csrrw	sp,mscratch,sp
    22b2:	6789                	lui	a5,0x2
    22b4:	80078793          	addi	a5,a5,-2048 # 1800 <HAL_InitGpioRCC+0x34>
    22b8:	30079073          	csrw	mstatus,a5
    22bc:	e000f7b7          	lui	a5,0xe000f
    22c0:	0007a223          	sw	zero,4(a5) # e000f004 <__freertos_irq_stack_top+0xc000a004>
    22c4:	135000ef          	jal	ra,2bf8 <xTaskIncrementTick>
    22c8:	c511                	beqz	a0,22d4 <SysTick_Handler+0x48>
    22ca:	e000e7b7          	lui	a5,0xe000e
    22ce:	6711                	lui	a4,0x4
    22d0:	20e7a023          	sw	a4,512(a5) # e000e200 <__freertos_irq_stack_top+0xc0009200>
    22d4:	6789                	lui	a5,0x2
    22d6:	88878793          	addi	a5,a5,-1912 # 1888 <HAL_InitGpioOut+0xa>
    22da:	30079073          	csrw	mstatus,a5
    22de:	34011173          	csrrw	sp,mscratch,sp
    22e2:	50f2                	lw	ra,60(sp)
    22e4:	52e2                	lw	t0,56(sp)
    22e6:	5352                	lw	t1,52(sp)
    22e8:	53c2                	lw	t2,48(sp)
    22ea:	5532                	lw	a0,44(sp)
    22ec:	55a2                	lw	a1,40(sp)
    22ee:	5612                	lw	a2,36(sp)
    22f0:	5682                	lw	a3,32(sp)
    22f2:	4772                	lw	a4,28(sp)
    22f4:	47e2                	lw	a5,24(sp)
    22f6:	4852                	lw	a6,20(sp)
    22f8:	48c2                	lw	a7,16(sp)
    22fa:	4e32                	lw	t3,12(sp)
    22fc:	4ea2                	lw	t4,8(sp)
    22fe:	4f12                	lw	t5,4(sp)
    2300:	4f82                	lw	t6,0(sp)
    2302:	6121                	addi	sp,sp,64
    2304:	30200073          	mret

00002308 <vPortEnterCritical>:
    2308:	6789                	lui	a5,0x2
    230a:	80078793          	addi	a5,a5,-2048 # 1800 <HAL_InitGpioRCC+0x34>
    230e:	30079073          	csrw	mstatus,a5
    2312:	80818793          	addi	a5,gp,-2040 # 20000088 <uxCriticalNesting>
    2316:	4398                	lw	a4,0(a5)
    2318:	0705                	addi	a4,a4,1
    231a:	c398                	sw	a4,0(a5)
    231c:	8082                	ret

0000231e <vPortExitCritical>:
    231e:	80818713          	addi	a4,gp,-2040 # 20000088 <uxCriticalNesting>
    2322:	431c                	lw	a5,0(a4)
    2324:	e78d                	bnez	a5,234e <vPortExitCritical+0x30>
    2326:	9f8fe2ef          	jal	t0,51e <__riscv_save_0>
    232a:	6789                	lui	a5,0x2
    232c:	80078793          	addi	a5,a5,-2048 # 1800 <HAL_InitGpioRCC+0x34>
    2330:	30079073          	csrw	mstatus,a5
    2334:	00005637          	lui	a2,0x5
    2338:	00005537          	lui	a0,0x5
    233c:	d2460613          	addi	a2,a2,-732 # 4d24 <_read+0x10a>
    2340:	10300593          	li	a1,259
    2344:	d0050513          	addi	a0,a0,-768 # 4d00 <_read+0xe6>
    2348:	087010ef          	jal	ra,3bce <iprintf>
    234c:	a001                	j	234c <vPortExitCritical+0x2e>
    234e:	17fd                	addi	a5,a5,-1
    2350:	c31c                	sw	a5,0(a4)
    2352:	e791                	bnez	a5,235e <vPortExitCritical+0x40>
    2354:	6789                	lui	a5,0x2
    2356:	88878793          	addi	a5,a5,-1912 # 1888 <HAL_InitGpioOut+0xa>
    235a:	30079073          	csrw	mstatus,a5
    235e:	8082                	ret

00002360 <xPortSetInterruptMask>:
    2360:	6509                	lui	a0,0x2
    2362:	80050513          	addi	a0,a0,-2048 # 1800 <HAL_InitGpioRCC+0x34>
    2366:	30051573          	csrrw	a0,mstatus,a0
    236a:	8082                	ret

0000236c <vPortClearInterruptMask>:
    236c:	30051073          	csrw	mstatus,a0
    2370:	8082                	ret

00002372 <vListInitialise>:
    2372:	00850793          	addi	a5,a0,8
    2376:	577d                	li	a4,-1
    2378:	c15c                	sw	a5,4(a0)
    237a:	c518                	sw	a4,8(a0)
    237c:	c55c                	sw	a5,12(a0)
    237e:	c91c                	sw	a5,16(a0)
    2380:	00052023          	sw	zero,0(a0)
    2384:	8082                	ret

00002386 <vListInitialiseItem>:
    2386:	00052823          	sw	zero,16(a0)
    238a:	8082                	ret

0000238c <vListInsert>:
    238c:	4198                	lw	a4,0(a1)
    238e:	56fd                	li	a3,-1
    2390:	00850793          	addi	a5,a0,8
    2394:	00d71e63          	bne	a4,a3,23b0 <vListInsert+0x24>
    2398:	491c                	lw	a5,16(a0)
    239a:	43d8                	lw	a4,4(a5)
    239c:	c1d8                	sw	a4,4(a1)
    239e:	c70c                	sw	a1,8(a4)
    23a0:	c59c                	sw	a5,8(a1)
    23a2:	c3cc                	sw	a1,4(a5)
    23a4:	411c                	lw	a5,0(a0)
    23a6:	c988                	sw	a0,16(a1)
    23a8:	0785                	addi	a5,a5,1
    23aa:	c11c                	sw	a5,0(a0)
    23ac:	8082                	ret
    23ae:	87b6                	mv	a5,a3
    23b0:	43d4                	lw	a3,4(a5)
    23b2:	4290                	lw	a2,0(a3)
    23b4:	fec77de3          	bgeu	a4,a2,23ae <vListInsert+0x22>
    23b8:	b7cd                	j	239a <vListInsert+0xe>

000023ba <uxListRemove>:
    23ba:	4154                	lw	a3,4(a0)
    23bc:	4518                	lw	a4,8(a0)
    23be:	491c                	lw	a5,16(a0)
    23c0:	c698                	sw	a4,8(a3)
    23c2:	c354                	sw	a3,4(a4)
    23c4:	43d4                	lw	a3,4(a5)
    23c6:	00a69363          	bne	a3,a0,23cc <uxListRemove+0x12>
    23ca:	c3d8                	sw	a4,4(a5)
    23cc:	4398                	lw	a4,0(a5)
    23ce:	00052823          	sw	zero,16(a0)
    23d2:	177d                	addi	a4,a4,-1
    23d4:	c398                	sw	a4,0(a5)
    23d6:	4388                	lw	a0,0(a5)
    23d8:	8082                	ret

000023da <prvIsQueueEmpty>:
    23da:	944fe2ef          	jal	t0,51e <__riscv_save_0>
    23de:	1141                	addi	sp,sp,-16
    23e0:	c62a                	sw	a0,12(sp)
    23e2:	371d                	jal	2308 <vPortEnterCritical>
    23e4:	4532                	lw	a0,12(sp)
    23e6:	5d00                	lw	s0,56(a0)
    23e8:	3f1d                	jal	231e <vPortExitCritical>
    23ea:	00143513          	seqz	a0,s0
    23ee:	0141                	addi	sp,sp,16
    23f0:	952fe06f          	j	542 <__riscv_restore_0>

000023f4 <prvCopyDataFromQueue>:
    23f4:	4130                	lw	a2,64(a0)
    23f6:	c215                	beqz	a2,241a <prvCopyDataFromQueue+0x26>
    23f8:	926fe2ef          	jal	t0,51e <__riscv_save_0>
    23fc:	4558                	lw	a4,12(a0)
    23fe:	4514                	lw	a3,8(a0)
    2400:	87aa                	mv	a5,a0
    2402:	9732                	add	a4,a4,a2
    2404:	c558                	sw	a4,12(a0)
    2406:	00d76463          	bltu	a4,a3,240e <prvCopyDataFromQueue+0x1a>
    240a:	4118                	lw	a4,0(a0)
    240c:	c558                	sw	a4,12(a0)
    240e:	852e                	mv	a0,a1
    2410:	47cc                	lw	a1,12(a5)
    2412:	576010ef          	jal	ra,3988 <memcpy>
    2416:	92cfe06f          	j	542 <__riscv_restore_0>
    241a:	8082                	ret

0000241c <prvUnlockQueue>:
    241c:	902fe2ef          	jal	t0,51e <__riscv_save_0>
    2420:	842a                	mv	s0,a0
    2422:	35dd                	jal	2308 <vPortEnterCritical>
    2424:	04544483          	lbu	s1,69(s0)
    2428:	02440913          	addi	s2,s0,36
    242c:	04e2                	slli	s1,s1,0x18
    242e:	84e1                	srai	s1,s1,0x18
    2430:	02904563          	bgtz	s1,245a <prvUnlockQueue+0x3e>
    2434:	57fd                	li	a5,-1
    2436:	04f402a3          	sb	a5,69(s0)
    243a:	35d5                	jal	231e <vPortExitCritical>
    243c:	35f1                	jal	2308 <vPortEnterCritical>
    243e:	04444483          	lbu	s1,68(s0)
    2442:	01040913          	addi	s2,s0,16
    2446:	04e2                	slli	s1,s1,0x18
    2448:	84e1                	srai	s1,s1,0x18
    244a:	02904463          	bgtz	s1,2472 <prvUnlockQueue+0x56>
    244e:	57fd                	li	a5,-1
    2450:	04f40223          	sb	a5,68(s0)
    2454:	35e9                	jal	231e <vPortExitCritical>
    2456:	8ecfe06f          	j	542 <__riscv_restore_0>
    245a:	505c                	lw	a5,36(s0)
    245c:	dfe1                	beqz	a5,2434 <prvUnlockQueue+0x18>
    245e:	854a                	mv	a0,s2
    2460:	459000ef          	jal	ra,30b8 <xTaskRemoveFromEventList>
    2464:	c119                	beqz	a0,246a <prvUnlockQueue+0x4e>
    2466:	5fd000ef          	jal	ra,3262 <vTaskMissedYield>
    246a:	14fd                	addi	s1,s1,-1
    246c:	04e2                	slli	s1,s1,0x18
    246e:	84e1                	srai	s1,s1,0x18
    2470:	b7c1                	j	2430 <prvUnlockQueue+0x14>
    2472:	481c                	lw	a5,16(s0)
    2474:	dfe9                	beqz	a5,244e <prvUnlockQueue+0x32>
    2476:	854a                	mv	a0,s2
    2478:	441000ef          	jal	ra,30b8 <xTaskRemoveFromEventList>
    247c:	c119                	beqz	a0,2482 <prvUnlockQueue+0x66>
    247e:	5e5000ef          	jal	ra,3262 <vTaskMissedYield>
    2482:	14fd                	addi	s1,s1,-1
    2484:	04e2                	slli	s1,s1,0x18
    2486:	84e1                	srai	s1,s1,0x18
    2488:	b7c9                	j	244a <prvUnlockQueue+0x2e>

0000248a <xQueueGenericReset>:
    248a:	894fe2ef          	jal	t0,51e <__riscv_save_0>
    248e:	1141                	addi	sp,sp,-16
    2490:	e11d                	bnez	a0,24b6 <xQueueGenericReset+0x2c>
    2492:	6789                	lui	a5,0x2
    2494:	80078793          	addi	a5,a5,-2048 # 1800 <HAL_InitGpioRCC+0x34>
    2498:	30079073          	csrw	mstatus,a5
    249c:	00005637          	lui	a2,0x5
    24a0:	00005537          	lui	a0,0x5
    24a4:	d4c60613          	addi	a2,a2,-692 # 4d4c <_read+0x132>
    24a8:	11000593          	li	a1,272
    24ac:	d0050513          	addi	a0,a0,-768 # 4d00 <_read+0xe6>
    24b0:	71e010ef          	jal	ra,3bce <iprintf>
    24b4:	a001                	j	24b4 <xQueueGenericReset+0x2a>
    24b6:	5d5c                	lw	a5,60(a0)
    24b8:	c62e                	sw	a1,12(sp)
    24ba:	842a                	mv	s0,a0
    24bc:	c3bd                	beqz	a5,2522 <xQueueGenericReset+0x98>
    24be:	4138                	lw	a4,64(a0)
    24c0:	02e7b7b3          	mulhu	a5,a5,a4
    24c4:	efb9                	bnez	a5,2522 <xQueueGenericReset+0x98>
    24c6:	3589                	jal	2308 <vPortEnterCritical>
    24c8:	4030                	lw	a2,64(s0)
    24ca:	5c58                	lw	a4,60(s0)
    24cc:	4014                	lw	a3,0(s0)
    24ce:	02042c23          	sw	zero,56(s0)
    24d2:	02e607b3          	mul	a5,a2,a4
    24d6:	45b2                	lw	a1,12(sp)
    24d8:	c054                	sw	a3,4(s0)
    24da:	00f68733          	add	a4,a3,a5
    24de:	8f91                	sub	a5,a5,a2
    24e0:	97b6                	add	a5,a5,a3
    24e2:	c45c                	sw	a5,12(s0)
    24e4:	57fd                	li	a5,-1
    24e6:	04f40223          	sb	a5,68(s0)
    24ea:	c418                	sw	a4,8(s0)
    24ec:	04f402a3          	sb	a5,69(s0)
    24f0:	e195                	bnez	a1,2514 <xQueueGenericReset+0x8a>
    24f2:	481c                	lw	a5,16(s0)
    24f4:	cb99                	beqz	a5,250a <xQueueGenericReset+0x80>
    24f6:	01040513          	addi	a0,s0,16
    24fa:	3bf000ef          	jal	ra,30b8 <xTaskRemoveFromEventList>
    24fe:	c511                	beqz	a0,250a <xQueueGenericReset+0x80>
    2500:	e000e7b7          	lui	a5,0xe000e
    2504:	6711                	lui	a4,0x4
    2506:	20e7a023          	sw	a4,512(a5) # e000e200 <__freertos_irq_stack_top+0xc0009200>
    250a:	3d11                	jal	231e <vPortExitCritical>
    250c:	4505                	li	a0,1
    250e:	0141                	addi	sp,sp,16
    2510:	832fe06f          	j	542 <__riscv_restore_0>
    2514:	01040513          	addi	a0,s0,16
    2518:	3da9                	jal	2372 <vListInitialise>
    251a:	02440513          	addi	a0,s0,36
    251e:	3d91                	jal	2372 <vListInitialise>
    2520:	b7ed                	j	250a <xQueueGenericReset+0x80>
    2522:	6789                	lui	a5,0x2
    2524:	80078793          	addi	a5,a5,-2048 # 1800 <HAL_InitGpioRCC+0x34>
    2528:	30079073          	csrw	mstatus,a5
    252c:	00005637          	lui	a2,0x5
    2530:	00005537          	lui	a0,0x5
    2534:	d4c60613          	addi	a2,a2,-692 # 4d4c <_read+0x132>
    2538:	14500593          	li	a1,325
    253c:	d0050513          	addi	a0,a0,-768 # 4d00 <_read+0xe6>
    2540:	68e010ef          	jal	ra,3bce <iprintf>
    2544:	a001                	j	2544 <xQueueGenericReset+0xba>

00002546 <xQueueGenericCreateStatic>:
    2546:	fd9fd2ef          	jal	t0,51e <__riscv_save_0>
    254a:	1101                	addi	sp,sp,-32
    254c:	e29d                	bnez	a3,2572 <xQueueGenericCreateStatic+0x2c>
    254e:	6789                	lui	a5,0x2
    2550:	80078793          	addi	a5,a5,-2048 # 1800 <HAL_InitGpioRCC+0x34>
    2554:	30079073          	csrw	mstatus,a5
    2558:	00005637          	lui	a2,0x5
    255c:	00005537          	lui	a0,0x5
    2560:	d4c60613          	addi	a2,a2,-692 # 4d4c <_read+0x132>
    2564:	15900593          	li	a1,345
    2568:	d0050513          	addi	a0,a0,-768 # 4d00 <_read+0xe6>
    256c:	662010ef          	jal	ra,3bce <iprintf>
    2570:	a001                	j	2570 <xQueueGenericCreateStatic+0x2a>
    2572:	c119                	beqz	a0,2578 <xQueueGenericCreateStatic+0x32>
    2574:	c605                	beqz	a2,259c <xQueueGenericCreateStatic+0x56>
    2576:	e585                	bnez	a1,259e <xQueueGenericCreateStatic+0x58>
    2578:	6789                	lui	a5,0x2
    257a:	80078793          	addi	a5,a5,-2048 # 1800 <HAL_InitGpioRCC+0x34>
    257e:	30079073          	csrw	mstatus,a5
    2582:	00005637          	lui	a2,0x5
    2586:	00005537          	lui	a0,0x5
    258a:	d4c60613          	addi	a2,a2,-692 # 4d4c <_read+0x132>
    258e:	18200593          	li	a1,386
    2592:	d0050513          	addi	a0,a0,-768 # 4d00 <_read+0xe6>
    2596:	638010ef          	jal	ra,3bce <iprintf>
    259a:	a001                	j	259a <xQueueGenericCreateStatic+0x54>
    259c:	fdf1                	bnez	a1,2578 <xQueueGenericCreateStatic+0x32>
    259e:	04800793          	li	a5,72
    25a2:	ce3e                	sw	a5,28(sp)
    25a4:	4772                	lw	a4,28(sp)
    25a6:	02f70463          	beq	a4,a5,25ce <xQueueGenericCreateStatic+0x88>
    25aa:	6789                	lui	a5,0x2
    25ac:	80078793          	addi	a5,a5,-2048 # 1800 <HAL_InitGpioRCC+0x34>
    25b0:	30079073          	csrw	mstatus,a5
    25b4:	00005637          	lui	a2,0x5
    25b8:	00005537          	lui	a0,0x5
    25bc:	d4c60613          	addi	a2,a2,-692 # 4d4c <_read+0x132>
    25c0:	16b00593          	li	a1,363
    25c4:	d0050513          	addi	a0,a0,-768 # 4d00 <_read+0xe6>
    25c8:	606010ef          	jal	ra,3bce <iprintf>
    25cc:	a001                	j	25cc <xQueueGenericCreateStatic+0x86>
    25ce:	47f2                	lw	a5,28(sp)
    25d0:	4785                	li	a5,1
    25d2:	04f68323          	sb	a5,70(a3)
    25d6:	e191                	bnez	a1,25da <xQueueGenericCreateStatic+0x94>
    25d8:	8636                	mv	a2,a3
    25da:	c290                	sw	a2,0(a3)
    25dc:	dec8                	sw	a0,60(a3)
    25de:	c2ac                	sw	a1,64(a3)
    25e0:	8536                	mv	a0,a3
    25e2:	4585                	li	a1,1
    25e4:	c636                	sw	a3,12(sp)
    25e6:	3555                	jal	248a <xQueueGenericReset>
    25e8:	46b2                	lw	a3,12(sp)
    25ea:	6105                	addi	sp,sp,32
    25ec:	8536                	mv	a0,a3
    25ee:	f55fd06f          	j	542 <__riscv_restore_0>

000025f2 <xQueueReceive>:
    25f2:	f05fd2ef          	jal	t0,4f6 <__riscv_save_10>
    25f6:	1101                	addi	sp,sp,-32
    25f8:	c632                	sw	a2,12(sp)
    25fa:	e11d                	bnez	a0,2620 <xQueueReceive+0x2e>
    25fc:	6789                	lui	a5,0x2
    25fe:	80078793          	addi	a5,a5,-2048 # 1800 <HAL_InitGpioRCC+0x34>
    2602:	30079073          	csrw	mstatus,a5
    2606:	00005637          	lui	a2,0x5
    260a:	00005537          	lui	a0,0x5
    260e:	d4c60613          	addi	a2,a2,-692 # 4d4c <_read+0x132>
    2612:	55100593          	li	a1,1361
    2616:	d0050513          	addi	a0,a0,-768 # 4d00 <_read+0xe6>
    261a:	5b4010ef          	jal	ra,3bce <iprintf>
    261e:	a001                	j	261e <xQueueReceive+0x2c>
    2620:	842a                	mv	s0,a0
    2622:	89ae                	mv	s3,a1
    2624:	e58d                	bnez	a1,264e <xQueueReceive+0x5c>
    2626:	413c                	lw	a5,64(a0)
    2628:	c39d                	beqz	a5,264e <xQueueReceive+0x5c>
    262a:	6789                	lui	a5,0x2
    262c:	80078793          	addi	a5,a5,-2048 # 1800 <HAL_InitGpioRCC+0x34>
    2630:	30079073          	csrw	mstatus,a5
    2634:	00005637          	lui	a2,0x5
    2638:	00005537          	lui	a0,0x5
    263c:	d4c60613          	addi	a2,a2,-692 # 4d4c <_read+0x132>
    2640:	55500593          	li	a1,1365
    2644:	d0050513          	addi	a0,a0,-768 # 4d00 <_read+0xe6>
    2648:	586010ef          	jal	ra,3bce <iprintf>
    264c:	a001                	j	264c <xQueueReceive+0x5a>
    264e:	42b000ef          	jal	ra,3278 <xTaskGetSchedulerState>
    2652:	e515                	bnez	a0,267e <xQueueReceive+0x8c>
    2654:	47b2                	lw	a5,12(sp)
    2656:	4901                	li	s2,0
    2658:	c785                	beqz	a5,2680 <xQueueReceive+0x8e>
    265a:	6789                	lui	a5,0x2
    265c:	80078793          	addi	a5,a5,-2048 # 1800 <HAL_InitGpioRCC+0x34>
    2660:	30079073          	csrw	mstatus,a5
    2664:	00005637          	lui	a2,0x5
    2668:	00005537          	lui	a0,0x5
    266c:	d4c60613          	addi	a2,a2,-692 # 4d4c <_read+0x132>
    2670:	55a00593          	li	a1,1370
    2674:	d0050513          	addi	a0,a0,-768 # 4d00 <_read+0xe6>
    2678:	556010ef          	jal	ra,3bce <iprintf>
    267c:	a001                	j	267c <xQueueReceive+0x8a>
    267e:	4901                	li	s2,0
    2680:	5a7d                	li	s4,-1
    2682:	02440a93          	addi	s5,s0,36
    2686:	e000eb37          	lui	s6,0xe000e
    268a:	6b91                	lui	s7,0x4
    268c:	a0b5                	j	26f8 <xQueueReceive+0x106>
    268e:	47b2                	lw	a5,12(sp)
    2690:	e781                	bnez	a5,2698 <xQueueReceive+0xa6>
    2692:	3171                	jal	231e <vPortExitCritical>
    2694:	4501                	li	a0,0
    2696:	a849                	j	2728 <xQueueReceive+0x136>
    2698:	00091563          	bnez	s2,26a2 <xQueueReceive+0xb0>
    269c:	0828                	addi	a0,sp,24
    269e:	2ff000ef          	jal	ra,319c <vTaskInternalSetTimeOutState>
    26a2:	c7dff0ef          	jal	ra,231e <vPortExitCritical>
    26a6:	2b25                	jal	2bde <vTaskSuspendAll>
    26a8:	c61ff0ef          	jal	ra,2308 <vPortEnterCritical>
    26ac:	04444783          	lbu	a5,68(s0)
    26b0:	07e2                	slli	a5,a5,0x18
    26b2:	87e1                	srai	a5,a5,0x18
    26b4:	01479463          	bne	a5,s4,26bc <xQueueReceive+0xca>
    26b8:	04040223          	sb	zero,68(s0)
    26bc:	04544783          	lbu	a5,69(s0)
    26c0:	07e2                	slli	a5,a5,0x18
    26c2:	87e1                	srai	a5,a5,0x18
    26c4:	01479463          	bne	a5,s4,26cc <xQueueReceive+0xda>
    26c8:	040402a3          	sb	zero,69(s0)
    26cc:	c53ff0ef          	jal	ra,231e <vPortExitCritical>
    26d0:	006c                	addi	a1,sp,12
    26d2:	0828                	addi	a0,sp,24
    26d4:	2df000ef          	jal	ra,31b2 <xTaskCheckForTimeOut>
    26d8:	ed39                	bnez	a0,2736 <xQueueReceive+0x144>
    26da:	8522                	mv	a0,s0
    26dc:	39fd                	jal	23da <prvIsQueueEmpty>
    26de:	c921                	beqz	a0,272e <xQueueReceive+0x13c>
    26e0:	45b2                	lw	a1,12(sp)
    26e2:	8556                	mv	a0,s5
    26e4:	117000ef          	jal	ra,2ffa <vTaskPlaceOnEventList>
    26e8:	8522                	mv	a0,s0
    26ea:	3b0d                	jal	241c <prvUnlockQueue>
    26ec:	6b4000ef          	jal	ra,2da0 <xTaskResumeAll>
    26f0:	e119                	bnez	a0,26f6 <xQueueReceive+0x104>
    26f2:	217b2023          	sw	s7,512(s6) # e000e200 <__freertos_irq_stack_top+0xc0009200>
    26f6:	4905                	li	s2,1
    26f8:	c11ff0ef          	jal	ra,2308 <vPortEnterCritical>
    26fc:	5c04                	lw	s1,56(s0)
    26fe:	d8c1                	beqz	s1,268e <xQueueReceive+0x9c>
    2700:	85ce                	mv	a1,s3
    2702:	8522                	mv	a0,s0
    2704:	14fd                	addi	s1,s1,-1
    2706:	31fd                	jal	23f4 <prvCopyDataFromQueue>
    2708:	dc04                	sw	s1,56(s0)
    270a:	481c                	lw	a5,16(s0)
    270c:	cb99                	beqz	a5,2722 <xQueueReceive+0x130>
    270e:	01040513          	addi	a0,s0,16
    2712:	1a7000ef          	jal	ra,30b8 <xTaskRemoveFromEventList>
    2716:	c511                	beqz	a0,2722 <xQueueReceive+0x130>
    2718:	e000e7b7          	lui	a5,0xe000e
    271c:	6711                	lui	a4,0x4
    271e:	20e7a023          	sw	a4,512(a5) # e000e200 <__freertos_irq_stack_top+0xc0009200>
    2722:	bfdff0ef          	jal	ra,231e <vPortExitCritical>
    2726:	4505                	li	a0,1
    2728:	6105                	addi	sp,sp,32
    272a:	e05fd06f          	j	52e <__riscv_restore_10>
    272e:	8522                	mv	a0,s0
    2730:	31f5                	jal	241c <prvUnlockQueue>
    2732:	25bd                	jal	2da0 <xTaskResumeAll>
    2734:	b7c9                	j	26f6 <xQueueReceive+0x104>
    2736:	8522                	mv	a0,s0
    2738:	31d5                	jal	241c <prvUnlockQueue>
    273a:	259d                	jal	2da0 <xTaskResumeAll>
    273c:	8522                	mv	a0,s0
    273e:	3971                	jal	23da <prvIsQueueEmpty>
    2740:	d95d                	beqz	a0,26f6 <xQueueReceive+0x104>
    2742:	bf89                	j	2694 <xQueueReceive+0xa2>

00002744 <vQueueAddToRegistry>:
    2744:	e515                	bnez	a0,2770 <vQueueAddToRegistry+0x2c>
    2746:	dd9fd2ef          	jal	t0,51e <__riscv_save_0>
    274a:	6789                	lui	a5,0x2
    274c:	80078793          	addi	a5,a5,-2048 # 1800 <HAL_InitGpioRCC+0x34>
    2750:	30079073          	csrw	mstatus,a5
    2754:	00005637          	lui	a2,0x5
    2758:	6585                	lui	a1,0x1
    275a:	00005537          	lui	a0,0x5
    275e:	d4c60613          	addi	a2,a2,-692 # 4d4c <_read+0x132>
    2762:	ac858593          	addi	a1,a1,-1336 # ac8 <handle_reset+0x48>
    2766:	d0050513          	addi	a0,a0,-768 # 4d00 <_read+0xe6>
    276a:	464010ef          	jal	ra,3bce <iprintf>
    276e:	a001                	j	276e <vQueueAddToRegistry+0x2a>
    2770:	cd8d                	beqz	a1,27aa <vQueueAddToRegistry+0x66>
    2772:	2e018693          	addi	a3,gp,736 # 20000b60 <xQueueRegistry>
    2776:	4781                	li	a5,0
    2778:	4701                	li	a4,0
    277a:	2e018613          	addi	a2,gp,736 # 20000b60 <xQueueRegistry>
    277e:	4821                	li	a6,8
    2780:	0046a883          	lw	a7,4(a3)
    2784:	00a89863          	bne	a7,a0,2794 <vQueueAddToRegistry+0x50>
    2788:	00371793          	slli	a5,a4,0x3
    278c:	97b2                	add	a5,a5,a2
    278e:	c38c                	sw	a1,0(a5)
    2790:	c3c8                	sw	a0,4(a5)
    2792:	a821                	j	27aa <vQueueAddToRegistry+0x66>
    2794:	e791                	bnez	a5,27a0 <vQueueAddToRegistry+0x5c>
    2796:	0006a883          	lw	a7,0(a3)
    279a:	00089363          	bnez	a7,27a0 <vQueueAddToRegistry+0x5c>
    279e:	87b6                	mv	a5,a3
    27a0:	0705                	addi	a4,a4,1
    27a2:	06a1                	addi	a3,a3,8
    27a4:	fd071ee3          	bne	a4,a6,2780 <vQueueAddToRegistry+0x3c>
    27a8:	f3fd                	bnez	a5,278e <vQueueAddToRegistry+0x4a>
    27aa:	8082                	ret

000027ac <vQueueWaitForMessageRestricted>:
    27ac:	d73fd2ef          	jal	t0,51e <__riscv_save_0>
    27b0:	1141                	addi	sp,sp,-16
    27b2:	842a                	mv	s0,a0
    27b4:	c62e                	sw	a1,12(sp)
    27b6:	c432                	sw	a2,8(sp)
    27b8:	b51ff0ef          	jal	ra,2308 <vPortEnterCritical>
    27bc:	04444783          	lbu	a5,68(s0)
    27c0:	577d                	li	a4,-1
    27c2:	4622                	lw	a2,8(sp)
    27c4:	07e2                	slli	a5,a5,0x18
    27c6:	87e1                	srai	a5,a5,0x18
    27c8:	45b2                	lw	a1,12(sp)
    27ca:	00e79463          	bne	a5,a4,27d2 <vQueueWaitForMessageRestricted+0x26>
    27ce:	04040223          	sb	zero,68(s0)
    27d2:	04544783          	lbu	a5,69(s0)
    27d6:	577d                	li	a4,-1
    27d8:	07e2                	slli	a5,a5,0x18
    27da:	87e1                	srai	a5,a5,0x18
    27dc:	00e79463          	bne	a5,a4,27e4 <vQueueWaitForMessageRestricted+0x38>
    27e0:	040402a3          	sb	zero,69(s0)
    27e4:	c632                	sw	a2,12(sp)
    27e6:	c42e                	sw	a1,8(sp)
    27e8:	b37ff0ef          	jal	ra,231e <vPortExitCritical>
    27ec:	5c1c                	lw	a5,56(s0)
    27ee:	45a2                	lw	a1,8(sp)
    27f0:	4632                	lw	a2,12(sp)
    27f2:	e789                	bnez	a5,27fc <vQueueWaitForMessageRestricted+0x50>
    27f4:	02440513          	addi	a0,s0,36
    27f8:	04b000ef          	jal	ra,3042 <vTaskPlaceOnEventListRestricted>
    27fc:	8522                	mv	a0,s0
    27fe:	c1fff0ef          	jal	ra,241c <prvUnlockQueue>
    2802:	0141                	addi	sp,sp,16
    2804:	d3ffd06f          	j	542 <__riscv_restore_0>

00002808 <prvIdleTask>:
    2808:	a001                	j	2808 <prvIdleTask>

0000280a <prvAddNewTaskToReadyList>:
    280a:	cfbfd2ef          	jal	t0,504 <__riscv_save_4>
    280e:	842a                	mv	s0,a0
    2810:	af9ff0ef          	jal	ra,2308 <vPortEnterCritical>
    2814:	200007b7          	lui	a5,0x20000
    2818:	0d878793          	addi	a5,a5,216 # 200000d8 <uxCurrentNumberOfTasks>
    281c:	4398                	lw	a4,0(a5)
    281e:	200004b7          	lui	s1,0x20000
    2822:	0705                	addi	a4,a4,1
    2824:	c398                	sw	a4,0(a5)
    2826:	0cc48713          	addi	a4,s1,204 # 200000cc <pxCurrentTCB>
    282a:	4318                	lw	a4,0(a4)
    282c:	0cc48493          	addi	s1,s1,204
    2830:	32018913          	addi	s2,gp,800 # 20000ba0 <pxReadyTasksLists>
    2834:	e361                	bnez	a4,28f4 <prvAddNewTaskToReadyList+0xea>
    2836:	c080                	sw	s0,0(s1)
    2838:	4398                	lw	a4,0(a5)
    283a:	4785                	li	a5,1
    283c:	04f71863          	bne	a4,a5,288c <prvAddNewTaskToReadyList+0x82>
    2840:	32018993          	addi	s3,gp,800 # 20000ba0 <pxReadyTasksLists>
    2844:	12c90a13          	addi	s4,s2,300
    2848:	854e                	mv	a0,s3
    284a:	09d1                	addi	s3,s3,20
    284c:	b27ff0ef          	jal	ra,2372 <vListInitialise>
    2850:	ff3a1ce3          	bne	s4,s3,2848 <prvAddNewTaskToReadyList+0x3e>
    2854:	44c18a13          	addi	s4,gp,1100 # 20000ccc <xDelayedTaskList1>
    2858:	44c18513          	addi	a0,gp,1100 # 20000ccc <xDelayedTaskList1>
    285c:	b17ff0ef          	jal	ra,2372 <vListInitialise>
    2860:	46018993          	addi	s3,gp,1120 # 20000ce0 <xDelayedTaskList2>
    2864:	46018513          	addi	a0,gp,1120 # 20000ce0 <xDelayedTaskList2>
    2868:	b0bff0ef          	jal	ra,2372 <vListInitialise>
    286c:	47418513          	addi	a0,gp,1140 # 20000cf4 <xPendingReadyList>
    2870:	b03ff0ef          	jal	ra,2372 <vListInitialise>
    2874:	48818513          	addi	a0,gp,1160 # 20000d08 <xSuspendedTaskList>
    2878:	afbff0ef          	jal	ra,2372 <vListInitialise>
    287c:	200007b7          	lui	a5,0x20000
    2880:	0d47a823          	sw	s4,208(a5) # 200000d0 <pxDelayedTaskList>
    2884:	200007b7          	lui	a5,0x20000
    2888:	0d37aa23          	sw	s3,212(a5) # 200000d4 <pxOverflowDelayedTaskList>
    288c:	200007b7          	lui	a5,0x20000
    2890:	0e078793          	addi	a5,a5,224 # 200000e0 <uxTaskNumber>
    2894:	4398                	lw	a4,0(a5)
    2896:	0705                	addi	a4,a4,1
    2898:	c398                	sw	a4,0(a5)
    289a:	20000737          	lui	a4,0x20000
    289e:	0e470713          	addi	a4,a4,228 # 200000e4 <uxTopReadyPriority>
    28a2:	545c                	lw	a5,44(s0)
    28a4:	4314                	lw	a3,0(a4)
    28a6:	00f6f363          	bgeu	a3,a5,28ac <prvAddNewTaskToReadyList+0xa2>
    28aa:	c31c                	sw	a5,0(a4)
    28ac:	4751                	li	a4,20
    28ae:	02e787b3          	mul	a5,a5,a4
    28b2:	97ca                	add	a5,a5,s2
    28b4:	43d8                	lw	a4,4(a5)
    28b6:	4714                	lw	a3,8(a4)
    28b8:	c418                	sw	a4,8(s0)
    28ba:	c454                	sw	a3,12(s0)
    28bc:	4710                	lw	a2,8(a4)
    28be:	00440693          	addi	a3,s0,4
    28c2:	c254                	sw	a3,4(a2)
    28c4:	c714                	sw	a3,8(a4)
    28c6:	4398                	lw	a4,0(a5)
    28c8:	c85c                	sw	a5,20(s0)
    28ca:	0705                	addi	a4,a4,1
    28cc:	c398                	sw	a4,0(a5)
    28ce:	a51ff0ef          	jal	ra,231e <vPortExitCritical>
    28d2:	200007b7          	lui	a5,0x20000
    28d6:	0f47a783          	lw	a5,244(a5) # 200000f4 <xSchedulerRunning>
    28da:	cb99                	beqz	a5,28f0 <prvAddNewTaskToReadyList+0xe6>
    28dc:	409c                	lw	a5,0(s1)
    28de:	57d8                	lw	a4,44(a5)
    28e0:	545c                	lw	a5,44(s0)
    28e2:	00f77763          	bgeu	a4,a5,28f0 <prvAddNewTaskToReadyList+0xe6>
    28e6:	e000e7b7          	lui	a5,0xe000e
    28ea:	6711                	lui	a4,0x4
    28ec:	20e7a023          	sw	a4,512(a5) # e000e200 <__freertos_irq_stack_top+0xc0009200>
    28f0:	c49fd06f          	j	538 <__riscv_restore_4>
    28f4:	200007b7          	lui	a5,0x20000
    28f8:	0f47a783          	lw	a5,244(a5) # 200000f4 <xSchedulerRunning>
    28fc:	fbc1                	bnez	a5,288c <prvAddNewTaskToReadyList+0x82>
    28fe:	409c                	lw	a5,0(s1)
    2900:	57d8                	lw	a4,44(a5)
    2902:	545c                	lw	a5,44(s0)
    2904:	f8e7e4e3          	bltu	a5,a4,288c <prvAddNewTaskToReadyList+0x82>
    2908:	c080                	sw	s0,0(s1)
    290a:	b749                	j	288c <prvAddNewTaskToReadyList+0x82>

0000290c <prvResetNextTaskUnblockTime>:
    290c:	20000737          	lui	a4,0x20000
    2910:	0d070713          	addi	a4,a4,208 # 200000d0 <pxDelayedTaskList>
    2914:	431c                	lw	a5,0(a4)
    2916:	4394                	lw	a3,0(a5)
    2918:	200007b7          	lui	a5,0x20000
    291c:	0e878793          	addi	a5,a5,232 # 200000e8 <xNextTaskUnblockTime>
    2920:	e681                	bnez	a3,2928 <prvResetNextTaskUnblockTime+0x1c>
    2922:	577d                	li	a4,-1
    2924:	c398                	sw	a4,0(a5)
    2926:	8082                	ret
    2928:	4318                	lw	a4,0(a4)
    292a:	4758                	lw	a4,12(a4)
    292c:	4318                	lw	a4,0(a4)
    292e:	bfdd                	j	2924 <prvResetNextTaskUnblockTime+0x18>

00002930 <prvInitialiseNewTask.isra.2>:
    2930:	bd5fd2ef          	jal	t0,504 <__riscv_save_4>
    2934:	1141                	addi	sp,sp,-16
    2936:	89aa                	mv	s3,a0
    2938:	84b2                	mv	s1,a2
    293a:	8442                	mv	s0,a6
    293c:	03082903          	lw	s2,48(a6)
    2940:	c5b1                	beqz	a1,298c <prvInitialiseNewTask.isra.2+0x5c>
    2942:	4601                	li	a2,0
    2944:	4841                	li	a6,16
    2946:	00c58533          	add	a0,a1,a2
    294a:	00050503          	lb	a0,0(a0)
    294e:	00c408b3          	add	a7,s0,a2
    2952:	02a88a23          	sb	a0,52(a7)
    2956:	c501                	beqz	a0,295e <prvInitialiseNewTask.isra.2+0x2e>
    2958:	0605                	addi	a2,a2,1
    295a:	ff0616e3          	bne	a2,a6,2946 <prvInitialiseNewTask.isra.2+0x16>
    295e:	040401a3          	sb	zero,67(s0)
    2962:	4639                	li	a2,14
    2964:	02e67763          	bgeu	a2,a4,2992 <prvInitialiseNewTask.isra.2+0x62>
    2968:	6789                	lui	a5,0x2
    296a:	80078793          	addi	a5,a5,-2048 # 1800 <HAL_InitGpioRCC+0x34>
    296e:	30079073          	csrw	mstatus,a5
    2972:	00005637          	lui	a2,0x5
    2976:	00005537          	lui	a0,0x5
    297a:	d7460613          	addi	a2,a2,-652 # 4d74 <_read+0x15a>
    297e:	39700593          	li	a1,919
    2982:	d0050513          	addi	a0,a0,-768 # 4d00 <_read+0xe6>
    2986:	248010ef          	jal	ra,3bce <iprintf>
    298a:	a001                	j	298a <prvInitialiseNewTask.isra.2+0x5a>
    298c:	02080a23          	sb	zero,52(a6)
    2990:	bfc9                	j	2962 <prvInitialiseNewTask.isra.2+0x32>
    2992:	d458                	sw	a4,44(s0)
    2994:	c078                	sw	a4,68(s0)
    2996:	00440513          	addi	a0,s0,4
    299a:	04042423          	sw	zero,72(s0)
    299e:	c63e                	sw	a5,12(sp)
    29a0:	c436                	sw	a3,8(sp)
    29a2:	c23a                	sw	a4,4(sp)
    29a4:	9e3ff0ef          	jal	ra,2386 <vListInitialiseItem>
    29a8:	01840513          	addi	a0,s0,24
    29ac:	9dbff0ef          	jal	ra,2386 <vListInitialiseItem>
    29b0:	4712                	lw	a4,4(sp)
    29b2:	463d                	li	a2,15
    29b4:	4581                	li	a1,0
    29b6:	40e60733          	sub	a4,a2,a4
    29ba:	cc18                	sw	a4,24(s0)
    29bc:	4631                	li	a2,12
    29be:	c800                	sw	s0,16(s0)
    29c0:	d040                	sw	s0,36(s0)
    29c2:	04c40513          	addi	a0,s0,76
    29c6:	b89fd0ef          	jal	ra,54e <memset>
    29ca:	46a2                	lw	a3,8(sp)
    29cc:	00249513          	slli	a0,s1,0x2
    29d0:	1571                	addi	a0,a0,-4
    29d2:	954a                	add	a0,a0,s2
    29d4:	04040c23          	sb	zero,88(s0)
    29d8:	04040ca3          	sb	zero,89(s0)
    29dc:	04040d23          	sb	zero,90(s0)
    29e0:	8636                	mv	a2,a3
    29e2:	85ce                	mv	a1,s3
    29e4:	9941                	andi	a0,a0,-16
    29e6:	a1bfd0ef          	jal	ra,400 <pxPortInitialiseStack>
    29ea:	47b2                	lw	a5,12(sp)
    29ec:	c008                	sw	a0,0(s0)
    29ee:	c391                	beqz	a5,29f2 <prvInitialiseNewTask.isra.2+0xc2>
    29f0:	c380                	sw	s0,0(a5)
    29f2:	0141                	addi	sp,sp,16
    29f4:	b45fd06f          	j	538 <__riscv_restore_4>

000029f8 <prvAddCurrentTaskToDelayedList>:
    29f8:	b0dfd2ef          	jal	t0,504 <__riscv_save_4>
    29fc:	200004b7          	lui	s1,0x20000
    2a00:	200007b7          	lui	a5,0x20000
    2a04:	0cc48913          	addi	s2,s1,204 # 200000cc <pxCurrentTCB>
    2a08:	0f87a983          	lw	s3,248(a5) # 200000f8 <xTickCount>
    2a0c:	842a                	mv	s0,a0
    2a0e:	00092503          	lw	a0,0(s2)
    2a12:	1141                	addi	sp,sp,-16
    2a14:	c62e                	sw	a1,12(sp)
    2a16:	0511                	addi	a0,a0,4
    2a18:	9a3ff0ef          	jal	ra,23ba <uxListRemove>
    2a1c:	577d                	li	a4,-1
    2a1e:	0cc48793          	addi	a5,s1,204
    2a22:	45b2                	lw	a1,12(sp)
    2a24:	02e41f63          	bne	s0,a4,2a62 <prvAddCurrentTaskToDelayedList+0x6a>
    2a28:	cd8d                	beqz	a1,2a62 <prvAddCurrentTaskToDelayedList+0x6a>
    2a2a:	48818793          	addi	a5,gp,1160 # 20000d08 <xSuspendedTaskList>
    2a2e:	00092683          	lw	a3,0(s2)
    2a32:	43d8                	lw	a4,4(a5)
    2a34:	c698                	sw	a4,8(a3)
    2a36:	4710                	lw	a2,8(a4)
    2a38:	00092683          	lw	a3,0(s2)
    2a3c:	c6d0                	sw	a2,12(a3)
    2a3e:	00092683          	lw	a3,0(s2)
    2a42:	4710                	lw	a2,8(a4)
    2a44:	0691                	addi	a3,a3,4
    2a46:	c254                	sw	a3,4(a2)
    2a48:	00092683          	lw	a3,0(s2)
    2a4c:	0691                	addi	a3,a3,4
    2a4e:	c714                	sw	a3,8(a4)
    2a50:	00092703          	lw	a4,0(s2)
    2a54:	cb5c                	sw	a5,20(a4)
    2a56:	4398                	lw	a4,0(a5)
    2a58:	0705                	addi	a4,a4,1
    2a5a:	c398                	sw	a4,0(a5)
    2a5c:	0141                	addi	sp,sp,16
    2a5e:	adbfd06f          	j	538 <__riscv_restore_4>
    2a62:	4398                	lw	a4,0(a5)
    2a64:	944e                	add	s0,s0,s3
    2a66:	c340                	sw	s0,4(a4)
    2a68:	01347b63          	bgeu	s0,s3,2a7e <prvAddCurrentTaskToDelayedList+0x86>
    2a6c:	20000737          	lui	a4,0x20000
    2a70:	0d472503          	lw	a0,212(a4) # 200000d4 <pxOverflowDelayedTaskList>
    2a74:	438c                	lw	a1,0(a5)
    2a76:	0591                	addi	a1,a1,4
    2a78:	915ff0ef          	jal	ra,238c <vListInsert>
    2a7c:	b7c5                	j	2a5c <prvAddCurrentTaskToDelayedList+0x64>
    2a7e:	20000737          	lui	a4,0x20000
    2a82:	0d072503          	lw	a0,208(a4) # 200000d0 <pxDelayedTaskList>
    2a86:	438c                	lw	a1,0(a5)
    2a88:	0591                	addi	a1,a1,4
    2a8a:	903ff0ef          	jal	ra,238c <vListInsert>
    2a8e:	200007b7          	lui	a5,0x20000
    2a92:	0e878793          	addi	a5,a5,232 # 200000e8 <xNextTaskUnblockTime>
    2a96:	4398                	lw	a4,0(a5)
    2a98:	fce472e3          	bgeu	s0,a4,2a5c <prvAddCurrentTaskToDelayedList+0x64>
    2a9c:	c380                	sw	s0,0(a5)
    2a9e:	bf7d                	j	2a5c <prvAddCurrentTaskToDelayedList+0x64>

00002aa0 <xTaskCreateStatic>:
    2aa0:	a7ffd2ef          	jal	t0,51e <__riscv_save_0>
    2aa4:	1141                	addi	sp,sp,-16
    2aa6:	e39d                	bnez	a5,2acc <xTaskCreateStatic+0x2c>
    2aa8:	6789                	lui	a5,0x2
    2aaa:	80078793          	addi	a5,a5,-2048 # 1800 <HAL_InitGpioRCC+0x34>
    2aae:	30079073          	csrw	mstatus,a5
    2ab2:	00005637          	lui	a2,0x5
    2ab6:	00005537          	lui	a0,0x5
    2aba:	d7460613          	addi	a2,a2,-652 # 4d74 <_read+0x15a>
    2abe:	24a00593          	li	a1,586
    2ac2:	d0050513          	addi	a0,a0,-768 # 4d00 <_read+0xe6>
    2ac6:	108010ef          	jal	ra,3bce <iprintf>
    2aca:	a001                	j	2aca <xTaskCreateStatic+0x2a>
    2acc:	8442                	mv	s0,a6
    2ace:	02081463          	bnez	a6,2af6 <xTaskCreateStatic+0x56>
    2ad2:	6789                	lui	a5,0x2
    2ad4:	80078793          	addi	a5,a5,-2048 # 1800 <HAL_InitGpioRCC+0x34>
    2ad8:	30079073          	csrw	mstatus,a5
    2adc:	00005637          	lui	a2,0x5
    2ae0:	00005537          	lui	a0,0x5
    2ae4:	d7460613          	addi	a2,a2,-652 # 4d74 <_read+0x15a>
    2ae8:	24b00593          	li	a1,587
    2aec:	d0050513          	addi	a0,a0,-768 # 4d00 <_read+0xe6>
    2af0:	0de010ef          	jal	ra,3bce <iprintf>
    2af4:	a001                	j	2af4 <xTaskCreateStatic+0x54>
    2af6:	05c00893          	li	a7,92
    2afa:	c646                	sw	a7,12(sp)
    2afc:	4332                	lw	t1,12(sp)
    2afe:	03130463          	beq	t1,a7,2b26 <xTaskCreateStatic+0x86>
    2b02:	6789                	lui	a5,0x2
    2b04:	80078793          	addi	a5,a5,-2048 # 1800 <HAL_InitGpioRCC+0x34>
    2b08:	30079073          	csrw	mstatus,a5
    2b0c:	00005637          	lui	a2,0x5
    2b10:	00005537          	lui	a0,0x5
    2b14:	d7460613          	addi	a2,a2,-652 # 4d74 <_read+0x15a>
    2b18:	25300593          	li	a1,595
    2b1c:	d0050513          	addi	a0,a0,-768 # 4d00 <_read+0xe6>
    2b20:	0ae010ef          	jal	ra,3bce <iprintf>
    2b24:	a001                	j	2b24 <xTaskCreateStatic+0x84>
    2b26:	48b2                	lw	a7,12(sp)
    2b28:	02f82823          	sw	a5,48(a6)
    2b2c:	4789                	li	a5,2
    2b2e:	04f80da3          	sb	a5,91(a6)
    2b32:	003c                	addi	a5,sp,8
    2b34:	3bf5                	jal	2930 <prvInitialiseNewTask.isra.2>
    2b36:	8522                	mv	a0,s0
    2b38:	cd3ff0ef          	jal	ra,280a <prvAddNewTaskToReadyList>
    2b3c:	4522                	lw	a0,8(sp)
    2b3e:	0141                	addi	sp,sp,16
    2b40:	a03fd06f          	j	542 <__riscv_restore_0>

00002b44 <vTaskStartScheduler>:
    2b44:	9dbfd2ef          	jal	t0,51e <__riscv_save_0>
    2b48:	1141                	addi	sp,sp,-16
    2b4a:	0070                	addi	a2,sp,12
    2b4c:	002c                	addi	a1,sp,8
    2b4e:	0048                	addi	a0,sp,4
    2b50:	c202                	sw	zero,4(sp)
    2b52:	c402                	sw	zero,8(sp)
    2b54:	e6bfd0ef          	jal	ra,9be <vApplicationGetIdleTaskMemory>
    2b58:	4812                	lw	a6,4(sp)
    2b5a:	47a2                	lw	a5,8(sp)
    2b5c:	4632                	lw	a2,12(sp)
    2b5e:	000055b7          	lui	a1,0x5
    2b62:	00003537          	lui	a0,0x3
    2b66:	4701                	li	a4,0
    2b68:	4681                	li	a3,0
    2b6a:	d8858593          	addi	a1,a1,-632 # 4d88 <_read+0x16e>
    2b6e:	80850513          	addi	a0,a0,-2040 # 2808 <prvIdleTask>
    2b72:	373d                	jal	2aa0 <xTaskCreateStatic>
    2b74:	c915                	beqz	a0,2ba8 <vTaskStartScheduler+0x64>
    2b76:	49d000ef          	jal	ra,3812 <xTimerCreateTimerTask>
    2b7a:	4785                	li	a5,1
    2b7c:	02f51b63          	bne	a0,a5,2bb2 <vTaskStartScheduler+0x6e>
    2b80:	6789                	lui	a5,0x2
    2b82:	80078793          	addi	a5,a5,-2048 # 1800 <HAL_InitGpioRCC+0x34>
    2b86:	30079073          	csrw	mstatus,a5
    2b8a:	200007b7          	lui	a5,0x20000
    2b8e:	577d                	li	a4,-1
    2b90:	0ee7a423          	sw	a4,232(a5) # 200000e8 <xNextTaskUnblockTime>
    2b94:	200007b7          	lui	a5,0x20000
    2b98:	0ea7aa23          	sw	a0,244(a5) # 200000f4 <xSchedulerRunning>
    2b9c:	200007b7          	lui	a5,0x20000
    2ba0:	0e07ac23          	sw	zero,248(a5) # 200000f8 <xTickCount>
    2ba4:	e5aff0ef          	jal	ra,21fe <xPortStartScheduler>
    2ba8:	80c1a783          	lw	a5,-2036(gp) # 2000008c <uxTopUsedPriority>
    2bac:	0141                	addi	sp,sp,16
    2bae:	995fd06f          	j	542 <__riscv_restore_0>
    2bb2:	57fd                	li	a5,-1
    2bb4:	fef51ae3          	bne	a0,a5,2ba8 <vTaskStartScheduler+0x64>
    2bb8:	6789                	lui	a5,0x2
    2bba:	80078793          	addi	a5,a5,-2048 # 1800 <HAL_InitGpioRCC+0x34>
    2bbe:	30079073          	csrw	mstatus,a5
    2bc2:	00005637          	lui	a2,0x5
    2bc6:	6585                	lui	a1,0x1
    2bc8:	00005537          	lui	a0,0x5
    2bcc:	d7460613          	addi	a2,a2,-652 # 4d74 <_read+0x15a>
    2bd0:	84058593          	addi	a1,a1,-1984 # 840 <__stack_size+0x40>
    2bd4:	d0050513          	addi	a0,a0,-768 # 4d00 <_read+0xe6>
    2bd8:	7f7000ef          	jal	ra,3bce <iprintf>
    2bdc:	a001                	j	2bdc <vTaskStartScheduler+0x98>

00002bde <vTaskSuspendAll>:
    2bde:	200007b7          	lui	a5,0x20000
    2be2:	0dc78793          	addi	a5,a5,220 # 200000dc <uxSchedulerSuspended>
    2be6:	4398                	lw	a4,0(a5)
    2be8:	0705                	addi	a4,a4,1
    2bea:	c398                	sw	a4,0(a5)
    2bec:	8082                	ret

00002bee <xTaskGetTickCount>:
    2bee:	200007b7          	lui	a5,0x20000
    2bf2:	0f87a503          	lw	a0,248(a5) # 200000f8 <xTickCount>
    2bf6:	8082                	ret

00002bf8 <xTaskIncrementTick>:
    2bf8:	200007b7          	lui	a5,0x20000
    2bfc:	0dc7a783          	lw	a5,220(a5) # 200000dc <uxSchedulerSuspended>
    2c00:	18079763          	bnez	a5,2d8e <xTaskIncrementTick+0x196>
    2c04:	91bfd2ef          	jal	t0,51e <__riscv_save_0>
    2c08:	200007b7          	lui	a5,0x20000
    2c0c:	0f878793          	addi	a5,a5,248 # 200000f8 <xTickCount>
    2c10:	4380                	lw	s0,0(a5)
    2c12:	0405                	addi	s0,s0,1
    2c14:	c380                	sw	s0,0(a5)
    2c16:	ec21                	bnez	s0,2c6e <xTaskIncrementTick+0x76>
    2c18:	200007b7          	lui	a5,0x20000
    2c1c:	0d078793          	addi	a5,a5,208 # 200000d0 <pxDelayedTaskList>
    2c20:	4398                	lw	a4,0(a5)
    2c22:	4318                	lw	a4,0(a4)
    2c24:	c705                	beqz	a4,2c4c <xTaskIncrementTick+0x54>
    2c26:	6789                	lui	a5,0x2
    2c28:	80078793          	addi	a5,a5,-2048 # 1800 <HAL_InitGpioRCC+0x34>
    2c2c:	30079073          	csrw	mstatus,a5
    2c30:	00005637          	lui	a2,0x5
    2c34:	6585                	lui	a1,0x1
    2c36:	00005537          	lui	a0,0x5
    2c3a:	d7460613          	addi	a2,a2,-652 # 4d74 <_read+0x15a>
    2c3e:	ac758593          	addi	a1,a1,-1337 # ac7 <handle_reset+0x47>
    2c42:	d0050513          	addi	a0,a0,-768 # 4d00 <_read+0xe6>
    2c46:	789000ef          	jal	ra,3bce <iprintf>
    2c4a:	a001                	j	2c4a <xTaskIncrementTick+0x52>
    2c4c:	20000737          	lui	a4,0x20000
    2c50:	0d470713          	addi	a4,a4,212 # 200000d4 <pxOverflowDelayedTaskList>
    2c54:	4394                	lw	a3,0(a5)
    2c56:	4310                	lw	a2,0(a4)
    2c58:	c390                	sw	a2,0(a5)
    2c5a:	200007b7          	lui	a5,0x20000
    2c5e:	c314                	sw	a3,0(a4)
    2c60:	0ec78793          	addi	a5,a5,236 # 200000ec <xNumOfOverflows>
    2c64:	4398                	lw	a4,0(a5)
    2c66:	0705                	addi	a4,a4,1
    2c68:	c398                	sw	a4,0(a5)
    2c6a:	ca3ff0ef          	jal	ra,290c <prvResetNextTaskUnblockTime>
    2c6e:	20000637          	lui	a2,0x20000
    2c72:	0e860793          	addi	a5,a2,232 # 200000e8 <xNextTaskUnblockTime>
    2c76:	439c                	lw	a5,0(a5)
    2c78:	200005b7          	lui	a1,0x20000
    2c7c:	0e860613          	addi	a2,a2,232
    2c80:	32018713          	addi	a4,gp,800 # 20000ba0 <pxReadyTasksLists>
    2c84:	0cc58593          	addi	a1,a1,204 # 200000cc <pxCurrentTCB>
    2c88:	4501                	li	a0,0
    2c8a:	02f47563          	bgeu	s0,a5,2cb4 <xTaskIncrementTick+0xbc>
    2c8e:	419c                	lw	a5,0(a1)
    2c90:	46d1                	li	a3,20
    2c92:	57dc                	lw	a5,44(a5)
    2c94:	02d787b3          	mul	a5,a5,a3
    2c98:	973e                	add	a4,a4,a5
    2c9a:	4318                	lw	a4,0(a4)
    2c9c:	4785                	li	a5,1
    2c9e:	00e7f363          	bgeu	a5,a4,2ca4 <xTaskIncrementTick+0xac>
    2ca2:	4505                	li	a0,1
    2ca4:	200007b7          	lui	a5,0x20000
    2ca8:	0fc7a783          	lw	a5,252(a5) # 200000fc <xYieldPending>
    2cac:	c391                	beqz	a5,2cb0 <xTaskIncrementTick+0xb8>
    2cae:	4505                	li	a0,1
    2cb0:	893fd06f          	j	542 <__riscv_restore_0>
    2cb4:	20000e37          	lui	t3,0x20000
    2cb8:	20000eb7          	lui	t4,0x20000
    2cbc:	4f51                	li	t5,20
    2cbe:	0d0e0793          	addi	a5,t3,208 # 200000d0 <pxDelayedTaskList>
    2cc2:	4394                	lw	a3,0(a5)
    2cc4:	4294                	lw	a3,0(a3)
    2cc6:	e681                	bnez	a3,2cce <xTaskIncrementTick+0xd6>
    2cc8:	57fd                	li	a5,-1
    2cca:	c21c                	sw	a5,0(a2)
    2ccc:	b7c9                	j	2c8e <xTaskIncrementTick+0x96>
    2cce:	439c                	lw	a5,0(a5)
    2cd0:	47dc                	lw	a5,12(a5)
    2cd2:	47dc                	lw	a5,12(a5)
    2cd4:	43d4                	lw	a3,4(a5)
    2cd6:	00d47463          	bgeu	s0,a3,2cde <xTaskIncrementTick+0xe6>
    2cda:	c214                	sw	a3,0(a2)
    2cdc:	bf4d                	j	2c8e <xTaskIncrementTick+0x96>
    2cde:	0087a883          	lw	a7,8(a5)
    2ce2:	00c7a803          	lw	a6,12(a5)
    2ce6:	4bd4                	lw	a3,20(a5)
    2ce8:	00478313          	addi	t1,a5,4
    2cec:	0108a423          	sw	a6,8(a7)
    2cf0:	01182223          	sw	a7,4(a6)
    2cf4:	0046a883          	lw	a7,4(a3)
    2cf8:	00689463          	bne	a7,t1,2d00 <xTaskIncrementTick+0x108>
    2cfc:	0106a223          	sw	a6,4(a3)
    2d00:	0006a803          	lw	a6,0(a3)
    2d04:	0007aa23          	sw	zero,20(a5)
    2d08:	187d                	addi	a6,a6,-1
    2d0a:	0106a023          	sw	a6,0(a3)
    2d0e:	5794                	lw	a3,40(a5)
    2d10:	ca95                	beqz	a3,2d44 <xTaskIncrementTick+0x14c>
    2d12:	01c7a803          	lw	a6,28(a5)
    2d16:	0207a883          	lw	a7,32(a5)
    2d1a:	0046af83          	lw	t6,4(a3)
    2d1e:	01182423          	sw	a7,8(a6)
    2d22:	0207a883          	lw	a7,32(a5)
    2d26:	0108a223          	sw	a6,4(a7)
    2d2a:	01878813          	addi	a6,a5,24
    2d2e:	010f9463          	bne	t6,a6,2d36 <xTaskIncrementTick+0x13e>
    2d32:	0116a223          	sw	a7,4(a3)
    2d36:	0006a803          	lw	a6,0(a3)
    2d3a:	0207a423          	sw	zero,40(a5)
    2d3e:	187d                	addi	a6,a6,-1
    2d40:	0106a023          	sw	a6,0(a3)
    2d44:	0e4e8693          	addi	a3,t4,228 # 200000e4 <uxTopReadyPriority>
    2d48:	02c7a803          	lw	a6,44(a5)
    2d4c:	0006a883          	lw	a7,0(a3)
    2d50:	0108f463          	bgeu	a7,a6,2d58 <xTaskIncrementTick+0x160>
    2d54:	0106a023          	sw	a6,0(a3)
    2d58:	03e806b3          	mul	a3,a6,t5
    2d5c:	96ba                	add	a3,a3,a4
    2d5e:	0046a883          	lw	a7,4(a3)
    2d62:	0088af83          	lw	t6,8(a7)
    2d66:	0117a423          	sw	a7,8(a5)
    2d6a:	01f7a623          	sw	t6,12(a5)
    2d6e:	0088af83          	lw	t6,8(a7)
    2d72:	006fa223          	sw	t1,4(t6)
    2d76:	0068a423          	sw	t1,8(a7)
    2d7a:	cbd4                	sw	a3,20(a5)
    2d7c:	429c                	lw	a5,0(a3)
    2d7e:	0785                	addi	a5,a5,1
    2d80:	c29c                	sw	a5,0(a3)
    2d82:	419c                	lw	a5,0(a1)
    2d84:	57dc                	lw	a5,44(a5)
    2d86:	f2f86ce3          	bltu	a6,a5,2cbe <xTaskIncrementTick+0xc6>
    2d8a:	4505                	li	a0,1
    2d8c:	bf0d                	j	2cbe <xTaskIncrementTick+0xc6>
    2d8e:	200007b7          	lui	a5,0x20000
    2d92:	0f078793          	addi	a5,a5,240 # 200000f0 <xPendedTicks>
    2d96:	4398                	lw	a4,0(a5)
    2d98:	4501                	li	a0,0
    2d9a:	0705                	addi	a4,a4,1
    2d9c:	c398                	sw	a4,0(a5)
    2d9e:	8082                	ret

00002da0 <xTaskResumeAll>:
    2da0:	f64fd2ef          	jal	t0,504 <__riscv_save_4>
    2da4:	20000437          	lui	s0,0x20000
    2da8:	0dc40413          	addi	s0,s0,220 # 200000dc <uxSchedulerSuspended>
    2dac:	401c                	lw	a5,0(s0)
    2dae:	1141                	addi	sp,sp,-16
    2db0:	e785                	bnez	a5,2dd8 <xTaskResumeAll+0x38>
    2db2:	6789                	lui	a5,0x2
    2db4:	80078793          	addi	a5,a5,-2048 # 1800 <HAL_InitGpioRCC+0x34>
    2db8:	30079073          	csrw	mstatus,a5
    2dbc:	00005637          	lui	a2,0x5
    2dc0:	6585                	lui	a1,0x1
    2dc2:	00005537          	lui	a0,0x5
    2dc6:	d7460613          	addi	a2,a2,-652 # 4d74 <_read+0x15a>
    2dca:	8b358593          	addi	a1,a1,-1869 # 8b3 <SystemCoreClockUpdate+0x1>
    2dce:	d0050513          	addi	a0,a0,-768 # 4d00 <_read+0xe6>
    2dd2:	5fd000ef          	jal	ra,3bce <iprintf>
    2dd6:	a001                	j	2dd6 <xTaskResumeAll+0x36>
    2dd8:	d30ff0ef          	jal	ra,2308 <vPortEnterCritical>
    2ddc:	401c                	lw	a5,0(s0)
    2dde:	17fd                	addi	a5,a5,-1
    2de0:	c01c                	sw	a5,0(s0)
    2de2:	401c                	lw	a5,0(s0)
    2de4:	cb89                	beqz	a5,2df6 <xTaskResumeAll+0x56>
    2de6:	4501                	li	a0,0
    2de8:	c62a                	sw	a0,12(sp)
    2dea:	d34ff0ef          	jal	ra,231e <vPortExitCritical>
    2dee:	4532                	lw	a0,12(sp)
    2df0:	0141                	addi	sp,sp,16
    2df2:	f46fd06f          	j	538 <__riscv_restore_4>
    2df6:	200007b7          	lui	a5,0x20000
    2dfa:	0d87a783          	lw	a5,216(a5) # 200000d8 <uxCurrentNumberOfTasks>
    2dfe:	d7e5                	beqz	a5,2de6 <xTaskResumeAll+0x46>
    2e00:	4781                	li	a5,0
    2e02:	47418693          	addi	a3,gp,1140 # 20000cf4 <xPendingReadyList>
    2e06:	20000f37          	lui	t5,0x20000
    2e0a:	32018513          	addi	a0,gp,800 # 20000ba0 <pxReadyTasksLists>
    2e0e:	48d1                	li	a7,20
    2e10:	20000337          	lui	t1,0x20000
    2e14:	20000e37          	lui	t3,0x20000
    2e18:	4e85                	li	t4,1
    2e1a:	a859                	j	2eb0 <xTaskResumeAll+0x110>
    2e1c:	46dc                	lw	a5,12(a3)
    2e1e:	47dc                	lw	a5,12(a5)
    2e20:	4fcc                	lw	a1,28(a5)
    2e22:	5390                	lw	a2,32(a5)
    2e24:	5798                	lw	a4,40(a5)
    2e26:	c590                	sw	a2,8(a1)
    2e28:	0207a803          	lw	a6,32(a5)
    2e2c:	00b82223          	sw	a1,4(a6)
    2e30:	00472803          	lw	a6,4(a4)
    2e34:	01878593          	addi	a1,a5,24
    2e38:	00b81363          	bne	a6,a1,2e3e <xTaskResumeAll+0x9e>
    2e3c:	c350                	sw	a2,4(a4)
    2e3e:	4310                	lw	a2,0(a4)
    2e40:	0207a423          	sw	zero,40(a5)
    2e44:	167d                	addi	a2,a2,-1
    2e46:	c310                	sw	a2,0(a4)
    2e48:	478c                	lw	a1,8(a5)
    2e4a:	47d0                	lw	a2,12(a5)
    2e4c:	4bd8                	lw	a4,20(a5)
    2e4e:	00478813          	addi	a6,a5,4
    2e52:	c590                	sw	a2,8(a1)
    2e54:	c24c                	sw	a1,4(a2)
    2e56:	434c                	lw	a1,4(a4)
    2e58:	01059363          	bne	a1,a6,2e5e <xTaskResumeAll+0xbe>
    2e5c:	c350                	sw	a2,4(a4)
    2e5e:	4310                	lw	a2,0(a4)
    2e60:	0007aa23          	sw	zero,20(a5)
    2e64:	167d                	addi	a2,a2,-1
    2e66:	c310                	sw	a2,0(a4)
    2e68:	0e4f0713          	addi	a4,t5,228 # 200000e4 <uxTopReadyPriority>
    2e6c:	57d0                	lw	a2,44(a5)
    2e6e:	430c                	lw	a1,0(a4)
    2e70:	00c5f363          	bgeu	a1,a2,2e76 <xTaskResumeAll+0xd6>
    2e74:	c310                	sw	a2,0(a4)
    2e76:	03160733          	mul	a4,a2,a7
    2e7a:	972a                	add	a4,a4,a0
    2e7c:	434c                	lw	a1,4(a4)
    2e7e:	0085af83          	lw	t6,8(a1)
    2e82:	c78c                	sw	a1,8(a5)
    2e84:	01f7a623          	sw	t6,12(a5)
    2e88:	0085af83          	lw	t6,8(a1)
    2e8c:	010fa223          	sw	a6,4(t6)
    2e90:	0105a423          	sw	a6,8(a1)
    2e94:	430c                	lw	a1,0(a4)
    2e96:	cbd8                	sw	a4,20(a5)
    2e98:	0585                	addi	a1,a1,1
    2e9a:	c30c                	sw	a1,0(a4)
    2e9c:	0cc30713          	addi	a4,t1,204 # 200000cc <pxCurrentTCB>
    2ea0:	4318                	lw	a4,0(a4)
    2ea2:	5758                	lw	a4,44(a4)
    2ea4:	00e66663          	bltu	a2,a4,2eb0 <xTaskResumeAll+0x110>
    2ea8:	0fce0713          	addi	a4,t3,252 # 200000fc <xYieldPending>
    2eac:	01d72023          	sw	t4,0(a4)
    2eb0:	4298                	lw	a4,0(a3)
    2eb2:	f72d                	bnez	a4,2e1c <xTaskResumeAll+0x7c>
    2eb4:	c399                	beqz	a5,2eba <xTaskResumeAll+0x11a>
    2eb6:	a57ff0ef          	jal	ra,290c <prvResetNextTaskUnblockTime>
    2eba:	200007b7          	lui	a5,0x20000
    2ebe:	0f078713          	addi	a4,a5,240 # 200000f0 <xPendedTicks>
    2ec2:	4304                	lw	s1,0(a4)
    2ec4:	0f078413          	addi	s0,a5,240
    2ec8:	cc99                	beqz	s1,2ee6 <xTaskResumeAll+0x146>
    2eca:	20000937          	lui	s2,0x20000
    2ece:	4985                	li	s3,1
    2ed0:	d29ff0ef          	jal	ra,2bf8 <xTaskIncrementTick>
    2ed4:	c509                	beqz	a0,2ede <xTaskResumeAll+0x13e>
    2ed6:	0fc90793          	addi	a5,s2,252 # 200000fc <xYieldPending>
    2eda:	0137a023          	sw	s3,0(a5)
    2ede:	14fd                	addi	s1,s1,-1
    2ee0:	f8e5                	bnez	s1,2ed0 <xTaskResumeAll+0x130>
    2ee2:	00042023          	sw	zero,0(s0)
    2ee6:	200007b7          	lui	a5,0x20000
    2eea:	0fc7a783          	lw	a5,252(a5) # 200000fc <xYieldPending>
    2eee:	ee078ce3          	beqz	a5,2de6 <xTaskResumeAll+0x46>
    2ef2:	e000e7b7          	lui	a5,0xe000e
    2ef6:	6711                	lui	a4,0x4
    2ef8:	20e7a023          	sw	a4,512(a5) # e000e200 <__freertos_irq_stack_top+0xc0009200>
    2efc:	4505                	li	a0,1
    2efe:	b5ed                	j	2de8 <xTaskResumeAll+0x48>

00002f00 <vTaskDelay>:
    2f00:	e519                	bnez	a0,2f0e <vTaskDelay+0xe>
    2f02:	e000e7b7          	lui	a5,0xe000e
    2f06:	6711                	lui	a4,0x4
    2f08:	20e7a023          	sw	a4,512(a5) # e000e200 <__freertos_irq_stack_top+0xc0009200>
    2f0c:	8082                	ret
    2f0e:	e10fd2ef          	jal	t0,51e <__riscv_save_0>
    2f12:	200007b7          	lui	a5,0x20000
    2f16:	0dc7a783          	lw	a5,220(a5) # 200000dc <uxSchedulerSuspended>
    2f1a:	1141                	addi	sp,sp,-16
    2f1c:	c39d                	beqz	a5,2f42 <vTaskDelay+0x42>
    2f1e:	6789                	lui	a5,0x2
    2f20:	80078793          	addi	a5,a5,-2048 # 1800 <HAL_InitGpioRCC+0x34>
    2f24:	30079073          	csrw	mstatus,a5
    2f28:	00005637          	lui	a2,0x5
    2f2c:	00005537          	lui	a0,0x5
    2f30:	d7460613          	addi	a2,a2,-652 # 4d74 <_read+0x15a>
    2f34:	54900593          	li	a1,1353
    2f38:	d0050513          	addi	a0,a0,-768 # 4d00 <_read+0xe6>
    2f3c:	493000ef          	jal	ra,3bce <iprintf>
    2f40:	a001                	j	2f40 <vTaskDelay+0x40>
    2f42:	c62a                	sw	a0,12(sp)
    2f44:	c9bff0ef          	jal	ra,2bde <vTaskSuspendAll>
    2f48:	4532                	lw	a0,12(sp)
    2f4a:	4581                	li	a1,0
    2f4c:	aadff0ef          	jal	ra,29f8 <prvAddCurrentTaskToDelayedList>
    2f50:	3d81                	jal	2da0 <xTaskResumeAll>
    2f52:	e511                	bnez	a0,2f5e <vTaskDelay+0x5e>
    2f54:	e000e7b7          	lui	a5,0xe000e
    2f58:	6711                	lui	a4,0x4
    2f5a:	20e7a023          	sw	a4,512(a5) # e000e200 <__freertos_irq_stack_top+0xc0009200>
    2f5e:	0141                	addi	sp,sp,16
    2f60:	de2fd06f          	j	542 <__riscv_restore_0>

00002f64 <vTaskSwitchContext>:
    2f64:	200007b7          	lui	a5,0x20000
    2f68:	0dc7a703          	lw	a4,220(a5) # 200000dc <uxSchedulerSuspended>
    2f6c:	200007b7          	lui	a5,0x20000
    2f70:	0fc78793          	addi	a5,a5,252 # 200000fc <xYieldPending>
    2f74:	c701                	beqz	a4,2f7c <vTaskSwitchContext+0x18>
    2f76:	4705                	li	a4,1
    2f78:	c398                	sw	a4,0(a5)
    2f7a:	8082                	ret
    2f7c:	0007a023          	sw	zero,0(a5)
    2f80:	200007b7          	lui	a5,0x20000
    2f84:	0e478713          	addi	a4,a5,228 # 200000e4 <uxTopReadyPriority>
    2f88:	4318                	lw	a4,0(a4)
    2f8a:	0e478613          	addi	a2,a5,228
    2f8e:	32018793          	addi	a5,gp,800 # 20000ba0 <pxReadyTasksLists>
    2f92:	4851                	li	a6,20
    2f94:	030706b3          	mul	a3,a4,a6
    2f98:	00d785b3          	add	a1,a5,a3
    2f9c:	4188                	lw	a0,0(a1)
    2f9e:	c515                	beqz	a0,2fca <vTaskSwitchContext+0x66>
    2fa0:	41c8                	lw	a0,4(a1)
    2fa2:	06a1                	addi	a3,a3,8
    2fa4:	96be                	add	a3,a3,a5
    2fa6:	4148                	lw	a0,4(a0)
    2fa8:	c1c8                	sw	a0,4(a1)
    2faa:	00d51463          	bne	a0,a3,2fb2 <vTaskSwitchContext+0x4e>
    2fae:	4154                	lw	a3,4(a0)
    2fb0:	c1d4                	sw	a3,4(a1)
    2fb2:	46d1                	li	a3,20
    2fb4:	02d706b3          	mul	a3,a4,a3
    2fb8:	97b6                	add	a5,a5,a3
    2fba:	43dc                	lw	a5,4(a5)
    2fbc:	47d4                	lw	a3,12(a5)
    2fbe:	200007b7          	lui	a5,0x20000
    2fc2:	0cd7a623          	sw	a3,204(a5) # 200000cc <pxCurrentTCB>
    2fc6:	c218                	sw	a4,0(a2)
    2fc8:	8082                	ret
    2fca:	e715                	bnez	a4,2ff6 <vTaskSwitchContext+0x92>
    2fcc:	d52fd2ef          	jal	t0,51e <__riscv_save_0>
    2fd0:	6789                	lui	a5,0x2
    2fd2:	80078793          	addi	a5,a5,-2048 # 1800 <HAL_InitGpioRCC+0x34>
    2fd6:	30079073          	csrw	mstatus,a5
    2fda:	00005637          	lui	a2,0x5
    2fde:	6585                	lui	a1,0x1
    2fe0:	00005537          	lui	a0,0x5
    2fe4:	d7460613          	addi	a2,a2,-652 # 4d74 <_read+0x15a>
    2fe8:	c0258593          	addi	a1,a1,-1022 # c02 <CAN_ClearITPendingBit+0x38>
    2fec:	d0050513          	addi	a0,a0,-768 # 4d00 <_read+0xe6>
    2ff0:	3df000ef          	jal	ra,3bce <iprintf>
    2ff4:	a001                	j	2ff4 <vTaskSwitchContext+0x90>
    2ff6:	177d                	addi	a4,a4,-1
    2ff8:	bf71                	j	2f94 <vTaskSwitchContext+0x30>

00002ffa <vTaskPlaceOnEventList>:
    2ffa:	d24fd2ef          	jal	t0,51e <__riscv_save_0>
    2ffe:	e505                	bnez	a0,3026 <vTaskPlaceOnEventList+0x2c>
    3000:	6789                	lui	a5,0x2
    3002:	80078793          	addi	a5,a5,-2048 # 1800 <HAL_InitGpioRCC+0x34>
    3006:	30079073          	csrw	mstatus,a5
    300a:	00005637          	lui	a2,0x5
    300e:	6585                	lui	a1,0x1
    3010:	00005537          	lui	a0,0x5
    3014:	d7460613          	addi	a2,a2,-652 # 4d74 <_read+0x15a>
    3018:	c1c58593          	addi	a1,a1,-996 # c1c <CAN_ClearITPendingBit+0x52>
    301c:	d0050513          	addi	a0,a0,-768 # 4d00 <_read+0xe6>
    3020:	3af000ef          	jal	ra,3bce <iprintf>
    3024:	a001                	j	3024 <vTaskPlaceOnEventList+0x2a>
    3026:	200007b7          	lui	a5,0x20000
    302a:	842e                	mv	s0,a1
    302c:	0cc7a583          	lw	a1,204(a5) # 200000cc <pxCurrentTCB>
    3030:	05e1                	addi	a1,a1,24
    3032:	b5aff0ef          	jal	ra,238c <vListInsert>
    3036:	4585                	li	a1,1
    3038:	8522                	mv	a0,s0
    303a:	9bfff0ef          	jal	ra,29f8 <prvAddCurrentTaskToDelayedList>
    303e:	d04fd06f          	j	542 <__riscv_restore_0>

00003042 <vTaskPlaceOnEventListRestricted>:
    3042:	cdcfd2ef          	jal	t0,51e <__riscv_save_0>
    3046:	872a                	mv	a4,a0
    3048:	e505                	bnez	a0,3070 <vTaskPlaceOnEventListRestricted+0x2e>
    304a:	6789                	lui	a5,0x2
    304c:	80078793          	addi	a5,a5,-2048 # 1800 <HAL_InitGpioRCC+0x34>
    3050:	30079073          	csrw	mstatus,a5
    3054:	00005637          	lui	a2,0x5
    3058:	6585                	lui	a1,0x1
    305a:	00005537          	lui	a0,0x5
    305e:	d7460613          	addi	a2,a2,-652 # 4d74 <_read+0x15a>
    3062:	c5258593          	addi	a1,a1,-942 # c52 <CAN_ClearITPendingBit+0x88>
    3066:	d0050513          	addi	a0,a0,-768 # 4d00 <_read+0xe6>
    306a:	365000ef          	jal	ra,3bce <iprintf>
    306e:	a001                	j	306e <vTaskPlaceOnEventListRestricted+0x2c>
    3070:	200007b7          	lui	a5,0x20000
    3074:	0cc78793          	addi	a5,a5,204 # 200000cc <pxCurrentTCB>
    3078:	4354                	lw	a3,4(a4)
    307a:	852e                	mv	a0,a1
    307c:	438c                	lw	a1,0(a5)
    307e:	0086a803          	lw	a6,8(a3)
    3082:	cdd4                	sw	a3,28(a1)
    3084:	438c                	lw	a1,0(a5)
    3086:	0305a023          	sw	a6,32(a1)
    308a:	0007a803          	lw	a6,0(a5)
    308e:	468c                	lw	a1,8(a3)
    3090:	0861                	addi	a6,a6,24
    3092:	0105a223          	sw	a6,4(a1)
    3096:	0007a803          	lw	a6,0(a5)
    309a:	439c                	lw	a5,0(a5)
    309c:	0861                	addi	a6,a6,24
    309e:	0106a423          	sw	a6,8(a3)
    30a2:	d798                	sw	a4,40(a5)
    30a4:	431c                	lw	a5,0(a4)
    30a6:	0785                	addi	a5,a5,1
    30a8:	c31c                	sw	a5,0(a4)
    30aa:	c211                	beqz	a2,30ae <vTaskPlaceOnEventListRestricted+0x6c>
    30ac:	557d                	li	a0,-1
    30ae:	85b2                	mv	a1,a2
    30b0:	949ff0ef          	jal	ra,29f8 <prvAddCurrentTaskToDelayedList>
    30b4:	c8efd06f          	j	542 <__riscv_restore_0>

000030b8 <xTaskRemoveFromEventList>:
    30b8:	455c                	lw	a5,12(a0)
    30ba:	47dc                	lw	a5,12(a5)
    30bc:	e795                	bnez	a5,30e8 <xTaskRemoveFromEventList+0x30>
    30be:	c60fd2ef          	jal	t0,51e <__riscv_save_0>
    30c2:	6789                	lui	a5,0x2
    30c4:	80078793          	addi	a5,a5,-2048 # 1800 <HAL_InitGpioRCC+0x34>
    30c8:	30079073          	csrw	mstatus,a5
    30cc:	00005637          	lui	a2,0x5
    30d0:	6585                	lui	a1,0x1
    30d2:	00005537          	lui	a0,0x5
    30d6:	d7460613          	addi	a2,a2,-652 # 4d74 <_read+0x15a>
    30da:	c8258593          	addi	a1,a1,-894 # c82 <GPIO_Init+0x4>
    30de:	d0050513          	addi	a0,a0,-768 # 4d00 <_read+0xe6>
    30e2:	2ed000ef          	jal	ra,3bce <iprintf>
    30e6:	a001                	j	30e6 <xTaskRemoveFromEventList+0x2e>
    30e8:	4fd0                	lw	a2,28(a5)
    30ea:	5394                	lw	a3,32(a5)
    30ec:	5798                	lw	a4,40(a5)
    30ee:	01878593          	addi	a1,a5,24
    30f2:	c614                	sw	a3,8(a2)
    30f4:	c2d0                	sw	a2,4(a3)
    30f6:	4350                	lw	a2,4(a4)
    30f8:	00b61363          	bne	a2,a1,30fe <xTaskRemoveFromEventList+0x46>
    30fc:	c354                	sw	a3,4(a4)
    30fe:	4314                	lw	a3,0(a4)
    3100:	0207a423          	sw	zero,40(a5)
    3104:	16fd                	addi	a3,a3,-1
    3106:	c314                	sw	a3,0(a4)
    3108:	20000737          	lui	a4,0x20000
    310c:	0dc72703          	lw	a4,220(a4) # 200000dc <uxSchedulerSuspended>
    3110:	57d4                	lw	a3,44(a5)
    3112:	eb35                	bnez	a4,3186 <xTaskRemoveFromEventList+0xce>
    3114:	478c                	lw	a1,8(a5)
    3116:	47d0                	lw	a2,12(a5)
    3118:	4bd8                	lw	a4,20(a5)
    311a:	c590                	sw	a2,8(a1)
    311c:	47d0                	lw	a2,12(a5)
    311e:	4348                	lw	a0,4(a4)
    3120:	c24c                	sw	a1,4(a2)
    3122:	00478593          	addi	a1,a5,4
    3126:	00b51363          	bne	a0,a1,312c <xTaskRemoveFromEventList+0x74>
    312a:	c350                	sw	a2,4(a4)
    312c:	4310                	lw	a2,0(a4)
    312e:	0007aa23          	sw	zero,20(a5)
    3132:	167d                	addi	a2,a2,-1
    3134:	c310                	sw	a2,0(a4)
    3136:	20000737          	lui	a4,0x20000
    313a:	0e470713          	addi	a4,a4,228 # 200000e4 <uxTopReadyPriority>
    313e:	4310                	lw	a2,0(a4)
    3140:	00d67363          	bgeu	a2,a3,3146 <xTaskRemoveFromEventList+0x8e>
    3144:	c314                	sw	a3,0(a4)
    3146:	4751                	li	a4,20
    3148:	02e68633          	mul	a2,a3,a4
    314c:	32018713          	addi	a4,gp,800 # 20000ba0 <pxReadyTasksLists>
    3150:	9732                	add	a4,a4,a2
    3152:	4350                	lw	a2,4(a4)
    3154:	4608                	lw	a0,8(a2)
    3156:	c790                	sw	a2,8(a5)
    3158:	c7c8                	sw	a0,12(a5)
    315a:	4608                	lw	a0,8(a2)
    315c:	c14c                	sw	a1,4(a0)
    315e:	c60c                	sw	a1,8(a2)
    3160:	cbd8                	sw	a4,20(a5)
    3162:	431c                	lw	a5,0(a4)
    3164:	4501                	li	a0,0
    3166:	0785                	addi	a5,a5,1
    3168:	c31c                	sw	a5,0(a4)
    316a:	200007b7          	lui	a5,0x20000
    316e:	0cc7a783          	lw	a5,204(a5) # 200000cc <pxCurrentTCB>
    3172:	57dc                	lw	a5,44(a5)
    3174:	00d7f863          	bgeu	a5,a3,3184 <xTaskRemoveFromEventList+0xcc>
    3178:	200007b7          	lui	a5,0x20000
    317c:	4705                	li	a4,1
    317e:	0ee7ae23          	sw	a4,252(a5) # 200000fc <xYieldPending>
    3182:	4505                	li	a0,1
    3184:	8082                	ret
    3186:	47418713          	addi	a4,gp,1140 # 20000cf4 <xPendingReadyList>
    318a:	4350                	lw	a2,4(a4)
    318c:	4608                	lw	a0,8(a2)
    318e:	cfd0                	sw	a2,28(a5)
    3190:	d388                	sw	a0,32(a5)
    3192:	4608                	lw	a0,8(a2)
    3194:	c14c                	sw	a1,4(a0)
    3196:	c60c                	sw	a1,8(a2)
    3198:	d798                	sw	a4,40(a5)
    319a:	b7e1                	j	3162 <xTaskRemoveFromEventList+0xaa>

0000319c <vTaskInternalSetTimeOutState>:
    319c:	200007b7          	lui	a5,0x20000
    31a0:	0ec7a783          	lw	a5,236(a5) # 200000ec <xNumOfOverflows>
    31a4:	c11c                	sw	a5,0(a0)
    31a6:	200007b7          	lui	a5,0x20000
    31aa:	0f87a783          	lw	a5,248(a5) # 200000f8 <xTickCount>
    31ae:	c15c                	sw	a5,4(a0)
    31b0:	8082                	ret

000031b2 <xTaskCheckForTimeOut>:
    31b2:	b6cfd2ef          	jal	t0,51e <__riscv_save_0>
    31b6:	1141                	addi	sp,sp,-16
    31b8:	e505                	bnez	a0,31e0 <xTaskCheckForTimeOut+0x2e>
    31ba:	6789                	lui	a5,0x2
    31bc:	80078793          	addi	a5,a5,-2048 # 1800 <HAL_InitGpioRCC+0x34>
    31c0:	30079073          	csrw	mstatus,a5
    31c4:	00005637          	lui	a2,0x5
    31c8:	6585                	lui	a1,0x1
    31ca:	00005537          	lui	a0,0x5
    31ce:	d7460613          	addi	a2,a2,-652 # 4d74 <_read+0x15a>
    31d2:	cfd58593          	addi	a1,a1,-771 # cfd <GPIO_Init+0x7f>
    31d6:	d0050513          	addi	a0,a0,-768 # 4d00 <_read+0xe6>
    31da:	1f5000ef          	jal	ra,3bce <iprintf>
    31de:	a001                	j	31de <xTaskCheckForTimeOut+0x2c>
    31e0:	e585                	bnez	a1,3208 <xTaskCheckForTimeOut+0x56>
    31e2:	6789                	lui	a5,0x2
    31e4:	80078793          	addi	a5,a5,-2048 # 1800 <HAL_InitGpioRCC+0x34>
    31e8:	30079073          	csrw	mstatus,a5
    31ec:	00005637          	lui	a2,0x5
    31f0:	6585                	lui	a1,0x1
    31f2:	00005537          	lui	a0,0x5
    31f6:	d7460613          	addi	a2,a2,-652 # 4d74 <_read+0x15a>
    31fa:	cfe58593          	addi	a1,a1,-770 # cfe <GPIO_Init+0x80>
    31fe:	d0050513          	addi	a0,a0,-768 # 4d00 <_read+0xe6>
    3202:	1cd000ef          	jal	ra,3bce <iprintf>
    3206:	a001                	j	3206 <xTaskCheckForTimeOut+0x54>
    3208:	c62e                	sw	a1,12(sp)
    320a:	c42a                	sw	a0,8(sp)
    320c:	8fcff0ef          	jal	ra,2308 <vPortEnterCritical>
    3210:	45b2                	lw	a1,12(sp)
    3212:	200007b7          	lui	a5,0x20000
    3216:	0f87a683          	lw	a3,248(a5) # 200000f8 <xTickCount>
    321a:	419c                	lw	a5,0(a1)
    321c:	577d                	li	a4,-1
    321e:	4401                	li	s0,0
    3220:	02e78163          	beq	a5,a4,3242 <xTaskCheckForTimeOut+0x90>
    3224:	4522                	lw	a0,8(sp)
    3226:	20000637          	lui	a2,0x20000
    322a:	0ec62603          	lw	a2,236(a2) # 200000ec <xNumOfOverflows>
    322e:	00052803          	lw	a6,0(a0)
    3232:	4158                	lw	a4,4(a0)
    3234:	00c80d63          	beq	a6,a2,324e <xTaskCheckForTimeOut+0x9c>
    3238:	00e6eb63          	bltu	a3,a4,324e <xTaskCheckForTimeOut+0x9c>
    323c:	0005a023          	sw	zero,0(a1)
    3240:	4405                	li	s0,1
    3242:	8dcff0ef          	jal	ra,231e <vPortExitCritical>
    3246:	8522                	mv	a0,s0
    3248:	0141                	addi	sp,sp,16
    324a:	af8fd06f          	j	542 <__riscv_restore_0>
    324e:	40e68633          	sub	a2,a3,a4
    3252:	fef675e3          	bgeu	a2,a5,323c <xTaskCheckForTimeOut+0x8a>
    3256:	8f95                	sub	a5,a5,a3
    3258:	97ba                	add	a5,a5,a4
    325a:	c19c                	sw	a5,0(a1)
    325c:	3781                	jal	319c <vTaskInternalSetTimeOutState>
    325e:	4401                	li	s0,0
    3260:	b7cd                	j	3242 <xTaskCheckForTimeOut+0x90>

00003262 <vTaskMissedYield>:
    3262:	200007b7          	lui	a5,0x20000
    3266:	4705                	li	a4,1
    3268:	0ee7ae23          	sw	a4,252(a5) # 200000fc <xYieldPending>
    326c:	8082                	ret

0000326e <xTaskGetCurrentTaskHandle>:
    326e:	200007b7          	lui	a5,0x20000
    3272:	0cc7a503          	lw	a0,204(a5) # 200000cc <pxCurrentTCB>
    3276:	8082                	ret

00003278 <xTaskGetSchedulerState>:
    3278:	200007b7          	lui	a5,0x20000
    327c:	0f47a783          	lw	a5,244(a5) # 200000f4 <xSchedulerRunning>
    3280:	4505                	li	a0,1
    3282:	cb81                	beqz	a5,3292 <xTaskGetSchedulerState+0x1a>
    3284:	200007b7          	lui	a5,0x20000
    3288:	0dc7a503          	lw	a0,220(a5) # 200000dc <uxSchedulerSuspended>
    328c:	00153513          	seqz	a0,a0
    3290:	0506                	slli	a0,a0,0x1
    3292:	8082                	ret

00003294 <ulTaskGenericNotifyTake>:
    3294:	a70fd2ef          	jal	t0,504 <__riscv_save_4>
    3298:	4789                	li	a5,2
    329a:	1141                	addi	sp,sp,-16
    329c:	02a7f563          	bgeu	a5,a0,32c6 <ulTaskGenericNotifyTake+0x32>
    32a0:	6789                	lui	a5,0x2
    32a2:	80078793          	addi	a5,a5,-2048 # 1800 <HAL_InitGpioRCC+0x34>
    32a6:	30079073          	csrw	mstatus,a5
    32aa:	00005637          	lui	a2,0x5
    32ae:	6585                	lui	a1,0x1
    32b0:	00005537          	lui	a0,0x5
    32b4:	d7460613          	addi	a2,a2,-652 # 4d74 <_read+0x15a>
    32b8:	26658593          	addi	a1,a1,614 # 1266 <RTC_GetITStatus+0x1a>
    32bc:	d0050513          	addi	a0,a0,-768 # 4d00 <_read+0xe6>
    32c0:	10f000ef          	jal	ra,3bce <iprintf>
    32c4:	a001                	j	32c4 <ulTaskGenericNotifyTake+0x30>
    32c6:	892a                	mv	s2,a0
    32c8:	20000437          	lui	s0,0x20000
    32cc:	89ae                	mv	s3,a1
    32ce:	c632                	sw	a2,12(sp)
    32d0:	838ff0ef          	jal	ra,2308 <vPortEnterCritical>
    32d4:	0cc40793          	addi	a5,s0,204 # 200000cc <pxCurrentTCB>
    32d8:	439c                	lw	a5,0(a5)
    32da:	01090493          	addi	s1,s2,16
    32de:	00249713          	slli	a4,s1,0x2
    32e2:	97ba                	add	a5,a5,a4
    32e4:	47dc                	lw	a5,12(a5)
    32e6:	0cc40413          	addi	s0,s0,204
    32ea:	e38d                	bnez	a5,330c <ulTaskGenericNotifyTake+0x78>
    32ec:	401c                	lw	a5,0(s0)
    32ee:	4632                	lw	a2,12(sp)
    32f0:	4705                	li	a4,1
    32f2:	97ca                	add	a5,a5,s2
    32f4:	04e78c23          	sb	a4,88(a5)
    32f8:	ca11                	beqz	a2,330c <ulTaskGenericNotifyTake+0x78>
    32fa:	4585                	li	a1,1
    32fc:	8532                	mv	a0,a2
    32fe:	efaff0ef          	jal	ra,29f8 <prvAddCurrentTaskToDelayedList>
    3302:	e000e7b7          	lui	a5,0xe000e
    3306:	6711                	lui	a4,0x4
    3308:	20e7a023          	sw	a4,512(a5) # e000e200 <__freertos_irq_stack_top+0xc0009200>
    330c:	812ff0ef          	jal	ra,231e <vPortExitCritical>
    3310:	ff9fe0ef          	jal	ra,2308 <vPortEnterCritical>
    3314:	4018                	lw	a4,0(s0)
    3316:	00249793          	slli	a5,s1,0x2
    331a:	973e                	add	a4,a4,a5
    331c:	4748                	lw	a0,12(a4)
    331e:	c519                	beqz	a0,332c <ulTaskGenericNotifyTake+0x98>
    3320:	4018                	lw	a4,0(s0)
    3322:	02098063          	beqz	s3,3342 <ulTaskGenericNotifyTake+0xae>
    3326:	97ba                	add	a5,a5,a4
    3328:	0007a623          	sw	zero,12(a5)
    332c:	401c                	lw	a5,0(s0)
    332e:	c62a                	sw	a0,12(sp)
    3330:	993e                	add	s2,s2,a5
    3332:	04090c23          	sb	zero,88(s2)
    3336:	fe9fe0ef          	jal	ra,231e <vPortExitCritical>
    333a:	4532                	lw	a0,12(sp)
    333c:	0141                	addi	sp,sp,16
    333e:	9fafd06f          	j	538 <__riscv_restore_4>
    3342:	fff50693          	addi	a3,a0,-1
    3346:	97ba                	add	a5,a5,a4
    3348:	c7d4                	sw	a3,12(a5)
    334a:	b7cd                	j	332c <ulTaskGenericNotifyTake+0x98>

0000334c <xTaskGenericNotifyFromISR>:
    334c:	9d2fd2ef          	jal	t0,51e <__riscv_save_0>
    3350:	1101                	addi	sp,sp,-32
    3352:	e505                	bnez	a0,337a <xTaskGenericNotifyFromISR+0x2e>
    3354:	6789                	lui	a5,0x2
    3356:	80078793          	addi	a5,a5,-2048 # 1800 <HAL_InitGpioRCC+0x34>
    335a:	30079073          	csrw	mstatus,a5
    335e:	00005637          	lui	a2,0x5
    3362:	6585                	lui	a1,0x1
    3364:	00005537          	lui	a0,0x5
    3368:	d7460613          	addi	a2,a2,-652 # 4d74 <_read+0x15a>
    336c:	38558593          	addi	a1,a1,901 # 1385 <vInitEEPROM+0x9>
    3370:	d0050513          	addi	a0,a0,-768 # 4d00 <_read+0xe6>
    3374:	05b000ef          	jal	ra,3bce <iprintf>
    3378:	a001                	j	3378 <xTaskGenericNotifyFromISR+0x2c>
    337a:	842a                	mv	s0,a0
    337c:	4509                	li	a0,2
    337e:	02b57563          	bgeu	a0,a1,33a8 <xTaskGenericNotifyFromISR+0x5c>
    3382:	6789                	lui	a5,0x2
    3384:	80078793          	addi	a5,a5,-2048 # 1800 <HAL_InitGpioRCC+0x34>
    3388:	30079073          	csrw	mstatus,a5
    338c:	00005637          	lui	a2,0x5
    3390:	6585                	lui	a1,0x1
    3392:	00005537          	lui	a0,0x5
    3396:	d7460613          	addi	a2,a2,-652 # 4d74 <_read+0x15a>
    339a:	38658593          	addi	a1,a1,902 # 1386 <vInitEEPROM+0xa>
    339e:	d0050513          	addi	a0,a0,-768 # 4d00 <_read+0xe6>
    33a2:	02d000ef          	jal	ra,3bce <iprintf>
    33a6:	a001                	j	33a6 <xTaskGenericNotifyFromISR+0x5a>
    33a8:	ce3e                	sw	a5,28(sp)
    33aa:	cc3a                	sw	a4,24(sp)
    33ac:	ca36                	sw	a3,20(sp)
    33ae:	c832                	sw	a2,16(sp)
    33b0:	c62e                	sw	a1,12(sp)
    33b2:	faffe0ef          	jal	ra,2360 <xPortSetInterruptMask>
    33b6:	4762                	lw	a4,24(sp)
    33b8:	45b2                	lw	a1,12(sp)
    33ba:	4642                	lw	a2,16(sp)
    33bc:	46d2                	lw	a3,20(sp)
    33be:	47f2                	lw	a5,28(sp)
    33c0:	cb09                	beqz	a4,33d2 <xTaskGenericNotifyFromISR+0x86>
    33c2:	01058813          	addi	a6,a1,16
    33c6:	080a                	slli	a6,a6,0x2
    33c8:	9822                	add	a6,a6,s0
    33ca:	00c82803          	lw	a6,12(a6)
    33ce:	01072023          	sw	a6,0(a4) # 4000 <__sflush_r+0x12e>
    33d2:	00b40833          	add	a6,s0,a1
    33d6:	05884703          	lbu	a4,88(a6)
    33da:	4889                	li	a7,2
    33dc:	05180c23          	sb	a7,88(a6)
    33e0:	4811                	li	a6,4
    33e2:	0ff77713          	andi	a4,a4,255
    33e6:	04d86663          	bltu	a6,a3,3432 <xTaskGenericNotifyFromISR+0xe6>
    33ea:	6815                	lui	a6,0x5
    33ec:	068a                	slli	a3,a3,0x2
    33ee:	d6080813          	addi	a6,a6,-672 # 4d60 <_read+0x146>
    33f2:	96c2                	add	a3,a3,a6
    33f4:	4294                	lw	a3,0(a3)
    33f6:	8682                	jr	a3
    33f8:	058a                	slli	a1,a1,0x2
    33fa:	95a2                	add	a1,a1,s0
    33fc:	45f4                	lw	a3,76(a1)
    33fe:	8e55                	or	a2,a2,a3
    3400:	c5f0                	sw	a2,76(a1)
    3402:	4685                	li	a3,1
    3404:	04d70f63          	beq	a4,a3,3462 <xTaskGenericNotifyFromISR+0x116>
    3408:	4405                	li	s0,1
    340a:	f63fe0ef          	jal	ra,236c <vPortClearInterruptMask>
    340e:	8522                	mv	a0,s0
    3410:	6105                	addi	sp,sp,32
    3412:	930fd06f          	j	542 <__riscv_restore_0>
    3416:	058a                	slli	a1,a1,0x2
    3418:	95a2                	add	a1,a1,s0
    341a:	45f4                	lw	a3,76(a1)
    341c:	0685                	addi	a3,a3,1
    341e:	c5f4                	sw	a3,76(a1)
    3420:	b7cd                	j	3402 <xTaskGenericNotifyFromISR+0xb6>
    3422:	4689                	li	a3,2
    3424:	10d70863          	beq	a4,a3,3534 <xTaskGenericNotifyFromISR+0x1e8>
    3428:	05c1                	addi	a1,a1,16
    342a:	058a                	slli	a1,a1,0x2
    342c:	95a2                	add	a1,a1,s0
    342e:	c5d0                	sw	a2,12(a1)
    3430:	bfc9                	j	3402 <xTaskGenericNotifyFromISR+0xb6>
    3432:	200006b7          	lui	a3,0x20000
    3436:	0f86a683          	lw	a3,248(a3) # 200000f8 <xTickCount>
    343a:	d6e1                	beqz	a3,3402 <xTaskGenericNotifyFromISR+0xb6>
    343c:	6789                	lui	a5,0x2
    343e:	80078793          	addi	a5,a5,-2048 # 1800 <HAL_InitGpioRCC+0x34>
    3442:	30079073          	csrw	mstatus,a5
    3446:	00005637          	lui	a2,0x5
    344a:	6585                	lui	a1,0x1
    344c:	00005537          	lui	a0,0x5
    3450:	d7460613          	addi	a2,a2,-652 # 4d74 <_read+0x15a>
    3454:	3cd58593          	addi	a1,a1,973 # 13cd <eEEPROMWr+0x37>
    3458:	d0050513          	addi	a0,a0,-768 # 4d00 <_read+0xe6>
    345c:	772000ef          	jal	ra,3bce <iprintf>
    3460:	a001                	j	3460 <xTaskGenericNotifyFromISR+0x114>
    3462:	5418                	lw	a4,40(s0)
    3464:	c705                	beqz	a4,348c <xTaskGenericNotifyFromISR+0x140>
    3466:	6789                	lui	a5,0x2
    3468:	80078793          	addi	a5,a5,-2048 # 1800 <HAL_InitGpioRCC+0x34>
    346c:	30079073          	csrw	mstatus,a5
    3470:	00005637          	lui	a2,0x5
    3474:	6585                	lui	a1,0x1
    3476:	00005537          	lui	a0,0x5
    347a:	d7460613          	addi	a2,a2,-652 # 4d74 <_read+0x15a>
    347e:	3d858593          	addi	a1,a1,984 # 13d8 <eEEPROMWr+0x42>
    3482:	d0050513          	addi	a0,a0,-768 # 4d00 <_read+0xe6>
    3486:	748000ef          	jal	ra,3bce <iprintf>
    348a:	a001                	j	348a <xTaskGenericNotifyFromISR+0x13e>
    348c:	20000737          	lui	a4,0x20000
    3490:	0dc72703          	lw	a4,220(a4) # 200000dc <uxSchedulerSuspended>
    3494:	5450                	lw	a2,44(s0)
    3496:	e341                	bnez	a4,3516 <xTaskGenericNotifyFromISR+0x1ca>
    3498:	440c                	lw	a1,8(s0)
    349a:	4454                	lw	a3,12(s0)
    349c:	4858                	lw	a4,20(s0)
    349e:	c594                	sw	a3,8(a1)
    34a0:	4454                	lw	a3,12(s0)
    34a2:	00472803          	lw	a6,4(a4)
    34a6:	c2cc                	sw	a1,4(a3)
    34a8:	00440593          	addi	a1,s0,4
    34ac:	00b81363          	bne	a6,a1,34b2 <xTaskGenericNotifyFromISR+0x166>
    34b0:	c354                	sw	a3,4(a4)
    34b2:	4314                	lw	a3,0(a4)
    34b4:	00042a23          	sw	zero,20(s0)
    34b8:	16fd                	addi	a3,a3,-1
    34ba:	c314                	sw	a3,0(a4)
    34bc:	20000737          	lui	a4,0x20000
    34c0:	0e470713          	addi	a4,a4,228 # 200000e4 <uxTopReadyPriority>
    34c4:	4314                	lw	a3,0(a4)
    34c6:	00c6f363          	bgeu	a3,a2,34cc <xTaskGenericNotifyFromISR+0x180>
    34ca:	c310                	sw	a2,0(a4)
    34cc:	4751                	li	a4,20
    34ce:	02e606b3          	mul	a3,a2,a4
    34d2:	32018713          	addi	a4,gp,800 # 20000ba0 <pxReadyTasksLists>
    34d6:	9736                	add	a4,a4,a3
    34d8:	4354                	lw	a3,4(a4)
    34da:	0086a803          	lw	a6,8(a3)
    34de:	c414                	sw	a3,8(s0)
    34e0:	01042623          	sw	a6,12(s0)
    34e4:	0086a803          	lw	a6,8(a3)
    34e8:	00b82223          	sw	a1,4(a6)
    34ec:	c68c                	sw	a1,8(a3)
    34ee:	c858                	sw	a4,20(s0)
    34f0:	4314                	lw	a3,0(a4)
    34f2:	0685                	addi	a3,a3,1
    34f4:	c314                	sw	a3,0(a4)
    34f6:	20000737          	lui	a4,0x20000
    34fa:	0cc72703          	lw	a4,204(a4) # 200000cc <pxCurrentTCB>
    34fe:	5758                	lw	a4,44(a4)
    3500:	f0c774e3          	bgeu	a4,a2,3408 <xTaskGenericNotifyFromISR+0xbc>
    3504:	c399                	beqz	a5,350a <xTaskGenericNotifyFromISR+0x1be>
    3506:	4705                	li	a4,1
    3508:	c398                	sw	a4,0(a5)
    350a:	200007b7          	lui	a5,0x20000
    350e:	4705                	li	a4,1
    3510:	0ee7ae23          	sw	a4,252(a5) # 200000fc <xYieldPending>
    3514:	bdd5                	j	3408 <xTaskGenericNotifyFromISR+0xbc>
    3516:	47418713          	addi	a4,gp,1140 # 20000cf4 <xPendingReadyList>
    351a:	4354                	lw	a3,4(a4)
    351c:	468c                	lw	a1,8(a3)
    351e:	cc54                	sw	a3,28(s0)
    3520:	d00c                	sw	a1,32(s0)
    3522:	0086a803          	lw	a6,8(a3)
    3526:	01840593          	addi	a1,s0,24
    352a:	00b82223          	sw	a1,4(a6)
    352e:	c68c                	sw	a1,8(a3)
    3530:	d418                	sw	a4,40(s0)
    3532:	bf7d                	j	34f0 <xTaskGenericNotifyFromISR+0x1a4>
    3534:	4401                	li	s0,0
    3536:	bdd1                	j	340a <xTaskGenericNotifyFromISR+0xbe>

00003538 <prvCheckForValidListAndQueue>:
    3538:	fe7fc2ef          	jal	t0,51e <__riscv_save_0>
    353c:	20000437          	lui	s0,0x20000
    3540:	dc9fe0ef          	jal	ra,2308 <vPortEnterCritical>
    3544:	10c40413          	addi	s0,s0,268 # 2000010c <xTimerQueue>
    3548:	401c                	lw	a5,0(s0)
    354a:	e7b1                	bnez	a5,3596 <prvCheckForValidListAndQueue+0x5e>
    354c:	4dc18913          	addi	s2,gp,1244 # 20000d5c <xActiveTimerList1>
    3550:	4dc18513          	addi	a0,gp,1244 # 20000d5c <xActiveTimerList1>
    3554:	e1ffe0ef          	jal	ra,2372 <vListInitialise>
    3558:	4f018493          	addi	s1,gp,1264 # 20000d70 <xActiveTimerList2>
    355c:	4f018513          	addi	a0,gp,1264 # 20000d70 <xActiveTimerList2>
    3560:	e13fe0ef          	jal	ra,2372 <vListInitialise>
    3564:	200007b7          	lui	a5,0x20000
    3568:	1127a023          	sw	s2,256(a5) # 20000100 <pxCurrentTimerList>
    356c:	4701                	li	a4,0
    356e:	200007b7          	lui	a5,0x20000
    3572:	50418693          	addi	a3,gp,1284 # 20000d84 <xStaticTimerQueue.5805>
    3576:	49c18613          	addi	a2,gp,1180 # 20000d1c <ucStaticTimerQueueStorage.5806>
    357a:	45c1                	li	a1,16
    357c:	4511                	li	a0,4
    357e:	1097a223          	sw	s1,260(a5) # 20000104 <pxOverflowTimerList>
    3582:	fc5fe0ef          	jal	ra,2546 <xQueueGenericCreateStatic>
    3586:	c008                	sw	a0,0(s0)
    3588:	c519                	beqz	a0,3596 <prvCheckForValidListAndQueue+0x5e>
    358a:	000055b7          	lui	a1,0x5
    358e:	db458593          	addi	a1,a1,-588 # 4db4 <_read+0x19a>
    3592:	9b2ff0ef          	jal	ra,2744 <vQueueAddToRegistry>
    3596:	d89fe0ef          	jal	ra,231e <vPortExitCritical>
    359a:	fa9fc06f          	j	542 <__riscv_restore_0>

0000359e <prvInsertTimerInActiveList>:
    359e:	f81fc2ef          	jal	t0,51e <__riscv_save_0>
    35a2:	c14c                	sw	a1,4(a0)
    35a4:	c908                	sw	a0,16(a0)
    35a6:	87aa                	mv	a5,a0
    35a8:	02b66263          	bltu	a2,a1,35cc <prvInsertTimerInActiveList+0x2e>
    35ac:	4d18                	lw	a4,24(a0)
    35ae:	8e15                	sub	a2,a2,a3
    35b0:	4505                	li	a0,1
    35b2:	00e67b63          	bgeu	a2,a4,35c8 <prvInsertTimerInActiveList+0x2a>
    35b6:	00478593          	addi	a1,a5,4
    35ba:	200007b7          	lui	a5,0x20000
    35be:	1047a503          	lw	a0,260(a5) # 20000104 <pxOverflowTimerList>
    35c2:	dcbfe0ef          	jal	ra,238c <vListInsert>
    35c6:	4501                	li	a0,0
    35c8:	f7bfc06f          	j	542 <__riscv_restore_0>
    35cc:	00d67563          	bgeu	a2,a3,35d6 <prvInsertTimerInActiveList+0x38>
    35d0:	4505                	li	a0,1
    35d2:	fed5fbe3          	bgeu	a1,a3,35c8 <prvInsertTimerInActiveList+0x2a>
    35d6:	00478593          	addi	a1,a5,4
    35da:	200007b7          	lui	a5,0x20000
    35de:	1007a503          	lw	a0,256(a5) # 20000100 <pxCurrentTimerList>
    35e2:	b7c5                	j	35c2 <prvInsertTimerInActiveList+0x24>

000035e4 <prvReloadTimer>:
    35e4:	f3bfc2ef          	jal	t0,51e <__riscv_save_0>
    35e8:	842a                	mv	s0,a0
    35ea:	84ae                	mv	s1,a1
    35ec:	8932                	mv	s2,a2
    35ee:	4c0c                	lw	a1,24(s0)
    35f0:	86a6                	mv	a3,s1
    35f2:	864a                	mv	a2,s2
    35f4:	95a6                	add	a1,a1,s1
    35f6:	8522                	mv	a0,s0
    35f8:	375d                	jal	359e <prvInsertTimerInActiveList>
    35fa:	e119                	bnez	a0,3600 <prvReloadTimer+0x1c>
    35fc:	f47fc06f          	j	542 <__riscv_restore_0>
    3600:	4c1c                	lw	a5,24(s0)
    3602:	8522                	mv	a0,s0
    3604:	94be                	add	s1,s1,a5
    3606:	501c                	lw	a5,32(s0)
    3608:	9782                	jalr	a5
    360a:	b7d5                	j	35ee <prvReloadTimer+0xa>

0000360c <prvProcessExpiredTimer>:
    360c:	f13fc2ef          	jal	t0,51e <__riscv_save_0>
    3610:	200007b7          	lui	a5,0x20000
    3614:	1007a783          	lw	a5,256(a5) # 20000100 <pxCurrentTimerList>
    3618:	1141                	addi	sp,sp,-16
    361a:	84aa                	mv	s1,a0
    361c:	47dc                	lw	a5,12(a5)
    361e:	c62e                	sw	a1,12(sp)
    3620:	47c0                	lw	s0,12(a5)
    3622:	00440513          	addi	a0,s0,4
    3626:	d95fe0ef          	jal	ra,23ba <uxListRemove>
    362a:	02444783          	lbu	a5,36(s0)
    362e:	4632                	lw	a2,12(sp)
    3630:	0047f713          	andi	a4,a5,4
    3634:	cb11                	beqz	a4,3648 <prvProcessExpiredTimer+0x3c>
    3636:	85a6                	mv	a1,s1
    3638:	8522                	mv	a0,s0
    363a:	376d                	jal	35e4 <prvReloadTimer>
    363c:	501c                	lw	a5,32(s0)
    363e:	8522                	mv	a0,s0
    3640:	9782                	jalr	a5
    3642:	0141                	addi	sp,sp,16
    3644:	efffc06f          	j	542 <__riscv_restore_0>
    3648:	9bf9                	andi	a5,a5,-2
    364a:	02f40223          	sb	a5,36(s0)
    364e:	b7fd                	j	363c <prvProcessExpiredTimer+0x30>

00003650 <prvSwitchTimerLists>:
    3650:	ecffc2ef          	jal	t0,51e <__riscv_save_0>
    3654:	20000437          	lui	s0,0x20000
    3658:	10040693          	addi	a3,s0,256 # 20000100 <pxCurrentTimerList>
    365c:	4298                	lw	a4,0(a3)
    365e:	431c                	lw	a5,0(a4)
    3660:	eb91                	bnez	a5,3674 <prvSwitchTimerLists+0x24>
    3662:	200007b7          	lui	a5,0x20000
    3666:	10478793          	addi	a5,a5,260 # 20000104 <pxOverflowTimerList>
    366a:	4390                	lw	a2,0(a5)
    366c:	c398                	sw	a4,0(a5)
    366e:	c290                	sw	a2,0(a3)
    3670:	ed3fc06f          	j	542 <__riscv_restore_0>
    3674:	475c                	lw	a5,12(a4)
    3676:	55fd                	li	a1,-1
    3678:	4388                	lw	a0,0(a5)
    367a:	3f49                	jal	360c <prvProcessExpiredTimer>
    367c:	bff1                	j	3658 <prvSwitchTimerLists+0x8>

0000367e <prvTimerTask>:
    367e:	e79fc2ef          	jal	t0,4f6 <__riscv_save_10>
    3682:	6915                	lui	s2,0x5
    3684:	1141                	addi	sp,sp,-16
    3686:	20000ab7          	lui	s5,0x20000
    368a:	200009b7          	lui	s3,0x20000
    368e:	20000b37          	lui	s6,0x20000
    3692:	20000bb7          	lui	s7,0x20000
    3696:	d9090913          	addi	s2,s2,-624 # 4d90 <_read+0x176>
    369a:	100aa783          	lw	a5,256(s5) # 20000100 <pxCurrentTimerList>
    369e:	4398                	lw	a4,0(a5)
    36a0:	cb29                	beqz	a4,36f2 <prvTimerTask+0x74>
    36a2:	47dc                	lw	a5,12(a5)
    36a4:	4c81                	li	s9,0
    36a6:	0007ac03          	lw	s8,0(a5)
    36aa:	d34ff0ef          	jal	ra,2bde <vTaskSuspendAll>
    36ae:	d40ff0ef          	jal	ra,2bee <xTaskGetTickCount>
    36b2:	1089a783          	lw	a5,264(s3) # 20000108 <xLastTime.5762>
    36b6:	842a                	mv	s0,a0
    36b8:	10898493          	addi	s1,s3,264
    36bc:	10cb0a13          	addi	s4,s6,268 # 2000010c <xTimerQueue>
    36c0:	02f56c63          	bltu	a0,a5,36f8 <prvTimerTask+0x7a>
    36c4:	c088                	sw	a0,0(s1)
    36c6:	020c8f63          	beqz	s9,3704 <prvTimerTask+0x86>
    36ca:	104ba783          	lw	a5,260(s7) # 20000104 <pxOverflowTimerList>
    36ce:	4390                	lw	a2,0(a5)
    36d0:	00163613          	seqz	a2,a2
    36d4:	000a2503          	lw	a0,0(s4)
    36d8:	408c05b3          	sub	a1,s8,s0
    36dc:	8d0ff0ef          	jal	ra,27ac <vQueueWaitForMessageRestricted>
    36e0:	ec0ff0ef          	jal	ra,2da0 <xTaskResumeAll>
    36e4:	ed11                	bnez	a0,3700 <prvTimerTask+0x82>
    36e6:	e000e7b7          	lui	a5,0xe000e
    36ea:	6711                	lui	a4,0x4
    36ec:	20e7a023          	sw	a4,512(a5) # e000e200 <__freertos_irq_stack_top+0xc0009200>
    36f0:	a801                	j	3700 <prvTimerTask+0x82>
    36f2:	4c85                	li	s9,1
    36f4:	4c01                	li	s8,0
    36f6:	bf55                	j	36aa <prvTimerTask+0x2c>
    36f8:	3fa1                	jal	3650 <prvSwitchTimerLists>
    36fa:	c080                	sw	s0,0(s1)
    36fc:	ea4ff0ef          	jal	ra,2da0 <xTaskResumeAll>
    3700:	4c21                	li	s8,8
    3702:	a00d                	j	3724 <prvTimerTask+0xa6>
    3704:	4601                	li	a2,0
    3706:	fd8567e3          	bltu	a0,s8,36d4 <prvTimerTask+0x56>
    370a:	e96ff0ef          	jal	ra,2da0 <xTaskResumeAll>
    370e:	85a2                	mv	a1,s0
    3710:	8562                	mv	a0,s8
    3712:	efbff0ef          	jal	ra,360c <prvProcessExpiredTimer>
    3716:	b7ed                	j	3700 <prvTimerTask+0x82>
    3718:	4792                	lw	a5,4(sp)
    371a:	45b2                	lw	a1,12(sp)
    371c:	9782                	jalr	a5
    371e:	4782                	lw	a5,0(sp)
    3720:	0007dd63          	bgez	a5,373a <prvTimerTask+0xbc>
    3724:	000a2503          	lw	a0,0(s4)
    3728:	4601                	li	a2,0
    372a:	858a                	mv	a1,sp
    372c:	ec7fe0ef          	jal	ra,25f2 <xQueueReceive>
    3730:	d52d                	beqz	a0,369a <prvTimerTask+0x1c>
    3732:	4782                	lw	a5,0(sp)
    3734:	4522                	lw	a0,8(sp)
    3736:	fe07c1e3          	bltz	a5,3718 <prvTimerTask+0x9a>
    373a:	4422                	lw	s0,8(sp)
    373c:	485c                	lw	a5,20(s0)
    373e:	e39d                	bnez	a5,3764 <prvTimerTask+0xe6>
    3740:	caeff0ef          	jal	ra,2bee <xTaskGetTickCount>
    3744:	409c                	lw	a5,0(s1)
    3746:	8caa                	mv	s9,a0
    3748:	00f57463          	bgeu	a0,a5,3750 <prvTimerTask+0xd2>
    374c:	f05ff0ef          	jal	ra,3650 <prvSwitchTimerLists>
    3750:	4782                	lw	a5,0(sp)
    3752:	0194a023          	sw	s9,0(s1)
    3756:	17fd                	addi	a5,a5,-1
    3758:	fcfc66e3          	bltu	s8,a5,3724 <prvTimerTask+0xa6>
    375c:	078a                	slli	a5,a5,0x2
    375e:	97ca                	add	a5,a5,s2
    3760:	439c                	lw	a5,0(a5)
    3762:	8782                	jr	a5
    3764:	00440513          	addi	a0,s0,4
    3768:	c53fe0ef          	jal	ra,23ba <uxListRemove>
    376c:	bfd1                	j	3740 <prvTimerTask+0xc2>
    376e:	02444783          	lbu	a5,36(s0)
    3772:	4c0c                	lw	a1,24(s0)
    3774:	4692                	lw	a3,4(sp)
    3776:	0017e793          	ori	a5,a5,1
    377a:	02f40223          	sb	a5,36(s0)
    377e:	8666                	mv	a2,s9
    3780:	95b6                	add	a1,a1,a3
    3782:	8522                	mv	a0,s0
    3784:	e1bff0ef          	jal	ra,359e <prvInsertTimerInActiveList>
    3788:	dd51                	beqz	a0,3724 <prvTimerTask+0xa6>
    378a:	02444783          	lbu	a5,36(s0)
    378e:	0047f713          	andi	a4,a5,4
    3792:	cf01                	beqz	a4,37aa <prvTimerTask+0x12c>
    3794:	4c1c                	lw	a5,24(s0)
    3796:	4592                	lw	a1,4(sp)
    3798:	8666                	mv	a2,s9
    379a:	8522                	mv	a0,s0
    379c:	95be                	add	a1,a1,a5
    379e:	e47ff0ef          	jal	ra,35e4 <prvReloadTimer>
    37a2:	501c                	lw	a5,32(s0)
    37a4:	8522                	mv	a0,s0
    37a6:	9782                	jalr	a5
    37a8:	bfb5                	j	3724 <prvTimerTask+0xa6>
    37aa:	9bf9                	andi	a5,a5,-2
    37ac:	02f40223          	sb	a5,36(s0)
    37b0:	bfcd                	j	37a2 <prvTimerTask+0x124>
    37b2:	02444783          	lbu	a5,36(s0)
    37b6:	9bf9                	andi	a5,a5,-2
    37b8:	02f40223          	sb	a5,36(s0)
    37bc:	b7a5                	j	3724 <prvTimerTask+0xa6>
    37be:	02444783          	lbu	a5,36(s0)
    37c2:	4592                	lw	a1,4(sp)
    37c4:	0017e793          	ori	a5,a5,1
    37c8:	02f40223          	sb	a5,36(s0)
    37cc:	cc0c                	sw	a1,24(s0)
    37ce:	e195                	bnez	a1,37f2 <prvTimerTask+0x174>
    37d0:	6789                	lui	a5,0x2
    37d2:	80078793          	addi	a5,a5,-2048 # 1800 <HAL_InitGpioRCC+0x34>
    37d6:	30079073          	csrw	mstatus,a5
    37da:	00005637          	lui	a2,0x5
    37de:	00005537          	lui	a0,0x5
    37e2:	dbc60613          	addi	a2,a2,-580 # 4dbc <_read+0x1a2>
    37e6:	35900593          	li	a1,857
    37ea:	d0050513          	addi	a0,a0,-768 # 4d00 <_read+0xe6>
    37ee:	26c5                	jal	3bce <iprintf>
    37f0:	a001                	j	37f0 <prvTimerTask+0x172>
    37f2:	86e6                	mv	a3,s9
    37f4:	8666                	mv	a2,s9
    37f6:	95e6                	add	a1,a1,s9
    37f8:	8522                	mv	a0,s0
    37fa:	da5ff0ef          	jal	ra,359e <prvInsertTimerInActiveList>
    37fe:	b71d                	j	3724 <prvTimerTask+0xa6>
    3800:	02444783          	lbu	a5,36(s0)
    3804:	0027f713          	andi	a4,a5,2
    3808:	f75d                	bnez	a4,37b6 <prvTimerTask+0x138>
    380a:	8522                	mv	a0,s0
    380c:	90ffe0ef          	jal	ra,211a <vPortFree>
    3810:	bf11                	j	3724 <prvTimerTask+0xa6>

00003812 <xTimerCreateTimerTask>:
    3812:	d0dfc2ef          	jal	t0,51e <__riscv_save_0>
    3816:	1141                	addi	sp,sp,-16
    3818:	d21ff0ef          	jal	ra,3538 <prvCheckForValidListAndQueue>
    381c:	200007b7          	lui	a5,0x20000
    3820:	10c7a783          	lw	a5,268(a5) # 2000010c <xTimerQueue>
    3824:	cf85                	beqz	a5,385c <xTimerCreateTimerTask+0x4a>
    3826:	0070                	addi	a2,sp,12
    3828:	002c                	addi	a1,sp,8
    382a:	0048                	addi	a0,sp,4
    382c:	c202                	sw	zero,4(sp)
    382e:	c402                	sw	zero,8(sp)
    3830:	9a2fd0ef          	jal	ra,9d2 <vApplicationGetTimerTaskMemory>
    3834:	47a2                	lw	a5,8(sp)
    3836:	4812                	lw	a6,4(sp)
    3838:	4632                	lw	a2,12(sp)
    383a:	000055b7          	lui	a1,0x5
    383e:	00003537          	lui	a0,0x3
    3842:	4739                	li	a4,14
    3844:	4681                	li	a3,0
    3846:	dd458593          	addi	a1,a1,-556 # 4dd4 <_read+0x1ba>
    384a:	67e50513          	addi	a0,a0,1662 # 367e <prvTimerTask>
    384e:	a52ff0ef          	jal	ra,2aa0 <xTaskCreateStatic>
    3852:	200007b7          	lui	a5,0x20000
    3856:	10a7a823          	sw	a0,272(a5) # 20000110 <xTimerTaskHandle>
    385a:	e115                	bnez	a0,387e <xTimerCreateTimerTask+0x6c>
    385c:	6789                	lui	a5,0x2
    385e:	80078793          	addi	a5,a5,-2048 # 1800 <HAL_InitGpioRCC+0x34>
    3862:	30079073          	csrw	mstatus,a5
    3866:	00005637          	lui	a2,0x5
    386a:	00005537          	lui	a0,0x5
    386e:	dbc60613          	addi	a2,a2,-580 # 4dbc <_read+0x1a2>
    3872:	11900593          	li	a1,281
    3876:	d0050513          	addi	a0,a0,-768 # 4d00 <_read+0xe6>
    387a:	2e91                	jal	3bce <iprintf>
    387c:	a001                	j	387c <xTimerCreateTimerTask+0x6a>
    387e:	4505                	li	a0,1
    3880:	0141                	addi	sp,sp,16
    3882:	cc1fc06f          	j	542 <__riscv_restore_0>

00003886 <Delay_Init>:
    3886:	200007b7          	lui	a5,0x20000
    388a:	0807a783          	lw	a5,128(a5) # 20000080 <SystemCoreClock>
    388e:	007a1737          	lui	a4,0x7a1
    3892:	20070713          	addi	a4,a4,512 # 7a1200 <_data_lma+0x79c388>
    3896:	02e7d7b3          	divu	a5,a5,a4
    389a:	20000737          	lui	a4,0x20000
    389e:	0ff7f793          	andi	a5,a5,255
    38a2:	10f70b23          	sb	a5,278(a4) # 20000116 <p_us>
    38a6:	3e800713          	li	a4,1000
    38aa:	02e787b3          	mul	a5,a5,a4
    38ae:	20000737          	lui	a4,0x20000
    38b2:	10f71a23          	sh	a5,276(a4) # 20000114 <p_ms>
    38b6:	8082                	ret

000038b8 <USART_Printf_Init>:
    38b8:	c67fc2ef          	jal	t0,51e <__riscv_save_0>
    38bc:	842a                	mv	s0,a0
    38be:	6511                	lui	a0,0x4
    38c0:	1101                	addi	sp,sp,-32
    38c2:	4585                	li	a1,1
    38c4:	0511                	addi	a0,a0,4
    38c6:	937fd0ef          	jal	ra,11fc <RCC_APB2PeriphClockCmd>
    38ca:	20000793          	li	a5,512
    38ce:	827c                	sh	a5,4(sp)
    38d0:	40011537          	lui	a0,0x40011
    38d4:	478d                	li	a5,3
    38d6:	c43e                	sw	a5,8(sp)
    38d8:	004c                	addi	a1,sp,4
    38da:	47e1                	li	a5,24
    38dc:	80050513          	addi	a0,a0,-2048 # 40010800 <__freertos_irq_stack_top+0x2000b800>
    38e0:	c63e                	sw	a5,12(sp)
    38e2:	b9cfd0ef          	jal	ra,c7e <GPIO_Init>
    38e6:	c822                	sw	s0,16(sp)
    38e8:	40014437          	lui	s0,0x40014
    38ec:	000807b7          	lui	a5,0x80
    38f0:	080c                	addi	a1,sp,16
    38f2:	80040513          	addi	a0,s0,-2048 # 40013800 <__freertos_irq_stack_top+0x2000e800>
    38f6:	cc3e                	sw	a5,24(sp)
    38f8:	ca02                	sw	zero,20(sp)
    38fa:	00011e23          	sh	zero,28(sp)
    38fe:	99dfd0ef          	jal	ra,129a <USART_Init>
    3902:	4585                	li	a1,1
    3904:	80040513          	addi	a0,s0,-2048
    3908:	a4dfd0ef          	jal	ra,1354 <USART_Cmd>
    390c:	6105                	addi	sp,sp,32
    390e:	c35fc06f          	j	542 <__riscv_restore_0>

00003912 <_write>:
    3912:	bf3fc2ef          	jal	t0,504 <__riscv_save_4>
    3916:	400144b7          	lui	s1,0x40014
    391a:	89ae                	mv	s3,a1
    391c:	8932                	mv	s2,a2
    391e:	4401                	li	s0,0
    3920:	80048493          	addi	s1,s1,-2048 # 40013800 <__freertos_irq_stack_top+0x2000e800>
    3924:	01244563          	blt	s0,s2,392e <_write+0x1c>
    3928:	854a                	mv	a0,s2
    392a:	c0ffc06f          	j	538 <__riscv_restore_4>
    392e:	04000593          	li	a1,64
    3932:	8526                	mv	a0,s1
    3934:	a3ffd0ef          	jal	ra,1372 <USART_GetFlagStatus>
    3938:	d97d                	beqz	a0,392e <_write+0x1c>
    393a:	008987b3          	add	a5,s3,s0
    393e:	00078583          	lb	a1,0(a5) # 80000 <_data_lma+0x7b188>
    3942:	8526                	mv	a0,s1
    3944:	0405                	addi	s0,s0,1
    3946:	05c2                	slli	a1,a1,0x10
    3948:	81c1                	srli	a1,a1,0x10
    394a:	a21fd0ef          	jal	ra,136a <USART_SendData>
    394e:	bfd9                	j	3924 <_write+0x12>

00003950 <_sbrk>:
    3950:	81018713          	addi	a4,gp,-2032 # 20000090 <curbrk.4664>
    3954:	431c                	lw	a5,0(a4)
    3956:	55018693          	addi	a3,gp,1360 # 20000dd0 <_ebss>
    395a:	953e                	add	a0,a0,a5
    395c:	00d56b63          	bltu	a0,a3,3972 <_sbrk+0x22>
    3960:	200056b7          	lui	a3,0x20005
    3964:	80068693          	addi	a3,a3,-2048 # 20004800 <_heap_end>
    3968:	00a6e563          	bltu	a3,a0,3972 <_sbrk+0x22>
    396c:	c308                	sw	a0,0(a4)
    396e:	853e                	mv	a0,a5
    3970:	8082                	ret
    3972:	57fd                	li	a5,-1
    3974:	bfed                	j	396e <_sbrk+0x1e>

00003976 <__get_MEPC>:
    3976:	34102573          	csrr	a0,mepc
    397a:	8082                	ret

0000397c <__get_MCAUSE>:
    397c:	34202573          	csrr	a0,mcause
    3980:	8082                	ret

00003982 <__get_MTVAL>:
    3982:	34302573          	csrr	a0,mtval
    3986:	8082                	ret

00003988 <memcpy>:
    3988:	00a5c7b3          	xor	a5,a1,a0
    398c:	8b8d                	andi	a5,a5,3
    398e:	00c50733          	add	a4,a0,a2
    3992:	e781                	bnez	a5,399a <memcpy+0x12>
    3994:	478d                	li	a5,3
    3996:	00c7ed63          	bltu	a5,a2,39b0 <memcpy+0x28>
    399a:	87aa                	mv	a5,a0
    399c:	08e57e63          	bgeu	a0,a4,3a38 <memcpy+0xb0>
    39a0:	2194                	lbu	a3,0(a1)
    39a2:	0785                	addi	a5,a5,1
    39a4:	0585                	addi	a1,a1,1
    39a6:	fed78fa3          	sb	a3,-1(a5)
    39aa:	fee7ebe3          	bltu	a5,a4,39a0 <memcpy+0x18>
    39ae:	8082                	ret
    39b0:	00357693          	andi	a3,a0,3
    39b4:	87aa                	mv	a5,a0
    39b6:	ca89                	beqz	a3,39c8 <memcpy+0x40>
    39b8:	2194                	lbu	a3,0(a1)
    39ba:	0785                	addi	a5,a5,1
    39bc:	0585                	addi	a1,a1,1
    39be:	fed78fa3          	sb	a3,-1(a5)
    39c2:	0037f693          	andi	a3,a5,3
    39c6:	bfc5                	j	39b6 <memcpy+0x2e>
    39c8:	ffc77693          	andi	a3,a4,-4
    39cc:	fe068613          	addi	a2,a3,-32
    39d0:	06c7f063          	bgeu	a5,a2,3a30 <memcpy+0xa8>
    39d4:	0005a383          	lw	t2,0(a1)
    39d8:	0045a283          	lw	t0,4(a1)
    39dc:	0085af83          	lw	t6,8(a1)
    39e0:	00c5af03          	lw	t5,12(a1)
    39e4:	0105ae83          	lw	t4,16(a1)
    39e8:	0145ae03          	lw	t3,20(a1)
    39ec:	0185a303          	lw	t1,24(a1)
    39f0:	01c5a883          	lw	a7,28(a1)
    39f4:	02458593          	addi	a1,a1,36
    39f8:	0077a023          	sw	t2,0(a5)
    39fc:	ffc5a803          	lw	a6,-4(a1)
    3a00:	0057a223          	sw	t0,4(a5)
    3a04:	01f7a423          	sw	t6,8(a5)
    3a08:	01e7a623          	sw	t5,12(a5)
    3a0c:	01d7a823          	sw	t4,16(a5)
    3a10:	01c7aa23          	sw	t3,20(a5)
    3a14:	0067ac23          	sw	t1,24(a5)
    3a18:	0117ae23          	sw	a7,28(a5)
    3a1c:	02478793          	addi	a5,a5,36
    3a20:	ff07ae23          	sw	a6,-4(a5)
    3a24:	b775                	j	39d0 <memcpy+0x48>
    3a26:	4190                	lw	a2,0(a1)
    3a28:	0791                	addi	a5,a5,4
    3a2a:	0591                	addi	a1,a1,4
    3a2c:	fec7ae23          	sw	a2,-4(a5)
    3a30:	fed7ebe3          	bltu	a5,a3,3a26 <memcpy+0x9e>
    3a34:	f6e7e6e3          	bltu	a5,a4,39a0 <memcpy+0x18>
    3a38:	8082                	ret

00003a3a <_free_r>:
    3a3a:	c5dd                	beqz	a1,3ae8 <_free_r+0xae>
    3a3c:	ffc5a783          	lw	a5,-4(a1)
    3a40:	1141                	addi	sp,sp,-16
    3a42:	c422                	sw	s0,8(sp)
    3a44:	c606                	sw	ra,12(sp)
    3a46:	c226                	sw	s1,4(sp)
    3a48:	ffc58413          	addi	s0,a1,-4
    3a4c:	0007d363          	bgez	a5,3a52 <_free_r+0x18>
    3a50:	943e                	add	s0,s0,a5
    3a52:	84aa                	mv	s1,a0
    3a54:	131000ef          	jal	ra,4384 <__malloc_lock>
    3a58:	1fffc797          	auipc	a5,0x1fffc
    3a5c:	6c078793          	addi	a5,a5,1728 # 20000118 <__malloc_free_list>
    3a60:	439c                	lw	a5,0(a5)
    3a62:	ef91                	bnez	a5,3a7e <_free_r+0x44>
    3a64:	00042223          	sw	zero,4(s0)
    3a68:	1fffc797          	auipc	a5,0x1fffc
    3a6c:	6a87a823          	sw	s0,1712(a5) # 20000118 <__malloc_free_list>
    3a70:	4422                	lw	s0,8(sp)
    3a72:	40b2                	lw	ra,12(sp)
    3a74:	8526                	mv	a0,s1
    3a76:	4492                	lw	s1,4(sp)
    3a78:	0141                	addi	sp,sp,16
    3a7a:	10d0006f          	j	4386 <__malloc_unlock>
    3a7e:	00f47e63          	bgeu	s0,a5,3a9a <_free_r+0x60>
    3a82:	4014                	lw	a3,0(s0)
    3a84:	00d40733          	add	a4,s0,a3
    3a88:	00e79663          	bne	a5,a4,3a94 <_free_r+0x5a>
    3a8c:	4398                	lw	a4,0(a5)
    3a8e:	43dc                	lw	a5,4(a5)
    3a90:	9736                	add	a4,a4,a3
    3a92:	c018                	sw	a4,0(s0)
    3a94:	c05c                	sw	a5,4(s0)
    3a96:	bfc9                	j	3a68 <_free_r+0x2e>
    3a98:	87ba                	mv	a5,a4
    3a9a:	43d8                	lw	a4,4(a5)
    3a9c:	c319                	beqz	a4,3aa2 <_free_r+0x68>
    3a9e:	fee47de3          	bgeu	s0,a4,3a98 <_free_r+0x5e>
    3aa2:	4394                	lw	a3,0(a5)
    3aa4:	00d78633          	add	a2,a5,a3
    3aa8:	00861f63          	bne	a2,s0,3ac6 <_free_r+0x8c>
    3aac:	4010                	lw	a2,0(s0)
    3aae:	96b2                	add	a3,a3,a2
    3ab0:	c394                	sw	a3,0(a5)
    3ab2:	00d78633          	add	a2,a5,a3
    3ab6:	fac71de3          	bne	a4,a2,3a70 <_free_r+0x36>
    3aba:	4310                	lw	a2,0(a4)
    3abc:	4358                	lw	a4,4(a4)
    3abe:	96b2                	add	a3,a3,a2
    3ac0:	c394                	sw	a3,0(a5)
    3ac2:	c3d8                	sw	a4,4(a5)
    3ac4:	b775                	j	3a70 <_free_r+0x36>
    3ac6:	00c47563          	bgeu	s0,a2,3ad0 <_free_r+0x96>
    3aca:	47b1                	li	a5,12
    3acc:	c09c                	sw	a5,0(s1)
    3ace:	b74d                	j	3a70 <_free_r+0x36>
    3ad0:	4010                	lw	a2,0(s0)
    3ad2:	00c406b3          	add	a3,s0,a2
    3ad6:	00d71663          	bne	a4,a3,3ae2 <_free_r+0xa8>
    3ada:	4314                	lw	a3,0(a4)
    3adc:	4358                	lw	a4,4(a4)
    3ade:	96b2                	add	a3,a3,a2
    3ae0:	c014                	sw	a3,0(s0)
    3ae2:	c058                	sw	a4,4(s0)
    3ae4:	c3c0                	sw	s0,4(a5)
    3ae6:	b769                	j	3a70 <_free_r+0x36>
    3ae8:	8082                	ret

00003aea <_malloc_r>:
    3aea:	1101                	addi	sp,sp,-32
    3aec:	ca26                	sw	s1,20(sp)
    3aee:	00358493          	addi	s1,a1,3
    3af2:	98f1                	andi	s1,s1,-4
    3af4:	ce06                	sw	ra,28(sp)
    3af6:	cc22                	sw	s0,24(sp)
    3af8:	c84a                	sw	s2,16(sp)
    3afa:	c64e                	sw	s3,12(sp)
    3afc:	04a1                	addi	s1,s1,8
    3afe:	47b1                	li	a5,12
    3b00:	04f4f963          	bgeu	s1,a5,3b52 <_malloc_r+0x68>
    3b04:	44b1                	li	s1,12
    3b06:	04b4e863          	bltu	s1,a1,3b56 <_malloc_r+0x6c>
    3b0a:	892a                	mv	s2,a0
    3b0c:	079000ef          	jal	ra,4384 <__malloc_lock>
    3b10:	1fffc797          	auipc	a5,0x1fffc
    3b14:	60878793          	addi	a5,a5,1544 # 20000118 <__malloc_free_list>
    3b18:	4398                	lw	a4,0(a5)
    3b1a:	843a                	mv	s0,a4
    3b1c:	e439                	bnez	s0,3b6a <_malloc_r+0x80>
    3b1e:	1fffc797          	auipc	a5,0x1fffc
    3b22:	5fe78793          	addi	a5,a5,1534 # 2000011c <__malloc_sbrk_start>
    3b26:	439c                	lw	a5,0(a5)
    3b28:	eb81                	bnez	a5,3b38 <_malloc_r+0x4e>
    3b2a:	4581                	li	a1,0
    3b2c:	854a                	mv	a0,s2
    3b2e:	22c1                	jal	3cee <_sbrk_r>
    3b30:	1fffc797          	auipc	a5,0x1fffc
    3b34:	5ea7a623          	sw	a0,1516(a5) # 2000011c <__malloc_sbrk_start>
    3b38:	85a6                	mv	a1,s1
    3b3a:	854a                	mv	a0,s2
    3b3c:	2a4d                	jal	3cee <_sbrk_r>
    3b3e:	59fd                	li	s3,-1
    3b40:	07351b63          	bne	a0,s3,3bb6 <_malloc_r+0xcc>
    3b44:	47b1                	li	a5,12
    3b46:	00f92023          	sw	a5,0(s2)
    3b4a:	854a                	mv	a0,s2
    3b4c:	03b000ef          	jal	ra,4386 <__malloc_unlock>
    3b50:	a029                	j	3b5a <_malloc_r+0x70>
    3b52:	fa04dae3          	bgez	s1,3b06 <_malloc_r+0x1c>
    3b56:	47b1                	li	a5,12
    3b58:	c11c                	sw	a5,0(a0)
    3b5a:	4501                	li	a0,0
    3b5c:	40f2                	lw	ra,28(sp)
    3b5e:	4462                	lw	s0,24(sp)
    3b60:	44d2                	lw	s1,20(sp)
    3b62:	4942                	lw	s2,16(sp)
    3b64:	49b2                	lw	s3,12(sp)
    3b66:	6105                	addi	sp,sp,32
    3b68:	8082                	ret
    3b6a:	401c                	lw	a5,0(s0)
    3b6c:	8f85                	sub	a5,a5,s1
    3b6e:	0407c163          	bltz	a5,3bb0 <_malloc_r+0xc6>
    3b72:	46ad                	li	a3,11
    3b74:	00f6f663          	bgeu	a3,a5,3b80 <_malloc_r+0x96>
    3b78:	c01c                	sw	a5,0(s0)
    3b7a:	943e                	add	s0,s0,a5
    3b7c:	c004                	sw	s1,0(s0)
    3b7e:	a801                	j	3b8e <_malloc_r+0xa4>
    3b80:	405c                	lw	a5,4(s0)
    3b82:	02871563          	bne	a4,s0,3bac <_malloc_r+0xc2>
    3b86:	1fffc717          	auipc	a4,0x1fffc
    3b8a:	58f72923          	sw	a5,1426(a4) # 20000118 <__malloc_free_list>
    3b8e:	854a                	mv	a0,s2
    3b90:	7f6000ef          	jal	ra,4386 <__malloc_unlock>
    3b94:	00b40513          	addi	a0,s0,11
    3b98:	00440793          	addi	a5,s0,4
    3b9c:	9961                	andi	a0,a0,-8
    3b9e:	40f50733          	sub	a4,a0,a5
    3ba2:	df4d                	beqz	a4,3b5c <_malloc_r+0x72>
    3ba4:	943a                	add	s0,s0,a4
    3ba6:	8f89                	sub	a5,a5,a0
    3ba8:	c01c                	sw	a5,0(s0)
    3baa:	bf4d                	j	3b5c <_malloc_r+0x72>
    3bac:	c35c                	sw	a5,4(a4)
    3bae:	b7c5                	j	3b8e <_malloc_r+0xa4>
    3bb0:	8722                	mv	a4,s0
    3bb2:	4040                	lw	s0,4(s0)
    3bb4:	b7a5                	j	3b1c <_malloc_r+0x32>
    3bb6:	00350413          	addi	s0,a0,3
    3bba:	9871                	andi	s0,s0,-4
    3bbc:	fc8500e3          	beq	a0,s0,3b7c <_malloc_r+0x92>
    3bc0:	40a405b3          	sub	a1,s0,a0
    3bc4:	854a                	mv	a0,s2
    3bc6:	2225                	jal	3cee <_sbrk_r>
    3bc8:	fb351ae3          	bne	a0,s3,3b7c <_malloc_r+0x92>
    3bcc:	bfa5                	j	3b44 <_malloc_r+0x5a>

00003bce <iprintf>:
    3bce:	7139                	addi	sp,sp,-64
    3bd0:	da3e                	sw	a5,52(sp)
    3bd2:	d22e                	sw	a1,36(sp)
    3bd4:	d432                	sw	a2,40(sp)
    3bd6:	d636                	sw	a3,44(sp)
    3bd8:	d83a                	sw	a4,48(sp)
    3bda:	dc42                	sw	a6,56(sp)
    3bdc:	de46                	sw	a7,60(sp)
    3bde:	81418793          	addi	a5,gp,-2028 # 20000094 <_impure_ptr>
    3be2:	cc22                	sw	s0,24(sp)
    3be4:	4380                	lw	s0,0(a5)
    3be6:	ca26                	sw	s1,20(sp)
    3be8:	ce06                	sw	ra,28(sp)
    3bea:	84aa                	mv	s1,a0
    3bec:	c409                	beqz	s0,3bf6 <iprintf+0x28>
    3bee:	4c1c                	lw	a5,24(s0)
    3bf0:	e399                	bnez	a5,3bf6 <iprintf+0x28>
    3bf2:	8522                	mv	a0,s0
    3bf4:	233d                	jal	4122 <__sinit>
    3bf6:	440c                	lw	a1,8(s0)
    3bf8:	1054                	addi	a3,sp,36
    3bfa:	8626                	mv	a2,s1
    3bfc:	8522                	mv	a0,s0
    3bfe:	c636                	sw	a3,12(sp)
    3c00:	7f2000ef          	jal	ra,43f2 <_vfiprintf_r>
    3c04:	40f2                	lw	ra,28(sp)
    3c06:	4462                	lw	s0,24(sp)
    3c08:	44d2                	lw	s1,20(sp)
    3c0a:	6121                	addi	sp,sp,64
    3c0c:	8082                	ret

00003c0e <_puts_r>:
    3c0e:	1101                	addi	sp,sp,-32
    3c10:	ca26                	sw	s1,20(sp)
    3c12:	c84a                	sw	s2,16(sp)
    3c14:	ce06                	sw	ra,28(sp)
    3c16:	cc22                	sw	s0,24(sp)
    3c18:	c64e                	sw	s3,12(sp)
    3c1a:	c452                	sw	s4,8(sp)
    3c1c:	84aa                	mv	s1,a0
    3c1e:	892e                	mv	s2,a1
    3c20:	c501                	beqz	a0,3c28 <_puts_r+0x1a>
    3c22:	4d1c                	lw	a5,24(a0)
    3c24:	e391                	bnez	a5,3c28 <_puts_r+0x1a>
    3c26:	29f5                	jal	4122 <__sinit>
    3c28:	4c9c                	lw	a5,24(s1)
    3c2a:	4480                	lw	s0,8(s1)
    3c2c:	e399                	bnez	a5,3c32 <_puts_r+0x24>
    3c2e:	8526                	mv	a0,s1
    3c30:	29cd                	jal	4122 <__sinit>
    3c32:	00001797          	auipc	a5,0x1
    3c36:	1ca78793          	addi	a5,a5,458 # 4dfc <__sf_fake_stdin>
    3c3a:	02f41b63          	bne	s0,a5,3c70 <_puts_r+0x62>
    3c3e:	40c0                	lw	s0,4(s1)
    3c40:	245e                	lhu	a5,12(s0)
    3c42:	8ba1                	andi	a5,a5,8
    3c44:	c7b1                	beqz	a5,3c90 <_puts_r+0x82>
    3c46:	481c                	lw	a5,16(s0)
    3c48:	c7a1                	beqz	a5,3c90 <_puts_r+0x82>
    3c4a:	59fd                	li	s3,-1
    3c4c:	4a29                	li	s4,10
    3c4e:	441c                	lw	a5,8(s0)
    3c50:	00094583          	lbu	a1,0(s2)
    3c54:	17fd                	addi	a5,a5,-1
    3c56:	e9b1                	bnez	a1,3caa <_puts_r+0x9c>
    3c58:	c41c                	sw	a5,8(s0)
    3c5a:	0607dd63          	bgez	a5,3cd4 <_puts_r+0xc6>
    3c5e:	8622                	mv	a2,s0
    3c60:	45a9                	li	a1,10
    3c62:	8526                	mv	a0,s1
    3c64:	2855                	jal	3d18 <__swbuf_r>
    3c66:	57fd                	li	a5,-1
    3c68:	02f50863          	beq	a0,a5,3c98 <_puts_r+0x8a>
    3c6c:	4529                	li	a0,10
    3c6e:	a035                	j	3c9a <_puts_r+0x8c>
    3c70:	00001797          	auipc	a5,0x1
    3c74:	1ac78793          	addi	a5,a5,428 # 4e1c <__sf_fake_stdout>
    3c78:	00f41463          	bne	s0,a5,3c80 <_puts_r+0x72>
    3c7c:	4480                	lw	s0,8(s1)
    3c7e:	b7c9                	j	3c40 <_puts_r+0x32>
    3c80:	00001797          	auipc	a5,0x1
    3c84:	15c78793          	addi	a5,a5,348 # 4ddc <__sf_fake_stderr>
    3c88:	faf41ce3          	bne	s0,a5,3c40 <_puts_r+0x32>
    3c8c:	44c0                	lw	s0,12(s1)
    3c8e:	bf4d                	j	3c40 <_puts_r+0x32>
    3c90:	85a2                	mv	a1,s0
    3c92:	8526                	mv	a0,s1
    3c94:	2281                	jal	3dd4 <__swsetup_r>
    3c96:	d955                	beqz	a0,3c4a <_puts_r+0x3c>
    3c98:	557d                	li	a0,-1
    3c9a:	40f2                	lw	ra,28(sp)
    3c9c:	4462                	lw	s0,24(sp)
    3c9e:	44d2                	lw	s1,20(sp)
    3ca0:	4942                	lw	s2,16(sp)
    3ca2:	49b2                	lw	s3,12(sp)
    3ca4:	4a22                	lw	s4,8(sp)
    3ca6:	6105                	addi	sp,sp,32
    3ca8:	8082                	ret
    3caa:	c41c                	sw	a5,8(s0)
    3cac:	0905                	addi	s2,s2,1
    3cae:	0007d763          	bgez	a5,3cbc <_puts_r+0xae>
    3cb2:	4c18                	lw	a4,24(s0)
    3cb4:	00e7ca63          	blt	a5,a4,3cc8 <_puts_r+0xba>
    3cb8:	01458863          	beq	a1,s4,3cc8 <_puts_r+0xba>
    3cbc:	401c                	lw	a5,0(s0)
    3cbe:	00178713          	addi	a4,a5,1
    3cc2:	c018                	sw	a4,0(s0)
    3cc4:	a38c                	sb	a1,0(a5)
    3cc6:	b761                	j	3c4e <_puts_r+0x40>
    3cc8:	8622                	mv	a2,s0
    3cca:	8526                	mv	a0,s1
    3ccc:	20b1                	jal	3d18 <__swbuf_r>
    3cce:	f93510e3          	bne	a0,s3,3c4e <_puts_r+0x40>
    3cd2:	b7d9                	j	3c98 <_puts_r+0x8a>
    3cd4:	401c                	lw	a5,0(s0)
    3cd6:	00178713          	addi	a4,a5,1
    3cda:	c018                	sw	a4,0(s0)
    3cdc:	4729                	li	a4,10
    3cde:	a398                	sb	a4,0(a5)
    3ce0:	b771                	j	3c6c <_puts_r+0x5e>

00003ce2 <puts>:
    3ce2:	81418793          	addi	a5,gp,-2028 # 20000094 <_impure_ptr>
    3ce6:	85aa                	mv	a1,a0
    3ce8:	4388                	lw	a0,0(a5)
    3cea:	f25ff06f          	j	3c0e <_puts_r>

00003cee <_sbrk_r>:
    3cee:	1141                	addi	sp,sp,-16
    3cf0:	c422                	sw	s0,8(sp)
    3cf2:	842a                	mv	s0,a0
    3cf4:	852e                	mv	a0,a1
    3cf6:	5401a623          	sw	zero,1356(gp) # 20000dcc <errno>
    3cfa:	c606                	sw	ra,12(sp)
    3cfc:	c55ff0ef          	jal	ra,3950 <_sbrk>
    3d00:	57fd                	li	a5,-1
    3d02:	00f51763          	bne	a0,a5,3d10 <_sbrk_r+0x22>
    3d06:	54c18793          	addi	a5,gp,1356 # 20000dcc <errno>
    3d0a:	439c                	lw	a5,0(a5)
    3d0c:	c391                	beqz	a5,3d10 <_sbrk_r+0x22>
    3d0e:	c01c                	sw	a5,0(s0)
    3d10:	40b2                	lw	ra,12(sp)
    3d12:	4422                	lw	s0,8(sp)
    3d14:	0141                	addi	sp,sp,16
    3d16:	8082                	ret

00003d18 <__swbuf_r>:
    3d18:	1101                	addi	sp,sp,-32
    3d1a:	cc22                	sw	s0,24(sp)
    3d1c:	ca26                	sw	s1,20(sp)
    3d1e:	c84a                	sw	s2,16(sp)
    3d20:	ce06                	sw	ra,28(sp)
    3d22:	c64e                	sw	s3,12(sp)
    3d24:	84aa                	mv	s1,a0
    3d26:	892e                	mv	s2,a1
    3d28:	8432                	mv	s0,a2
    3d2a:	c501                	beqz	a0,3d32 <__swbuf_r+0x1a>
    3d2c:	4d1c                	lw	a5,24(a0)
    3d2e:	e391                	bnez	a5,3d32 <__swbuf_r+0x1a>
    3d30:	2ecd                	jal	4122 <__sinit>
    3d32:	00001797          	auipc	a5,0x1
    3d36:	0ca78793          	addi	a5,a5,202 # 4dfc <__sf_fake_stdin>
    3d3a:	06f41763          	bne	s0,a5,3da8 <__swbuf_r+0x90>
    3d3e:	40c0                	lw	s0,4(s1)
    3d40:	4c1c                	lw	a5,24(s0)
    3d42:	c41c                	sw	a5,8(s0)
    3d44:	245e                	lhu	a5,12(s0)
    3d46:	8ba1                	andi	a5,a5,8
    3d48:	c3c1                	beqz	a5,3dc8 <__swbuf_r+0xb0>
    3d4a:	481c                	lw	a5,16(s0)
    3d4c:	cfb5                	beqz	a5,3dc8 <__swbuf_r+0xb0>
    3d4e:	481c                	lw	a5,16(s0)
    3d50:	4008                	lw	a0,0(s0)
    3d52:	0ff97993          	andi	s3,s2,255
    3d56:	0ff97913          	andi	s2,s2,255
    3d5a:	8d1d                	sub	a0,a0,a5
    3d5c:	485c                	lw	a5,20(s0)
    3d5e:	00f54663          	blt	a0,a5,3d6a <__swbuf_r+0x52>
    3d62:	85a2                	mv	a1,s0
    3d64:	8526                	mv	a0,s1
    3d66:	2c79                	jal	4004 <_fflush_r>
    3d68:	e525                	bnez	a0,3dd0 <__swbuf_r+0xb8>
    3d6a:	441c                	lw	a5,8(s0)
    3d6c:	0505                	addi	a0,a0,1
    3d6e:	17fd                	addi	a5,a5,-1
    3d70:	c41c                	sw	a5,8(s0)
    3d72:	401c                	lw	a5,0(s0)
    3d74:	00178713          	addi	a4,a5,1
    3d78:	c018                	sw	a4,0(s0)
    3d7a:	01378023          	sb	s3,0(a5)
    3d7e:	485c                	lw	a5,20(s0)
    3d80:	00a78863          	beq	a5,a0,3d90 <__swbuf_r+0x78>
    3d84:	245e                	lhu	a5,12(s0)
    3d86:	8b85                	andi	a5,a5,1
    3d88:	cb81                	beqz	a5,3d98 <__swbuf_r+0x80>
    3d8a:	47a9                	li	a5,10
    3d8c:	00f91663          	bne	s2,a5,3d98 <__swbuf_r+0x80>
    3d90:	85a2                	mv	a1,s0
    3d92:	8526                	mv	a0,s1
    3d94:	2c85                	jal	4004 <_fflush_r>
    3d96:	ed0d                	bnez	a0,3dd0 <__swbuf_r+0xb8>
    3d98:	40f2                	lw	ra,28(sp)
    3d9a:	4462                	lw	s0,24(sp)
    3d9c:	854a                	mv	a0,s2
    3d9e:	44d2                	lw	s1,20(sp)
    3da0:	4942                	lw	s2,16(sp)
    3da2:	49b2                	lw	s3,12(sp)
    3da4:	6105                	addi	sp,sp,32
    3da6:	8082                	ret
    3da8:	00001797          	auipc	a5,0x1
    3dac:	07478793          	addi	a5,a5,116 # 4e1c <__sf_fake_stdout>
    3db0:	00f41463          	bne	s0,a5,3db8 <__swbuf_r+0xa0>
    3db4:	4480                	lw	s0,8(s1)
    3db6:	b769                	j	3d40 <__swbuf_r+0x28>
    3db8:	00001797          	auipc	a5,0x1
    3dbc:	02478793          	addi	a5,a5,36 # 4ddc <__sf_fake_stderr>
    3dc0:	f8f410e3          	bne	s0,a5,3d40 <__swbuf_r+0x28>
    3dc4:	44c0                	lw	s0,12(s1)
    3dc6:	bfad                	j	3d40 <__swbuf_r+0x28>
    3dc8:	85a2                	mv	a1,s0
    3dca:	8526                	mv	a0,s1
    3dcc:	2021                	jal	3dd4 <__swsetup_r>
    3dce:	d141                	beqz	a0,3d4e <__swbuf_r+0x36>
    3dd0:	597d                	li	s2,-1
    3dd2:	b7d9                	j	3d98 <__swbuf_r+0x80>

00003dd4 <__swsetup_r>:
    3dd4:	1141                	addi	sp,sp,-16
    3dd6:	81418793          	addi	a5,gp,-2028 # 20000094 <_impure_ptr>
    3dda:	c226                	sw	s1,4(sp)
    3ddc:	4384                	lw	s1,0(a5)
    3dde:	c422                	sw	s0,8(sp)
    3de0:	c04a                	sw	s2,0(sp)
    3de2:	c606                	sw	ra,12(sp)
    3de4:	892a                	mv	s2,a0
    3de6:	842e                	mv	s0,a1
    3de8:	c489                	beqz	s1,3df2 <__swsetup_r+0x1e>
    3dea:	4c9c                	lw	a5,24(s1)
    3dec:	e399                	bnez	a5,3df2 <__swsetup_r+0x1e>
    3dee:	8526                	mv	a0,s1
    3df0:	2e0d                	jal	4122 <__sinit>
    3df2:	00001797          	auipc	a5,0x1
    3df6:	00a78793          	addi	a5,a5,10 # 4dfc <__sf_fake_stdin>
    3dfa:	02f41b63          	bne	s0,a5,3e30 <__swsetup_r+0x5c>
    3dfe:	40c0                	lw	s0,4(s1)
    3e00:	00c41703          	lh	a4,12(s0)
    3e04:	01071793          	slli	a5,a4,0x10
    3e08:	83c1                	srli	a5,a5,0x10
    3e0a:	0087f693          	andi	a3,a5,8
    3e0e:	eab5                	bnez	a3,3e82 <__swsetup_r+0xae>
    3e10:	0107f693          	andi	a3,a5,16
    3e14:	ee95                	bnez	a3,3e50 <__swsetup_r+0x7c>
    3e16:	47a5                	li	a5,9
    3e18:	00f92023          	sw	a5,0(s2)
    3e1c:	04076713          	ori	a4,a4,64
    3e20:	a45a                	sh	a4,12(s0)
    3e22:	557d                	li	a0,-1
    3e24:	40b2                	lw	ra,12(sp)
    3e26:	4422                	lw	s0,8(sp)
    3e28:	4492                	lw	s1,4(sp)
    3e2a:	4902                	lw	s2,0(sp)
    3e2c:	0141                	addi	sp,sp,16
    3e2e:	8082                	ret
    3e30:	00001797          	auipc	a5,0x1
    3e34:	fec78793          	addi	a5,a5,-20 # 4e1c <__sf_fake_stdout>
    3e38:	00f41463          	bne	s0,a5,3e40 <__swsetup_r+0x6c>
    3e3c:	4480                	lw	s0,8(s1)
    3e3e:	b7c9                	j	3e00 <__swsetup_r+0x2c>
    3e40:	00001797          	auipc	a5,0x1
    3e44:	f9c78793          	addi	a5,a5,-100 # 4ddc <__sf_fake_stderr>
    3e48:	faf41ce3          	bne	s0,a5,3e00 <__swsetup_r+0x2c>
    3e4c:	44c0                	lw	s0,12(s1)
    3e4e:	bf4d                	j	3e00 <__swsetup_r+0x2c>
    3e50:	8b91                	andi	a5,a5,4
    3e52:	c785                	beqz	a5,3e7a <__swsetup_r+0xa6>
    3e54:	584c                	lw	a1,52(s0)
    3e56:	c991                	beqz	a1,3e6a <__swsetup_r+0x96>
    3e58:	04440793          	addi	a5,s0,68
    3e5c:	00f58563          	beq	a1,a5,3e66 <__swsetup_r+0x92>
    3e60:	854a                	mv	a0,s2
    3e62:	bd9ff0ef          	jal	ra,3a3a <_free_r>
    3e66:	02042a23          	sw	zero,52(s0)
    3e6a:	245e                	lhu	a5,12(s0)
    3e6c:	00042223          	sw	zero,4(s0)
    3e70:	fdb7f793          	andi	a5,a5,-37
    3e74:	a45e                	sh	a5,12(s0)
    3e76:	481c                	lw	a5,16(s0)
    3e78:	c01c                	sw	a5,0(s0)
    3e7a:	245e                	lhu	a5,12(s0)
    3e7c:	0087e793          	ori	a5,a5,8
    3e80:	a45e                	sh	a5,12(s0)
    3e82:	481c                	lw	a5,16(s0)
    3e84:	eb99                	bnez	a5,3e9a <__swsetup_r+0xc6>
    3e86:	245e                	lhu	a5,12(s0)
    3e88:	20000713          	li	a4,512
    3e8c:	2807f793          	andi	a5,a5,640
    3e90:	00e78563          	beq	a5,a4,3e9a <__swsetup_r+0xc6>
    3e94:	85a2                	mv	a1,s0
    3e96:	854a                	mv	a0,s2
    3e98:	29a1                	jal	42f0 <__smakebuf_r>
    3e9a:	245e                	lhu	a5,12(s0)
    3e9c:	0017f713          	andi	a4,a5,1
    3ea0:	c31d                	beqz	a4,3ec6 <__swsetup_r+0xf2>
    3ea2:	485c                	lw	a5,20(s0)
    3ea4:	00042423          	sw	zero,8(s0)
    3ea8:	40f007b3          	neg	a5,a5
    3eac:	cc1c                	sw	a5,24(s0)
    3eae:	481c                	lw	a5,16(s0)
    3eb0:	4501                	li	a0,0
    3eb2:	fbad                	bnez	a5,3e24 <__swsetup_r+0x50>
    3eb4:	00c41783          	lh	a5,12(s0)
    3eb8:	0807f713          	andi	a4,a5,128
    3ebc:	d725                	beqz	a4,3e24 <__swsetup_r+0x50>
    3ebe:	0407e793          	ori	a5,a5,64
    3ec2:	a45e                	sh	a5,12(s0)
    3ec4:	bfb9                	j	3e22 <__swsetup_r+0x4e>
    3ec6:	8b89                	andi	a5,a5,2
    3ec8:	4701                	li	a4,0
    3eca:	e391                	bnez	a5,3ece <__swsetup_r+0xfa>
    3ecc:	4858                	lw	a4,20(s0)
    3ece:	c418                	sw	a4,8(s0)
    3ed0:	bff9                	j	3eae <__swsetup_r+0xda>

00003ed2 <__sflush_r>:
    3ed2:	25de                	lhu	a5,12(a1)
    3ed4:	1101                	addi	sp,sp,-32
    3ed6:	cc22                	sw	s0,24(sp)
    3ed8:	ca26                	sw	s1,20(sp)
    3eda:	ce06                	sw	ra,28(sp)
    3edc:	c84a                	sw	s2,16(sp)
    3ede:	c64e                	sw	s3,12(sp)
    3ee0:	0087f713          	andi	a4,a5,8
    3ee4:	84aa                	mv	s1,a0
    3ee6:	842e                	mv	s0,a1
    3ee8:	ef61                	bnez	a4,3fc0 <__sflush_r+0xee>
    3eea:	41d8                	lw	a4,4(a1)
    3eec:	00e04d63          	bgtz	a4,3f06 <__sflush_r+0x34>
    3ef0:	41b8                	lw	a4,64(a1)
    3ef2:	00e04a63          	bgtz	a4,3f06 <__sflush_r+0x34>
    3ef6:	4501                	li	a0,0
    3ef8:	40f2                	lw	ra,28(sp)
    3efa:	4462                	lw	s0,24(sp)
    3efc:	44d2                	lw	s1,20(sp)
    3efe:	4942                	lw	s2,16(sp)
    3f00:	49b2                	lw	s3,12(sp)
    3f02:	6105                	addi	sp,sp,32
    3f04:	8082                	ret
    3f06:	5458                	lw	a4,44(s0)
    3f08:	d77d                	beqz	a4,3ef6 <__sflush_r+0x24>
    3f0a:	0004a903          	lw	s2,0(s1)
    3f0e:	01379693          	slli	a3,a5,0x13
    3f12:	0004a023          	sw	zero,0(s1)
    3f16:	0606dc63          	bgez	a3,3f8e <__sflush_r+0xbc>
    3f1a:	4870                	lw	a2,84(s0)
    3f1c:	245e                	lhu	a5,12(s0)
    3f1e:	8b91                	andi	a5,a5,4
    3f20:	c799                	beqz	a5,3f2e <__sflush_r+0x5c>
    3f22:	405c                	lw	a5,4(s0)
    3f24:	8e1d                	sub	a2,a2,a5
    3f26:	585c                	lw	a5,52(s0)
    3f28:	c399                	beqz	a5,3f2e <__sflush_r+0x5c>
    3f2a:	403c                	lw	a5,64(s0)
    3f2c:	8e1d                	sub	a2,a2,a5
    3f2e:	545c                	lw	a5,44(s0)
    3f30:	500c                	lw	a1,32(s0)
    3f32:	4681                	li	a3,0
    3f34:	8526                	mv	a0,s1
    3f36:	9782                	jalr	a5
    3f38:	57fd                	li	a5,-1
    3f3a:	245a                	lhu	a4,12(s0)
    3f3c:	00f51d63          	bne	a0,a5,3f56 <__sflush_r+0x84>
    3f40:	4094                	lw	a3,0(s1)
    3f42:	47f5                	li	a5,29
    3f44:	06d7e963          	bltu	a5,a3,3fb6 <__sflush_r+0xe4>
    3f48:	204007b7          	lui	a5,0x20400
    3f4c:	0785                	addi	a5,a5,1
    3f4e:	00d7d7b3          	srl	a5,a5,a3
    3f52:	8b85                	andi	a5,a5,1
    3f54:	c3ad                	beqz	a5,3fb6 <__sflush_r+0xe4>
    3f56:	481c                	lw	a5,16(s0)
    3f58:	00042223          	sw	zero,4(s0)
    3f5c:	c01c                	sw	a5,0(s0)
    3f5e:	01371793          	slli	a5,a4,0x13
    3f62:	0007d863          	bgez	a5,3f72 <__sflush_r+0xa0>
    3f66:	57fd                	li	a5,-1
    3f68:	00f51463          	bne	a0,a5,3f70 <__sflush_r+0x9e>
    3f6c:	409c                	lw	a5,0(s1)
    3f6e:	e391                	bnez	a5,3f72 <__sflush_r+0xa0>
    3f70:	c868                	sw	a0,84(s0)
    3f72:	584c                	lw	a1,52(s0)
    3f74:	0124a023          	sw	s2,0(s1)
    3f78:	ddbd                	beqz	a1,3ef6 <__sflush_r+0x24>
    3f7a:	04440793          	addi	a5,s0,68
    3f7e:	00f58563          	beq	a1,a5,3f88 <__sflush_r+0xb6>
    3f82:	8526                	mv	a0,s1
    3f84:	ab7ff0ef          	jal	ra,3a3a <_free_r>
    3f88:	02042a23          	sw	zero,52(s0)
    3f8c:	b7ad                	j	3ef6 <__sflush_r+0x24>
    3f8e:	500c                	lw	a1,32(s0)
    3f90:	4601                	li	a2,0
    3f92:	4685                	li	a3,1
    3f94:	8526                	mv	a0,s1
    3f96:	9702                	jalr	a4
    3f98:	57fd                	li	a5,-1
    3f9a:	862a                	mv	a2,a0
    3f9c:	f8f510e3          	bne	a0,a5,3f1c <__sflush_r+0x4a>
    3fa0:	409c                	lw	a5,0(s1)
    3fa2:	dfad                	beqz	a5,3f1c <__sflush_r+0x4a>
    3fa4:	4775                	li	a4,29
    3fa6:	00e78563          	beq	a5,a4,3fb0 <__sflush_r+0xde>
    3faa:	4759                	li	a4,22
    3fac:	04e79363          	bne	a5,a4,3ff2 <__sflush_r+0x120>
    3fb0:	0124a023          	sw	s2,0(s1)
    3fb4:	b789                	j	3ef6 <__sflush_r+0x24>
    3fb6:	04076713          	ori	a4,a4,64
    3fba:	a45a                	sh	a4,12(s0)
    3fbc:	557d                	li	a0,-1
    3fbe:	bf2d                	j	3ef8 <__sflush_r+0x26>
    3fc0:	0105a983          	lw	s3,16(a1)
    3fc4:	f20989e3          	beqz	s3,3ef6 <__sflush_r+0x24>
    3fc8:	0005a903          	lw	s2,0(a1)
    3fcc:	8b8d                	andi	a5,a5,3
    3fce:	0135a023          	sw	s3,0(a1)
    3fd2:	41390933          	sub	s2,s2,s3
    3fd6:	4701                	li	a4,0
    3fd8:	e391                	bnez	a5,3fdc <__sflush_r+0x10a>
    3fda:	49d8                	lw	a4,20(a1)
    3fdc:	c418                	sw	a4,8(s0)
    3fde:	f1205ce3          	blez	s2,3ef6 <__sflush_r+0x24>
    3fe2:	541c                	lw	a5,40(s0)
    3fe4:	500c                	lw	a1,32(s0)
    3fe6:	86ca                	mv	a3,s2
    3fe8:	864e                	mv	a2,s3
    3fea:	8526                	mv	a0,s1
    3fec:	9782                	jalr	a5
    3fee:	00a04763          	bgtz	a0,3ffc <__sflush_r+0x12a>
    3ff2:	245e                	lhu	a5,12(s0)
    3ff4:	0407e793          	ori	a5,a5,64
    3ff8:	a45e                	sh	a5,12(s0)
    3ffa:	b7c9                	j	3fbc <__sflush_r+0xea>
    3ffc:	99aa                	add	s3,s3,a0
    3ffe:	40a90933          	sub	s2,s2,a0
    4002:	bff1                	j	3fde <__sflush_r+0x10c>

00004004 <_fflush_r>:
    4004:	499c                	lw	a5,16(a1)
    4006:	c3a5                	beqz	a5,4066 <_fflush_r+0x62>
    4008:	1101                	addi	sp,sp,-32
    400a:	cc22                	sw	s0,24(sp)
    400c:	ce06                	sw	ra,28(sp)
    400e:	842a                	mv	s0,a0
    4010:	c511                	beqz	a0,401c <_fflush_r+0x18>
    4012:	4d1c                	lw	a5,24(a0)
    4014:	e781                	bnez	a5,401c <_fflush_r+0x18>
    4016:	c62e                	sw	a1,12(sp)
    4018:	2229                	jal	4122 <__sinit>
    401a:	45b2                	lw	a1,12(sp)
    401c:	00001797          	auipc	a5,0x1
    4020:	de078793          	addi	a5,a5,-544 # 4dfc <__sf_fake_stdin>
    4024:	00f59c63          	bne	a1,a5,403c <_fflush_r+0x38>
    4028:	404c                	lw	a1,4(s0)
    402a:	00c59783          	lh	a5,12(a1)
    402e:	c79d                	beqz	a5,405c <_fflush_r+0x58>
    4030:	8522                	mv	a0,s0
    4032:	4462                	lw	s0,24(sp)
    4034:	40f2                	lw	ra,28(sp)
    4036:	6105                	addi	sp,sp,32
    4038:	e9bff06f          	j	3ed2 <__sflush_r>
    403c:	00001797          	auipc	a5,0x1
    4040:	de078793          	addi	a5,a5,-544 # 4e1c <__sf_fake_stdout>
    4044:	00f59463          	bne	a1,a5,404c <_fflush_r+0x48>
    4048:	440c                	lw	a1,8(s0)
    404a:	b7c5                	j	402a <_fflush_r+0x26>
    404c:	00001797          	auipc	a5,0x1
    4050:	d9078793          	addi	a5,a5,-624 # 4ddc <__sf_fake_stderr>
    4054:	fcf59be3          	bne	a1,a5,402a <_fflush_r+0x26>
    4058:	444c                	lw	a1,12(s0)
    405a:	bfc1                	j	402a <_fflush_r+0x26>
    405c:	40f2                	lw	ra,28(sp)
    405e:	4462                	lw	s0,24(sp)
    4060:	4501                	li	a0,0
    4062:	6105                	addi	sp,sp,32
    4064:	8082                	ret
    4066:	4501                	li	a0,0
    4068:	8082                	ret

0000406a <std>:
    406a:	1141                	addi	sp,sp,-16
    406c:	c422                	sw	s0,8(sp)
    406e:	c606                	sw	ra,12(sp)
    4070:	842a                	mv	s0,a0
    4072:	a54e                	sh	a1,12(a0)
    4074:	a572                	sh	a2,14(a0)
    4076:	00052023          	sw	zero,0(a0)
    407a:	00052223          	sw	zero,4(a0)
    407e:	00052423          	sw	zero,8(a0)
    4082:	06052223          	sw	zero,100(a0)
    4086:	00052823          	sw	zero,16(a0)
    408a:	00052a23          	sw	zero,20(a0)
    408e:	00052c23          	sw	zero,24(a0)
    4092:	4621                	li	a2,8
    4094:	4581                	li	a1,0
    4096:	05c50513          	addi	a0,a0,92
    409a:	cb4fc0ef          	jal	ra,54e <memset>
    409e:	00001797          	auipc	a5,0x1
    40a2:	98a78793          	addi	a5,a5,-1654 # 4a28 <__sread>
    40a6:	d05c                	sw	a5,36(s0)
    40a8:	00001797          	auipc	a5,0x1
    40ac:	9ac78793          	addi	a5,a5,-1620 # 4a54 <__swrite>
    40b0:	d41c                	sw	a5,40(s0)
    40b2:	00001797          	auipc	a5,0x1
    40b6:	9ea78793          	addi	a5,a5,-1558 # 4a9c <__sseek>
    40ba:	d45c                	sw	a5,44(s0)
    40bc:	00001797          	auipc	a5,0x1
    40c0:	a1078793          	addi	a5,a5,-1520 # 4acc <__sclose>
    40c4:	d000                	sw	s0,32(s0)
    40c6:	d81c                	sw	a5,48(s0)
    40c8:	40b2                	lw	ra,12(sp)
    40ca:	4422                	lw	s0,8(sp)
    40cc:	0141                	addi	sp,sp,16
    40ce:	8082                	ret

000040d0 <_cleanup_r>:
    40d0:	00000597          	auipc	a1,0x0
    40d4:	f3458593          	addi	a1,a1,-204 # 4004 <_fflush_r>
    40d8:	aa99                	j	422e <_fwalk_reent>

000040da <__sfmoreglue>:
    40da:	1141                	addi	sp,sp,-16
    40dc:	c226                	sw	s1,4(sp)
    40de:	06800613          	li	a2,104
    40e2:	fff58493          	addi	s1,a1,-1
    40e6:	02c484b3          	mul	s1,s1,a2
    40ea:	c04a                	sw	s2,0(sp)
    40ec:	892e                	mv	s2,a1
    40ee:	c422                	sw	s0,8(sp)
    40f0:	c606                	sw	ra,12(sp)
    40f2:	07448593          	addi	a1,s1,116
    40f6:	9f5ff0ef          	jal	ra,3aea <_malloc_r>
    40fa:	842a                	mv	s0,a0
    40fc:	cd01                	beqz	a0,4114 <__sfmoreglue+0x3a>
    40fe:	00052023          	sw	zero,0(a0)
    4102:	01252223          	sw	s2,4(a0)
    4106:	0531                	addi	a0,a0,12
    4108:	c408                	sw	a0,8(s0)
    410a:	06848613          	addi	a2,s1,104
    410e:	4581                	li	a1,0
    4110:	c3efc0ef          	jal	ra,54e <memset>
    4114:	8522                	mv	a0,s0
    4116:	40b2                	lw	ra,12(sp)
    4118:	4422                	lw	s0,8(sp)
    411a:	4492                	lw	s1,4(sp)
    411c:	4902                	lw	s2,0(sp)
    411e:	0141                	addi	sp,sp,16
    4120:	8082                	ret

00004122 <__sinit>:
    4122:	4d1c                	lw	a5,24(a0)
    4124:	e7a5                	bnez	a5,418c <__sinit+0x6a>
    4126:	1141                	addi	sp,sp,-16
    4128:	c606                	sw	ra,12(sp)
    412a:	c422                	sw	s0,8(sp)
    412c:	00000797          	auipc	a5,0x0
    4130:	fa478793          	addi	a5,a5,-92 # 40d0 <_cleanup_r>
    4134:	d51c                	sw	a5,40(a0)
    4136:	81c18793          	addi	a5,gp,-2020 # 2000009c <_global_impure_ptr>
    413a:	439c                	lw	a5,0(a5)
    413c:	04052423          	sw	zero,72(a0)
    4140:	04052623          	sw	zero,76(a0)
    4144:	04052823          	sw	zero,80(a0)
    4148:	00f51463          	bne	a0,a5,4150 <__sinit+0x2e>
    414c:	4785                	li	a5,1
    414e:	cd1c                	sw	a5,24(a0)
    4150:	842a                	mv	s0,a0
    4152:	2835                	jal	418e <__sfp>
    4154:	c048                	sw	a0,4(s0)
    4156:	8522                	mv	a0,s0
    4158:	281d                	jal	418e <__sfp>
    415a:	c408                	sw	a0,8(s0)
    415c:	8522                	mv	a0,s0
    415e:	2805                	jal	418e <__sfp>
    4160:	c448                	sw	a0,12(s0)
    4162:	4048                	lw	a0,4(s0)
    4164:	4601                	li	a2,0
    4166:	4591                	li	a1,4
    4168:	f03ff0ef          	jal	ra,406a <std>
    416c:	4408                	lw	a0,8(s0)
    416e:	4605                	li	a2,1
    4170:	45a5                	li	a1,9
    4172:	ef9ff0ef          	jal	ra,406a <std>
    4176:	4448                	lw	a0,12(s0)
    4178:	4609                	li	a2,2
    417a:	45c9                	li	a1,18
    417c:	eefff0ef          	jal	ra,406a <std>
    4180:	4785                	li	a5,1
    4182:	cc1c                	sw	a5,24(s0)
    4184:	40b2                	lw	ra,12(sp)
    4186:	4422                	lw	s0,8(sp)
    4188:	0141                	addi	sp,sp,16
    418a:	8082                	ret
    418c:	8082                	ret

0000418e <__sfp>:
    418e:	1141                	addi	sp,sp,-16
    4190:	81c18793          	addi	a5,gp,-2020 # 2000009c <_global_impure_ptr>
    4194:	c226                	sw	s1,4(sp)
    4196:	4384                	lw	s1,0(a5)
    4198:	c04a                	sw	s2,0(sp)
    419a:	c606                	sw	ra,12(sp)
    419c:	4c9c                	lw	a5,24(s1)
    419e:	c422                	sw	s0,8(sp)
    41a0:	892a                	mv	s2,a0
    41a2:	e781                	bnez	a5,41aa <__sfp+0x1c>
    41a4:	8526                	mv	a0,s1
    41a6:	f7dff0ef          	jal	ra,4122 <__sinit>
    41aa:	04848493          	addi	s1,s1,72
    41ae:	4480                	lw	s0,8(s1)
    41b0:	40dc                	lw	a5,4(s1)
    41b2:	17fd                	addi	a5,a5,-1
    41b4:	0007d663          	bgez	a5,41c0 <__sfp+0x32>
    41b8:	409c                	lw	a5,0(s1)
    41ba:	cfb9                	beqz	a5,4218 <__sfp+0x8a>
    41bc:	4084                	lw	s1,0(s1)
    41be:	bfc5                	j	41ae <__sfp+0x20>
    41c0:	00c41703          	lh	a4,12(s0)
    41c4:	e739                	bnez	a4,4212 <__sfp+0x84>
    41c6:	77c1                	lui	a5,0xffff0
    41c8:	0785                	addi	a5,a5,1
    41ca:	06042223          	sw	zero,100(s0)
    41ce:	00042023          	sw	zero,0(s0)
    41d2:	00042223          	sw	zero,4(s0)
    41d6:	00042423          	sw	zero,8(s0)
    41da:	c45c                	sw	a5,12(s0)
    41dc:	00042823          	sw	zero,16(s0)
    41e0:	00042a23          	sw	zero,20(s0)
    41e4:	00042c23          	sw	zero,24(s0)
    41e8:	4621                	li	a2,8
    41ea:	4581                	li	a1,0
    41ec:	05c40513          	addi	a0,s0,92
    41f0:	b5efc0ef          	jal	ra,54e <memset>
    41f4:	02042a23          	sw	zero,52(s0)
    41f8:	02042c23          	sw	zero,56(s0)
    41fc:	04042423          	sw	zero,72(s0)
    4200:	04042623          	sw	zero,76(s0)
    4204:	8522                	mv	a0,s0
    4206:	40b2                	lw	ra,12(sp)
    4208:	4422                	lw	s0,8(sp)
    420a:	4492                	lw	s1,4(sp)
    420c:	4902                	lw	s2,0(sp)
    420e:	0141                	addi	sp,sp,16
    4210:	8082                	ret
    4212:	06840413          	addi	s0,s0,104
    4216:	bf71                	j	41b2 <__sfp+0x24>
    4218:	4591                	li	a1,4
    421a:	854a                	mv	a0,s2
    421c:	ebfff0ef          	jal	ra,40da <__sfmoreglue>
    4220:	c088                	sw	a0,0(s1)
    4222:	fd49                	bnez	a0,41bc <__sfp+0x2e>
    4224:	47b1                	li	a5,12
    4226:	00f92023          	sw	a5,0(s2)
    422a:	4401                	li	s0,0
    422c:	bfe1                	j	4204 <__sfp+0x76>

0000422e <_fwalk_reent>:
    422e:	7179                	addi	sp,sp,-48
    4230:	d422                	sw	s0,40(sp)
    4232:	d04a                	sw	s2,32(sp)
    4234:	cc52                	sw	s4,24(sp)
    4236:	ca56                	sw	s5,20(sp)
    4238:	c85a                	sw	s6,16(sp)
    423a:	c65e                	sw	s7,12(sp)
    423c:	d606                	sw	ra,44(sp)
    423e:	d226                	sw	s1,36(sp)
    4240:	ce4e                	sw	s3,28(sp)
    4242:	8a2a                	mv	s4,a0
    4244:	8aae                	mv	s5,a1
    4246:	04850413          	addi	s0,a0,72
    424a:	4901                	li	s2,0
    424c:	4b05                	li	s6,1
    424e:	5bfd                	li	s7,-1
    4250:	ec09                	bnez	s0,426a <_fwalk_reent+0x3c>
    4252:	50b2                	lw	ra,44(sp)
    4254:	5422                	lw	s0,40(sp)
    4256:	854a                	mv	a0,s2
    4258:	5492                	lw	s1,36(sp)
    425a:	5902                	lw	s2,32(sp)
    425c:	49f2                	lw	s3,28(sp)
    425e:	4a62                	lw	s4,24(sp)
    4260:	4ad2                	lw	s5,20(sp)
    4262:	4b42                	lw	s6,16(sp)
    4264:	4bb2                	lw	s7,12(sp)
    4266:	6145                	addi	sp,sp,48
    4268:	8082                	ret
    426a:	4404                	lw	s1,8(s0)
    426c:	00442983          	lw	s3,4(s0)
    4270:	19fd                	addi	s3,s3,-1
    4272:	0009d463          	bgez	s3,427a <_fwalk_reent+0x4c>
    4276:	4000                	lw	s0,0(s0)
    4278:	bfe1                	j	4250 <_fwalk_reent+0x22>
    427a:	24de                	lhu	a5,12(s1)
    427c:	00fb7b63          	bgeu	s6,a5,4292 <_fwalk_reent+0x64>
    4280:	00e49783          	lh	a5,14(s1)
    4284:	01778763          	beq	a5,s7,4292 <_fwalk_reent+0x64>
    4288:	85a6                	mv	a1,s1
    428a:	8552                	mv	a0,s4
    428c:	9a82                	jalr	s5
    428e:	00a96933          	or	s2,s2,a0
    4292:	06848493          	addi	s1,s1,104
    4296:	bfe9                	j	4270 <_fwalk_reent+0x42>

00004298 <__swhatbuf_r>:
    4298:	7119                	addi	sp,sp,-128
    429a:	daa6                	sw	s1,116(sp)
    429c:	84ae                	mv	s1,a1
    429e:	00e59583          	lh	a1,14(a1)
    42a2:	dca2                	sw	s0,120(sp)
    42a4:	de86                	sw	ra,124(sp)
    42a6:	8432                	mv	s0,a2
    42a8:	0005db63          	bgez	a1,42be <__swhatbuf_r+0x26>
    42ac:	24de                	lhu	a5,12(s1)
    42ae:	0006a023          	sw	zero,0(a3)
    42b2:	0807f793          	andi	a5,a5,128
    42b6:	e785                	bnez	a5,42de <__swhatbuf_r+0x46>
    42b8:	40000793          	li	a5,1024
    42bc:	a01d                	j	42e2 <__swhatbuf_r+0x4a>
    42be:	0830                	addi	a2,sp,24
    42c0:	c636                	sw	a3,12(sp)
    42c2:	067000ef          	jal	ra,4b28 <_fstat_r>
    42c6:	46b2                	lw	a3,12(sp)
    42c8:	fe0542e3          	bltz	a0,42ac <__swhatbuf_r+0x14>
    42cc:	4772                	lw	a4,28(sp)
    42ce:	67bd                	lui	a5,0xf
    42d0:	8ff9                	and	a5,a5,a4
    42d2:	7779                	lui	a4,0xffffe
    42d4:	97ba                	add	a5,a5,a4
    42d6:	0017b793          	seqz	a5,a5
    42da:	c29c                	sw	a5,0(a3)
    42dc:	bff1                	j	42b8 <__swhatbuf_r+0x20>
    42de:	04000793          	li	a5,64
    42e2:	c01c                	sw	a5,0(s0)
    42e4:	50f6                	lw	ra,124(sp)
    42e6:	5466                	lw	s0,120(sp)
    42e8:	54d6                	lw	s1,116(sp)
    42ea:	4501                	li	a0,0
    42ec:	6109                	addi	sp,sp,128
    42ee:	8082                	ret

000042f0 <__smakebuf_r>:
    42f0:	25de                	lhu	a5,12(a1)
    42f2:	1101                	addi	sp,sp,-32
    42f4:	cc22                	sw	s0,24(sp)
    42f6:	ce06                	sw	ra,28(sp)
    42f8:	ca26                	sw	s1,20(sp)
    42fa:	c84a                	sw	s2,16(sp)
    42fc:	8b89                	andi	a5,a5,2
    42fe:	842e                	mv	s0,a1
    4300:	cf89                	beqz	a5,431a <__smakebuf_r+0x2a>
    4302:	04740793          	addi	a5,s0,71
    4306:	c01c                	sw	a5,0(s0)
    4308:	c81c                	sw	a5,16(s0)
    430a:	4785                	li	a5,1
    430c:	c85c                	sw	a5,20(s0)
    430e:	40f2                	lw	ra,28(sp)
    4310:	4462                	lw	s0,24(sp)
    4312:	44d2                	lw	s1,20(sp)
    4314:	4942                	lw	s2,16(sp)
    4316:	6105                	addi	sp,sp,32
    4318:	8082                	ret
    431a:	0074                	addi	a3,sp,12
    431c:	0030                	addi	a2,sp,8
    431e:	84aa                	mv	s1,a0
    4320:	f79ff0ef          	jal	ra,4298 <__swhatbuf_r>
    4324:	45a2                	lw	a1,8(sp)
    4326:	892a                	mv	s2,a0
    4328:	8526                	mv	a0,s1
    432a:	fc0ff0ef          	jal	ra,3aea <_malloc_r>
    432e:	e919                	bnez	a0,4344 <__smakebuf_r+0x54>
    4330:	00c41783          	lh	a5,12(s0)
    4334:	2007f713          	andi	a4,a5,512
    4338:	fb79                	bnez	a4,430e <__smakebuf_r+0x1e>
    433a:	9bf1                	andi	a5,a5,-4
    433c:	0027e793          	ori	a5,a5,2
    4340:	a45e                	sh	a5,12(s0)
    4342:	b7c1                	j	4302 <__smakebuf_r+0x12>
    4344:	00000797          	auipc	a5,0x0
    4348:	d8c78793          	addi	a5,a5,-628 # 40d0 <_cleanup_r>
    434c:	d49c                	sw	a5,40(s1)
    434e:	245e                	lhu	a5,12(s0)
    4350:	c008                	sw	a0,0(s0)
    4352:	c808                	sw	a0,16(s0)
    4354:	0807e793          	ori	a5,a5,128
    4358:	a45e                	sh	a5,12(s0)
    435a:	47a2                	lw	a5,8(sp)
    435c:	c85c                	sw	a5,20(s0)
    435e:	47b2                	lw	a5,12(sp)
    4360:	cf81                	beqz	a5,4378 <__smakebuf_r+0x88>
    4362:	00e41583          	lh	a1,14(s0)
    4366:	8526                	mv	a0,s1
    4368:	7ea000ef          	jal	ra,4b52 <_isatty_r>
    436c:	c511                	beqz	a0,4378 <__smakebuf_r+0x88>
    436e:	245e                	lhu	a5,12(s0)
    4370:	9bf1                	andi	a5,a5,-4
    4372:	0017e793          	ori	a5,a5,1
    4376:	a45e                	sh	a5,12(s0)
    4378:	245e                	lhu	a5,12(s0)
    437a:	00f96933          	or	s2,s2,a5
    437e:	01241623          	sh	s2,12(s0)
    4382:	b771                	j	430e <__smakebuf_r+0x1e>

00004384 <__malloc_lock>:
    4384:	8082                	ret

00004386 <__malloc_unlock>:
    4386:	8082                	ret

00004388 <__sfputc_r>:
    4388:	461c                	lw	a5,8(a2)
    438a:	17fd                	addi	a5,a5,-1
    438c:	c61c                	sw	a5,8(a2)
    438e:	0007da63          	bgez	a5,43a2 <__sfputc_r+0x1a>
    4392:	4e18                	lw	a4,24(a2)
    4394:	00e7c563          	blt	a5,a4,439e <__sfputc_r+0x16>
    4398:	47a9                	li	a5,10
    439a:	00f59463          	bne	a1,a5,43a2 <__sfputc_r+0x1a>
    439e:	97bff06f          	j	3d18 <__swbuf_r>
    43a2:	421c                	lw	a5,0(a2)
    43a4:	852e                	mv	a0,a1
    43a6:	00178713          	addi	a4,a5,1
    43aa:	c218                	sw	a4,0(a2)
    43ac:	a38c                	sb	a1,0(a5)
    43ae:	8082                	ret

000043b0 <__sfputs_r>:
    43b0:	1101                	addi	sp,sp,-32
    43b2:	cc22                	sw	s0,24(sp)
    43b4:	ca26                	sw	s1,20(sp)
    43b6:	c84a                	sw	s2,16(sp)
    43b8:	c64e                	sw	s3,12(sp)
    43ba:	c452                	sw	s4,8(sp)
    43bc:	ce06                	sw	ra,28(sp)
    43be:	892a                	mv	s2,a0
    43c0:	89ae                	mv	s3,a1
    43c2:	8432                	mv	s0,a2
    43c4:	00d604b3          	add	s1,a2,a3
    43c8:	5a7d                	li	s4,-1
    43ca:	00941463          	bne	s0,s1,43d2 <__sfputs_r+0x22>
    43ce:	4501                	li	a0,0
    43d0:	a809                	j	43e2 <__sfputs_r+0x32>
    43d2:	200c                	lbu	a1,0(s0)
    43d4:	864e                	mv	a2,s3
    43d6:	854a                	mv	a0,s2
    43d8:	fb1ff0ef          	jal	ra,4388 <__sfputc_r>
    43dc:	0405                	addi	s0,s0,1
    43de:	ff4516e3          	bne	a0,s4,43ca <__sfputs_r+0x1a>
    43e2:	40f2                	lw	ra,28(sp)
    43e4:	4462                	lw	s0,24(sp)
    43e6:	44d2                	lw	s1,20(sp)
    43e8:	4942                	lw	s2,16(sp)
    43ea:	49b2                	lw	s3,12(sp)
    43ec:	4a22                	lw	s4,8(sp)
    43ee:	6105                	addi	sp,sp,32
    43f0:	8082                	ret

000043f2 <_vfiprintf_r>:
    43f2:	7135                	addi	sp,sp,-160
    43f4:	cd22                	sw	s0,152(sp)
    43f6:	cb26                	sw	s1,148(sp)
    43f8:	c94a                	sw	s2,144(sp)
    43fa:	c74e                	sw	s3,140(sp)
    43fc:	cf06                	sw	ra,156(sp)
    43fe:	c552                	sw	s4,136(sp)
    4400:	c356                	sw	s5,132(sp)
    4402:	c15a                	sw	s6,128(sp)
    4404:	dede                	sw	s7,124(sp)
    4406:	dce2                	sw	s8,120(sp)
    4408:	dae6                	sw	s9,116(sp)
    440a:	89aa                	mv	s3,a0
    440c:	84ae                	mv	s1,a1
    440e:	8932                	mv	s2,a2
    4410:	8436                	mv	s0,a3
    4412:	c509                	beqz	a0,441c <_vfiprintf_r+0x2a>
    4414:	4d1c                	lw	a5,24(a0)
    4416:	e399                	bnez	a5,441c <_vfiprintf_r+0x2a>
    4418:	d0bff0ef          	jal	ra,4122 <__sinit>
    441c:	00001797          	auipc	a5,0x1
    4420:	9e078793          	addi	a5,a5,-1568 # 4dfc <__sf_fake_stdin>
    4424:	0cf49863          	bne	s1,a5,44f4 <_vfiprintf_r+0x102>
    4428:	0049a483          	lw	s1,4(s3)
    442c:	24de                	lhu	a5,12(s1)
    442e:	8ba1                	andi	a5,a5,8
    4430:	c7e5                	beqz	a5,4518 <_vfiprintf_r+0x126>
    4432:	489c                	lw	a5,16(s1)
    4434:	c3f5                	beqz	a5,4518 <_vfiprintf_r+0x126>
    4436:	02000793          	li	a5,32
    443a:	02f104a3          	sb	a5,41(sp)
    443e:	03000793          	li	a5,48
    4442:	d202                	sw	zero,36(sp)
    4444:	02f10523          	sb	a5,42(sp)
    4448:	c622                	sw	s0,12(sp)
    444a:	02500b93          	li	s7,37
    444e:	00001a97          	auipc	s5,0x1
    4452:	9eea8a93          	addi	s5,s5,-1554 # 4e3c <__sf_fake_stdout+0x20>
    4456:	4c05                	li	s8,1
    4458:	4b29                	li	s6,10
    445a:	844a                	mv	s0,s2
    445c:	201c                	lbu	a5,0(s0)
    445e:	c399                	beqz	a5,4464 <_vfiprintf_r+0x72>
    4460:	0d779f63          	bne	a5,s7,453e <_vfiprintf_r+0x14c>
    4464:	41240cb3          	sub	s9,s0,s2
    4468:	000c8e63          	beqz	s9,4484 <_vfiprintf_r+0x92>
    446c:	86e6                	mv	a3,s9
    446e:	864a                	mv	a2,s2
    4470:	85a6                	mv	a1,s1
    4472:	854e                	mv	a0,s3
    4474:	f3dff0ef          	jal	ra,43b0 <__sfputs_r>
    4478:	57fd                	li	a5,-1
    447a:	1cf50f63          	beq	a0,a5,4658 <_vfiprintf_r+0x266>
    447e:	5692                	lw	a3,36(sp)
    4480:	96e6                	add	a3,a3,s9
    4482:	d236                	sw	a3,36(sp)
    4484:	201c                	lbu	a5,0(s0)
    4486:	1c078963          	beqz	a5,4658 <_vfiprintf_r+0x266>
    448a:	57fd                	li	a5,-1
    448c:	00140913          	addi	s2,s0,1
    4490:	c802                	sw	zero,16(sp)
    4492:	ce02                	sw	zero,28(sp)
    4494:	ca3e                	sw	a5,20(sp)
    4496:	cc02                	sw	zero,24(sp)
    4498:	040109a3          	sb	zero,83(sp)
    449c:	d482                	sw	zero,104(sp)
    449e:	00094583          	lbu	a1,0(s2)
    44a2:	4615                	li	a2,5
    44a4:	8556                	mv	a0,s5
    44a6:	2701                	jal	4ba6 <memchr>
    44a8:	00190413          	addi	s0,s2,1
    44ac:	47c2                	lw	a5,16(sp)
    44ae:	e951                	bnez	a0,4542 <_vfiprintf_r+0x150>
    44b0:	0107f713          	andi	a4,a5,16
    44b4:	c709                	beqz	a4,44be <_vfiprintf_r+0xcc>
    44b6:	02000713          	li	a4,32
    44ba:	04e109a3          	sb	a4,83(sp)
    44be:	0087f713          	andi	a4,a5,8
    44c2:	c709                	beqz	a4,44cc <_vfiprintf_r+0xda>
    44c4:	02b00713          	li	a4,43
    44c8:	04e109a3          	sb	a4,83(sp)
    44cc:	00094683          	lbu	a3,0(s2)
    44d0:	02a00713          	li	a4,42
    44d4:	06e68f63          	beq	a3,a4,4552 <_vfiprintf_r+0x160>
    44d8:	47f2                	lw	a5,28(sp)
    44da:	844a                	mv	s0,s2
    44dc:	4681                	li	a3,0
    44de:	4625                	li	a2,9
    44e0:	2018                	lbu	a4,0(s0)
    44e2:	00140593          	addi	a1,s0,1
    44e6:	fd070713          	addi	a4,a4,-48 # ffffdfd0 <__freertos_irq_stack_top+0xdfff8fd0>
    44ea:	0ae67763          	bgeu	a2,a4,4598 <_vfiprintf_r+0x1a6>
    44ee:	cab5                	beqz	a3,4562 <_vfiprintf_r+0x170>
    44f0:	ce3e                	sw	a5,28(sp)
    44f2:	a885                	j	4562 <_vfiprintf_r+0x170>
    44f4:	00001797          	auipc	a5,0x1
    44f8:	92878793          	addi	a5,a5,-1752 # 4e1c <__sf_fake_stdout>
    44fc:	00f49563          	bne	s1,a5,4506 <_vfiprintf_r+0x114>
    4500:	0089a483          	lw	s1,8(s3)
    4504:	b725                	j	442c <_vfiprintf_r+0x3a>
    4506:	00001797          	auipc	a5,0x1
    450a:	8d678793          	addi	a5,a5,-1834 # 4ddc <__sf_fake_stderr>
    450e:	f0f49fe3          	bne	s1,a5,442c <_vfiprintf_r+0x3a>
    4512:	00c9a483          	lw	s1,12(s3)
    4516:	bf19                	j	442c <_vfiprintf_r+0x3a>
    4518:	85a6                	mv	a1,s1
    451a:	854e                	mv	a0,s3
    451c:	8b9ff0ef          	jal	ra,3dd4 <__swsetup_r>
    4520:	d919                	beqz	a0,4436 <_vfiprintf_r+0x44>
    4522:	557d                	li	a0,-1
    4524:	40fa                	lw	ra,156(sp)
    4526:	446a                	lw	s0,152(sp)
    4528:	44da                	lw	s1,148(sp)
    452a:	494a                	lw	s2,144(sp)
    452c:	49ba                	lw	s3,140(sp)
    452e:	4a2a                	lw	s4,136(sp)
    4530:	4a9a                	lw	s5,132(sp)
    4532:	4b0a                	lw	s6,128(sp)
    4534:	5bf6                	lw	s7,124(sp)
    4536:	5c66                	lw	s8,120(sp)
    4538:	5cd6                	lw	s9,116(sp)
    453a:	610d                	addi	sp,sp,160
    453c:	8082                	ret
    453e:	0405                	addi	s0,s0,1
    4540:	bf31                	j	445c <_vfiprintf_r+0x6a>
    4542:	41550533          	sub	a0,a0,s5
    4546:	00ac1533          	sll	a0,s8,a0
    454a:	8fc9                	or	a5,a5,a0
    454c:	c83e                	sw	a5,16(sp)
    454e:	8922                	mv	s2,s0
    4550:	b7b9                	j	449e <_vfiprintf_r+0xac>
    4552:	4732                	lw	a4,12(sp)
    4554:	00470693          	addi	a3,a4,4
    4558:	4318                	lw	a4,0(a4)
    455a:	c636                	sw	a3,12(sp)
    455c:	02074763          	bltz	a4,458a <_vfiprintf_r+0x198>
    4560:	ce3a                	sw	a4,28(sp)
    4562:	2018                	lbu	a4,0(s0)
    4564:	02e00793          	li	a5,46
    4568:	04f71d63          	bne	a4,a5,45c2 <_vfiprintf_r+0x1d0>
    456c:	3018                	lbu	a4,1(s0)
    456e:	02a00793          	li	a5,42
    4572:	02f71b63          	bne	a4,a5,45a8 <_vfiprintf_r+0x1b6>
    4576:	47b2                	lw	a5,12(sp)
    4578:	0409                	addi	s0,s0,2
    457a:	00478713          	addi	a4,a5,4
    457e:	439c                	lw	a5,0(a5)
    4580:	c63a                	sw	a4,12(sp)
    4582:	0207c163          	bltz	a5,45a4 <_vfiprintf_r+0x1b2>
    4586:	ca3e                	sw	a5,20(sp)
    4588:	a82d                	j	45c2 <_vfiprintf_r+0x1d0>
    458a:	40e00733          	neg	a4,a4
    458e:	0027e793          	ori	a5,a5,2
    4592:	ce3a                	sw	a4,28(sp)
    4594:	c83e                	sw	a5,16(sp)
    4596:	b7f1                	j	4562 <_vfiprintf_r+0x170>
    4598:	036787b3          	mul	a5,a5,s6
    459c:	4685                	li	a3,1
    459e:	842e                	mv	s0,a1
    45a0:	97ba                	add	a5,a5,a4
    45a2:	bf3d                	j	44e0 <_vfiprintf_r+0xee>
    45a4:	57fd                	li	a5,-1
    45a6:	b7c5                	j	4586 <_vfiprintf_r+0x194>
    45a8:	0405                	addi	s0,s0,1
    45aa:	ca02                	sw	zero,20(sp)
    45ac:	4681                	li	a3,0
    45ae:	4781                	li	a5,0
    45b0:	4625                	li	a2,9
    45b2:	2018                	lbu	a4,0(s0)
    45b4:	00140593          	addi	a1,s0,1
    45b8:	fd070713          	addi	a4,a4,-48
    45bc:	06e67463          	bgeu	a2,a4,4624 <_vfiprintf_r+0x232>
    45c0:	f2f9                	bnez	a3,4586 <_vfiprintf_r+0x194>
    45c2:	200c                	lbu	a1,0(s0)
    45c4:	460d                	li	a2,3
    45c6:	00001517          	auipc	a0,0x1
    45ca:	87e50513          	addi	a0,a0,-1922 # 4e44 <__sf_fake_stdout+0x28>
    45ce:	2be1                	jal	4ba6 <memchr>
    45d0:	cd11                	beqz	a0,45ec <_vfiprintf_r+0x1fa>
    45d2:	00001797          	auipc	a5,0x1
    45d6:	87278793          	addi	a5,a5,-1934 # 4e44 <__sf_fake_stdout+0x28>
    45da:	8d1d                	sub	a0,a0,a5
    45dc:	04000793          	li	a5,64
    45e0:	00a797b3          	sll	a5,a5,a0
    45e4:	4542                	lw	a0,16(sp)
    45e6:	0405                	addi	s0,s0,1
    45e8:	8d5d                	or	a0,a0,a5
    45ea:	c82a                	sw	a0,16(sp)
    45ec:	200c                	lbu	a1,0(s0)
    45ee:	4619                	li	a2,6
    45f0:	00001517          	auipc	a0,0x1
    45f4:	85850513          	addi	a0,a0,-1960 # 4e48 <__sf_fake_stdout+0x2c>
    45f8:	00140913          	addi	s2,s0,1
    45fc:	02b10423          	sb	a1,40(sp)
    4600:	235d                	jal	4ba6 <memchr>
    4602:	c135                	beqz	a0,4666 <_vfiprintf_r+0x274>
    4604:	ffffc797          	auipc	a5,0xffffc
    4608:	9fc78793          	addi	a5,a5,-1540 # 0 <_sinit>
    460c:	e795                	bnez	a5,4638 <_vfiprintf_r+0x246>
    460e:	4742                	lw	a4,16(sp)
    4610:	47b2                	lw	a5,12(sp)
    4612:	10077713          	andi	a4,a4,256
    4616:	cf09                	beqz	a4,4630 <_vfiprintf_r+0x23e>
    4618:	0791                	addi	a5,a5,4
    461a:	c63e                	sw	a5,12(sp)
    461c:	5792                	lw	a5,36(sp)
    461e:	97d2                	add	a5,a5,s4
    4620:	d23e                	sw	a5,36(sp)
    4622:	bd25                	j	445a <_vfiprintf_r+0x68>
    4624:	036787b3          	mul	a5,a5,s6
    4628:	4685                	li	a3,1
    462a:	842e                	mv	s0,a1
    462c:	97ba                	add	a5,a5,a4
    462e:	b751                	j	45b2 <_vfiprintf_r+0x1c0>
    4630:	079d                	addi	a5,a5,7
    4632:	9be1                	andi	a5,a5,-8
    4634:	07a1                	addi	a5,a5,8
    4636:	b7d5                	j	461a <_vfiprintf_r+0x228>
    4638:	0078                	addi	a4,sp,12
    463a:	00000697          	auipc	a3,0x0
    463e:	d7668693          	addi	a3,a3,-650 # 43b0 <__sfputs_r>
    4642:	8626                	mv	a2,s1
    4644:	080c                	addi	a1,sp,16
    4646:	854e                	mv	a0,s3
    4648:	00000097          	auipc	ra,0x0
    464c:	000000e7          	jalr	zero # 0 <_sinit>
    4650:	57fd                	li	a5,-1
    4652:	8a2a                	mv	s4,a0
    4654:	fcf514e3          	bne	a0,a5,461c <_vfiprintf_r+0x22a>
    4658:	24de                	lhu	a5,12(s1)
    465a:	0407f793          	andi	a5,a5,64
    465e:	ec0792e3          	bnez	a5,4522 <_vfiprintf_r+0x130>
    4662:	5512                	lw	a0,36(sp)
    4664:	b5c1                	j	4524 <_vfiprintf_r+0x132>
    4666:	0078                	addi	a4,sp,12
    4668:	00000697          	auipc	a3,0x0
    466c:	d4868693          	addi	a3,a3,-696 # 43b0 <__sfputs_r>
    4670:	8626                	mv	a2,s1
    4672:	080c                	addi	a1,sp,16
    4674:	854e                	mv	a0,s3
    4676:	2a01                	jal	4786 <_printf_i>
    4678:	bfe1                	j	4650 <_vfiprintf_r+0x25e>

0000467a <_printf_common>:
    467a:	7179                	addi	sp,sp,-48
    467c:	ca56                	sw	s5,20(sp)
    467e:	499c                	lw	a5,16(a1)
    4680:	8aba                	mv	s5,a4
    4682:	4598                	lw	a4,8(a1)
    4684:	d422                	sw	s0,40(sp)
    4686:	d226                	sw	s1,36(sp)
    4688:	ce4e                	sw	s3,28(sp)
    468a:	cc52                	sw	s4,24(sp)
    468c:	d606                	sw	ra,44(sp)
    468e:	d04a                	sw	s2,32(sp)
    4690:	c85a                	sw	s6,16(sp)
    4692:	c65e                	sw	s7,12(sp)
    4694:	89aa                	mv	s3,a0
    4696:	842e                	mv	s0,a1
    4698:	84b2                	mv	s1,a2
    469a:	8a36                	mv	s4,a3
    469c:	00e7d363          	bge	a5,a4,46a2 <_printf_common+0x28>
    46a0:	87ba                	mv	a5,a4
    46a2:	c09c                	sw	a5,0(s1)
    46a4:	04344703          	lbu	a4,67(s0)
    46a8:	c319                	beqz	a4,46ae <_printf_common+0x34>
    46aa:	0785                	addi	a5,a5,1
    46ac:	c09c                	sw	a5,0(s1)
    46ae:	401c                	lw	a5,0(s0)
    46b0:	0207f793          	andi	a5,a5,32
    46b4:	c781                	beqz	a5,46bc <_printf_common+0x42>
    46b6:	409c                	lw	a5,0(s1)
    46b8:	0789                	addi	a5,a5,2
    46ba:	c09c                	sw	a5,0(s1)
    46bc:	00042903          	lw	s2,0(s0)
    46c0:	00697913          	andi	s2,s2,6
    46c4:	00091a63          	bnez	s2,46d8 <_printf_common+0x5e>
    46c8:	01940b13          	addi	s6,s0,25
    46cc:	5bfd                	li	s7,-1
    46ce:	445c                	lw	a5,12(s0)
    46d0:	4098                	lw	a4,0(s1)
    46d2:	8f99                	sub	a5,a5,a4
    46d4:	04f94c63          	blt	s2,a5,472c <_printf_common+0xb2>
    46d8:	401c                	lw	a5,0(s0)
    46da:	04344683          	lbu	a3,67(s0)
    46de:	0207f793          	andi	a5,a5,32
    46e2:	00d036b3          	snez	a3,a3
    46e6:	eba5                	bnez	a5,4756 <_printf_common+0xdc>
    46e8:	04340613          	addi	a2,s0,67
    46ec:	85d2                	mv	a1,s4
    46ee:	854e                	mv	a0,s3
    46f0:	9a82                	jalr	s5
    46f2:	57fd                	li	a5,-1
    46f4:	04f50363          	beq	a0,a5,473a <_printf_common+0xc0>
    46f8:	401c                	lw	a5,0(s0)
    46fa:	4611                	li	a2,4
    46fc:	4098                	lw	a4,0(s1)
    46fe:	8b99                	andi	a5,a5,6
    4700:	4454                	lw	a3,12(s0)
    4702:	4481                	li	s1,0
    4704:	00c79763          	bne	a5,a2,4712 <_printf_common+0x98>
    4708:	40e684b3          	sub	s1,a3,a4
    470c:	0004d363          	bgez	s1,4712 <_printf_common+0x98>
    4710:	4481                	li	s1,0
    4712:	441c                	lw	a5,8(s0)
    4714:	4818                	lw	a4,16(s0)
    4716:	00f75463          	bge	a4,a5,471e <_printf_common+0xa4>
    471a:	8f99                	sub	a5,a5,a4
    471c:	94be                	add	s1,s1,a5
    471e:	4901                	li	s2,0
    4720:	0469                	addi	s0,s0,26
    4722:	5b7d                	li	s6,-1
    4724:	05249863          	bne	s1,s2,4774 <_printf_common+0xfa>
    4728:	4501                	li	a0,0
    472a:	a809                	j	473c <_printf_common+0xc2>
    472c:	4685                	li	a3,1
    472e:	865a                	mv	a2,s6
    4730:	85d2                	mv	a1,s4
    4732:	854e                	mv	a0,s3
    4734:	9a82                	jalr	s5
    4736:	01751e63          	bne	a0,s7,4752 <_printf_common+0xd8>
    473a:	557d                	li	a0,-1
    473c:	50b2                	lw	ra,44(sp)
    473e:	5422                	lw	s0,40(sp)
    4740:	5492                	lw	s1,36(sp)
    4742:	5902                	lw	s2,32(sp)
    4744:	49f2                	lw	s3,28(sp)
    4746:	4a62                	lw	s4,24(sp)
    4748:	4ad2                	lw	s5,20(sp)
    474a:	4b42                	lw	s6,16(sp)
    474c:	4bb2                	lw	s7,12(sp)
    474e:	6145                	addi	sp,sp,48
    4750:	8082                	ret
    4752:	0905                	addi	s2,s2,1
    4754:	bfad                	j	46ce <_printf_common+0x54>
    4756:	00d40733          	add	a4,s0,a3
    475a:	03000613          	li	a2,48
    475e:	04c701a3          	sb	a2,67(a4)
    4762:	04544703          	lbu	a4,69(s0)
    4766:	00168793          	addi	a5,a3,1
    476a:	97a2                	add	a5,a5,s0
    476c:	0689                	addi	a3,a3,2
    476e:	04e781a3          	sb	a4,67(a5)
    4772:	bf9d                	j	46e8 <_printf_common+0x6e>
    4774:	4685                	li	a3,1
    4776:	8622                	mv	a2,s0
    4778:	85d2                	mv	a1,s4
    477a:	854e                	mv	a0,s3
    477c:	9a82                	jalr	s5
    477e:	fb650ee3          	beq	a0,s6,473a <_printf_common+0xc0>
    4782:	0905                	addi	s2,s2,1
    4784:	b745                	j	4724 <_printf_common+0xaa>

00004786 <_printf_i>:
    4786:	7179                	addi	sp,sp,-48
    4788:	d422                	sw	s0,40(sp)
    478a:	d226                	sw	s1,36(sp)
    478c:	d04a                	sw	s2,32(sp)
    478e:	ce4e                	sw	s3,28(sp)
    4790:	d606                	sw	ra,44(sp)
    4792:	cc52                	sw	s4,24(sp)
    4794:	ca56                	sw	s5,20(sp)
    4796:	c85a                	sw	s6,16(sp)
    4798:	89b6                	mv	s3,a3
    479a:	2d94                	lbu	a3,24(a1)
    479c:	06900793          	li	a5,105
    47a0:	8932                	mv	s2,a2
    47a2:	84aa                	mv	s1,a0
    47a4:	842e                	mv	s0,a1
    47a6:	04358613          	addi	a2,a1,67
    47aa:	02f68d63          	beq	a3,a5,47e4 <_printf_i+0x5e>
    47ae:	06d7e263          	bltu	a5,a3,4812 <_printf_i+0x8c>
    47b2:	05800793          	li	a5,88
    47b6:	18f68663          	beq	a3,a5,4942 <_printf_i+0x1bc>
    47ba:	00d7ed63          	bltu	a5,a3,47d4 <_printf_i+0x4e>
    47be:	20068e63          	beqz	a3,49da <_printf_i+0x254>
    47c2:	04300793          	li	a5,67
    47c6:	0af68e63          	beq	a3,a5,4882 <_printf_i+0xfc>
    47ca:	04240a93          	addi	s5,s0,66
    47ce:	04d40123          	sb	a3,66(s0)
    47d2:	a0c9                	j	4894 <_printf_i+0x10e>
    47d4:	06300793          	li	a5,99
    47d8:	0af68563          	beq	a3,a5,4882 <_printf_i+0xfc>
    47dc:	06400793          	li	a5,100
    47e0:	fef695e3          	bne	a3,a5,47ca <_printf_i+0x44>
    47e4:	401c                	lw	a5,0(s0)
    47e6:	4308                	lw	a0,0(a4)
    47e8:	0807f693          	andi	a3,a5,128
    47ec:	00450593          	addi	a1,a0,4
    47f0:	c6c5                	beqz	a3,4898 <_printf_i+0x112>
    47f2:	411c                	lw	a5,0(a0)
    47f4:	c30c                	sw	a1,0(a4)
    47f6:	0007d863          	bgez	a5,4806 <_printf_i+0x80>
    47fa:	02d00713          	li	a4,45
    47fe:	40f007b3          	neg	a5,a5
    4802:	04e401a3          	sb	a4,67(s0)
    4806:	00000697          	auipc	a3,0x0
    480a:	64a68693          	addi	a3,a3,1610 # 4e50 <__sf_fake_stdout+0x34>
    480e:	4729                	li	a4,10
    4810:	a865                	j	48c8 <_printf_i+0x142>
    4812:	07000793          	li	a5,112
    4816:	16f68263          	beq	a3,a5,497a <_printf_i+0x1f4>
    481a:	02d7e563          	bltu	a5,a3,4844 <_printf_i+0xbe>
    481e:	06e00793          	li	a5,110
    4822:	18f68963          	beq	a3,a5,49b4 <_printf_i+0x22e>
    4826:	06f00793          	li	a5,111
    482a:	faf690e3          	bne	a3,a5,47ca <_printf_i+0x44>
    482e:	400c                	lw	a1,0(s0)
    4830:	431c                	lw	a5,0(a4)
    4832:	0805f813          	andi	a6,a1,128
    4836:	00478513          	addi	a0,a5,4
    483a:	06080763          	beqz	a6,48a8 <_printf_i+0x122>
    483e:	c308                	sw	a0,0(a4)
    4840:	439c                	lw	a5,0(a5)
    4842:	a885                	j	48b2 <_printf_i+0x12c>
    4844:	07500793          	li	a5,117
    4848:	fef683e3          	beq	a3,a5,482e <_printf_i+0xa8>
    484c:	07800793          	li	a5,120
    4850:	12f68963          	beq	a3,a5,4982 <_printf_i+0x1fc>
    4854:	07300793          	li	a5,115
    4858:	f6f699e3          	bne	a3,a5,47ca <_printf_i+0x44>
    485c:	431c                	lw	a5,0(a4)
    485e:	41d0                	lw	a2,4(a1)
    4860:	4581                	li	a1,0
    4862:	00478693          	addi	a3,a5,4
    4866:	c314                	sw	a3,0(a4)
    4868:	0007aa83          	lw	s5,0(a5)
    486c:	8556                	mv	a0,s5
    486e:	2e25                	jal	4ba6 <memchr>
    4870:	c501                	beqz	a0,4878 <_printf_i+0xf2>
    4872:	41550533          	sub	a0,a0,s5
    4876:	c048                	sw	a0,4(s0)
    4878:	405c                	lw	a5,4(s0)
    487a:	c81c                	sw	a5,16(s0)
    487c:	040401a3          	sb	zero,67(s0)
    4880:	a861                	j	4918 <_printf_i+0x192>
    4882:	431c                	lw	a5,0(a4)
    4884:	04240a93          	addi	s5,s0,66
    4888:	00478693          	addi	a3,a5,4
    488c:	439c                	lw	a5,0(a5)
    488e:	c314                	sw	a3,0(a4)
    4890:	04f40123          	sb	a5,66(s0)
    4894:	4785                	li	a5,1
    4896:	b7d5                	j	487a <_printf_i+0xf4>
    4898:	0407f693          	andi	a3,a5,64
    489c:	411c                	lw	a5,0(a0)
    489e:	c30c                	sw	a1,0(a4)
    48a0:	dab9                	beqz	a3,47f6 <_printf_i+0x70>
    48a2:	07c2                	slli	a5,a5,0x10
    48a4:	87c1                	srai	a5,a5,0x10
    48a6:	bf81                	j	47f6 <_printf_i+0x70>
    48a8:	0405f593          	andi	a1,a1,64
    48ac:	c308                	sw	a0,0(a4)
    48ae:	d9c9                	beqz	a1,4840 <_printf_i+0xba>
    48b0:	239e                	lhu	a5,0(a5)
    48b2:	06f00713          	li	a4,111
    48b6:	0ee68763          	beq	a3,a4,49a4 <_printf_i+0x21e>
    48ba:	00000697          	auipc	a3,0x0
    48be:	59668693          	addi	a3,a3,1430 # 4e50 <__sf_fake_stdout+0x34>
    48c2:	4729                	li	a4,10
    48c4:	040401a3          	sb	zero,67(s0)
    48c8:	404c                	lw	a1,4(s0)
    48ca:	c40c                	sw	a1,8(s0)
    48cc:	0005c563          	bltz	a1,48d6 <_printf_i+0x150>
    48d0:	4008                	lw	a0,0(s0)
    48d2:	996d                	andi	a0,a0,-5
    48d4:	c008                	sw	a0,0(s0)
    48d6:	e399                	bnez	a5,48dc <_printf_i+0x156>
    48d8:	8ab2                	mv	s5,a2
    48da:	cd89                	beqz	a1,48f4 <_printf_i+0x16e>
    48dc:	8ab2                	mv	s5,a2
    48de:	02e7f5b3          	remu	a1,a5,a4
    48e2:	1afd                	addi	s5,s5,-1
    48e4:	95b6                	add	a1,a1,a3
    48e6:	218c                	lbu	a1,0(a1)
    48e8:	00ba8023          	sb	a1,0(s5)
    48ec:	02e7d5b3          	divu	a1,a5,a4
    48f0:	0ce7f063          	bgeu	a5,a4,49b0 <_printf_i+0x22a>
    48f4:	47a1                	li	a5,8
    48f6:	00f71e63          	bne	a4,a5,4912 <_printf_i+0x18c>
    48fa:	401c                	lw	a5,0(s0)
    48fc:	8b85                	andi	a5,a5,1
    48fe:	cb91                	beqz	a5,4912 <_printf_i+0x18c>
    4900:	4058                	lw	a4,4(s0)
    4902:	481c                	lw	a5,16(s0)
    4904:	00e7c763          	blt	a5,a4,4912 <_printf_i+0x18c>
    4908:	03000793          	li	a5,48
    490c:	fefa8fa3          	sb	a5,-1(s5)
    4910:	1afd                	addi	s5,s5,-1
    4912:	41560633          	sub	a2,a2,s5
    4916:	c810                	sw	a2,16(s0)
    4918:	874e                	mv	a4,s3
    491a:	86ca                	mv	a3,s2
    491c:	0070                	addi	a2,sp,12
    491e:	85a2                	mv	a1,s0
    4920:	8526                	mv	a0,s1
    4922:	d59ff0ef          	jal	ra,467a <_printf_common>
    4926:	5a7d                	li	s4,-1
    4928:	0b451d63          	bne	a0,s4,49e2 <_printf_i+0x25c>
    492c:	557d                	li	a0,-1
    492e:	50b2                	lw	ra,44(sp)
    4930:	5422                	lw	s0,40(sp)
    4932:	5492                	lw	s1,36(sp)
    4934:	5902                	lw	s2,32(sp)
    4936:	49f2                	lw	s3,28(sp)
    4938:	4a62                	lw	s4,24(sp)
    493a:	4ad2                	lw	s5,20(sp)
    493c:	4b42                	lw	s6,16(sp)
    493e:	6145                	addi	sp,sp,48
    4940:	8082                	ret
    4942:	04d582a3          	sb	a3,69(a1)
    4946:	00000697          	auipc	a3,0x0
    494a:	50a68693          	addi	a3,a3,1290 # 4e50 <__sf_fake_stdout+0x34>
    494e:	400c                	lw	a1,0(s0)
    4950:	4308                	lw	a0,0(a4)
    4952:	0805f813          	andi	a6,a1,128
    4956:	411c                	lw	a5,0(a0)
    4958:	0511                	addi	a0,a0,4
    495a:	02080d63          	beqz	a6,4994 <_printf_i+0x20e>
    495e:	c308                	sw	a0,0(a4)
    4960:	0015f713          	andi	a4,a1,1
    4964:	c701                	beqz	a4,496c <_printf_i+0x1e6>
    4966:	0205e593          	ori	a1,a1,32
    496a:	c00c                	sw	a1,0(s0)
    496c:	4741                	li	a4,16
    496e:	fbb9                	bnez	a5,48c4 <_printf_i+0x13e>
    4970:	400c                	lw	a1,0(s0)
    4972:	fdf5f593          	andi	a1,a1,-33
    4976:	c00c                	sw	a1,0(s0)
    4978:	b7b1                	j	48c4 <_printf_i+0x13e>
    497a:	419c                	lw	a5,0(a1)
    497c:	0207e793          	ori	a5,a5,32
    4980:	c19c                	sw	a5,0(a1)
    4982:	07800793          	li	a5,120
    4986:	04f402a3          	sb	a5,69(s0)
    498a:	00000697          	auipc	a3,0x0
    498e:	4da68693          	addi	a3,a3,1242 # 4e64 <__sf_fake_stdout+0x48>
    4992:	bf75                	j	494e <_printf_i+0x1c8>
    4994:	0405f813          	andi	a6,a1,64
    4998:	c308                	sw	a0,0(a4)
    499a:	fc0803e3          	beqz	a6,4960 <_printf_i+0x1da>
    499e:	07c2                	slli	a5,a5,0x10
    49a0:	83c1                	srli	a5,a5,0x10
    49a2:	bf7d                	j	4960 <_printf_i+0x1da>
    49a4:	00000697          	auipc	a3,0x0
    49a8:	4ac68693          	addi	a3,a3,1196 # 4e50 <__sf_fake_stdout+0x34>
    49ac:	4721                	li	a4,8
    49ae:	bf19                	j	48c4 <_printf_i+0x13e>
    49b0:	87ae                	mv	a5,a1
    49b2:	b735                	j	48de <_printf_i+0x158>
    49b4:	4194                	lw	a3,0(a1)
    49b6:	431c                	lw	a5,0(a4)
    49b8:	49cc                	lw	a1,20(a1)
    49ba:	0806f813          	andi	a6,a3,128
    49be:	00478513          	addi	a0,a5,4
    49c2:	00080663          	beqz	a6,49ce <_printf_i+0x248>
    49c6:	c308                	sw	a0,0(a4)
    49c8:	439c                	lw	a5,0(a5)
    49ca:	c38c                	sw	a1,0(a5)
    49cc:	a039                	j	49da <_printf_i+0x254>
    49ce:	c308                	sw	a0,0(a4)
    49d0:	0406f693          	andi	a3,a3,64
    49d4:	439c                	lw	a5,0(a5)
    49d6:	daf5                	beqz	a3,49ca <_printf_i+0x244>
    49d8:	a38e                	sh	a1,0(a5)
    49da:	00042823          	sw	zero,16(s0)
    49de:	8ab2                	mv	s5,a2
    49e0:	bf25                	j	4918 <_printf_i+0x192>
    49e2:	4814                	lw	a3,16(s0)
    49e4:	8656                	mv	a2,s5
    49e6:	85ca                	mv	a1,s2
    49e8:	8526                	mv	a0,s1
    49ea:	9982                	jalr	s3
    49ec:	f54500e3          	beq	a0,s4,492c <_printf_i+0x1a6>
    49f0:	401c                	lw	a5,0(s0)
    49f2:	8b89                	andi	a5,a5,2
    49f4:	e78d                	bnez	a5,4a1e <_printf_i+0x298>
    49f6:	47b2                	lw	a5,12(sp)
    49f8:	4448                	lw	a0,12(s0)
    49fa:	f2f55ae3          	bge	a0,a5,492e <_printf_i+0x1a8>
    49fe:	853e                	mv	a0,a5
    4a00:	b73d                	j	492e <_printf_i+0x1a8>
    4a02:	4685                	li	a3,1
    4a04:	8656                	mv	a2,s5
    4a06:	85ca                	mv	a1,s2
    4a08:	8526                	mv	a0,s1
    4a0a:	9982                	jalr	s3
    4a0c:	f36500e3          	beq	a0,s6,492c <_printf_i+0x1a6>
    4a10:	0a05                	addi	s4,s4,1
    4a12:	445c                	lw	a5,12(s0)
    4a14:	4732                	lw	a4,12(sp)
    4a16:	8f99                	sub	a5,a5,a4
    4a18:	fefa45e3          	blt	s4,a5,4a02 <_printf_i+0x27c>
    4a1c:	bfe9                	j	49f6 <_printf_i+0x270>
    4a1e:	4a01                	li	s4,0
    4a20:	01940a93          	addi	s5,s0,25
    4a24:	5b7d                	li	s6,-1
    4a26:	b7f5                	j	4a12 <_printf_i+0x28c>

00004a28 <__sread>:
    4a28:	1141                	addi	sp,sp,-16
    4a2a:	c422                	sw	s0,8(sp)
    4a2c:	842e                	mv	s0,a1
    4a2e:	00e59583          	lh	a1,14(a1)
    4a32:	c606                	sw	ra,12(sp)
    4a34:	2269                	jal	4bbe <_read_r>
    4a36:	00054963          	bltz	a0,4a48 <__sread+0x20>
    4a3a:	487c                	lw	a5,84(s0)
    4a3c:	97aa                	add	a5,a5,a0
    4a3e:	c87c                	sw	a5,84(s0)
    4a40:	40b2                	lw	ra,12(sp)
    4a42:	4422                	lw	s0,8(sp)
    4a44:	0141                	addi	sp,sp,16
    4a46:	8082                	ret
    4a48:	245e                	lhu	a5,12(s0)
    4a4a:	777d                	lui	a4,0xfffff
    4a4c:	177d                	addi	a4,a4,-1
    4a4e:	8ff9                	and	a5,a5,a4
    4a50:	a45e                	sh	a5,12(s0)
    4a52:	b7fd                	j	4a40 <__sread+0x18>

00004a54 <__swrite>:
    4a54:	25de                	lhu	a5,12(a1)
    4a56:	1101                	addi	sp,sp,-32
    4a58:	cc22                	sw	s0,24(sp)
    4a5a:	ca26                	sw	s1,20(sp)
    4a5c:	c84a                	sw	s2,16(sp)
    4a5e:	c64e                	sw	s3,12(sp)
    4a60:	ce06                	sw	ra,28(sp)
    4a62:	1007f793          	andi	a5,a5,256
    4a66:	84aa                	mv	s1,a0
    4a68:	842e                	mv	s0,a1
    4a6a:	8932                	mv	s2,a2
    4a6c:	89b6                	mv	s3,a3
    4a6e:	c791                	beqz	a5,4a7a <__swrite+0x26>
    4a70:	00e59583          	lh	a1,14(a1)
    4a74:	4689                	li	a3,2
    4a76:	4601                	li	a2,0
    4a78:	2209                	jal	4b7a <_lseek_r>
    4a7a:	245e                	lhu	a5,12(s0)
    4a7c:	777d                	lui	a4,0xfffff
    4a7e:	177d                	addi	a4,a4,-1
    4a80:	8ff9                	and	a5,a5,a4
    4a82:	a45e                	sh	a5,12(s0)
    4a84:	00e41583          	lh	a1,14(s0)
    4a88:	4462                	lw	s0,24(sp)
    4a8a:	40f2                	lw	ra,28(sp)
    4a8c:	86ce                	mv	a3,s3
    4a8e:	864a                	mv	a2,s2
    4a90:	49b2                	lw	s3,12(sp)
    4a92:	4942                	lw	s2,16(sp)
    4a94:	8526                	mv	a0,s1
    4a96:	44d2                	lw	s1,20(sp)
    4a98:	6105                	addi	sp,sp,32
    4a9a:	a825                	j	4ad2 <_write_r>

00004a9c <__sseek>:
    4a9c:	1141                	addi	sp,sp,-16
    4a9e:	c422                	sw	s0,8(sp)
    4aa0:	842e                	mv	s0,a1
    4aa2:	00e59583          	lh	a1,14(a1)
    4aa6:	c606                	sw	ra,12(sp)
    4aa8:	28c9                	jal	4b7a <_lseek_r>
    4aaa:	57fd                	li	a5,-1
    4aac:	245a                	lhu	a4,12(s0)
    4aae:	00f51a63          	bne	a0,a5,4ac2 <__sseek+0x26>
    4ab2:	77fd                	lui	a5,0xfffff
    4ab4:	17fd                	addi	a5,a5,-1
    4ab6:	8ff9                	and	a5,a5,a4
    4ab8:	a45e                	sh	a5,12(s0)
    4aba:	40b2                	lw	ra,12(sp)
    4abc:	4422                	lw	s0,8(sp)
    4abe:	0141                	addi	sp,sp,16
    4ac0:	8082                	ret
    4ac2:	6785                	lui	a5,0x1
    4ac4:	8fd9                	or	a5,a5,a4
    4ac6:	a45e                	sh	a5,12(s0)
    4ac8:	c868                	sw	a0,84(s0)
    4aca:	bfc5                	j	4aba <__sseek+0x1e>

00004acc <__sclose>:
    4acc:	00e59583          	lh	a1,14(a1)
    4ad0:	a805                	j	4b00 <_close_r>

00004ad2 <_write_r>:
    4ad2:	1141                	addi	sp,sp,-16
    4ad4:	c422                	sw	s0,8(sp)
    4ad6:	842a                	mv	s0,a0
    4ad8:	852e                	mv	a0,a1
    4ada:	85b2                	mv	a1,a2
    4adc:	8636                	mv	a2,a3
    4ade:	5401a623          	sw	zero,1356(gp) # 20000dcc <errno>
    4ae2:	c606                	sw	ra,12(sp)
    4ae4:	e2ffe0ef          	jal	ra,3912 <_write>
    4ae8:	57fd                	li	a5,-1
    4aea:	00f51763          	bne	a0,a5,4af8 <_write_r+0x26>
    4aee:	54c18793          	addi	a5,gp,1356 # 20000dcc <errno>
    4af2:	439c                	lw	a5,0(a5)
    4af4:	c391                	beqz	a5,4af8 <_write_r+0x26>
    4af6:	c01c                	sw	a5,0(s0)
    4af8:	40b2                	lw	ra,12(sp)
    4afa:	4422                	lw	s0,8(sp)
    4afc:	0141                	addi	sp,sp,16
    4afe:	8082                	ret

00004b00 <_close_r>:
    4b00:	1141                	addi	sp,sp,-16
    4b02:	c422                	sw	s0,8(sp)
    4b04:	842a                	mv	s0,a0
    4b06:	852e                	mv	a0,a1
    4b08:	5401a623          	sw	zero,1356(gp) # 20000dcc <errno>
    4b0c:	c606                	sw	ra,12(sp)
    4b0e:	28f1                	jal	4bea <_close>
    4b10:	57fd                	li	a5,-1
    4b12:	00f51763          	bne	a0,a5,4b20 <_close_r+0x20>
    4b16:	54c18793          	addi	a5,gp,1356 # 20000dcc <errno>
    4b1a:	439c                	lw	a5,0(a5)
    4b1c:	c391                	beqz	a5,4b20 <_close_r+0x20>
    4b1e:	c01c                	sw	a5,0(s0)
    4b20:	40b2                	lw	ra,12(sp)
    4b22:	4422                	lw	s0,8(sp)
    4b24:	0141                	addi	sp,sp,16
    4b26:	8082                	ret

00004b28 <_fstat_r>:
    4b28:	1141                	addi	sp,sp,-16
    4b2a:	c422                	sw	s0,8(sp)
    4b2c:	842a                	mv	s0,a0
    4b2e:	852e                	mv	a0,a1
    4b30:	85b2                	mv	a1,a2
    4b32:	5401a623          	sw	zero,1356(gp) # 20000dcc <errno>
    4b36:	c606                	sw	ra,12(sp)
    4b38:	287d                	jal	4bf6 <_fstat>
    4b3a:	57fd                	li	a5,-1
    4b3c:	00f51763          	bne	a0,a5,4b4a <_fstat_r+0x22>
    4b40:	54c18793          	addi	a5,gp,1356 # 20000dcc <errno>
    4b44:	439c                	lw	a5,0(a5)
    4b46:	c391                	beqz	a5,4b4a <_fstat_r+0x22>
    4b48:	c01c                	sw	a5,0(s0)
    4b4a:	40b2                	lw	ra,12(sp)
    4b4c:	4422                	lw	s0,8(sp)
    4b4e:	0141                	addi	sp,sp,16
    4b50:	8082                	ret

00004b52 <_isatty_r>:
    4b52:	1141                	addi	sp,sp,-16
    4b54:	c422                	sw	s0,8(sp)
    4b56:	842a                	mv	s0,a0
    4b58:	852e                	mv	a0,a1
    4b5a:	5401a623          	sw	zero,1356(gp) # 20000dcc <errno>
    4b5e:	c606                	sw	ra,12(sp)
    4b60:	204d                	jal	4c02 <_isatty>
    4b62:	57fd                	li	a5,-1
    4b64:	00f51763          	bne	a0,a5,4b72 <_isatty_r+0x20>
    4b68:	54c18793          	addi	a5,gp,1356 # 20000dcc <errno>
    4b6c:	439c                	lw	a5,0(a5)
    4b6e:	c391                	beqz	a5,4b72 <_isatty_r+0x20>
    4b70:	c01c                	sw	a5,0(s0)
    4b72:	40b2                	lw	ra,12(sp)
    4b74:	4422                	lw	s0,8(sp)
    4b76:	0141                	addi	sp,sp,16
    4b78:	8082                	ret

00004b7a <_lseek_r>:
    4b7a:	1141                	addi	sp,sp,-16
    4b7c:	c422                	sw	s0,8(sp)
    4b7e:	842a                	mv	s0,a0
    4b80:	852e                	mv	a0,a1
    4b82:	85b2                	mv	a1,a2
    4b84:	8636                	mv	a2,a3
    4b86:	5401a623          	sw	zero,1356(gp) # 20000dcc <errno>
    4b8a:	c606                	sw	ra,12(sp)
    4b8c:	2049                	jal	4c0e <_lseek>
    4b8e:	57fd                	li	a5,-1
    4b90:	00f51763          	bne	a0,a5,4b9e <_lseek_r+0x24>
    4b94:	54c18793          	addi	a5,gp,1356 # 20000dcc <errno>
    4b98:	439c                	lw	a5,0(a5)
    4b9a:	c391                	beqz	a5,4b9e <_lseek_r+0x24>
    4b9c:	c01c                	sw	a5,0(s0)
    4b9e:	40b2                	lw	ra,12(sp)
    4ba0:	4422                	lw	s0,8(sp)
    4ba2:	0141                	addi	sp,sp,16
    4ba4:	8082                	ret

00004ba6 <memchr>:
    4ba6:	0ff5f593          	andi	a1,a1,255
    4baa:	962a                	add	a2,a2,a0
    4bac:	00c51463          	bne	a0,a2,4bb4 <memchr+0xe>
    4bb0:	4501                	li	a0,0
    4bb2:	8082                	ret
    4bb4:	211c                	lbu	a5,0(a0)
    4bb6:	feb78ee3          	beq	a5,a1,4bb2 <memchr+0xc>
    4bba:	0505                	addi	a0,a0,1
    4bbc:	bfc5                	j	4bac <memchr+0x6>

00004bbe <_read_r>:
    4bbe:	1141                	addi	sp,sp,-16
    4bc0:	c422                	sw	s0,8(sp)
    4bc2:	842a                	mv	s0,a0
    4bc4:	852e                	mv	a0,a1
    4bc6:	85b2                	mv	a1,a2
    4bc8:	8636                	mv	a2,a3
    4bca:	5401a623          	sw	zero,1356(gp) # 20000dcc <errno>
    4bce:	c606                	sw	ra,12(sp)
    4bd0:	20a9                	jal	4c1a <_read>
    4bd2:	57fd                	li	a5,-1
    4bd4:	00f51763          	bne	a0,a5,4be2 <_read_r+0x24>
    4bd8:	54c18793          	addi	a5,gp,1356 # 20000dcc <errno>
    4bdc:	439c                	lw	a5,0(a5)
    4bde:	c391                	beqz	a5,4be2 <_read_r+0x24>
    4be0:	c01c                	sw	a5,0(s0)
    4be2:	40b2                	lw	ra,12(sp)
    4be4:	4422                	lw	s0,8(sp)
    4be6:	0141                	addi	sp,sp,16
    4be8:	8082                	ret

00004bea <_close>:
    4bea:	05800793          	li	a5,88
    4bee:	54f1a623          	sw	a5,1356(gp) # 20000dcc <errno>
    4bf2:	557d                	li	a0,-1
    4bf4:	8082                	ret

00004bf6 <_fstat>:
    4bf6:	05800793          	li	a5,88
    4bfa:	54f1a623          	sw	a5,1356(gp) # 20000dcc <errno>
    4bfe:	557d                	li	a0,-1
    4c00:	8082                	ret

00004c02 <_isatty>:
    4c02:	05800793          	li	a5,88
    4c06:	54f1a623          	sw	a5,1356(gp) # 20000dcc <errno>
    4c0a:	4501                	li	a0,0
    4c0c:	8082                	ret

00004c0e <_lseek>:
    4c0e:	05800793          	li	a5,88
    4c12:	54f1a623          	sw	a5,1356(gp) # 20000dcc <errno>
    4c16:	557d                	li	a0,-1
    4c18:	8082                	ret

00004c1a <_read>:
    4c1a:	05800793          	li	a5,88
    4c1e:	54f1a623          	sw	a5,1356(gp) # 20000dcc <errno>
    4c22:	557d                	li	a0,-1
    4c24:	8082                	ret
    4c26:	0000                	unimp
    4c28:	6148                	flw	fa0,4(a0)
    4c2a:	6472                	flw	fs0,28(sp)
    4c2c:	6146                	flw	ft2,80(sp)
    4c2e:	6c75                	lui	s8,0x1d
    4c30:	5f74                	lw	a3,124(a4)
    4c32:	6148                	flw	fa0,4(a0)
    4c34:	646e                	flw	fs0,216(sp)
    4c36:	656c                	flw	fa1,76(a0)
    4c38:	0d72                	slli	s10,s10,0x1c
    4c3a:	0000                	unimp
    4c3c:	656d                	lui	a0,0x1b
    4c3e:	6370                	flw	fa2,68(a4)
    4c40:	2020                	lbu	s0,2(s0)
    4c42:	253a                	lhu	a4,10(a0)
    4c44:	3830                	lbu	a2,19(s0)
    4c46:	0d78                	addi	a4,sp,668
    4c48:	000a                	c.slli	zero,0x2
    4c4a:	0000                	unimp
    4c4c:	636d                	lui	t1,0x1b
    4c4e:	7561                	lui	a0,0xffff8
    4c50:	253a6573          	csrrsi	a0,0x253,20
    4c54:	3830                	lbu	a2,19(s0)
    4c56:	0d78                	addi	a4,sp,668
    4c58:	000a                	c.slli	zero,0x2
    4c5a:	0000                	unimp
    4c5c:	746d                	lui	s0,0xffffb
    4c5e:	6176                	flw	ft2,92(sp)
    4c60:	206c                	lbu	a1,6(s0)
    4c62:	253a                	lhu	a4,10(a0)
    4c64:	3830                	lbu	a2,19(s0)
    4c66:	0d78                	addi	a4,sp,668
    4c68:	000a                	c.slli	zero,0x2
    4c6a:	0000                	unimp
    4c6c:	72617453          	0x72617453
    4c70:	0074                	addi	a3,sp,12
    4c72:	0000                	unimp
    4c74:	756f6873          	csrrsi	a6,0x756,30
    4c78:	646c                	flw	fa1,76(s0)
    4c7a:	276e                	lhu	a1,14(a4)
    4c7c:	2074                	lbu	a3,6(s0)
    4c7e:	7572                	flw	fa0,60(sp)
    4c80:	206e                	lhu	a1,6(s0)
    4c82:	7461                	lui	s0,0xffff8
    4c84:	6820                	flw	fs0,80(s0)
    4c86:	7265                	lui	tp,0xffff9
    4c88:	2165                	jal	5130 <_data_lma+0x2b8>
    4c8a:	0021                	c.nop	8
    4c8c:	3249                	jal	460e <_vfiprintf_r+0x21c>
    4c8e:	65542043          	0x65542043
    4c92:	73207473          	csrrci	s0,0x732,0
    4c96:	6174                	flw	fa3,68(a0)
    4c98:	7472                	flw	fs0,60(sp)
    4c9a:	0d0a                	slli	s10,s10,0x2
    4c9c:	0000                	unimp
    4c9e:	0000                	unimp
    4ca0:	6544                	flw	fs1,12(a0)
    4ca2:	5466                	lw	s0,120(sp)
    4ca4:	7361                	lui	t1,0xffff8
    4ca6:	1ba0006b          	0x1ba0006b
    4caa:	0000                	unimp
    4cac:	1bba                	slli	s7,s7,0x2e
    4cae:	0000                	unimp
    4cb0:	1bee                	slli	s7,s7,0x3b
    4cb2:	0000                	unimp
    4cb4:	1c02                	slli	s8,s8,0x20
    4cb6:	0000                	unimp
    4cb8:	1c16                	slli	s8,s8,0x25
    4cba:	0000                	unimp
    4cbc:	1c28                	addi	a0,sp,568
    4cbe:	0000                	unimp
    4cc0:	1c9a                	slli	s9,s9,0x26
    4cc2:	0000                	unimp
    4cc4:	1cb0                	addi	a2,sp,632
    4cc6:	0000                	unimp
    4cc8:	1d0c                	addi	a1,sp,688
    4cca:	0000                	unimp
    4ccc:	1d36                	slli	s10,s10,0x2d
    4cce:	0000                	unimp
    4cd0:	1bda                	slli	s7,s7,0x36
    4cd2:	0000                	unimp
    4cd4:	1cf6                	slli	s9,s9,0x3d
    4cd6:	0000                	unimp
    4cd8:	2e2e                	lhu	a1,26(a2)
    4cda:	6572462f          	0x6572462f
    4cde:	5265                	li	tp,-7
    4ce0:	4f54                	lw	a3,28(a4)
    4ce2:	6f702f53          	0x6f702f53
    4ce6:	7472                	flw	fs0,60(sp)
    4ce8:	6261                	lui	tp,0x18
    4cea:	656c                	flw	fa1,76(a0)
    4cec:	6d654d2f          	0x6d654d2f
    4cf0:	614d                	addi	sp,sp,176
    4cf2:	676e                	flw	fa4,216(sp)
    4cf4:	6165682f          	0x6165682f
    4cf8:	5f70                	lw	a2,124(a4)
    4cfa:	2e34                	lbu	a3,26(a2)
    4cfc:	00000063          	beqz	zero,4cfc <_read+0xe2>
    4d00:	7265                	lui	tp,0xffff9
    4d02:	2072                	lhu	a2,6(s0)
    4d04:	7461                	lui	s0,0xffff8
    4d06:	6c20                	flw	fs0,88(s0)
    4d08:	6e69                	lui	t3,0x1a
    4d0a:	2065                	jal	4db2 <_read+0x198>
    4d0c:	6425                	lui	s0,0x9
    4d0e:	6f20                	flw	fs0,88(a4)
    4d10:	2066                	lhu	s1,6(s0)
    4d12:	6966                	flw	fs2,88(sp)
    4d14:	656c                	flw	fa1,76(a0)
    4d16:	2220                	lbu	s0,2(a2)
    4d18:	7325                	lui	t1,0xfffe9
    4d1a:	2e22                	lhu	s0,26(a2)
    4d1c:	0d20                	addi	s0,sp,664
    4d1e:	200a                	lhu	a0,0(s0)
    4d20:	0000                	unimp
    4d22:	0000                	unimp
    4d24:	2e2e                	lhu	a1,26(a2)
    4d26:	6572462f          	0x6572462f
    4d2a:	5265                	li	tp,-7
    4d2c:	4f54                	lw	a3,28(a4)
    4d2e:	6f702f53          	0x6f702f53
    4d32:	7472                	flw	fs0,60(sp)
    4d34:	6261                	lui	tp,0x18
    4d36:	656c                	flw	fa1,76(a0)
    4d38:	4343472f          	0x4343472f
    4d3c:	5349522f          	0x5349522f
    4d40:	2f562d43          	fmadd.q	fs10,fa2,fs5,ft5,rdn
    4d44:	6f70                	flw	fa2,92(a4)
    4d46:	7472                	flw	fs0,60(sp)
    4d48:	632e                	flw	ft6,200(sp)
    4d4a:	0000                	unimp
    4d4c:	2e2e                	lhu	a1,26(a2)
    4d4e:	6572462f          	0x6572462f
    4d52:	5265                	li	tp,-7
    4d54:	4f54                	lw	a3,28(a4)
    4d56:	75712f53          	0x75712f53
    4d5a:	7565                	lui	a0,0xffff9
    4d5c:	2e65                	jal	5114 <_data_lma+0x29c>
    4d5e:	34020063          	beqz	tp,509e <_data_lma+0x226>
    4d62:	0000                	unimp
    4d64:	33f8                	lbu	a4,7(a5)
    4d66:	0000                	unimp
    4d68:	3416                	lhu	a3,40(s0)
    4d6a:	0000                	unimp
    4d6c:	3428                	lbu	a0,11(s0)
    4d6e:	0000                	unimp
    4d70:	3422                	lhu	s0,42(s0)
    4d72:	0000                	unimp
    4d74:	2e2e                	lhu	a1,26(a2)
    4d76:	6572462f          	0x6572462f
    4d7a:	5265                	li	tp,-7
    4d7c:	4f54                	lw	a3,28(a4)
    4d7e:	61742f53          	0x61742f53
    4d82:	2e736b73          	csrrsi	s6,0x2e7,6
    4d86:	44490063          	beq	s2,tp,51c6 <_data_lma+0x34e>
    4d8a:	454c                	lw	a1,12(a0)
    4d8c:	0000                	unimp
    4d8e:	0000                	unimp
    4d90:	376e                	lhu	a1,46(a4)
    4d92:	0000                	unimp
    4d94:	376e                	lhu	a1,46(a4)
    4d96:	0000                	unimp
    4d98:	37b2                	lhu	a2,42(a5)
    4d9a:	0000                	unimp
    4d9c:	37be                	lhu	a5,42(a5)
    4d9e:	0000                	unimp
    4da0:	3800                	lbu	s0,17(s0)
    4da2:	0000                	unimp
    4da4:	376e                	lhu	a1,46(a4)
    4da6:	0000                	unimp
    4da8:	376e                	lhu	a1,46(a4)
    4daa:	0000                	unimp
    4dac:	37b2                	lhu	a2,42(a5)
    4dae:	0000                	unimp
    4db0:	37be                	lhu	a5,42(a5)
    4db2:	0000                	unimp
    4db4:	6d54                	flw	fa3,28(a0)
    4db6:	5172                	lw	sp,60(sp)
    4db8:	0000                	unimp
    4dba:	0000                	unimp
    4dbc:	2e2e                	lhu	a1,26(a2)
    4dbe:	6572462f          	0x6572462f
    4dc2:	5265                	li	tp,-7
    4dc4:	4f54                	lw	a3,28(a4)
    4dc6:	69742f53          	0x69742f53
    4dca:	656d                	lui	a0,0x1b
    4dcc:	7372                	flw	ft6,60(sp)
    4dce:	632e                	flw	ft6,200(sp)
    4dd0:	0000                	unimp
    4dd2:	0000                	unimp
    4dd4:	6d54                	flw	fa3,28(a0)
    4dd6:	2072                	lhu	a2,6(s0)
    4dd8:	00637653          	fadd.s	fa2,ft6,ft6

00004ddc <__sf_fake_stderr>:
	...

00004dfc <__sf_fake_stdin>:
	...

00004e1c <__sf_fake_stdout>:
	...
    4e3c:	2b302d23 00000020 004c6c68 45676665     #-0+ ...hlL.efgE
    4e4c:	00004746 33323130 37363534 42413938     FG..0123456789AB
    4e5c:	46454443 00000000 33323130 37363534     CDEF....01234567
    4e6c:	62613938 66656463 00000000              89abcdef....
