Archive member included to satisfy reference by file (symbol)

c:/mounriver/mounriver_studio/toolchain/risc-v embedded gcc/bin/../lib/gcc/riscv-none-embed/8.2.0/rv32imacxw/ilp32\libgcc.a(addsf3.o)
                              ./User/DataModel.o (__addsf3)
c:/mounriver/mounriver_studio/toolchain/risc-v embedded gcc/bin/../lib/gcc/riscv-none-embed/8.2.0/rv32imacxw/ilp32\libgcc.a(divsf3.o)
                              ./User/DataModel.o (__divsf3)
c:/mounriver/mounriver_studio/toolchain/risc-v embedded gcc/bin/../lib/gcc/riscv-none-embed/8.2.0/rv32imacxw/ilp32\libgcc.a(eqsf2.o)
                              ./HWLIB/hw_lib_din.o (__nesf2)
c:/mounriver/mounriver_studio/toolchain/risc-v embedded gcc/bin/../lib/gcc/riscv-none-embed/8.2.0/rv32imacxw/ilp32\libgcc.a(gesf2.o)
                              ./User/inputs.o (__gesf2)
c:/mounriver/mounriver_studio/toolchain/risc-v embedded gcc/bin/../lib/gcc/riscv-none-embed/8.2.0/rv32imacxw/ilp32\libgcc.a(lesf2.o)
                              ./HWLIB/hw_lib_adc.o (__lesf2)
c:/mounriver/mounriver_studio/toolchain/risc-v embedded gcc/bin/../lib/gcc/riscv-none-embed/8.2.0/rv32imacxw/ilp32\libgcc.a(mulsf3.o)
                              ./User/dash_draw.o (__mulsf3)
c:/mounriver/mounriver_studio/toolchain/risc-v embedded gcc/bin/../lib/gcc/riscv-none-embed/8.2.0/rv32imacxw/ilp32\libgcc.a(subsf3.o)
                              ./User/inputs.o (__subsf3)
c:/mounriver/mounriver_studio/toolchain/risc-v embedded gcc/bin/../lib/gcc/riscv-none-embed/8.2.0/rv32imacxw/ilp32\libgcc.a(fixsfsi.o)
                              ./User/dash_draw.o (__fixsfsi)
c:/mounriver/mounriver_studio/toolchain/risc-v embedded gcc/bin/../lib/gcc/riscv-none-embed/8.2.0/rv32imacxw/ilp32\libgcc.a(fixunssfsi.o)
                              ./User/DataModel.o (__fixunssfsi)
c:/mounriver/mounriver_studio/toolchain/risc-v embedded gcc/bin/../lib/gcc/riscv-none-embed/8.2.0/rv32imacxw/ilp32\libgcc.a(floatsisf.o)
                              ./User/DataModel.o (__floatsisf)
c:/mounriver/mounriver_studio/toolchain/risc-v embedded gcc/bin/../lib/gcc/riscv-none-embed/8.2.0/rv32imacxw/ilp32\libgcc.a(floatunsisf.o)
                              ./User/DataModel.o (__floatunsisf)
c:/mounriver/mounriver_studio/toolchain/risc-v embedded gcc/bin/../lib/gcc/riscv-none-embed/8.2.0/rv32imacxw/ilp32\libgcc.a(save-restore.o)
                              ./User/dash_draw.o (__riscv_save_12)
c:/mounriver/mounriver_studio/toolchain/risc-v embedded gcc/bin/../lib/gcc/riscv-none-embed/8.2.0/rv32imacxw/ilp32\libgcc.a(_clzsi2.o)
                              c:/mounriver/mounriver_studio/toolchain/risc-v embedded gcc/bin/../lib/gcc/riscv-none-embed/8.2.0/rv32imacxw/ilp32\libgcc.a(addsf3.o) (__clzsi2)
c:/mounriver/mounriver_studio/toolchain/risc-v embedded gcc/bin/../lib/gcc/riscv-none-embed/8.2.0/rv32imacxw/ilp32\libgcc.a(_clz.o)
                              c:/mounriver/mounriver_studio/toolchain/risc-v embedded gcc/bin/../lib/gcc/riscv-none-embed/8.2.0/rv32imacxw/ilp32\libgcc.a(_clzsi2.o) (__clz_tab)
c:/mounriver/mounriver_studio/toolchain/risc-v embedded gcc/bin/../lib/gcc/riscv-none-embed/8.2.0/../../../../riscv-none-embed/lib/rv32imacxw/ilp32\libg_nano.a(lib_a-calloc.o)
                              ./CANopenNode/CANopen.o (calloc)
c:/mounriver/mounriver_studio/toolchain/risc-v embedded gcc/bin/../lib/gcc/riscv-none-embed/8.2.0/../../../../riscv-none-embed/lib/rv32imacxw/ilp32\libg_nano.a(lib_a-impure.o)
                              c:/mounriver/mounriver_studio/toolchain/risc-v embedded gcc/bin/../lib/gcc/riscv-none-embed/8.2.0/../../../../riscv-none-embed/lib/rv32imacxw/ilp32\libg_nano.a(lib_a-calloc.o) (_impure_ptr)
c:/mounriver/mounriver_studio/toolchain/risc-v embedded gcc/bin/../lib/gcc/riscv-none-embed/8.2.0/../../../../riscv-none-embed/lib/rv32imacxw/ilp32\libg_nano.a(lib_a-malloc.o)
                              ./CANopenNode/CANopen.o (free)
c:/mounriver/mounriver_studio/toolchain/risc-v embedded gcc/bin/../lib/gcc/riscv-none-embed/8.2.0/../../../../riscv-none-embed/lib/rv32imacxw/ilp32\libg_nano.a(lib_a-memcpy.o)
                              ./User/DataModel.o (memcpy)
c:/mounriver/mounriver_studio/toolchain/risc-v embedded gcc/bin/../lib/gcc/riscv-none-embed/8.2.0/../../../../riscv-none-embed/lib/rv32imacxw/ilp32\libg_nano.a(lib_a-memmove.o)
                              ./CANopenNode/301/CO_SDOserver.o (memmove)
c:/mounriver/mounriver_studio/toolchain/risc-v embedded gcc/bin/../lib/gcc/riscv-none-embed/8.2.0/../../../../riscv-none-embed/lib/rv32imacxw/ilp32\libg_nano.a(lib_a-memset.o)
                              ./User/DataModel.o (memset)
c:/mounriver/mounriver_studio/toolchain/risc-v embedded gcc/bin/../lib/gcc/riscv-none-embed/8.2.0/../../../../riscv-none-embed/lib/rv32imacxw/ilp32\libg_nano.a(lib_a-nano-callocr.o)
                              c:/mounriver/mounriver_studio/toolchain/risc-v embedded gcc/bin/../lib/gcc/riscv-none-embed/8.2.0/../../../../riscv-none-embed/lib/rv32imacxw/ilp32\libg_nano.a(lib_a-calloc.o) (_calloc_r)
c:/mounriver/mounriver_studio/toolchain/risc-v embedded gcc/bin/../lib/gcc/riscv-none-embed/8.2.0/../../../../riscv-none-embed/lib/rv32imacxw/ilp32\libg_nano.a(lib_a-nano-freer.o)
                              c:/mounriver/mounriver_studio/toolchain/risc-v embedded gcc/bin/../lib/gcc/riscv-none-embed/8.2.0/../../../../riscv-none-embed/lib/rv32imacxw/ilp32\libg_nano.a(lib_a-malloc.o) (_free_r)
c:/mounriver/mounriver_studio/toolchain/risc-v embedded gcc/bin/../lib/gcc/riscv-none-embed/8.2.0/../../../../riscv-none-embed/lib/rv32imacxw/ilp32\libg_nano.a(lib_a-nano-mallocr.o)
                              c:/mounriver/mounriver_studio/toolchain/risc-v embedded gcc/bin/../lib/gcc/riscv-none-embed/8.2.0/../../../../riscv-none-embed/lib/rv32imacxw/ilp32\libg_nano.a(lib_a-malloc.o) (_malloc_r)
c:/mounriver/mounriver_studio/toolchain/risc-v embedded gcc/bin/../lib/gcc/riscv-none-embed/8.2.0/../../../../riscv-none-embed/lib/rv32imacxw/ilp32\libg_nano.a(lib_a-printf.o)
                              ./User/ch32v20x_it.o (printf)
c:/mounriver/mounriver_studio/toolchain/risc-v embedded gcc/bin/../lib/gcc/riscv-none-embed/8.2.0/../../../../riscv-none-embed/lib/rv32imacxw/ilp32\libg_nano.a(lib_a-puts.o)
                              ./User/ch32v20x_it.o (puts)
c:/mounriver/mounriver_studio/toolchain/risc-v embedded gcc/bin/../lib/gcc/riscv-none-embed/8.2.0/../../../../riscv-none-embed/lib/rv32imacxw/ilp32\libg_nano.a(lib_a-sbrkr.o)
                              c:/mounriver/mounriver_studio/toolchain/risc-v embedded gcc/bin/../lib/gcc/riscv-none-embed/8.2.0/../../../../riscv-none-embed/lib/rv32imacxw/ilp32\libg_nano.a(lib_a-nano-mallocr.o) (_sbrk_r)
c:/mounriver/mounriver_studio/toolchain/risc-v embedded gcc/bin/../lib/gcc/riscv-none-embed/8.2.0/../../../../riscv-none-embed/lib/rv32imacxw/ilp32\libg_nano.a(lib_a-strlen.o)
                              ./FreeRTOS/tasks.o (strlen)
c:/mounriver/mounriver_studio/toolchain/risc-v embedded gcc/bin/../lib/gcc/riscv-none-embed/8.2.0/../../../../riscv-none-embed/lib/rv32imacxw/ilp32\libg_nano.a(lib_a-wbuf.o)
                              c:/mounriver/mounriver_studio/toolchain/risc-v embedded gcc/bin/../lib/gcc/riscv-none-embed/8.2.0/../../../../riscv-none-embed/lib/rv32imacxw/ilp32\libg_nano.a(lib_a-puts.o) (__swbuf_r)
c:/mounriver/mounriver_studio/toolchain/risc-v embedded gcc/bin/../lib/gcc/riscv-none-embed/8.2.0/../../../../riscv-none-embed/lib/rv32imacxw/ilp32\libg_nano.a(lib_a-wsetup.o)
                              c:/mounriver/mounriver_studio/toolchain/risc-v embedded gcc/bin/../lib/gcc/riscv-none-embed/8.2.0/../../../../riscv-none-embed/lib/rv32imacxw/ilp32\libg_nano.a(lib_a-puts.o) (__swsetup_r)
c:/mounriver/mounriver_studio/toolchain/risc-v embedded gcc/bin/../lib/gcc/riscv-none-embed/8.2.0/../../../../riscv-none-embed/lib/rv32imacxw/ilp32\libg_nano.a(lib_a-fflush.o)
                              c:/mounriver/mounriver_studio/toolchain/risc-v embedded gcc/bin/../lib/gcc/riscv-none-embed/8.2.0/../../../../riscv-none-embed/lib/rv32imacxw/ilp32\libg_nano.a(lib_a-wbuf.o) (_fflush_r)
c:/mounriver/mounriver_studio/toolchain/risc-v embedded gcc/bin/../lib/gcc/riscv-none-embed/8.2.0/../../../../riscv-none-embed/lib/rv32imacxw/ilp32\libg_nano.a(lib_a-findfp.o)
                              c:/mounriver/mounriver_studio/toolchain/risc-v embedded gcc/bin/../lib/gcc/riscv-none-embed/8.2.0/../../../../riscv-none-embed/lib/rv32imacxw/ilp32\libg_nano.a(lib_a-printf.o) (__sinit)
c:/mounriver/mounriver_studio/toolchain/risc-v embedded gcc/bin/../lib/gcc/riscv-none-embed/8.2.0/../../../../riscv-none-embed/lib/rv32imacxw/ilp32\libg_nano.a(lib_a-fwalk.o)
                              c:/mounriver/mounriver_studio/toolchain/risc-v embedded gcc/bin/../lib/gcc/riscv-none-embed/8.2.0/../../../../riscv-none-embed/lib/rv32imacxw/ilp32\libg_nano.a(lib_a-findfp.o) (_fwalk)
c:/mounriver/mounriver_studio/toolchain/risc-v embedded gcc/bin/../lib/gcc/riscv-none-embed/8.2.0/../../../../riscv-none-embed/lib/rv32imacxw/ilp32\libg_nano.a(lib_a-makebuf.o)
                              c:/mounriver/mounriver_studio/toolchain/risc-v embedded gcc/bin/../lib/gcc/riscv-none-embed/8.2.0/../../../../riscv-none-embed/lib/rv32imacxw/ilp32\libg_nano.a(lib_a-wsetup.o) (__smakebuf_r)
c:/mounriver/mounriver_studio/toolchain/risc-v embedded gcc/bin/../lib/gcc/riscv-none-embed/8.2.0/../../../../riscv-none-embed/lib/rv32imacxw/ilp32\libg_nano.a(lib_a-mlock.o)
                              c:/mounriver/mounriver_studio/toolchain/risc-v embedded gcc/bin/../lib/gcc/riscv-none-embed/8.2.0/../../../../riscv-none-embed/lib/rv32imacxw/ilp32\libg_nano.a(lib_a-nano-freer.o) (__malloc_lock)
c:/mounriver/mounriver_studio/toolchain/risc-v embedded gcc/bin/../lib/gcc/riscv-none-embed/8.2.0/../../../../riscv-none-embed/lib/rv32imacxw/ilp32\libg_nano.a(lib_a-nano-vfprintf.o)
                              c:/mounriver/mounriver_studio/toolchain/risc-v embedded gcc/bin/../lib/gcc/riscv-none-embed/8.2.0/../../../../riscv-none-embed/lib/rv32imacxw/ilp32\libg_nano.a(lib_a-printf.o) (_vfprintf_r)
c:/mounriver/mounriver_studio/toolchain/risc-v embedded gcc/bin/../lib/gcc/riscv-none-embed/8.2.0/../../../../riscv-none-embed/lib/rv32imacxw/ilp32\libg_nano.a(lib_a-nano-vfprintf_i.o)
                              c:/mounriver/mounriver_studio/toolchain/risc-v embedded gcc/bin/../lib/gcc/riscv-none-embed/8.2.0/../../../../riscv-none-embed/lib/rv32imacxw/ilp32\libg_nano.a(lib_a-nano-vfprintf.o) (_printf_i)
c:/mounriver/mounriver_studio/toolchain/risc-v embedded gcc/bin/../lib/gcc/riscv-none-embed/8.2.0/../../../../riscv-none-embed/lib/rv32imacxw/ilp32\libg_nano.a(lib_a-reent.o)
                              c:/mounriver/mounriver_studio/toolchain/risc-v embedded gcc/bin/../lib/gcc/riscv-none-embed/8.2.0/../../../../riscv-none-embed/lib/rv32imacxw/ilp32\libg_nano.a(lib_a-sbrkr.o) (errno)
c:/mounriver/mounriver_studio/toolchain/risc-v embedded gcc/bin/../lib/gcc/riscv-none-embed/8.2.0/../../../../riscv-none-embed/lib/rv32imacxw/ilp32\libg_nano.a(lib_a-stdio.o)
                              c:/mounriver/mounriver_studio/toolchain/risc-v embedded gcc/bin/../lib/gcc/riscv-none-embed/8.2.0/../../../../riscv-none-embed/lib/rv32imacxw/ilp32\libg_nano.a(lib_a-findfp.o) (__sread)
c:/mounriver/mounriver_studio/toolchain/risc-v embedded gcc/bin/../lib/gcc/riscv-none-embed/8.2.0/../../../../riscv-none-embed/lib/rv32imacxw/ilp32\libg_nano.a(lib_a-writer.o)
                              c:/mounriver/mounriver_studio/toolchain/risc-v embedded gcc/bin/../lib/gcc/riscv-none-embed/8.2.0/../../../../riscv-none-embed/lib/rv32imacxw/ilp32\libg_nano.a(lib_a-stdio.o) (_write_r)
c:/mounriver/mounriver_studio/toolchain/risc-v embedded gcc/bin/../lib/gcc/riscv-none-embed/8.2.0/../../../../riscv-none-embed/lib/rv32imacxw/ilp32\libg_nano.a(lib_a-closer.o)
                              c:/mounriver/mounriver_studio/toolchain/risc-v embedded gcc/bin/../lib/gcc/riscv-none-embed/8.2.0/../../../../riscv-none-embed/lib/rv32imacxw/ilp32\libg_nano.a(lib_a-stdio.o) (_close_r)
c:/mounriver/mounriver_studio/toolchain/risc-v embedded gcc/bin/../lib/gcc/riscv-none-embed/8.2.0/../../../../riscv-none-embed/lib/rv32imacxw/ilp32\libg_nano.a(lib_a-fstatr.o)
                              c:/mounriver/mounriver_studio/toolchain/risc-v embedded gcc/bin/../lib/gcc/riscv-none-embed/8.2.0/../../../../riscv-none-embed/lib/rv32imacxw/ilp32\libg_nano.a(lib_a-makebuf.o) (_fstat_r)
c:/mounriver/mounriver_studio/toolchain/risc-v embedded gcc/bin/../lib/gcc/riscv-none-embed/8.2.0/../../../../riscv-none-embed/lib/rv32imacxw/ilp32\libg_nano.a(lib_a-fvwrite.o)
                              c:/mounriver/mounriver_studio/toolchain/risc-v embedded gcc/bin/../lib/gcc/riscv-none-embed/8.2.0/../../../../riscv-none-embed/lib/rv32imacxw/ilp32\libg_nano.a(lib_a-nano-vfprintf.o) (__sfvwrite_r)
c:/mounriver/mounriver_studio/toolchain/risc-v embedded gcc/bin/../lib/gcc/riscv-none-embed/8.2.0/../../../../riscv-none-embed/lib/rv32imacxw/ilp32\libg_nano.a(lib_a-isattyr.o)
                              c:/mounriver/mounriver_studio/toolchain/risc-v embedded gcc/bin/../lib/gcc/riscv-none-embed/8.2.0/../../../../riscv-none-embed/lib/rv32imacxw/ilp32\libg_nano.a(lib_a-makebuf.o) (_isatty_r)
c:/mounriver/mounriver_studio/toolchain/risc-v embedded gcc/bin/../lib/gcc/riscv-none-embed/8.2.0/../../../../riscv-none-embed/lib/rv32imacxw/ilp32\libg_nano.a(lib_a-lseekr.o)
                              c:/mounriver/mounriver_studio/toolchain/risc-v embedded gcc/bin/../lib/gcc/riscv-none-embed/8.2.0/../../../../riscv-none-embed/lib/rv32imacxw/ilp32\libg_nano.a(lib_a-stdio.o) (_lseek_r)
c:/mounriver/mounriver_studio/toolchain/risc-v embedded gcc/bin/../lib/gcc/riscv-none-embed/8.2.0/../../../../riscv-none-embed/lib/rv32imacxw/ilp32\libg_nano.a(lib_a-memchr.o)
                              c:/mounriver/mounriver_studio/toolchain/risc-v embedded gcc/bin/../lib/gcc/riscv-none-embed/8.2.0/../../../../riscv-none-embed/lib/rv32imacxw/ilp32\libg_nano.a(lib_a-nano-vfprintf.o) (memchr)
c:/mounriver/mounriver_studio/toolchain/risc-v embedded gcc/bin/../lib/gcc/riscv-none-embed/8.2.0/../../../../riscv-none-embed/lib/rv32imacxw/ilp32\libg_nano.a(lib_a-nano-reallocr.o)
                              c:/mounriver/mounriver_studio/toolchain/risc-v embedded gcc/bin/../lib/gcc/riscv-none-embed/8.2.0/../../../../riscv-none-embed/lib/rv32imacxw/ilp32\libg_nano.a(lib_a-fvwrite.o) (_realloc_r)
c:/mounriver/mounriver_studio/toolchain/risc-v embedded gcc/bin/../lib/gcc/riscv-none-embed/8.2.0/../../../../riscv-none-embed/lib/rv32imacxw/ilp32\libg_nano.a(lib_a-readr.o)
                              c:/mounriver/mounriver_studio/toolchain/risc-v embedded gcc/bin/../lib/gcc/riscv-none-embed/8.2.0/../../../../riscv-none-embed/lib/rv32imacxw/ilp32\libg_nano.a(lib_a-stdio.o) (_read_r)
c:/mounriver/mounriver_studio/toolchain/risc-v embedded gcc/bin/../lib/gcc/riscv-none-embed/8.2.0/../../../../riscv-none-embed/lib/rv32imacxw/ilp32\libg_nano.a(lib_a-nano-msizer.o)
                              c:/mounriver/mounriver_studio/toolchain/risc-v embedded gcc/bin/../lib/gcc/riscv-none-embed/8.2.0/../../../../riscv-none-embed/lib/rv32imacxw/ilp32\libg_nano.a(lib_a-nano-reallocr.o) (_malloc_usable_size_r)
c:/mounriver/mounriver_studio/toolchain/risc-v embedded gcc/bin/../lib/gcc/riscv-none-embed/8.2.0/../../../../riscv-none-embed/lib/rv32imacxw/ilp32\libnosys.a(close.o)
                              c:/mounriver/mounriver_studio/toolchain/risc-v embedded gcc/bin/../lib/gcc/riscv-none-embed/8.2.0/../../../../riscv-none-embed/lib/rv32imacxw/ilp32\libg_nano.a(lib_a-closer.o) (_close)
c:/mounriver/mounriver_studio/toolchain/risc-v embedded gcc/bin/../lib/gcc/riscv-none-embed/8.2.0/../../../../riscv-none-embed/lib/rv32imacxw/ilp32\libnosys.a(fstat.o)
                              c:/mounriver/mounriver_studio/toolchain/risc-v embedded gcc/bin/../lib/gcc/riscv-none-embed/8.2.0/../../../../riscv-none-embed/lib/rv32imacxw/ilp32\libg_nano.a(lib_a-fstatr.o) (_fstat)
c:/mounriver/mounriver_studio/toolchain/risc-v embedded gcc/bin/../lib/gcc/riscv-none-embed/8.2.0/../../../../riscv-none-embed/lib/rv32imacxw/ilp32\libnosys.a(isatty.o)
                              c:/mounriver/mounriver_studio/toolchain/risc-v embedded gcc/bin/../lib/gcc/riscv-none-embed/8.2.0/../../../../riscv-none-embed/lib/rv32imacxw/ilp32\libg_nano.a(lib_a-isattyr.o) (_isatty)
c:/mounriver/mounriver_studio/toolchain/risc-v embedded gcc/bin/../lib/gcc/riscv-none-embed/8.2.0/../../../../riscv-none-embed/lib/rv32imacxw/ilp32\libnosys.a(lseek.o)
                              c:/mounriver/mounriver_studio/toolchain/risc-v embedded gcc/bin/../lib/gcc/riscv-none-embed/8.2.0/../../../../riscv-none-embed/lib/rv32imacxw/ilp32\libg_nano.a(lib_a-lseekr.o) (_lseek)
c:/mounriver/mounriver_studio/toolchain/risc-v embedded gcc/bin/../lib/gcc/riscv-none-embed/8.2.0/../../../../riscv-none-embed/lib/rv32imacxw/ilp32\libnosys.a(read.o)
                              c:/mounriver/mounriver_studio/toolchain/risc-v embedded gcc/bin/../lib/gcc/riscv-none-embed/8.2.0/../../../../riscv-none-embed/lib/rv32imacxw/ilp32\libg_nano.a(lib_a-readr.o) (_read)

Allocating common symbols
Common symbol       size              file

errno               0x4               c:/mounriver/mounriver_studio/toolchain/risc-v embedded gcc/bin/../lib/gcc/riscv-none-embed/8.2.0/../../../../riscv-none-embed/lib/rv32imacxw/ilp32\libg_nano.a(lib_a-reent.o)

Discarded input sections

 .text          0x0000000000000000        0x0 ./User/CanOpenNode.o
 .data          0x0000000000000000        0x0 ./User/CanOpenNode.o
 .bss           0x0000000000000000        0x0 ./User/CanOpenNode.o
 .text          0x0000000000000000        0x0 ./User/DataModel.o
 .data          0x0000000000000000        0x0 ./User/DataModel.o
 .bss           0x0000000000000000        0x0 ./User/DataModel.o
 .text.setReg8  0x0000000000000000        0xe ./User/DataModel.o
 .text          0x0000000000000000        0x0 ./User/ch32v20x_it.o
 .data          0x0000000000000000        0x0 ./User/ch32v20x_it.o
 .bss           0x0000000000000000        0x0 ./User/ch32v20x_it.o
 .text          0x0000000000000000        0x0 ./User/dash_draw.o
 .data          0x0000000000000000        0x0 ./User/dash_draw.o
 .bss           0x0000000000000000        0x0 ./User/dash_draw.o
 .text.SetBackHomeTime
                0x0000000000000000        0xa ./User/dash_draw.o
 .text.vAcceptError
                0x0000000000000000       0x2c ./User/dash_draw.o
 .text.RedrawNotifyTaskToStop
                0x0000000000000000       0x28 ./User/dash_draw.o
 .text.fPortStateKey
                0x0000000000000000       0x26 ./User/dash_draw.o
 .text          0x0000000000000000        0x0 ./User/init.o
 .data          0x0000000000000000        0x0 ./User/init.o
 .bss           0x0000000000000000        0x0 ./User/init.o
 .text          0x0000000000000000        0x0 ./User/inputs.o
 .data          0x0000000000000000        0x0 ./User/inputs.o
 .bss           0x0000000000000000        0x0 ./User/inputs.o
 .text.InputsNotifyTaskToStop
                0x0000000000000000       0x28 ./User/inputs.o
 .text          0x0000000000000000        0x0 ./User/led.o
 .data          0x0000000000000000        0x0 ./User/led.o
 .bss           0x0000000000000000        0x0 ./User/led.o
 .text          0x0000000000000000        0x0 ./User/main.o
 .data          0x0000000000000000        0x0 ./User/main.o
 .bss           0x0000000000000000        0x0 ./User/main.o
 .text          0x0000000000000000        0x0 ./User/process.o
 .data          0x0000000000000000        0x0 ./User/process.o
 .bss           0x0000000000000000        0x0 ./User/process.o
 .text.OD_writeRGB14
                0x0000000000000000       0x24 ./User/process.o
 .rodata.OD_RGB14_extension
                0x0000000000000000       0x10 ./User/process.o
 .text          0x0000000000000000        0x0 ./User/system_ch32v20x.o
 .data          0x0000000000000000        0x0 ./User/system_ch32v20x.o
 .bss           0x0000000000000000        0x0 ./User/system_ch32v20x.o
 .text          0x0000000000000000        0x0 ./User/system_init.o
 .data          0x0000000000000000        0x0 ./User/system_init.o
 .bss           0x0000000000000000        0x0 ./User/system_init.o
 .text          0x0000000000000000        0x0 ./Startup/startup_ch32v20x_D6.o
 .data          0x0000000000000000        0x0 ./Startup/startup_ch32v20x_D6.o
 .bss           0x0000000000000000        0x0 ./Startup/startup_ch32v20x_D6.o
 .text          0x0000000000000000        0x0 ./Peripheral/src/ch32v20x_adc.o
 .data          0x0000000000000000        0x0 ./Peripheral/src/ch32v20x_adc.o
 .bss           0x0000000000000000        0x0 ./Peripheral/src/ch32v20x_adc.o
 .text.ADC_StructInit
                0x0000000000000000       0x1a ./Peripheral/src/ch32v20x_adc.o
 .text.ADC_ITConfig
                0x0000000000000000       0x16 ./Peripheral/src/ch32v20x_adc.o
 .text.ADC_GetSoftwareStartConvStatus
                0x0000000000000000        0x8 ./Peripheral/src/ch32v20x_adc.o
 .text.ADC_DiscModeChannelCountConfig
                0x0000000000000000       0x12 ./Peripheral/src/ch32v20x_adc.o
 .text.ADC_DiscModeCmd
                0x0000000000000000       0x1a ./Peripheral/src/ch32v20x_adc.o
 .text.ADC_GetConversionValue
                0x0000000000000000        0x8 ./Peripheral/src/ch32v20x_adc.o
 .text.ADC_GetDualModeConversionValue
                0x0000000000000000        0xa ./Peripheral/src/ch32v20x_adc.o
 .text.ADC_AutoInjectedConvCmd
                0x0000000000000000       0x12 ./Peripheral/src/ch32v20x_adc.o
 .text.ADC_InjectedDiscModeCmd
                0x0000000000000000       0x14 ./Peripheral/src/ch32v20x_adc.o
 .text.ADC_ExternalTrigInjectedConvConfig
                0x0000000000000000        0xe ./Peripheral/src/ch32v20x_adc.o
 .text.ADC_ExternalTrigInjectedConvCmd
                0x0000000000000000       0x14 ./Peripheral/src/ch32v20x_adc.o
 .text.ADC_SoftwareStartInjectedConvCmd
                0x0000000000000000       0x18 ./Peripheral/src/ch32v20x_adc.o
 .text.ADC_GetSoftwareStartInjectedConvCmdStatus
                0x0000000000000000        0x8 ./Peripheral/src/ch32v20x_adc.o
 .text.ADC_InjectedChannelConfig
                0x0000000000000000       0x7a ./Peripheral/src/ch32v20x_adc.o
 .text.ADC_InjectedSequencerLengthConfig
                0x0000000000000000       0x14 ./Peripheral/src/ch32v20x_adc.o
 .text.ADC_SetInjectedOffset
                0x0000000000000000       0x14 ./Peripheral/src/ch32v20x_adc.o
 .text.ADC_GetInjectedConversionValue
                0x0000000000000000       0x1c ./Peripheral/src/ch32v20x_adc.o
 .text.ADC_AnalogWatchdogCmd
                0x0000000000000000       0x12 ./Peripheral/src/ch32v20x_adc.o
 .text.ADC_AnalogWatchdogThresholdsConfig
                0x0000000000000000        0x6 ./Peripheral/src/ch32v20x_adc.o
 .text.ADC_AnalogWatchdogSingleChannelConfig
                0x0000000000000000        0xa ./Peripheral/src/ch32v20x_adc.o
 .text.ADC_TempSensorVrefintCmd
                0x0000000000000000       0x20 ./Peripheral/src/ch32v20x_adc.o
 .text.ADC_GetFlagStatus
                0x0000000000000000        0xa ./Peripheral/src/ch32v20x_adc.o
 .text.ADC_ClearFlag
                0x0000000000000000        0x8 ./Peripheral/src/ch32v20x_adc.o
 .text.TempSensor_Volt_To_Temper
                0x0000000000000000       0x28 ./Peripheral/src/ch32v20x_adc.o
 .text          0x0000000000000000        0x0 ./Peripheral/src/ch32v20x_bkp.o
 .data          0x0000000000000000        0x0 ./Peripheral/src/ch32v20x_bkp.o
 .bss           0x0000000000000000        0x0 ./Peripheral/src/ch32v20x_bkp.o
 .text.BKP_TamperPinLevelConfig
                0x0000000000000000       0x20 ./Peripheral/src/ch32v20x_bkp.o
 .text.BKP_TamperPinCmd
                0x0000000000000000       0x20 ./Peripheral/src/ch32v20x_bkp.o
 .text.BKP_ITConfig
                0x0000000000000000       0x20 ./Peripheral/src/ch32v20x_bkp.o
 .text.BKP_RTCOutputConfig
                0x0000000000000000       0x18 ./Peripheral/src/ch32v20x_bkp.o
 .text.BKP_SetRTCCalibrationValue
                0x0000000000000000       0x18 ./Peripheral/src/ch32v20x_bkp.o
 .text.BKP_WriteBackupRegister
                0x0000000000000000       0x1c ./Peripheral/src/ch32v20x_bkp.o
 .text.BKP_ReadBackupRegister
                0x0000000000000000       0x1c ./Peripheral/src/ch32v20x_bkp.o
 .text.BKP_GetFlagStatus
                0x0000000000000000        0xe ./Peripheral/src/ch32v20x_bkp.o
 .text.BKP_ClearFlag
                0x0000000000000000       0x12 ./Peripheral/src/ch32v20x_bkp.o
 .text.BKP_GetITStatus
                0x0000000000000000        0xe ./Peripheral/src/ch32v20x_bkp.o
 .text.BKP_ClearITPendingBit
                0x0000000000000000       0x12 ./Peripheral/src/ch32v20x_bkp.o
 .text          0x0000000000000000        0x0 ./Peripheral/src/ch32v20x_can.o
 .data          0x0000000000000000        0x0 ./Peripheral/src/ch32v20x_can.o
 .bss           0x0000000000000000        0x0 ./Peripheral/src/ch32v20x_can.o
 .text.CAN_DeInit
                0x0000000000000000       0x4c ./Peripheral/src/ch32v20x_can.o
 .text.CAN_StructInit
                0x0000000000000000       0x24 ./Peripheral/src/ch32v20x_can.o
 .text.CAN_SlaveStartBank
                0x0000000000000000       0x38 ./Peripheral/src/ch32v20x_can.o
 .text.CAN_DBGFreeze
                0x0000000000000000       0x14 ./Peripheral/src/ch32v20x_can.o
 .text.CAN_TTComModeCmd
                0x0000000000000000       0x58 ./Peripheral/src/ch32v20x_can.o
 .text.CAN_TransmitStatus
                0x0000000000000000       0x62 ./Peripheral/src/ch32v20x_can.o
 .text.CAN_CancelTransmit
                0x0000000000000000       0x2a ./Peripheral/src/ch32v20x_can.o
 .text.CAN_FIFORelease
                0x0000000000000000       0x16 ./Peripheral/src/ch32v20x_can.o
 .text.CAN_MessagePending
                0x0000000000000000       0x16 ./Peripheral/src/ch32v20x_can.o
 .text.CAN_Sleep
                0x0000000000000000       0x16 ./Peripheral/src/ch32v20x_can.o
 .text.CAN_WakeUp
                0x0000000000000000       0x1e ./Peripheral/src/ch32v20x_can.o
 .text.CAN_GetLastErrorCode
                0x0000000000000000        0x8 ./Peripheral/src/ch32v20x_can.o
 .text.CAN_GetReceiveErrorCounter
                0x0000000000000000        0x6 ./Peripheral/src/ch32v20x_can.o
 .text.CAN_GetLSBTransmitErrorCounter
                0x0000000000000000        0xa ./Peripheral/src/ch32v20x_can.o
 .text.CAN_GetITStatus
                0x0000000000000000       0xd0 ./Peripheral/src/ch32v20x_can.o
 .text          0x0000000000000000        0x0 ./Peripheral/src/ch32v20x_crc.o
 .data          0x0000000000000000        0x0 ./Peripheral/src/ch32v20x_crc.o
 .bss           0x0000000000000000        0x0 ./Peripheral/src/ch32v20x_crc.o
 .text.CRC_ResetDR
                0x0000000000000000        0xa ./Peripheral/src/ch32v20x_crc.o
 .text.CRC_CalcCRC
                0x0000000000000000        0xa ./Peripheral/src/ch32v20x_crc.o
 .text.CRC_CalcBlockCRC
                0x0000000000000000       0x20 ./Peripheral/src/ch32v20x_crc.o
 .text.CRC_GetCRC
                0x0000000000000000        0x8 ./Peripheral/src/ch32v20x_crc.o
 .text.CRC_SetIDRegister
                0x0000000000000000        0x8 ./Peripheral/src/ch32v20x_crc.o
 .text.CRC_GetIDRegister
                0x0000000000000000        0x8 ./Peripheral/src/ch32v20x_crc.o
 .debug_info    0x0000000000000000      0xaba ./Peripheral/src/ch32v20x_crc.o
 .debug_abbrev  0x0000000000000000      0x25f ./Peripheral/src/ch32v20x_crc.o
 .debug_loc     0x0000000000000000       0x75 ./Peripheral/src/ch32v20x_crc.o
 .debug_aranges
                0x0000000000000000       0x48 ./Peripheral/src/ch32v20x_crc.o
 .debug_ranges  0x0000000000000000       0x38 ./Peripheral/src/ch32v20x_crc.o
 .debug_line    0x0000000000000000      0x388 ./Peripheral/src/ch32v20x_crc.o
 .debug_str     0x0000000000000000      0x686 ./Peripheral/src/ch32v20x_crc.o
 .comment       0x0000000000000000       0x34 ./Peripheral/src/ch32v20x_crc.o
 .debug_frame   0x0000000000000000       0x70 ./Peripheral/src/ch32v20x_crc.o
 .text          0x0000000000000000        0x0 ./Peripheral/src/ch32v20x_dbgmcu.o
 .data          0x0000000000000000        0x0 ./Peripheral/src/ch32v20x_dbgmcu.o
 .bss           0x0000000000000000        0x0 ./Peripheral/src/ch32v20x_dbgmcu.o
 .text.DBGMCU_GetREVID
                0x0000000000000000        0xa ./Peripheral/src/ch32v20x_dbgmcu.o
 .text.DBGMCU_GetDEVID
                0x0000000000000000        0xa ./Peripheral/src/ch32v20x_dbgmcu.o
 .text.__get_DEBUG_CR
                0x0000000000000000        0x6 ./Peripheral/src/ch32v20x_dbgmcu.o
 .text.__set_DEBUG_CR
                0x0000000000000000        0x6 ./Peripheral/src/ch32v20x_dbgmcu.o
 .text.DBGMCU_Config
                0x0000000000000000       0x14 ./Peripheral/src/ch32v20x_dbgmcu.o
 .text.DBGMCU_GetCHIPID
                0x0000000000000000        0xa ./Peripheral/src/ch32v20x_dbgmcu.o
 .debug_info    0x0000000000000000      0xa9b ./Peripheral/src/ch32v20x_dbgmcu.o
 .debug_abbrev  0x0000000000000000      0x2f7 ./Peripheral/src/ch32v20x_dbgmcu.o
 .debug_loc     0x0000000000000000       0x6e ./Peripheral/src/ch32v20x_dbgmcu.o
 .debug_aranges
                0x0000000000000000       0x48 ./Peripheral/src/ch32v20x_dbgmcu.o
 .debug_ranges  0x0000000000000000       0x50 ./Peripheral/src/ch32v20x_dbgmcu.o
 .debug_line    0x0000000000000000      0x34b ./Peripheral/src/ch32v20x_dbgmcu.o
 .debug_str     0x0000000000000000      0x651 ./Peripheral/src/ch32v20x_dbgmcu.o
 .comment       0x0000000000000000       0x34 ./Peripheral/src/ch32v20x_dbgmcu.o
 .debug_frame   0x0000000000000000       0x70 ./Peripheral/src/ch32v20x_dbgmcu.o
 .text          0x0000000000000000        0x0 ./Peripheral/src/ch32v20x_dma.o
 .data          0x0000000000000000        0x0 ./Peripheral/src/ch32v20x_dma.o
 .bss           0x0000000000000000        0x0 ./Peripheral/src/ch32v20x_dma.o
 .text.DMA_DeInit
                0x0000000000000000       0x9c ./Peripheral/src/ch32v20x_dma.o
 .text.DMA_StructInit
                0x0000000000000000       0x2e ./Peripheral/src/ch32v20x_dma.o
 .text.DMA_GetCurrDataCounter
                0x0000000000000000        0x8 ./Peripheral/src/ch32v20x_dma.o
 .text.DMA_ClearFlag
                0x0000000000000000        0x8 ./Peripheral/src/ch32v20x_dma.o
 .text          0x0000000000000000        0x0 ./Peripheral/src/ch32v20x_exti.o
 .data          0x0000000000000000        0x0 ./Peripheral/src/ch32v20x_exti.o
 .bss           0x0000000000000000        0x0 ./Peripheral/src/ch32v20x_exti.o
 .text.EXTI_DeInit
                0x0000000000000000       0x22 ./Peripheral/src/ch32v20x_exti.o
 .text.EXTI_Init
                0x0000000000000000       0x6a ./Peripheral/src/ch32v20x_exti.o
 .text.EXTI_StructInit
                0x0000000000000000       0x12 ./Peripheral/src/ch32v20x_exti.o
 .text.EXTI_GenerateSWInterrupt
                0x0000000000000000       0x10 ./Peripheral/src/ch32v20x_exti.o
 .text.EXTI_GetFlagStatus
                0x0000000000000000       0x12 ./Peripheral/src/ch32v20x_exti.o
 .text.EXTI_ClearFlag
                0x0000000000000000        0xa ./Peripheral/src/ch32v20x_exti.o
 .text.EXTI_GetITStatus
                0x0000000000000000       0x1e ./Peripheral/src/ch32v20x_exti.o
 .text.EXTI_ClearITPendingBit
                0x0000000000000000        0xa ./Peripheral/src/ch32v20x_exti.o
 .debug_info    0x0000000000000000      0xc14 ./Peripheral/src/ch32v20x_exti.o
 .debug_abbrev  0x0000000000000000      0x2da ./Peripheral/src/ch32v20x_exti.o
 .debug_loc     0x0000000000000000      0x181 ./Peripheral/src/ch32v20x_exti.o
 .debug_aranges
                0x0000000000000000       0x50 ./Peripheral/src/ch32v20x_exti.o
 .debug_ranges  0x0000000000000000       0x40 ./Peripheral/src/ch32v20x_exti.o
 .debug_line    0x0000000000000000      0x589 ./Peripheral/src/ch32v20x_exti.o
 .debug_str     0x0000000000000000      0x798 ./Peripheral/src/ch32v20x_exti.o
 .comment       0x0000000000000000       0x34 ./Peripheral/src/ch32v20x_exti.o
 .debug_frame   0x0000000000000000       0x90 ./Peripheral/src/ch32v20x_exti.o
 .text          0x0000000000000000        0x0 ./Peripheral/src/ch32v20x_flash.o
 .data          0x0000000000000000        0x0 ./Peripheral/src/ch32v20x_flash.o
 .bss           0x0000000000000000        0x0 ./Peripheral/src/ch32v20x_flash.o
 .text.FLASH_Unlock
                0x0000000000000000       0x1a ./Peripheral/src/ch32v20x_flash.o
 .text.FLASH_UnlockBank1
                0x0000000000000000       0x18 ./Peripheral/src/ch32v20x_flash.o
 .text.FLASH_Lock
                0x0000000000000000        0xe ./Peripheral/src/ch32v20x_flash.o
 .text.FLASH_LockBank1
                0x0000000000000000       0x18 ./Peripheral/src/ch32v20x_flash.o
 .text.FLASH_GetUserOptionByte
                0x0000000000000000        0xa ./Peripheral/src/ch32v20x_flash.o
 .text.FLASH_GetWriteProtectionOptionByte
                0x0000000000000000        0x8 ./Peripheral/src/ch32v20x_flash.o
 .text.FLASH_GetReadOutProtectionStatus
                0x0000000000000000        0xc ./Peripheral/src/ch32v20x_flash.o
 .text.FLASH_ITConfig
                0x0000000000000000       0x1e ./Peripheral/src/ch32v20x_flash.o
 .text.FLASH_GetFlagStatus
                0x0000000000000000       0x1e ./Peripheral/src/ch32v20x_flash.o
 .text.FLASH_ClearFlag
                0x0000000000000000        0x8 ./Peripheral/src/ch32v20x_flash.o
 .text.FLASH_GetStatus
                0x0000000000000000       0x18 ./Peripheral/src/ch32v20x_flash.o
 .text.FLASH_GetBank1Status
                0x0000000000000000       0x18 ./Peripheral/src/ch32v20x_flash.o
 .text.FLASH_WaitForLastOperation
                0x0000000000000000       0x34 ./Peripheral/src/ch32v20x_flash.o
 .text.FLASH_ErasePage
                0x0000000000000000       0x4c ./Peripheral/src/ch32v20x_flash.o
 .text.FLASH_EraseAllPages
                0x0000000000000000       0x48 ./Peripheral/src/ch32v20x_flash.o
 .text.FLASH_EraseAllBank1Pages
                0x0000000000000000       0x18 ./Peripheral/src/ch32v20x_flash.o
 .text.FLASH_EraseOptionBytes
                0x0000000000000000       0xe6 ./Peripheral/src/ch32v20x_flash.o
 .text.FLASH_ProgramWord
                0x0000000000000000       0x68 ./Peripheral/src/ch32v20x_flash.o
 .text.FLASH_ProgramHalfWord
                0x0000000000000000       0x48 ./Peripheral/src/ch32v20x_flash.o
 .text.FLASH_ProgramOptionByteData
                0x0000000000000000      0x11a ./Peripheral/src/ch32v20x_flash.o
 .text.FLASH_EnableWriteProtection
                0x0000000000000000      0x106 ./Peripheral/src/ch32v20x_flash.o
 .text.FLASH_ReadOutProtection
                0x0000000000000000       0xf4 ./Peripheral/src/ch32v20x_flash.o
 .text.FLASH_UserOptionByteConfig
                0x0000000000000000      0x108 ./Peripheral/src/ch32v20x_flash.o
 .text.FLASH_WaitForLastBank1Operation
                0x0000000000000000       0x18 ./Peripheral/src/ch32v20x_flash.o
 .text.FLASH_Unlock_Fast
                0x0000000000000000       0x1e ./Peripheral/src/ch32v20x_flash.o
 .text.FLASH_Lock_Fast
                0x0000000000000000        0xe ./Peripheral/src/ch32v20x_flash.o
 .text.FLASH_ErasePage_Fast
                0x0000000000000000       0x2e ./Peripheral/src/ch32v20x_flash.o
 .text.FLASH_EraseBlock_32K_Fast
                0x0000000000000000       0x30 ./Peripheral/src/ch32v20x_flash.o
 .text.FLASH_EraseBlock_64K_Fast
                0x0000000000000000       0x30 ./Peripheral/src/ch32v20x_flash.o
 .text.FLASH_ProgramPage_Fast
                0x0000000000000000       0x64 ./Peripheral/src/ch32v20x_flash.o
 .text.FLASH_Access_Clock_Cfg
                0x0000000000000000       0x18 ./Peripheral/src/ch32v20x_flash.o
 .text.FLASH_Enhance_Mode
                0x0000000000000000       0x2e ./Peripheral/src/ch32v20x_flash.o
 .text.FLASH_GetMACAddress
                0x0000000000000000       0x26 ./Peripheral/src/ch32v20x_flash.o
 .debug_info    0x0000000000000000     0x13c7 ./Peripheral/src/ch32v20x_flash.o
 .debug_abbrev  0x0000000000000000      0x42c ./Peripheral/src/ch32v20x_flash.o
 .debug_loc     0x0000000000000000      0x810 ./Peripheral/src/ch32v20x_flash.o
 .debug_aranges
                0x0000000000000000      0x100 ./Peripheral/src/ch32v20x_flash.o
 .debug_ranges  0x0000000000000000       0xf0 ./Peripheral/src/ch32v20x_flash.o
 .debug_line    0x0000000000000000     0x1ca1 ./Peripheral/src/ch32v20x_flash.o
 .debug_str     0x0000000000000000      0xaa0 ./Peripheral/src/ch32v20x_flash.o
 .comment       0x0000000000000000       0x34 ./Peripheral/src/ch32v20x_flash.o
 .debug_frame   0x0000000000000000      0x330 ./Peripheral/src/ch32v20x_flash.o
 .text          0x0000000000000000        0x0 ./Peripheral/src/ch32v20x_gpio.o
 .data          0x0000000000000000        0x0 ./Peripheral/src/ch32v20x_gpio.o
 .bss           0x0000000000000000        0x0 ./Peripheral/src/ch32v20x_gpio.o
 .text.GPIO_DeInit
                0x0000000000000000       0xa4 ./Peripheral/src/ch32v20x_gpio.o
 .text.GPIO_AFIODeInit
                0x0000000000000000       0x28 ./Peripheral/src/ch32v20x_gpio.o
 .text.GPIO_StructInit
                0x0000000000000000        0xe ./Peripheral/src/ch32v20x_gpio.o
 .text.GPIO_ReadInputData
                0x0000000000000000       0x20 ./Peripheral/src/ch32v20x_gpio.o
 .text.GPIO_ReadOutputDataBit
                0x0000000000000000       0x1e ./Peripheral/src/ch32v20x_gpio.o
 .text.GPIO_ReadOutputData
                0x0000000000000000       0x20 ./Peripheral/src/ch32v20x_gpio.o
 .text.GPIO_WriteBit
                0x0000000000000000       0x1e ./Peripheral/src/ch32v20x_gpio.o
 .text.GPIO_Write
                0x0000000000000000       0x18 ./Peripheral/src/ch32v20x_gpio.o
 .text.GPIO_PinLockConfig
                0x0000000000000000       0x24 ./Peripheral/src/ch32v20x_gpio.o
 .text.GPIO_EventOutputConfig
                0x0000000000000000       0x18 ./Peripheral/src/ch32v20x_gpio.o
 .text.GPIO_EventOutputCmd
                0x0000000000000000       0x16 ./Peripheral/src/ch32v20x_gpio.o
 .text.GPIO_EXTILineConfig
                0x0000000000000000       0x2c ./Peripheral/src/ch32v20x_gpio.o
 .text.GPIO_ETH_MediaInterfaceConfig
                0x0000000000000000       0x24 ./Peripheral/src/ch32v20x_gpio.o
 .text.GPIO_IPD_Unused
                0x0000000000000000      0x2b0 ./Peripheral/src/ch32v20x_gpio.o
 .text          0x0000000000000000        0x0 ./Peripheral/src/ch32v20x_i2c.o
 .data          0x0000000000000000        0x0 ./Peripheral/src/ch32v20x_i2c.o
 .bss           0x0000000000000000        0x0 ./Peripheral/src/ch32v20x_i2c.o
 .text.I2C_DeInit
                0x0000000000000000       0x4c ./Peripheral/src/ch32v20x_i2c.o
 .text.I2C_StructInit
                0x0000000000000000       0x18 ./Peripheral/src/ch32v20x_i2c.o
 .text.I2C_DMACmd
                0x0000000000000000       0x1e ./Peripheral/src/ch32v20x_i2c.o
 .text.I2C_DMALastTransferCmd
                0x0000000000000000       0x16 ./Peripheral/src/ch32v20x_i2c.o
 .text.I2C_OwnAddress2Config
                0x0000000000000000       0x14 ./Peripheral/src/ch32v20x_i2c.o
 .text.I2C_GeneralCallCmd
                0x0000000000000000       0x1a ./Peripheral/src/ch32v20x_i2c.o
 .text.I2C_SoftwareResetCmd
                0x0000000000000000       0x12 ./Peripheral/src/ch32v20x_i2c.o
 .text.I2C_NACKPositionConfig
                0x0000000000000000       0x22 ./Peripheral/src/ch32v20x_i2c.o
 .text.I2C_SMBusAlertConfig
                0x0000000000000000       0x1a ./Peripheral/src/ch32v20x_i2c.o
 .text.I2C_TransmitPEC
                0x0000000000000000       0x16 ./Peripheral/src/ch32v20x_i2c.o
 .text.I2C_PECPositionConfig
                0x0000000000000000       0x18 ./Peripheral/src/ch32v20x_i2c.o
 .text.I2C_CalculatePEC
                0x0000000000000000       0x1a ./Peripheral/src/ch32v20x_i2c.o
 .text.I2C_GetPEC
                0x0000000000000000        0x6 ./Peripheral/src/ch32v20x_i2c.o
 .text.I2C_ARPCmd
                0x0000000000000000       0x18 ./Peripheral/src/ch32v20x_i2c.o
 .text.I2C_StretchClockCmd
                0x0000000000000000       0x1a ./Peripheral/src/ch32v20x_i2c.o
 .text.I2C_FastModeDutyCycleConfig
                0x0000000000000000       0x1a ./Peripheral/src/ch32v20x_i2c.o
 .text.I2C_CheckEvent
                0x0000000000000000       0x16 ./Peripheral/src/ch32v20x_i2c.o
 .text.I2C_GetLastEvent
                0x0000000000000000        0xe ./Peripheral/src/ch32v20x_i2c.o
 .text.I2C_GetITStatus
                0x0000000000000000       0x20 ./Peripheral/src/ch32v20x_i2c.o
 .text.I2C_ClearITPendingBit
                0x0000000000000000        0xc ./Peripheral/src/ch32v20x_i2c.o
 .text          0x0000000000000000        0x0 ./Peripheral/src/ch32v20x_iwdg.o
 .data          0x0000000000000000        0x0 ./Peripheral/src/ch32v20x_iwdg.o
 .bss           0x0000000000000000        0x0 ./Peripheral/src/ch32v20x_iwdg.o
 .text.IWDG_WriteAccessCmd
                0x0000000000000000        0x8 ./Peripheral/src/ch32v20x_iwdg.o
 .text.IWDG_SetPrescaler
                0x0000000000000000        0x8 ./Peripheral/src/ch32v20x_iwdg.o
 .text.IWDG_SetReload
                0x0000000000000000        0x8 ./Peripheral/src/ch32v20x_iwdg.o
 .text.IWDG_ReloadCounter
                0x0000000000000000        0xe ./Peripheral/src/ch32v20x_iwdg.o
 .text.IWDG_Enable
                0x0000000000000000        0xe ./Peripheral/src/ch32v20x_iwdg.o
 .text.IWDG_GetFlagStatus
                0x0000000000000000        0xe ./Peripheral/src/ch32v20x_iwdg.o
 .debug_info    0x0000000000000000      0xabb ./Peripheral/src/ch32v20x_iwdg.o
 .debug_abbrev  0x0000000000000000      0x282 ./Peripheral/src/ch32v20x_iwdg.o
 .debug_loc     0x0000000000000000       0x68 ./Peripheral/src/ch32v20x_iwdg.o
 .debug_aranges
                0x0000000000000000       0x48 ./Peripheral/src/ch32v20x_iwdg.o
 .debug_ranges  0x0000000000000000       0x38 ./Peripheral/src/ch32v20x_iwdg.o
 .debug_line    0x0000000000000000      0x364 ./Peripheral/src/ch32v20x_iwdg.o
 .debug_str     0x0000000000000000      0x6aa ./Peripheral/src/ch32v20x_iwdg.o
 .comment       0x0000000000000000       0x34 ./Peripheral/src/ch32v20x_iwdg.o
 .debug_frame   0x0000000000000000       0x70 ./Peripheral/src/ch32v20x_iwdg.o
 .text          0x0000000000000000        0x0 ./Peripheral/src/ch32v20x_misc.o
 .data          0x0000000000000000        0x0 ./Peripheral/src/ch32v20x_misc.o
 .bss           0x0000000000000000        0x0 ./Peripheral/src/ch32v20x_misc.o
 .text          0x0000000000000000        0x0 ./Peripheral/src/ch32v20x_opa.o
 .data          0x0000000000000000        0x0 ./Peripheral/src/ch32v20x_opa.o
 .bss           0x0000000000000000        0x0 ./Peripheral/src/ch32v20x_opa.o
 .text.OPA_DeInit
                0x0000000000000000        0xa ./Peripheral/src/ch32v20x_opa.o
 .text.OPA_Init
                0x0000000000000000       0x36 ./Peripheral/src/ch32v20x_opa.o
 .text.OPA_StructInit
                0x0000000000000000       0x12 ./Peripheral/src/ch32v20x_opa.o
 .text.OPA_Cmd  0x0000000000000000       0x2c ./Peripheral/src/ch32v20x_opa.o
 .debug_info    0x0000000000000000      0xb2f ./Peripheral/src/ch32v20x_opa.o
 .debug_abbrev  0x0000000000000000      0x252 ./Peripheral/src/ch32v20x_opa.o
 .debug_loc     0x0000000000000000       0x56 ./Peripheral/src/ch32v20x_opa.o
 .debug_aranges
                0x0000000000000000       0x38 ./Peripheral/src/ch32v20x_opa.o
 .debug_ranges  0x0000000000000000       0x28 ./Peripheral/src/ch32v20x_opa.o
 .debug_line    0x0000000000000000      0x411 ./Peripheral/src/ch32v20x_opa.o
 .debug_str     0x0000000000000000      0x6c6 ./Peripheral/src/ch32v20x_opa.o
 .comment       0x0000000000000000       0x34 ./Peripheral/src/ch32v20x_opa.o
 .debug_frame   0x0000000000000000       0x50 ./Peripheral/src/ch32v20x_opa.o
 .text          0x0000000000000000        0x0 ./Peripheral/src/ch32v20x_pwr.o
 .data          0x0000000000000000        0x0 ./Peripheral/src/ch32v20x_pwr.o
 .bss           0x0000000000000000        0x0 ./Peripheral/src/ch32v20x_pwr.o
 .text.PWR_DeInit
                0x0000000000000000       0x2c ./Peripheral/src/ch32v20x_pwr.o
 .text.PWR_PVDCmd
                0x0000000000000000       0x14 ./Peripheral/src/ch32v20x_pwr.o
 .text.PWR_PVDLevelConfig
                0x0000000000000000       0x10 ./Peripheral/src/ch32v20x_pwr.o
 .text.PWR_WakeUpPinCmd
                0x0000000000000000       0x16 ./Peripheral/src/ch32v20x_pwr.o
 .text.PWR_EnterSTOPMode
                0x0000000000000000       0x7c ./Peripheral/src/ch32v20x_pwr.o
 .text.PWR_EnterSTANDBYMode
                0x0000000000000000       0x34 ./Peripheral/src/ch32v20x_pwr.o
 .text.PWR_GetFlagStatus
                0x0000000000000000        0xe ./Peripheral/src/ch32v20x_pwr.o
 .text.PWR_ClearFlag
                0x0000000000000000        0xe ./Peripheral/src/ch32v20x_pwr.o
 .text.PWR_EnterSTANDBYMode_RAM
                0x0000000000000000       0x2e ./Peripheral/src/ch32v20x_pwr.o
 .text.PWR_EnterSTANDBYMode_RAM_LV
                0x0000000000000000       0x30 ./Peripheral/src/ch32v20x_pwr.o
 .text.PWR_EnterSTANDBYMode_RAM_VBAT_EN
                0x0000000000000000       0x30 ./Peripheral/src/ch32v20x_pwr.o
 .text.PWR_EnterSTANDBYMode_RAM_LV_VBAT_EN
                0x0000000000000000       0x30 ./Peripheral/src/ch32v20x_pwr.o
 .text.PWR_EnterSTOPMode_RAM_LV
                0x0000000000000000       0x82 ./Peripheral/src/ch32v20x_pwr.o
 .text          0x0000000000000000        0x0 ./Peripheral/src/ch32v20x_rcc.o
 .data          0x0000000000000000        0x0 ./Peripheral/src/ch32v20x_rcc.o
 .bss           0x0000000000000000        0x0 ./Peripheral/src/ch32v20x_rcc.o
 .text.RCC_DeInit
                0x0000000000000000       0x42 ./Peripheral/src/ch32v20x_rcc.o
 .text.RCC_HSEConfig
                0x0000000000000000       0x3c ./Peripheral/src/ch32v20x_rcc.o
 .text.RCC_AdjustHSICalibrationValue
                0x0000000000000000       0x12 ./Peripheral/src/ch32v20x_rcc.o
 .text.RCC_HSICmd
                0x0000000000000000       0x14 ./Peripheral/src/ch32v20x_rcc.o
 .text.RCC_PLLConfig
                0x0000000000000000       0x16 ./Peripheral/src/ch32v20x_rcc.o
 .text.RCC_PLLCmd
                0x0000000000000000       0x24 ./Peripheral/src/ch32v20x_rcc.o
 .text.RCC_SYSCLKConfig
                0x0000000000000000        0xe ./Peripheral/src/ch32v20x_rcc.o
 .text.RCC_GetSYSCLKSource
                0x0000000000000000        0xa ./Peripheral/src/ch32v20x_rcc.o
 .text.RCC_HCLKConfig
                0x0000000000000000       0x10 ./Peripheral/src/ch32v20x_rcc.o
 .text.RCC_PCLK1Config
                0x0000000000000000       0x10 ./Peripheral/src/ch32v20x_rcc.o
 .text.RCC_PCLK2Config
                0x0000000000000000       0x16 ./Peripheral/src/ch32v20x_rcc.o
 .text.RCC_ITConfig
                0x0000000000000000       0x16 ./Peripheral/src/ch32v20x_rcc.o
 .text.RCC_USBCLKConfig
                0x0000000000000000       0x1a ./Peripheral/src/ch32v20x_rcc.o
 .text.RCC_LSICmd
                0x0000000000000000       0x14 ./Peripheral/src/ch32v20x_rcc.o
 .text.RCC_ClockSecuritySystemCmd
                0x0000000000000000       0x24 ./Peripheral/src/ch32v20x_rcc.o
 .text.RCC_MCOConfig
                0x0000000000000000        0x8 ./Peripheral/src/ch32v20x_rcc.o
 .text.RCC_WaitForHSEStartUp
                0x0000000000000000       0x42 ./Peripheral/src/ch32v20x_rcc.o
 .text.RCC_ClearFlag
                0x0000000000000000       0x10 ./Peripheral/src/ch32v20x_rcc.o
 .text.RCC_GetITStatus
                0x0000000000000000        0xe ./Peripheral/src/ch32v20x_rcc.o
 .text.RCC_ClearITPendingBit
                0x0000000000000000        0x8 ./Peripheral/src/ch32v20x_rcc.o
 .text.RCC_ADCCLKADJcmd
                0x0000000000000000       0x18 ./Peripheral/src/ch32v20x_rcc.o
 .text.RCC_ETHDIVConfig
                0x0000000000000000       0x1a ./Peripheral/src/ch32v20x_rcc.o
 .text          0x0000000000000000        0x0 ./Peripheral/src/ch32v20x_rtc.o
 .data          0x0000000000000000        0x0 ./Peripheral/src/ch32v20x_rtc.o
 .bss           0x0000000000000000        0x0 ./Peripheral/src/ch32v20x_rtc.o
 .text.RTC_GetCounter
                0x0000000000000000       0x36 ./Peripheral/src/ch32v20x_rtc.o
 .text.RTC_SetCounter
                0x0000000000000000       0x3c ./Peripheral/src/ch32v20x_rtc.o
 .text.RTC_SetAlarm
                0x0000000000000000       0x3c ./Peripheral/src/ch32v20x_rtc.o
 .text.RTC_GetDivider
                0x0000000000000000       0x18 ./Peripheral/src/ch32v20x_rtc.o
 .text.RTC_GetFlagStatus
                0x0000000000000000       0x12 ./Peripheral/src/ch32v20x_rtc.o
 .text          0x0000000000000000        0x0 ./Peripheral/src/ch32v20x_spi.o
 .data          0x0000000000000000        0x0 ./Peripheral/src/ch32v20x_spi.o
 .bss           0x0000000000000000        0x0 ./Peripheral/src/ch32v20x_spi.o
 .text.I2S_Init
                0x0000000000000000       0xc6 ./Peripheral/src/ch32v20x_spi.o
 .text.SPI_StructInit
                0x0000000000000000       0x22 ./Peripheral/src/ch32v20x_spi.o
 .text.I2S_StructInit
                0x0000000000000000       0x12 ./Peripheral/src/ch32v20x_spi.o
 .text.I2S_Cmd  0x0000000000000000       0x1a ./Peripheral/src/ch32v20x_spi.o
 .text.SPI_I2S_ITConfig
                0x0000000000000000       0x1e ./Peripheral/src/ch32v20x_spi.o
 .text.SPI_I2S_SendData
                0x0000000000000000        0x4 ./Peripheral/src/ch32v20x_spi.o
 .text.SPI_I2S_ReceiveData
                0x0000000000000000        0x4 ./Peripheral/src/ch32v20x_spi.o
 .text.SPI_NSSInternalSoftwareConfig
                0x0000000000000000       0x24 ./Peripheral/src/ch32v20x_spi.o
 .text.SPI_SSOutputCmd
                0x0000000000000000       0x18 ./Peripheral/src/ch32v20x_spi.o
 .text.SPI_DataSizeConfig
                0x0000000000000000       0x14 ./Peripheral/src/ch32v20x_spi.o
 .text.SPI_TransmitCRC
                0x0000000000000000        0xa ./Peripheral/src/ch32v20x_spi.o
 .text.SPI_CalculateCRC
                0x0000000000000000       0x16 ./Peripheral/src/ch32v20x_spi.o
 .text.SPI_GetCRC
                0x0000000000000000       0x12 ./Peripheral/src/ch32v20x_spi.o
 .text.SPI_GetCRCPolynomial
                0x0000000000000000        0x4 ./Peripheral/src/ch32v20x_spi.o
 .text.SPI_BiDirectionalLineConfig
                0x0000000000000000       0x1a ./Peripheral/src/ch32v20x_spi.o
 .text.SPI_I2S_GetITStatus
                0x0000000000000000       0x28 ./Peripheral/src/ch32v20x_spi.o
 .text.SPI_I2S_ClearITPendingBit
                0x0000000000000000       0x14 ./Peripheral/src/ch32v20x_spi.o
 .text          0x0000000000000000        0x0 ./Peripheral/src/ch32v20x_tim.o
 .data          0x0000000000000000        0x0 ./Peripheral/src/ch32v20x_tim.o
 .bss           0x0000000000000000        0x0 ./Peripheral/src/ch32v20x_tim.o
 .text.TIM_BDTRConfig
                0x0000000000000000       0x20 ./Peripheral/src/ch32v20x_tim.o
 .text.TIM_OCStructInit
                0x0000000000000000       0x22 ./Peripheral/src/ch32v20x_tim.o
 .text.TIM_ICStructInit
                0x0000000000000000       0x16 ./Peripheral/src/ch32v20x_tim.o
 .text.TIM_BDTRStructInit
                0x0000000000000000       0x1e ./Peripheral/src/ch32v20x_tim.o
 .text.TIM_GenerateEvent
                0x0000000000000000        0x4 ./Peripheral/src/ch32v20x_tim.o
 .text.TIM_DMAConfig
                0x0000000000000000        0x8 ./Peripheral/src/ch32v20x_tim.o
 .text.TIM_ITRxExternalClockConfig
                0x0000000000000000       0x18 ./Peripheral/src/ch32v20x_tim.o
 .text.TIM_TIxExternalClockConfig
                0x0000000000000000       0x48 ./Peripheral/src/ch32v20x_tim.o
 .text.TIM_ETRConfig
                0x0000000000000000       0x16 ./Peripheral/src/ch32v20x_tim.o
 .text.TIM_ETRClockMode1Config
                0x0000000000000000       0x2a ./Peripheral/src/ch32v20x_tim.o
 .text.TIM_ETRClockMode2Config
                0x0000000000000000       0x22 ./Peripheral/src/ch32v20x_tim.o
 .text.TIM_PrescalerConfig
                0x0000000000000000        0x6 ./Peripheral/src/ch32v20x_tim.o
 .text.TIM_CounterModeConfig
                0x0000000000000000       0x10 ./Peripheral/src/ch32v20x_tim.o
 .text.TIM_SelectInputTrigger
                0x0000000000000000       0x10 ./Peripheral/src/ch32v20x_tim.o
 .text.TIM_EncoderInterfaceConfig
                0x0000000000000000       0x3c ./Peripheral/src/ch32v20x_tim.o
 .text.TIM_ForcedOC1Config
                0x0000000000000000       0x10 ./Peripheral/src/ch32v20x_tim.o
 .text.TIM_ForcedOC2Config
                0x0000000000000000       0x14 ./Peripheral/src/ch32v20x_tim.o
 .text.TIM_ForcedOC3Config
                0x0000000000000000       0x10 ./Peripheral/src/ch32v20x_tim.o
 .text.TIM_ForcedOC4Config
                0x0000000000000000       0x14 ./Peripheral/src/ch32v20x_tim.o
 .text.TIM_SelectCOM
                0x0000000000000000       0x18 ./Peripheral/src/ch32v20x_tim.o
 .text.TIM_SelectCCDMA
                0x0000000000000000       0x18 ./Peripheral/src/ch32v20x_tim.o
 .text.TIM_CCPreloadControl
                0x0000000000000000       0x18 ./Peripheral/src/ch32v20x_tim.o
 .text.TIM_OC1FastConfig
                0x0000000000000000        0xe ./Peripheral/src/ch32v20x_tim.o
 .text.TIM_OC2FastConfig
                0x0000000000000000       0x16 ./Peripheral/src/ch32v20x_tim.o
 .text.TIM_OC3FastConfig
                0x0000000000000000        0xe ./Peripheral/src/ch32v20x_tim.o
 .text.TIM_OC4FastConfig
                0x0000000000000000       0x16 ./Peripheral/src/ch32v20x_tim.o
 .text.TIM_ClearOC1Ref
                0x0000000000000000       0x10 ./Peripheral/src/ch32v20x_tim.o
 .text.TIM_ClearOC2Ref
                0x0000000000000000       0x12 ./Peripheral/src/ch32v20x_tim.o
 .text.TIM_ClearOC3Ref
                0x0000000000000000       0x10 ./Peripheral/src/ch32v20x_tim.o
 .text.TIM_ClearOC4Ref
                0x0000000000000000       0x12 ./Peripheral/src/ch32v20x_tim.o
 .text.TIM_OC1PolarityConfig
                0x0000000000000000        0xe ./Peripheral/src/ch32v20x_tim.o
 .text.TIM_OC1NPolarityConfig
                0x0000000000000000        0xe ./Peripheral/src/ch32v20x_tim.o
 .text.TIM_OC2PolarityConfig
                0x0000000000000000       0x16 ./Peripheral/src/ch32v20x_tim.o
 .text.TIM_OC2NPolarityConfig
                0x0000000000000000       0x16 ./Peripheral/src/ch32v20x_tim.o
 .text.TIM_OC3PolarityConfig
                0x0000000000000000       0x16 ./Peripheral/src/ch32v20x_tim.o
 .text.TIM_OC3NPolarityConfig
                0x0000000000000000       0x16 ./Peripheral/src/ch32v20x_tim.o
 .text.TIM_OC4PolarityConfig
                0x0000000000000000       0x14 ./Peripheral/src/ch32v20x_tim.o
 .text.TIM_CCxCmd
                0x0000000000000000       0x20 ./Peripheral/src/ch32v20x_tim.o
 .text.TIM_CCxNCmd
                0x0000000000000000       0x20 ./Peripheral/src/ch32v20x_tim.o
 .text.TIM_SelectOCxM
                0x0000000000000000       0x4c ./Peripheral/src/ch32v20x_tim.o
 .text.TIM_UpdateDisableConfig
                0x0000000000000000       0x18 ./Peripheral/src/ch32v20x_tim.o
 .text.TIM_UpdateRequestConfig
                0x0000000000000000       0x18 ./Peripheral/src/ch32v20x_tim.o
 .text.TIM_SelectHallSensor
                0x0000000000000000       0x1a ./Peripheral/src/ch32v20x_tim.o
 .text.TIM_SelectOnePulseMode
                0x0000000000000000       0x16 ./Peripheral/src/ch32v20x_tim.o
 .text.TIM_SelectOutputTrigger
                0x0000000000000000       0x18 ./Peripheral/src/ch32v20x_tim.o
 .text.TIM_SelectSlaveMode
                0x0000000000000000       0x16 ./Peripheral/src/ch32v20x_tim.o
 .text.TIM_SelectMasterSlaveMode
                0x0000000000000000       0x18 ./Peripheral/src/ch32v20x_tim.o
 .text.TIM_SetCounter
                0x0000000000000000        0x4 ./Peripheral/src/ch32v20x_tim.o
 .text.TIM_SetAutoreload
                0x0000000000000000        0x4 ./Peripheral/src/ch32v20x_tim.o
 .text.TIM_SetCompare1
                0x0000000000000000        0x4 ./Peripheral/src/ch32v20x_tim.o
 .text.TIM_SetCompare2
                0x0000000000000000        0x4 ./Peripheral/src/ch32v20x_tim.o
 .text.TIM_SetCompare3
                0x0000000000000000        0x4 ./Peripheral/src/ch32v20x_tim.o
 .text.TIM_SetCompare4
                0x0000000000000000        0x6 ./Peripheral/src/ch32v20x_tim.o
 .text.TIM_PWMIConfig
                0x0000000000000000       0x92 ./Peripheral/src/ch32v20x_tim.o
 .text.TIM_SetClockDivision
                0x0000000000000000       0x18 ./Peripheral/src/ch32v20x_tim.o
 .text.TIM_GetCapture1
                0x0000000000000000        0x4 ./Peripheral/src/ch32v20x_tim.o
 .text.TIM_GetCapture2
                0x0000000000000000        0x4 ./Peripheral/src/ch32v20x_tim.o
 .text.TIM_GetCounter
                0x0000000000000000        0x4 ./Peripheral/src/ch32v20x_tim.o
 .text.TIM_GetPrescaler
                0x0000000000000000        0x4 ./Peripheral/src/ch32v20x_tim.o
 .text          0x0000000000000000        0x0 ./Peripheral/src/ch32v20x_usart.o
 .data          0x0000000000000000        0x0 ./Peripheral/src/ch32v20x_usart.o
 .bss           0x0000000000000000        0x0 ./Peripheral/src/ch32v20x_usart.o
 .text.USART_DeInit
                0x0000000000000000       0x9e ./Peripheral/src/ch32v20x_usart.o
 .text.USART_StructInit
                0x0000000000000000       0x18 ./Peripheral/src/ch32v20x_usart.o
 .text.USART_ClockInit
                0x0000000000000000       0x1e ./Peripheral/src/ch32v20x_usart.o
 .text.USART_ClockStructInit
                0x0000000000000000       0x12 ./Peripheral/src/ch32v20x_usart.o
 .text.USART_ITConfig
                0x0000000000000000       0x36 ./Peripheral/src/ch32v20x_usart.o
 .text.USART_DMACmd
                0x0000000000000000       0x12 ./Peripheral/src/ch32v20x_usart.o
 .text.USART_SetAddress
                0x0000000000000000       0x16 ./Peripheral/src/ch32v20x_usart.o
 .text.USART_WakeUpConfig
                0x0000000000000000       0x14 ./Peripheral/src/ch32v20x_usart.o
 .text.USART_ReceiverWakeUpCmd
                0x0000000000000000       0x18 ./Peripheral/src/ch32v20x_usart.o
 .text.USART_LINBreakDetectLengthConfig
                0x0000000000000000       0x18 ./Peripheral/src/ch32v20x_usart.o
 .text.USART_LINCmd
                0x0000000000000000       0x16 ./Peripheral/src/ch32v20x_usart.o
 .text.USART_ReceiveData
                0x0000000000000000        0x8 ./Peripheral/src/ch32v20x_usart.o
 .text.USART_SendBreak
                0x0000000000000000        0xa ./Peripheral/src/ch32v20x_usart.o
 .text.USART_SetGuardTime
                0x0000000000000000       0x12 ./Peripheral/src/ch32v20x_usart.o
 .text.USART_SetPrescaler
                0x0000000000000000       0x18 ./Peripheral/src/ch32v20x_usart.o
 .text.USART_SmartCardCmd
                0x0000000000000000       0x1a ./Peripheral/src/ch32v20x_usart.o
 .text.USART_SmartCardNACKCmd
                0x0000000000000000       0x18 ./Peripheral/src/ch32v20x_usart.o
 .text.USART_HalfDuplexCmd
                0x0000000000000000       0x18 ./Peripheral/src/ch32v20x_usart.o
 .text.USART_OverSampling8Cmd
                0x0000000000000000       0x12 ./Peripheral/src/ch32v20x_usart.o
 .text.USART_OneBitMethodCmd
                0x0000000000000000       0x1e ./Peripheral/src/ch32v20x_usart.o
 .text.USART_IrDAConfig
                0x0000000000000000       0x16 ./Peripheral/src/ch32v20x_usart.o
 .text.USART_IrDACmd
                0x0000000000000000       0x18 ./Peripheral/src/ch32v20x_usart.o
 .text.USART_ClearFlag
                0x0000000000000000        0xc ./Peripheral/src/ch32v20x_usart.o
 .text.USART_GetITStatus
                0x0000000000000000       0x3c ./Peripheral/src/ch32v20x_usart.o
 .text.USART_ClearITPendingBit
                0x0000000000000000       0x14 ./Peripheral/src/ch32v20x_usart.o
 .text          0x0000000000000000        0x0 ./Peripheral/src/ch32v20x_wwdg.o
 .data          0x0000000000000000        0x0 ./Peripheral/src/ch32v20x_wwdg.o
 .bss           0x0000000000000000        0x0 ./Peripheral/src/ch32v20x_wwdg.o
 .text.WWDG_DeInit
                0x0000000000000000       0x2e ./Peripheral/src/ch32v20x_wwdg.o
 .text.WWDG_SetPrescaler
                0x0000000000000000       0x14 ./Peripheral/src/ch32v20x_wwdg.o
 .text.WWDG_SetWindowValue
                0x0000000000000000       0x26 ./Peripheral/src/ch32v20x_wwdg.o
 .text.WWDG_EnableIT
                0x0000000000000000       0x12 ./Peripheral/src/ch32v20x_wwdg.o
 .text.WWDG_SetCounter
                0x0000000000000000        0xe ./Peripheral/src/ch32v20x_wwdg.o
 .text.WWDG_Enable
                0x0000000000000000        0xe ./Peripheral/src/ch32v20x_wwdg.o
 .text.WWDG_GetFlagStatus
                0x0000000000000000        0xa ./Peripheral/src/ch32v20x_wwdg.o
 .text.WWDG_ClearFlag
                0x0000000000000000        0xa ./Peripheral/src/ch32v20x_wwdg.o
 .debug_info    0x0000000000000000      0xb2e ./Peripheral/src/ch32v20x_wwdg.o
 .debug_abbrev  0x0000000000000000      0x29d ./Peripheral/src/ch32v20x_wwdg.o
 .debug_loc     0x0000000000000000       0xae ./Peripheral/src/ch32v20x_wwdg.o
 .debug_aranges
                0x0000000000000000       0x58 ./Peripheral/src/ch32v20x_wwdg.o
 .debug_ranges  0x0000000000000000       0x48 ./Peripheral/src/ch32v20x_wwdg.o
 .debug_line    0x0000000000000000      0x44c ./Peripheral/src/ch32v20x_wwdg.o
 .debug_str     0x0000000000000000      0x6bd ./Peripheral/src/ch32v20x_wwdg.o
 .comment       0x0000000000000000       0x34 ./Peripheral/src/ch32v20x_wwdg.o
 .debug_frame   0x0000000000000000       0xa4 ./Peripheral/src/ch32v20x_wwdg.o
 .text          0x0000000000000000        0x0 ./HWLIB/hw_lib_adc.o
 .data          0x0000000000000000        0x0 ./HWLIB/hw_lib_adc.o
 .bss           0x0000000000000000        0x0 ./HWLIB/hw_lib_adc.o
 .text.fAinGetState
                0x0000000000000000       0x50 ./HWLIB/hw_lib_adc.o
 .text.fBatteryGet
                0x0000000000000000       0x50 ./HWLIB/hw_lib_adc.o
 .text.fTemperatureGet
                0x0000000000000000       0x60 ./HWLIB/hw_lib_adc.o
 .text.fGetDataFromRaw
                0x0000000000000000       0x6c ./HWLIB/hw_lib_adc.o
 .text.usGetCurrentToFloat
                0x0000000000000000       0x34 ./HWLIB/hw_lib_adc.o
 .text.getADC2Buffer
                0x0000000000000000        0xa ./HWLIB/hw_lib_adc.o
 .text.getADC3Buffer
                0x0000000000000000        0xa ./HWLIB/hw_lib_adc.o
 .text.vInitADCDATA
                0x0000000000000000        0x2 ./HWLIB/hw_lib_adc.o
 .bss.ADC2_IN_Buffer
                0x0000000000000000        0x0 ./HWLIB/hw_lib_adc.o
 .bss.ADC3_IN_Buffer
                0x0000000000000000        0x0 ./HWLIB/hw_lib_adc.o
 .rodata.fAinGetState.cst4
                0x0000000000000000        0x4 ./HWLIB/hw_lib_adc.o
 .rodata.fBatteryGet.cst4
                0x0000000000000000        0x8 ./HWLIB/hw_lib_adc.o
 .rodata.fGetDataFromRaw.cst4
                0x0000000000000000        0x4 ./HWLIB/hw_lib_adc.o
 .rodata.fTemperatureGet.cst4
                0x0000000000000000        0xc ./HWLIB/hw_lib_adc.o
 .text          0x0000000000000000        0x0 ./HWLIB/hw_lib_din.o
 .data          0x0000000000000000        0x0 ./HWLIB/hw_lib_din.o
 .bss           0x0000000000000000        0x0 ./HWLIB/hw_lib_din.o
 .text.InitDinStcurt
                0x0000000000000000       0x14 ./HWLIB/hw_lib_din.o
 .text.xGetDinType
                0x0000000000000000       0x14 ./HWLIB/hw_lib_din.o
 .text.vRecinfigDin
                0x0000000000000000       0x34 ./HWLIB/hw_lib_din.o
 .text.InitFilters
                0x0000000000000000       0x5c ./HWLIB/hw_lib_din.o
 .text.vSetRPMConfig
                0x0000000000000000       0x6a ./HWLIB/hw_lib_din.o
 .text.eGrtDUT  0x0000000000000000       0x10 ./HWLIB/hw_lib_din.o
 .text.uGetRPMBuffer
                0x0000000000000000       0x16 ./HWLIB/hw_lib_din.o
 .text.vAddRPMData
                0x0000000000000000       0x5c ./HWLIB/hw_lib_din.o
 .text.vDinInitStateProcess
                0x0000000000000000       0x4a ./HWLIB/hw_lib_din.o
 .text.ucDinGet
                0x0000000000000000       0x14 ./HWLIB/hw_lib_din.o
 .text.uiGetDinMask
                0x0000000000000000       0x20 ./HWLIB/hw_lib_din.o
 .bss.RPM_AVER_FILTER_STRUC
                0x0000000000000000       0x20 ./HWLIB/hw_lib_din.o
 .rodata.InitFilters.cst4
                0x0000000000000000        0x4 ./HWLIB/hw_lib_din.o
 .sbss.tempdata
                0x0000000000000000        0x2 ./HWLIB/hw_lib_din.o
 .text          0x0000000000000000        0x0 ./HWLIB/hw_lib_eeprom.o
 .data          0x0000000000000000        0x0 ./HWLIB/hw_lib_eeprom.o
 .bss           0x0000000000000000        0x0 ./HWLIB/hw_lib_eeprom.o
 .text          0x0000000000000000        0x0 ./HWLIB/hw_lib_keyboard.o
 .data          0x0000000000000000        0x0 ./HWLIB/hw_lib_keyboard.o
 .bss           0x0000000000000000        0x0 ./HWLIB/hw_lib_keyboard.o
 .text.vPostState
                0x0000000000000000       0x3c ./HWLIB/hw_lib_keyboard.o
 .text.xKeyboardQueue
                0x0000000000000000        0xa ./HWLIB/hw_lib_keyboard.o
 .text.HW_LIB_GetKeyboardPeriod
                0x0000000000000000        0xa ./HWLIB/hw_lib_keyboard.o
 .text.eKeyboardInit
                0x0000000000000000       0x64 ./HWLIB/hw_lib_keyboard.o
 .text.HW_LIB_KeyboradFSM
                0x0000000000000000       0x92 ./HWLIB/hw_lib_keyboard.o
 .bss.Keyboard  0x0000000000000000       0x18 ./HWLIB/hw_lib_keyboard.o
 .sbss.pKeyboardQueue
                0x0000000000000000        0x4 ./HWLIB/hw_lib_keyboard.o
 .debug_info    0x0000000000000000      0xd40 ./HWLIB/hw_lib_keyboard.o
 .debug_abbrev  0x0000000000000000      0x30b ./HWLIB/hw_lib_keyboard.o
 .debug_loc     0x0000000000000000       0xaa ./HWLIB/hw_lib_keyboard.o
 .debug_aranges
                0x0000000000000000       0x40 ./HWLIB/hw_lib_keyboard.o
 .debug_ranges  0x0000000000000000       0x48 ./HWLIB/hw_lib_keyboard.o
 .debug_line    0x0000000000000000      0x6fd ./HWLIB/hw_lib_keyboard.o
 .debug_str     0x0000000000000000      0x8cb ./HWLIB/hw_lib_keyboard.o
 .comment       0x0000000000000000       0x34 ./HWLIB/hw_lib_keyboard.o
 .debug_frame   0x0000000000000000       0xa0 ./HWLIB/hw_lib_keyboard.o
 .text          0x0000000000000000        0x0 ./HAL/hal_adc.o
 .data          0x0000000000000000        0x0 ./HAL/hal_adc.o
 .bss           0x0000000000000000        0x0 ./HAL/hal_adc.o
 .text.HAL_ADC_TempEnable
                0x0000000000000000        0x2 ./HAL/hal_adc.o
 .text.HAL_ADC_VrefEnable
                0x0000000000000000        0x2 ./HAL/hal_adc.o
 .text.HAL_ADC_Enable
                0x0000000000000000        0x2 ./HAL/hal_adc.o
 .text.HAL_ADCDMA_Disable
                0x0000000000000000        0x2 ./HAL/hal_adc.o
 .text.HAL_ADC_AWDT_IT_Init
                0x0000000000000000       0xa2 ./HAL/hal_adc.o
 .text          0x0000000000000000        0x0 ./HAL/hal_can.o
 .data          0x0000000000000000        0x0 ./HAL/hal_can.o
 .bss           0x0000000000000000        0x0 ./HAL/hal_can.o
 .text          0x0000000000000000        0x0 ./HAL/hal_dma.o
 .data          0x0000000000000000        0x0 ./HAL/hal_dma.o
 .bss           0x0000000000000000        0x0 ./HAL/hal_dma.o
 .text          0x0000000000000000        0x0 ./HAL/hal_gpio.o
 .data          0x0000000000000000        0x0 ./HAL/hal_gpio.o
 .bss           0x0000000000000000        0x0 ./HAL/hal_gpio.o
 .text.HAL_InitGpioInPUP
                0x0000000000000000       0x3a ./HAL/hal_gpio.o
 .text.xHAL_GetOutBit
                0x0000000000000000       0x18 ./HAL/hal_gpio.o
 .text          0x0000000000000000        0x0 ./HAL/hal_i2c.o
 .data          0x0000000000000000        0x0 ./HAL/hal_i2c.o
 .bss           0x0000000000000000        0x0 ./HAL/hal_i2c.o
 .text          0x0000000000000000        0x0 ./HAL/hal_rtc.o
 .data          0x0000000000000000        0x0 ./HAL/hal_rtc.o
 .bss           0x0000000000000000        0x0 ./HAL/hal_rtc.o
 .text.vRTCInit
                0x0000000000000000        0x2 ./HAL/hal_rtc.o
 .text          0x0000000000000000        0x0 ./HAL/hal_spi.o
 .data          0x0000000000000000        0x0 ./HAL/hal_spi.o
 .bss           0x0000000000000000        0x0 ./HAL/hal_spi.o
 .text          0x0000000000000000        0x0 ./HAL/hal_timers.o
 .data          0x0000000000000000        0x0 ./HAL/hal_timers.o
 .bss           0x0000000000000000        0x0 ./HAL/hal_timers.o
 .text.vHAL_SetTimerFreq
                0x0000000000000000        0x2 ./HAL/hal_timers.o
 .text.HAL_TiemrDisable
                0x0000000000000000       0x2a ./HAL/hal_timers.o
 .text.HAL_GetTimerCounterRegAdres
                0x0000000000000000       0x6e ./HAL/hal_timers.o
 .text.vHW_L_LIB_FreeRunInit
                0x0000000000000000       0x24 ./HAL/hal_timers.o
 .text.vHAL_EnableTimerIRQ
                0x0000000000000000        0x2 ./HAL/hal_timers.o
 .text.getTimerIRQ
                0x0000000000000000        0x2 ./HAL/hal_timers.o
 .text.HAL_InitCaptureIRQTimer
                0x0000000000000000        0x2 ./HAL/hal_timers.o
 .text.vHAL_CaptureTimerInteruptCallback
                0x0000000000000000        0x4 ./HAL/hal_timers.o
 .text.uGetFreeRuningTimer
                0x0000000000000000        0x4 ./HAL/hal_timers.o
 .sbss.bufdata  0x0000000000000000        0x2 ./HAL/hal_timers.o
 .sbss.over     0x0000000000000000        0x1 ./HAL/hal_timers.o
 .text          0x0000000000000000        0x0 ./HAL/hal_wdt.o
 .data          0x0000000000000000        0x0 ./HAL/hal_wdt.o
 .bss           0x0000000000000000        0x0 ./HAL/hal_wdt.o
 .text.HAL_WDTInit
                0x0000000000000000        0x2 ./HAL/hal_wdt.o
 .text.HAL_WDT_Init1s
                0x0000000000000000        0x2 ./HAL/hal_wdt.o
 .text.HAL_WDT_InitInit
                0x0000000000000000        0x2 ./HAL/hal_wdt.o
 .text          0x0000000000000000        0x0 ./FreeRTOS/portable/MemMang/heap_4.o
 .data          0x0000000000000000        0x0 ./FreeRTOS/portable/MemMang/heap_4.o
 .bss           0x0000000000000000        0x0 ./FreeRTOS/portable/MemMang/heap_4.o
 .text.xPortGetFreeHeapSize
                0x0000000000000000        0xa ./FreeRTOS/portable/MemMang/heap_4.o
 .text.xPortGetMinimumEverFreeHeapSize
                0x0000000000000000        0xa ./FreeRTOS/portable/MemMang/heap_4.o
 .text.vPortInitialiseBlocks
                0x0000000000000000        0x2 ./FreeRTOS/portable/MemMang/heap_4.o
 .text.vPortGetHeapStats
                0x0000000000000000       0x9a ./FreeRTOS/portable/MemMang/heap_4.o
 .text          0x0000000000000000        0x0 ./FreeRTOS/portable/GCC/RISC-V/port.o
 .data          0x0000000000000000        0x0 ./FreeRTOS/portable/GCC/RISC-V/port.o
 .bss           0x0000000000000000        0x0 ./FreeRTOS/portable/GCC/RISC-V/port.o
 .text.vPortEndScheduler
                0x0000000000000000        0x2 ./FreeRTOS/portable/GCC/RISC-V/port.o
 .data          0x0000000000000000        0x0 ./FreeRTOS/portable/GCC/RISC-V/portASM.o
 .bss           0x0000000000000000        0x0 ./FreeRTOS/portable/GCC/RISC-V/portASM.o
 .text          0x0000000000000000        0x0 ./FreeRTOS/croutine.o
 .data          0x0000000000000000        0x0 ./FreeRTOS/croutine.o
 .bss           0x0000000000000000        0x0 ./FreeRTOS/croutine.o
 .debug_info    0x0000000000000000      0x93d ./FreeRTOS/croutine.o
 .debug_abbrev  0x0000000000000000      0x1b1 ./FreeRTOS/croutine.o
 .debug_aranges
                0x0000000000000000       0x18 ./FreeRTOS/croutine.o
 .debug_line    0x0000000000000000      0x1b9 ./FreeRTOS/croutine.o
 .debug_str     0x0000000000000000      0x5a4 ./FreeRTOS/croutine.o
 .comment       0x0000000000000000       0x34 ./FreeRTOS/croutine.o
 .text          0x0000000000000000        0x0 ./FreeRTOS/event_groups.o
 .data          0x0000000000000000        0x0 ./FreeRTOS/event_groups.o
 .bss           0x0000000000000000        0x0 ./FreeRTOS/event_groups.o
 .text.xEventGroupCreateStatic
                0x0000000000000000       0x86 ./FreeRTOS/event_groups.o
 .text.xEventGroupCreate
                0x0000000000000000       0x32 ./FreeRTOS/event_groups.o
 .text.xEventGroupWaitBits
                0x0000000000000000      0x18e ./FreeRTOS/event_groups.o
 .text.xEventGroupClearBits
                0x0000000000000000       0x92 ./FreeRTOS/event_groups.o
 .text.xEventGroupGetBitsFromISR
                0x0000000000000000       0x26 ./FreeRTOS/event_groups.o
 .text.xEventGroupSetBits
                0x0000000000000000       0xe4 ./FreeRTOS/event_groups.o
 .text.xEventGroupSync
                0x0000000000000000      0x154 ./FreeRTOS/event_groups.o
 .text.vEventGroupDelete
                0x0000000000000000       0x9e ./FreeRTOS/event_groups.o
 .text.vEventGroupSetBitsCallback
                0x0000000000000000       0x18 ./FreeRTOS/event_groups.o
 .text.vEventGroupClearBitsCallback
                0x0000000000000000       0x18 ./FreeRTOS/event_groups.o
 .rodata.xEventGroupCreateStatic.str1.4
                0x0000000000000000       0x3d ./FreeRTOS/event_groups.o
 .debug_info    0x0000000000000000     0x1a92 ./FreeRTOS/event_groups.o
 .debug_abbrev  0x0000000000000000      0x410 ./FreeRTOS/event_groups.o
 .debug_loc     0x0000000000000000      0xc17 ./FreeRTOS/event_groups.o
 .debug_aranges
                0x0000000000000000       0x68 ./FreeRTOS/event_groups.o
 .debug_ranges  0x0000000000000000       0xa8 ./FreeRTOS/event_groups.o
 .debug_line    0x0000000000000000     0x113f ./FreeRTOS/event_groups.o
 .debug_str     0x0000000000000000      0xee0 ./FreeRTOS/event_groups.o
 .comment       0x0000000000000000       0x34 ./FreeRTOS/event_groups.o
 .debug_frame   0x0000000000000000      0x180 ./FreeRTOS/event_groups.o
 .text          0x0000000000000000        0x0 ./FreeRTOS/list.o
 .data          0x0000000000000000        0x0 ./FreeRTOS/list.o
 .bss           0x0000000000000000        0x0 ./FreeRTOS/list.o
 .text          0x0000000000000000        0x0 ./FreeRTOS/queue.o
 .data          0x0000000000000000        0x0 ./FreeRTOS/queue.o
 .bss           0x0000000000000000        0x0 ./FreeRTOS/queue.o
 .text.xQueueGetMutexHolder
                0x0000000000000000       0x5c ./FreeRTOS/queue.o
 .text.xQueueGetMutexHolderFromISR
                0x0000000000000000       0x3e ./FreeRTOS/queue.o
 .text.xQueueCreateMutexStatic
                0x0000000000000000       0x42 ./FreeRTOS/queue.o
 .text.xQueueGenericSendFromISR
                0x0000000000000000      0x150 ./FreeRTOS/queue.o
 .text.xQueueGiveFromISR
                0x0000000000000000      0x128 ./FreeRTOS/queue.o
 .text.xQueuePeek
                0x0000000000000000      0x1cc ./FreeRTOS/queue.o
 .text.xQueueReceiveFromISR
                0x0000000000000000      0x114 ./FreeRTOS/queue.o
 .text.xQueuePeekFromISR
                0x0000000000000000       0xc8 ./FreeRTOS/queue.o
 .text.uxQueueMessagesWaiting
                0x0000000000000000       0x58 ./FreeRTOS/queue.o
 .text.uxQueueSpacesAvailable
                0x0000000000000000       0x5a ./FreeRTOS/queue.o
 .text.uxQueueMessagesWaitingFromISR
                0x0000000000000000       0x38 ./FreeRTOS/queue.o
 .text.xQueueIsQueueEmptyFromISR
                0x0000000000000000       0x3c ./FreeRTOS/queue.o
 .text.xQueueIsQueueFullFromISR
                0x0000000000000000       0x40 ./FreeRTOS/queue.o
 .text.pcQueueGetName
                0x0000000000000000       0x5e ./FreeRTOS/queue.o
 .text.vQueueUnregisterQueue
                0x0000000000000000       0x62 ./FreeRTOS/queue.o
 .text.vQueueDelete
                0x0000000000000000       0x56 ./FreeRTOS/queue.o
 .text          0x0000000000000000        0x0 ./FreeRTOS/stream_buffer.o
 .data          0x0000000000000000        0x0 ./FreeRTOS/stream_buffer.o
 .bss           0x0000000000000000        0x0 ./FreeRTOS/stream_buffer.o
 .text.prvBytesInBuffer
                0x0000000000000000       0x14 ./FreeRTOS/stream_buffer.o
 .text.prvInitialiseNewStreamBuffer
                0x0000000000000000       0x74 ./FreeRTOS/stream_buffer.o
 .text.prvWriteBytesToBuffer.part.1
                0x0000000000000000       0xbc ./FreeRTOS/stream_buffer.o
 .text.prvWriteMessageToBuffer
                0x0000000000000000       0x58 ./FreeRTOS/stream_buffer.o
 .text.prvReadBytesFromBuffer.part.2
                0x0000000000000000       0xb6 ./FreeRTOS/stream_buffer.o
 .text.prvReadMessageFromBuffer
                0x0000000000000000       0x58 ./FreeRTOS/stream_buffer.o
 .text.xStreamBufferGenericCreate
                0x0000000000000000       0xde ./FreeRTOS/stream_buffer.o
 .text.xStreamBufferGenericCreateStatic
                0x0000000000000000      0x11e ./FreeRTOS/stream_buffer.o
 .text.vStreamBufferDelete
                0x0000000000000000       0x58 ./FreeRTOS/stream_buffer.o
 .text.xStreamBufferReset
                0x0000000000000000       0x70 ./FreeRTOS/stream_buffer.o
 .text.xStreamBufferSetTriggerLevel
                0x0000000000000000       0x46 ./FreeRTOS/stream_buffer.o
 .text.xStreamBufferSpacesAvailable
                0x0000000000000000       0x50 ./FreeRTOS/stream_buffer.o
 .text.xStreamBufferBytesAvailable
                0x0000000000000000       0x42 ./FreeRTOS/stream_buffer.o
 .text.xStreamBufferSend
                0x0000000000000000      0x1bc ./FreeRTOS/stream_buffer.o
 .text.xStreamBufferSendFromISR
                0x0000000000000000       0xe0 ./FreeRTOS/stream_buffer.o
 .text.xStreamBufferReceive
                0x0000000000000000      0x144 ./FreeRTOS/stream_buffer.o
 .text.xStreamBufferNextMessageLengthBytes
                0x0000000000000000       0x94 ./FreeRTOS/stream_buffer.o
 .text.xStreamBufferReceiveFromISR
                0x0000000000000000       0xcc ./FreeRTOS/stream_buffer.o
 .text.xStreamBufferIsEmpty
                0x0000000000000000       0x3e ./FreeRTOS/stream_buffer.o
 .text.xStreamBufferIsFull
                0x0000000000000000       0x50 ./FreeRTOS/stream_buffer.o
 .text.xStreamBufferSendCompletedFromISR
                0x0000000000000000       0x78 ./FreeRTOS/stream_buffer.o
 .text.xStreamBufferReceiveCompletedFromISR
                0x0000000000000000       0x78 ./FreeRTOS/stream_buffer.o
 .rodata.prvInitialiseNewStreamBuffer.str1.4
                0x0000000000000000       0x3d ./FreeRTOS/stream_buffer.o
 .debug_info    0x0000000000000000     0x23db ./FreeRTOS/stream_buffer.o
 .debug_abbrev  0x0000000000000000      0x411 ./FreeRTOS/stream_buffer.o
 .debug_loc     0x0000000000000000     0x1b76 ./FreeRTOS/stream_buffer.o
 .debug_aranges
                0x0000000000000000       0xc8 ./FreeRTOS/stream_buffer.o
 .debug_ranges  0x0000000000000000       0xf0 ./FreeRTOS/stream_buffer.o
 .debug_line    0x0000000000000000     0x2026 ./FreeRTOS/stream_buffer.o
 .debug_str     0x0000000000000000      0xd0f ./FreeRTOS/stream_buffer.o
 .comment       0x0000000000000000       0x34 ./FreeRTOS/stream_buffer.o
 .debug_frame   0x0000000000000000      0x350 ./FreeRTOS/stream_buffer.o
 .text          0x0000000000000000        0x0 ./FreeRTOS/tasks.o
 .data          0x0000000000000000        0x0 ./FreeRTOS/tasks.o
 .bss           0x0000000000000000        0x0 ./FreeRTOS/tasks.o
 .text.prvSearchForNameWithinSingleList
                0x0000000000000000       0x5a ./FreeRTOS/tasks.o
 .text.xTaskCreate
                0x0000000000000000       0x76 ./FreeRTOS/tasks.o
 .text.uxTaskPriorityGet
                0x0000000000000000       0x38 ./FreeRTOS/tasks.o
 .text.uxTaskPriorityGetFromISR
                0x0000000000000000       0x30 ./FreeRTOS/tasks.o
 .text.vTaskPrioritySet
                0x0000000000000000      0x110 ./FreeRTOS/tasks.o
 .text.xTaskResumeFromISR
                0x0000000000000000       0xe6 ./FreeRTOS/tasks.o
 .text.vTaskEndScheduler
                0x0000000000000000       0x2a ./FreeRTOS/tasks.o
 .text.xTaskGetTickCountFromISR
                0x0000000000000000        0xa ./FreeRTOS/tasks.o
 .text.uxTaskGetNumberOfTasks
                0x0000000000000000        0xa ./FreeRTOS/tasks.o
 .text.pcTaskGetName
                0x0000000000000000       0x44 ./FreeRTOS/tasks.o
 .text.xTaskDelayUntil
                0x0000000000000000       0xf2 ./FreeRTOS/tasks.o
 .text.xTaskGetHandle
                0x0000000000000000       0xc2 ./FreeRTOS/tasks.o
 .text.xTaskCatchUpTicks
                0x0000000000000000       0x6a ./FreeRTOS/tasks.o
 .text.vTaskPlaceOnUnorderedEventList
                0x0000000000000000       0xb4 ./FreeRTOS/tasks.o
 .text.vTaskRemoveFromUnorderedEventList
                0x0000000000000000      0x10a ./FreeRTOS/tasks.o
 .text.vTaskSetTimeOutState
                0x0000000000000000       0x68 ./FreeRTOS/tasks.o
 .text.uxTaskResetEventItemValue
                0x0000000000000000       0x1a ./FreeRTOS/tasks.o
 .text.vTaskGenericNotifyGiveFromISR
                0x0000000000000000      0x182 ./FreeRTOS/tasks.o
 .text.xTaskGenericNotifyStateClear
                0x0000000000000000       0x7e ./FreeRTOS/tasks.o
 .text          0x0000000000000000        0x0 ./FreeRTOS/timers.o
 .data          0x0000000000000000        0x0 ./FreeRTOS/timers.o
 .bss           0x0000000000000000        0x0 ./FreeRTOS/timers.o
 .text.xTimerCreate
                0x0000000000000000       0x8c ./FreeRTOS/timers.o
 .text.xTimerCreateStatic
                0x0000000000000000       0xe6 ./FreeRTOS/timers.o
 .text.xTimerGenericCommand
                0x0000000000000000       0x92 ./FreeRTOS/timers.o
 .text.xTimerGetTimerDaemonTaskHandle
                0x0000000000000000       0x3c ./FreeRTOS/timers.o
 .text.xTimerGetPeriod
                0x0000000000000000       0x36 ./FreeRTOS/timers.o
 .text.vTimerSetReloadMode
                0x0000000000000000       0x68 ./FreeRTOS/timers.o
 .text.uxTimerGetReloadMode
                0x0000000000000000       0x5e ./FreeRTOS/timers.o
 .text.xTimerGetExpiryTime
                0x0000000000000000       0x36 ./FreeRTOS/timers.o
 .text.pcTimerGetName
                0x0000000000000000       0x36 ./FreeRTOS/timers.o
 .text.xTimerIsTimerActive
                0x0000000000000000       0x5c ./FreeRTOS/timers.o
 .text.pvTimerGetTimerID
                0x0000000000000000       0x58 ./FreeRTOS/timers.o
 .text.vTimerSetTimerID
                0x0000000000000000       0x58 ./FreeRTOS/timers.o
 .text.xTimerPendFunctionCallFromISR
                0x0000000000000000       0x36 ./FreeRTOS/timers.o
 .text.xTimerPendFunctionCall
                0x0000000000000000       0x62 ./FreeRTOS/timers.o
 .text          0x0000000000000000        0x0 ./Drivers/filters.o
 .data          0x0000000000000000        0x0 ./Drivers/filters.o
 .bss           0x0000000000000000        0x0 ./Drivers/filters.o
 .text.RunABFilter
                0x0000000000000000       0x1a ./Drivers/filters.o
 .text.RunAvrageFilter
                0x0000000000000000       0x4a ./Drivers/filters.o
 .text          0x0000000000000000        0x0 ./Debug/debug.o
 .data          0x0000000000000000        0x0 ./Debug/debug.o
 .bss           0x0000000000000000        0x0 ./Debug/debug.o
 .text.Delay_Us
                0x0000000000000000       0x3a ./Debug/debug.o
 .text          0x0000000000000000        0x0 ./Core/core_riscv.o
 .data          0x0000000000000000        0x0 ./Core/core_riscv.o
 .bss           0x0000000000000000        0x0 ./Core/core_riscv.o
 .text.__get_MSTATUS
                0x0000000000000000        0x6 ./Core/core_riscv.o
 .text.__set_MSTATUS
                0x0000000000000000        0x6 ./Core/core_riscv.o
 .text.__get_MISA
                0x0000000000000000        0x6 ./Core/core_riscv.o
 .text.__set_MISA
                0x0000000000000000        0x6 ./Core/core_riscv.o
 .text.__get_MTVEC
                0x0000000000000000        0x6 ./Core/core_riscv.o
 .text.__set_MTVEC
                0x0000000000000000        0x6 ./Core/core_riscv.o
 .text.__get_MSCRATCH
                0x0000000000000000        0x6 ./Core/core_riscv.o
 .text.__set_MSCRATCH
                0x0000000000000000        0x6 ./Core/core_riscv.o
 .text.__set_MEPC
                0x0000000000000000        0x6 ./Core/core_riscv.o
 .text.__set_MCAUSE
                0x0000000000000000        0x6 ./Core/core_riscv.o
 .text.__set_MTVAL
                0x0000000000000000        0x6 ./Core/core_riscv.o
 .text.__get_MVENDORID
                0x0000000000000000        0x6 ./Core/core_riscv.o
 .text.__get_MARCHID
                0x0000000000000000        0x6 ./Core/core_riscv.o
 .text.__get_MIMPID
                0x0000000000000000        0x6 ./Core/core_riscv.o
 .text.__get_MHARTID
                0x0000000000000000        0x6 ./Core/core_riscv.o
 .text.__get_SP
                0x0000000000000000        0x4 ./Core/core_riscv.o
 .text          0x0000000000000000        0x0 ./CANopenNode/keypad/CO_driver_ST32F103.o
 .data          0x0000000000000000        0x0 ./CANopenNode/keypad/CO_driver_ST32F103.o
 .bss           0x0000000000000000        0x0 ./CANopenNode/keypad/CO_driver_ST32F103.o
 .text.CO_CANclearPendingSyncPDOs
                0x0000000000000000       0x68 ./CANopenNode/keypad/CO_driver_ST32F103.o
 .text.HAL_CAN_ErrorCallback
                0x0000000000000000       0x2e ./CANopenNode/keypad/CO_driver_ST32F103.o
 .text          0x0000000000000000        0x0 ./CANopenNode/keypad/OD.o
 .data          0x0000000000000000        0x0 ./CANopenNode/keypad/OD.o
 .bss           0x0000000000000000        0x0 ./CANopenNode/keypad/OD.o
 .text          0x0000000000000000        0x0 ./CANopenNode/extra/CO_trace.o
 .data          0x0000000000000000        0x0 ./CANopenNode/extra/CO_trace.o
 .bss           0x0000000000000000        0x0 ./CANopenNode/extra/CO_trace.o
 .debug_info    0x0000000000000000      0x9d6 ./CANopenNode/extra/CO_trace.o
 .debug_abbrev  0x0000000000000000      0x1c5 ./CANopenNode/extra/CO_trace.o
 .debug_aranges
                0x0000000000000000       0x18 ./CANopenNode/extra/CO_trace.o
 .debug_line    0x0000000000000000      0x2dc ./CANopenNode/extra/CO_trace.o
 .debug_str     0x0000000000000000      0x657 ./CANopenNode/extra/CO_trace.o
 .comment       0x0000000000000000       0x34 ./CANopenNode/extra/CO_trace.o
 .text          0x0000000000000000        0x0 ./CANopenNode/309/CO_gateway_ascii.o
 .data          0x0000000000000000        0x0 ./CANopenNode/309/CO_gateway_ascii.o
 .bss           0x0000000000000000        0x0 ./CANopenNode/309/CO_gateway_ascii.o
 .debug_info    0x0000000000000000      0xa29 ./CANopenNode/309/CO_gateway_ascii.o
 .debug_abbrev  0x0000000000000000      0x1d6 ./CANopenNode/309/CO_gateway_ascii.o
 .debug_aranges
                0x0000000000000000       0x18 ./CANopenNode/309/CO_gateway_ascii.o
 .debug_line    0x0000000000000000      0x313 ./CANopenNode/309/CO_gateway_ascii.o
 .debug_str     0x0000000000000000      0x68d ./CANopenNode/309/CO_gateway_ascii.o
 .comment       0x0000000000000000       0x34 ./CANopenNode/309/CO_gateway_ascii.o
 .text          0x0000000000000000        0x0 ./CANopenNode/305/CO_LSSmaster.o
 .data          0x0000000000000000        0x0 ./CANopenNode/305/CO_LSSmaster.o
 .bss           0x0000000000000000        0x0 ./CANopenNode/305/CO_LSSmaster.o
 .debug_info    0x0000000000000000      0xa29 ./CANopenNode/305/CO_LSSmaster.o
 .debug_abbrev  0x0000000000000000      0x1d6 ./CANopenNode/305/CO_LSSmaster.o
 .debug_aranges
                0x0000000000000000       0x18 ./CANopenNode/305/CO_LSSmaster.o
 .debug_line    0x0000000000000000      0x313 ./CANopenNode/305/CO_LSSmaster.o
 .debug_str     0x0000000000000000      0x689 ./CANopenNode/305/CO_LSSmaster.o
 .comment       0x0000000000000000       0x34 ./CANopenNode/305/CO_LSSmaster.o
 .text          0x0000000000000000        0x0 ./CANopenNode/305/CO_LSSslave.o
 .data          0x0000000000000000        0x0 ./CANopenNode/305/CO_LSSslave.o
 .bss           0x0000000000000000        0x0 ./CANopenNode/305/CO_LSSslave.o
 .text.CO_LSSslave_initCheckBitRateCallback
                0x0000000000000000        0x8 ./CANopenNode/305/CO_LSSslave.o
 .text.CO_LSSslave_initActivateBitRateCallback
                0x0000000000000000        0x8 ./CANopenNode/305/CO_LSSslave.o
 .text.CO_LSSslave_initCfgStoreCallback
                0x0000000000000000        0x8 ./CANopenNode/305/CO_LSSslave.o
 .text          0x0000000000000000        0x0 ./CANopenNode/304/CO_GFC.o
 .data          0x0000000000000000        0x0 ./CANopenNode/304/CO_GFC.o
 .bss           0x0000000000000000        0x0 ./CANopenNode/304/CO_GFC.o
 .debug_info    0x0000000000000000      0x9d6 ./CANopenNode/304/CO_GFC.o
 .debug_abbrev  0x0000000000000000      0x1c5 ./CANopenNode/304/CO_GFC.o
 .debug_aranges
                0x0000000000000000       0x18 ./CANopenNode/304/CO_GFC.o
 .debug_line    0x0000000000000000      0x2dc ./CANopenNode/304/CO_GFC.o
 .debug_str     0x0000000000000000      0x653 ./CANopenNode/304/CO_GFC.o
 .comment       0x0000000000000000       0x34 ./CANopenNode/304/CO_GFC.o
 .text          0x0000000000000000        0x0 ./CANopenNode/304/CO_SRDO.o
 .data          0x0000000000000000        0x0 ./CANopenNode/304/CO_SRDO.o
 .bss           0x0000000000000000        0x0 ./CANopenNode/304/CO_SRDO.o
 .debug_info    0x0000000000000000      0x9d6 ./CANopenNode/304/CO_SRDO.o
 .debug_abbrev  0x0000000000000000      0x1c5 ./CANopenNode/304/CO_SRDO.o
 .debug_aranges
                0x0000000000000000       0x18 ./CANopenNode/304/CO_SRDO.o
 .debug_line    0x0000000000000000      0x2dc ./CANopenNode/304/CO_SRDO.o
 .debug_str     0x0000000000000000      0x654 ./CANopenNode/304/CO_SRDO.o
 .comment       0x0000000000000000       0x34 ./CANopenNode/304/CO_SRDO.o
 .text          0x0000000000000000        0x0 ./CANopenNode/303/CO_LEDs.o
 .data          0x0000000000000000        0x0 ./CANopenNode/303/CO_LEDs.o
 .bss           0x0000000000000000        0x0 ./CANopenNode/303/CO_LEDs.o
 .debug_info    0x0000000000000000      0x9d6 ./CANopenNode/303/CO_LEDs.o
 .debug_abbrev  0x0000000000000000      0x1c5 ./CANopenNode/303/CO_LEDs.o
 .debug_aranges
                0x0000000000000000       0x18 ./CANopenNode/303/CO_LEDs.o
 .debug_line    0x0000000000000000      0x2dc ./CANopenNode/303/CO_LEDs.o
 .debug_str     0x0000000000000000      0x654 ./CANopenNode/303/CO_LEDs.o
 .comment       0x0000000000000000       0x34 ./CANopenNode/303/CO_LEDs.o
 .text          0x0000000000000000        0x0 ./CANopenNode/301/CO_Emergency.o
 .data          0x0000000000000000        0x0 ./CANopenNode/301/CO_Emergency.o
 .bss           0x0000000000000000        0x0 ./CANopenNode/301/CO_Emergency.o
 .text          0x0000000000000000        0x0 ./CANopenNode/301/CO_HBconsumer.o
 .data          0x0000000000000000        0x0 ./CANopenNode/301/CO_HBconsumer.o
 .bss           0x0000000000000000        0x0 ./CANopenNode/301/CO_HBconsumer.o
 .debug_info    0x0000000000000000      0x9d6 ./CANopenNode/301/CO_HBconsumer.o
 .debug_abbrev  0x0000000000000000      0x1c5 ./CANopenNode/301/CO_HBconsumer.o
 .debug_aranges
                0x0000000000000000       0x18 ./CANopenNode/301/CO_HBconsumer.o
 .debug_line    0x0000000000000000      0x2dc ./CANopenNode/301/CO_HBconsumer.o
 .debug_str     0x0000000000000000      0x65a ./CANopenNode/301/CO_HBconsumer.o
 .comment       0x0000000000000000       0x34 ./CANopenNode/301/CO_HBconsumer.o
 .text          0x0000000000000000        0x0 ./CANopenNode/301/CO_NMT_Heartbeat.o
 .data          0x0000000000000000        0x0 ./CANopenNode/301/CO_NMT_Heartbeat.o
 .bss           0x0000000000000000        0x0 ./CANopenNode/301/CO_NMT_Heartbeat.o
 .text          0x0000000000000000        0x0 ./CANopenNode/301/CO_ODinterface.o
 .data          0x0000000000000000        0x0 ./CANopenNode/301/CO_ODinterface.o
 .bss           0x0000000000000000        0x0 ./CANopenNode/301/CO_ODinterface.o
 .text          0x0000000000000000        0x0 ./CANopenNode/301/CO_PDO.o
 .data          0x0000000000000000        0x0 ./CANopenNode/301/CO_PDO.o
 .bss           0x0000000000000000        0x0 ./CANopenNode/301/CO_PDO.o
 .text          0x0000000000000000        0x0 ./CANopenNode/301/CO_SDOclient.o
 .data          0x0000000000000000        0x0 ./CANopenNode/301/CO_SDOclient.o
 .bss           0x0000000000000000        0x0 ./CANopenNode/301/CO_SDOclient.o
 .debug_info    0x0000000000000000      0x9d6 ./CANopenNode/301/CO_SDOclient.o
 .debug_abbrev  0x0000000000000000      0x1c5 ./CANopenNode/301/CO_SDOclient.o
 .debug_aranges
                0x0000000000000000       0x18 ./CANopenNode/301/CO_SDOclient.o
 .debug_line    0x0000000000000000      0x2dc ./CANopenNode/301/CO_SDOclient.o
 .debug_str     0x0000000000000000      0x659 ./CANopenNode/301/CO_SDOclient.o
 .comment       0x0000000000000000       0x34 ./CANopenNode/301/CO_SDOclient.o
 .text          0x0000000000000000        0x0 ./CANopenNode/301/CO_SDOserver.o
 .data          0x0000000000000000        0x0 ./CANopenNode/301/CO_SDOserver.o
 .bss           0x0000000000000000        0x0 ./CANopenNode/301/CO_SDOserver.o
 .text          0x0000000000000000        0x0 ./CANopenNode/301/CO_SYNC.o
 .data          0x0000000000000000        0x0 ./CANopenNode/301/CO_SYNC.o
 .bss           0x0000000000000000        0x0 ./CANopenNode/301/CO_SYNC.o
 .debug_info    0x0000000000000000      0x9d6 ./CANopenNode/301/CO_SYNC.o
 .debug_abbrev  0x0000000000000000      0x1c5 ./CANopenNode/301/CO_SYNC.o
 .debug_aranges
                0x0000000000000000       0x18 ./CANopenNode/301/CO_SYNC.o
 .debug_line    0x0000000000000000      0x2dc ./CANopenNode/301/CO_SYNC.o
 .debug_str     0x0000000000000000      0x654 ./CANopenNode/301/CO_SYNC.o
 .comment       0x0000000000000000       0x34 ./CANopenNode/301/CO_SYNC.o
 .text          0x0000000000000000        0x0 ./CANopenNode/301/CO_TIME.o
 .data          0x0000000000000000        0x0 ./CANopenNode/301/CO_TIME.o
 .bss           0x0000000000000000        0x0 ./CANopenNode/301/CO_TIME.o
 .debug_info    0x0000000000000000      0x9d6 ./CANopenNode/301/CO_TIME.o
 .debug_abbrev  0x0000000000000000      0x1c5 ./CANopenNode/301/CO_TIME.o
 .debug_aranges
                0x0000000000000000       0x18 ./CANopenNode/301/CO_TIME.o
 .debug_line    0x0000000000000000      0x2dc ./CANopenNode/301/CO_TIME.o
 .debug_str     0x0000000000000000      0x654 ./CANopenNode/301/CO_TIME.o
 .comment       0x0000000000000000       0x34 ./CANopenNode/301/CO_TIME.o
 .text          0x0000000000000000        0x0 ./CANopenNode/301/CO_fifo.o
 .data          0x0000000000000000        0x0 ./CANopenNode/301/CO_fifo.o
 .bss           0x0000000000000000        0x0 ./CANopenNode/301/CO_fifo.o
 .debug_info    0x0000000000000000      0x9d6 ./CANopenNode/301/CO_fifo.o
 .debug_abbrev  0x0000000000000000      0x1c5 ./CANopenNode/301/CO_fifo.o
 .debug_aranges
                0x0000000000000000       0x18 ./CANopenNode/301/CO_fifo.o
 .debug_line    0x0000000000000000      0x2dc ./CANopenNode/301/CO_fifo.o
 .debug_str     0x0000000000000000      0x654 ./CANopenNode/301/CO_fifo.o
 .comment       0x0000000000000000       0x34 ./CANopenNode/301/CO_fifo.o
 .text          0x0000000000000000        0x0 ./CANopenNode/301/crc16-ccitt.o
 .data          0x0000000000000000        0x0 ./CANopenNode/301/crc16-ccitt.o
 .bss           0x0000000000000000        0x0 ./CANopenNode/301/crc16-ccitt.o
 .debug_info    0x0000000000000000      0x9d6 ./CANopenNode/301/crc16-ccitt.o
 .debug_abbrev  0x0000000000000000      0x1c5 ./CANopenNode/301/crc16-ccitt.o
 .debug_aranges
                0x0000000000000000       0x18 ./CANopenNode/301/crc16-ccitt.o
 .debug_line    0x0000000000000000      0x2dc ./CANopenNode/301/crc16-ccitt.o
 .debug_str     0x0000000000000000      0x658 ./CANopenNode/301/crc16-ccitt.o
 .comment       0x0000000000000000       0x34 ./CANopenNode/301/crc16-ccitt.o
 .text          0x0000000000000000        0x0 ./CANopenNode/CANopen.o
 .data          0x0000000000000000        0x0 ./CANopenNode/CANopen.o
 .bss           0x0000000000000000        0x0 ./CANopenNode/CANopen.o
 .text.CO_isLSSslaveEnabled
                0x0000000000000000        0x4 ./CANopenNode/CANopen.o
 .text          0x0000000000000000        0x0 c:/mounriver/mounriver_studio/toolchain/risc-v embedded gcc/bin/../lib/gcc/riscv-none-embed/8.2.0/rv32imacxw/ilp32\libgcc.a(addsf3.o)
 .data          0x0000000000000000        0x0 c:/mounriver/mounriver_studio/toolchain/risc-v embedded gcc/bin/../lib/gcc/riscv-none-embed/8.2.0/rv32imacxw/ilp32\libgcc.a(addsf3.o)
 .bss           0x0000000000000000        0x0 c:/mounriver/mounriver_studio/toolchain/risc-v embedded gcc/bin/../lib/gcc/riscv-none-embed/8.2.0/rv32imacxw/ilp32\libgcc.a(addsf3.o)
 .text          0x0000000000000000        0x0 c:/mounriver/mounriver_studio/toolchain/risc-v embedded gcc/bin/../lib/gcc/riscv-none-embed/8.2.0/rv32imacxw/ilp32\libgcc.a(divsf3.o)
 .data          0x0000000000000000        0x0 c:/mounriver/mounriver_studio/toolchain/risc-v embedded gcc/bin/../lib/gcc/riscv-none-embed/8.2.0/rv32imacxw/ilp32\libgcc.a(divsf3.o)
 .bss           0x0000000000000000        0x0 c:/mounriver/mounriver_studio/toolchain/risc-v embedded gcc/bin/../lib/gcc/riscv-none-embed/8.2.0/rv32imacxw/ilp32\libgcc.a(divsf3.o)
 .text          0x0000000000000000        0x0 c:/mounriver/mounriver_studio/toolchain/risc-v embedded gcc/bin/../lib/gcc/riscv-none-embed/8.2.0/rv32imacxw/ilp32\libgcc.a(eqsf2.o)
 .data          0x0000000000000000        0x0 c:/mounriver/mounriver_studio/toolchain/risc-v embedded gcc/bin/../lib/gcc/riscv-none-embed/8.2.0/rv32imacxw/ilp32\libgcc.a(eqsf2.o)
 .bss           0x0000000000000000        0x0 c:/mounriver/mounriver_studio/toolchain/risc-v embedded gcc/bin/../lib/gcc/riscv-none-embed/8.2.0/rv32imacxw/ilp32\libgcc.a(eqsf2.o)
 .text.__eqsf2  0x0000000000000000       0x5c c:/mounriver/mounriver_studio/toolchain/risc-v embedded gcc/bin/../lib/gcc/riscv-none-embed/8.2.0/rv32imacxw/ilp32\libgcc.a(eqsf2.o)
 .debug_frame   0x0000000000000000       0x20 c:/mounriver/mounriver_studio/toolchain/risc-v embedded gcc/bin/../lib/gcc/riscv-none-embed/8.2.0/rv32imacxw/ilp32\libgcc.a(eqsf2.o)
 .text          0x0000000000000000        0x0 c:/mounriver/mounriver_studio/toolchain/risc-v embedded gcc/bin/../lib/gcc/riscv-none-embed/8.2.0/rv32imacxw/ilp32\libgcc.a(gesf2.o)
 .data          0x0000000000000000        0x0 c:/mounriver/mounriver_studio/toolchain/risc-v embedded gcc/bin/../lib/gcc/riscv-none-embed/8.2.0/rv32imacxw/ilp32\libgcc.a(gesf2.o)
 .bss           0x0000000000000000        0x0 c:/mounriver/mounriver_studio/toolchain/risc-v embedded gcc/bin/../lib/gcc/riscv-none-embed/8.2.0/rv32imacxw/ilp32\libgcc.a(gesf2.o)
 .text          0x0000000000000000        0x0 c:/mounriver/mounriver_studio/toolchain/risc-v embedded gcc/bin/../lib/gcc/riscv-none-embed/8.2.0/rv32imacxw/ilp32\libgcc.a(lesf2.o)
 .data          0x0000000000000000        0x0 c:/mounriver/mounriver_studio/toolchain/risc-v embedded gcc/bin/../lib/gcc/riscv-none-embed/8.2.0/rv32imacxw/ilp32\libgcc.a(lesf2.o)
 .bss           0x0000000000000000        0x0 c:/mounriver/mounriver_studio/toolchain/risc-v embedded gcc/bin/../lib/gcc/riscv-none-embed/8.2.0/rv32imacxw/ilp32\libgcc.a(lesf2.o)
 .text          0x0000000000000000        0x0 c:/mounriver/mounriver_studio/toolchain/risc-v embedded gcc/bin/../lib/gcc/riscv-none-embed/8.2.0/rv32imacxw/ilp32\libgcc.a(mulsf3.o)
 .data          0x0000000000000000        0x0 c:/mounriver/mounriver_studio/toolchain/risc-v embedded gcc/bin/../lib/gcc/riscv-none-embed/8.2.0/rv32imacxw/ilp32\libgcc.a(mulsf3.o)
 .bss           0x0000000000000000        0x0 c:/mounriver/mounriver_studio/toolchain/risc-v embedded gcc/bin/../lib/gcc/riscv-none-embed/8.2.0/rv32imacxw/ilp32\libgcc.a(mulsf3.o)
 .text          0x0000000000000000        0x0 c:/mounriver/mounriver_studio/toolchain/risc-v embedded gcc/bin/../lib/gcc/riscv-none-embed/8.2.0/rv32imacxw/ilp32\libgcc.a(subsf3.o)
 .data          0x0000000000000000        0x0 c:/mounriver/mounriver_studio/toolchain/risc-v embedded gcc/bin/../lib/gcc/riscv-none-embed/8.2.0/rv32imacxw/ilp32\libgcc.a(subsf3.o)
 .bss           0x0000000000000000        0x0 c:/mounriver/mounriver_studio/toolchain/risc-v embedded gcc/bin/../lib/gcc/riscv-none-embed/8.2.0/rv32imacxw/ilp32\libgcc.a(subsf3.o)
 .text          0x0000000000000000        0x0 c:/mounriver/mounriver_studio/toolchain/risc-v embedded gcc/bin/../lib/gcc/riscv-none-embed/8.2.0/rv32imacxw/ilp32\libgcc.a(fixsfsi.o)
 .data          0x0000000000000000        0x0 c:/mounriver/mounriver_studio/toolchain/risc-v embedded gcc/bin/../lib/gcc/riscv-none-embed/8.2.0/rv32imacxw/ilp32\libgcc.a(fixsfsi.o)
 .bss           0x0000000000000000        0x0 c:/mounriver/mounriver_studio/toolchain/risc-v embedded gcc/bin/../lib/gcc/riscv-none-embed/8.2.0/rv32imacxw/ilp32\libgcc.a(fixsfsi.o)
 .text          0x0000000000000000        0x0 c:/mounriver/mounriver_studio/toolchain/risc-v embedded gcc/bin/../lib/gcc/riscv-none-embed/8.2.0/rv32imacxw/ilp32\libgcc.a(fixunssfsi.o)
 .data          0x0000000000000000        0x0 c:/mounriver/mounriver_studio/toolchain/risc-v embedded gcc/bin/../lib/gcc/riscv-none-embed/8.2.0/rv32imacxw/ilp32\libgcc.a(fixunssfsi.o)
 .bss           0x0000000000000000        0x0 c:/mounriver/mounriver_studio/toolchain/risc-v embedded gcc/bin/../lib/gcc/riscv-none-embed/8.2.0/rv32imacxw/ilp32\libgcc.a(fixunssfsi.o)
 .text          0x0000000000000000        0x0 c:/mounriver/mounriver_studio/toolchain/risc-v embedded gcc/bin/../lib/gcc/riscv-none-embed/8.2.0/rv32imacxw/ilp32\libgcc.a(floatsisf.o)
 .data          0x0000000000000000        0x0 c:/mounriver/mounriver_studio/toolchain/risc-v embedded gcc/bin/../lib/gcc/riscv-none-embed/8.2.0/rv32imacxw/ilp32\libgcc.a(floatsisf.o)
 .bss           0x0000000000000000        0x0 c:/mounriver/mounriver_studio/toolchain/risc-v embedded gcc/bin/../lib/gcc/riscv-none-embed/8.2.0/rv32imacxw/ilp32\libgcc.a(floatsisf.o)
 .text          0x0000000000000000        0x0 c:/mounriver/mounriver_studio/toolchain/risc-v embedded gcc/bin/../lib/gcc/riscv-none-embed/8.2.0/rv32imacxw/ilp32\libgcc.a(floatunsisf.o)
 .data          0x0000000000000000        0x0 c:/mounriver/mounriver_studio/toolchain/risc-v embedded gcc/bin/../lib/gcc/riscv-none-embed/8.2.0/rv32imacxw/ilp32\libgcc.a(floatunsisf.o)
 .bss           0x0000000000000000        0x0 c:/mounriver/mounriver_studio/toolchain/risc-v embedded gcc/bin/../lib/gcc/riscv-none-embed/8.2.0/rv32imacxw/ilp32\libgcc.a(floatunsisf.o)
 .data          0x0000000000000000        0x0 c:/mounriver/mounriver_studio/toolchain/risc-v embedded gcc/bin/../lib/gcc/riscv-none-embed/8.2.0/rv32imacxw/ilp32\libgcc.a(save-restore.o)
 .bss           0x0000000000000000        0x0 c:/mounriver/mounriver_studio/toolchain/risc-v embedded gcc/bin/../lib/gcc/riscv-none-embed/8.2.0/rv32imacxw/ilp32\libgcc.a(save-restore.o)
 .eh_frame      0x0000000000000000       0xf8 c:/mounriver/mounriver_studio/toolchain/risc-v embedded gcc/bin/../lib/gcc/riscv-none-embed/8.2.0/rv32imacxw/ilp32\libgcc.a(save-restore.o)
 .text          0x0000000000000000        0x0 c:/mounriver/mounriver_studio/toolchain/risc-v embedded gcc/bin/../lib/gcc/riscv-none-embed/8.2.0/rv32imacxw/ilp32\libgcc.a(_clzsi2.o)
 .data          0x0000000000000000        0x0 c:/mounriver/mounriver_studio/toolchain/risc-v embedded gcc/bin/../lib/gcc/riscv-none-embed/8.2.0/rv32imacxw/ilp32\libgcc.a(_clzsi2.o)
 .bss           0x0000000000000000        0x0 c:/mounriver/mounriver_studio/toolchain/risc-v embedded gcc/bin/../lib/gcc/riscv-none-embed/8.2.0/rv32imacxw/ilp32\libgcc.a(_clzsi2.o)
 .text          0x0000000000000000        0x0 c:/mounriver/mounriver_studio/toolchain/risc-v embedded gcc/bin/../lib/gcc/riscv-none-embed/8.2.0/rv32imacxw/ilp32\libgcc.a(_clz.o)
 .data          0x0000000000000000        0x0 c:/mounriver/mounriver_studio/toolchain/risc-v embedded gcc/bin/../lib/gcc/riscv-none-embed/8.2.0/rv32imacxw/ilp32\libgcc.a(_clz.o)
 .bss           0x0000000000000000        0x0 c:/mounriver/mounriver_studio/toolchain/risc-v embedded gcc/bin/../lib/gcc/riscv-none-embed/8.2.0/rv32imacxw/ilp32\libgcc.a(_clz.o)
 .text          0x0000000000000000        0x0 c:/mounriver/mounriver_studio/toolchain/risc-v embedded gcc/bin/../lib/gcc/riscv-none-embed/8.2.0/../../../../riscv-none-embed/lib/rv32imacxw/ilp32\libg_nano.a(lib_a-calloc.o)
 .data          0x0000000000000000        0x0 c:/mounriver/mounriver_studio/toolchain/risc-v embedded gcc/bin/../lib/gcc/riscv-none-embed/8.2.0/../../../../riscv-none-embed/lib/rv32imacxw/ilp32\libg_nano.a(lib_a-calloc.o)
 .bss           0x0000000000000000        0x0 c:/mounriver/mounriver_studio/toolchain/risc-v embedded gcc/bin/../lib/gcc/riscv-none-embed/8.2.0/../../../../riscv-none-embed/lib/rv32imacxw/ilp32\libg_nano.a(lib_a-calloc.o)
 .text          0x0000000000000000        0x0 c:/mounriver/mounriver_studio/toolchain/risc-v embedded gcc/bin/../lib/gcc/riscv-none-embed/8.2.0/../../../../riscv-none-embed/lib/rv32imacxw/ilp32\libg_nano.a(lib_a-impure.o)
 .data          0x0000000000000000        0x0 c:/mounriver/mounriver_studio/toolchain/risc-v embedded gcc/bin/../lib/gcc/riscv-none-embed/8.2.0/../../../../riscv-none-embed/lib/rv32imacxw/ilp32\libg_nano.a(lib_a-impure.o)
 .bss           0x0000000000000000        0x0 c:/mounriver/mounriver_studio/toolchain/risc-v embedded gcc/bin/../lib/gcc/riscv-none-embed/8.2.0/../../../../riscv-none-embed/lib/rv32imacxw/ilp32\libg_nano.a(lib_a-impure.o)
 .text          0x0000000000000000        0x0 c:/mounriver/mounriver_studio/toolchain/risc-v embedded gcc/bin/../lib/gcc/riscv-none-embed/8.2.0/../../../../riscv-none-embed/lib/rv32imacxw/ilp32\libg_nano.a(lib_a-malloc.o)
 .data          0x0000000000000000        0x0 c:/mounriver/mounriver_studio/toolchain/risc-v embedded gcc/bin/../lib/gcc/riscv-none-embed/8.2.0/../../../../riscv-none-embed/lib/rv32imacxw/ilp32\libg_nano.a(lib_a-malloc.o)
 .bss           0x0000000000000000        0x0 c:/mounriver/mounriver_studio/toolchain/risc-v embedded gcc/bin/../lib/gcc/riscv-none-embed/8.2.0/../../../../riscv-none-embed/lib/rv32imacxw/ilp32\libg_nano.a(lib_a-malloc.o)
 .text.malloc   0x0000000000000000       0x14 c:/mounriver/mounriver_studio/toolchain/risc-v embedded gcc/bin/../lib/gcc/riscv-none-embed/8.2.0/../../../../riscv-none-embed/lib/rv32imacxw/ilp32\libg_nano.a(lib_a-malloc.o)
 .text          0x0000000000000000        0x0 c:/mounriver/mounriver_studio/toolchain/risc-v embedded gcc/bin/../lib/gcc/riscv-none-embed/8.2.0/../../../../riscv-none-embed/lib/rv32imacxw/ilp32\libg_nano.a(lib_a-memcpy.o)
 .data          0x0000000000000000        0x0 c:/mounriver/mounriver_studio/toolchain/risc-v embedded gcc/bin/../lib/gcc/riscv-none-embed/8.2.0/../../../../riscv-none-embed/lib/rv32imacxw/ilp32\libg_nano.a(lib_a-memcpy.o)
 .bss           0x0000000000000000        0x0 c:/mounriver/mounriver_studio/toolchain/risc-v embedded gcc/bin/../lib/gcc/riscv-none-embed/8.2.0/../../../../riscv-none-embed/lib/rv32imacxw/ilp32\libg_nano.a(lib_a-memcpy.o)
 .text          0x0000000000000000        0x0 c:/mounriver/mounriver_studio/toolchain/risc-v embedded gcc/bin/../lib/gcc/riscv-none-embed/8.2.0/../../../../riscv-none-embed/lib/rv32imacxw/ilp32\libg_nano.a(lib_a-memmove.o)
 .data          0x0000000000000000        0x0 c:/mounriver/mounriver_studio/toolchain/risc-v embedded gcc/bin/../lib/gcc/riscv-none-embed/8.2.0/../../../../riscv-none-embed/lib/rv32imacxw/ilp32\libg_nano.a(lib_a-memmove.o)
 .bss           0x0000000000000000        0x0 c:/mounriver/mounriver_studio/toolchain/risc-v embedded gcc/bin/../lib/gcc/riscv-none-embed/8.2.0/../../../../riscv-none-embed/lib/rv32imacxw/ilp32\libg_nano.a(lib_a-memmove.o)
 .data          0x0000000000000000        0x0 c:/mounriver/mounriver_studio/toolchain/risc-v embedded gcc/bin/../lib/gcc/riscv-none-embed/8.2.0/../../../../riscv-none-embed/lib/rv32imacxw/ilp32\libg_nano.a(lib_a-memset.o)
 .bss           0x0000000000000000        0x0 c:/mounriver/mounriver_studio/toolchain/risc-v embedded gcc/bin/../lib/gcc/riscv-none-embed/8.2.0/../../../../riscv-none-embed/lib/rv32imacxw/ilp32\libg_nano.a(lib_a-memset.o)
 .text          0x0000000000000000        0x0 c:/mounriver/mounriver_studio/toolchain/risc-v embedded gcc/bin/../lib/gcc/riscv-none-embed/8.2.0/../../../../riscv-none-embed/lib/rv32imacxw/ilp32\libg_nano.a(lib_a-nano-callocr.o)
 .data          0x0000000000000000        0x0 c:/mounriver/mounriver_studio/toolchain/risc-v embedded gcc/bin/../lib/gcc/riscv-none-embed/8.2.0/../../../../riscv-none-embed/lib/rv32imacxw/ilp32\libg_nano.a(lib_a-nano-callocr.o)
 .bss           0x0000000000000000        0x0 c:/mounriver/mounriver_studio/toolchain/risc-v embedded gcc/bin/../lib/gcc/riscv-none-embed/8.2.0/../../../../riscv-none-embed/lib/rv32imacxw/ilp32\libg_nano.a(lib_a-nano-callocr.o)
 .text          0x0000000000000000        0x0 c:/mounriver/mounriver_studio/toolchain/risc-v embedded gcc/bin/../lib/gcc/riscv-none-embed/8.2.0/../../../../riscv-none-embed/lib/rv32imacxw/ilp32\libg_nano.a(lib_a-nano-freer.o)
 .data          0x0000000000000000        0x0 c:/mounriver/mounriver_studio/toolchain/risc-v embedded gcc/bin/../lib/gcc/riscv-none-embed/8.2.0/../../../../riscv-none-embed/lib/rv32imacxw/ilp32\libg_nano.a(lib_a-nano-freer.o)
 .bss           0x0000000000000000        0x0 c:/mounriver/mounriver_studio/toolchain/risc-v embedded gcc/bin/../lib/gcc/riscv-none-embed/8.2.0/../../../../riscv-none-embed/lib/rv32imacxw/ilp32\libg_nano.a(lib_a-nano-freer.o)
 .text          0x0000000000000000        0x0 c:/mounriver/mounriver_studio/toolchain/risc-v embedded gcc/bin/../lib/gcc/riscv-none-embed/8.2.0/../../../../riscv-none-embed/lib/rv32imacxw/ilp32\libg_nano.a(lib_a-nano-mallocr.o)
 .data          0x0000000000000000        0x0 c:/mounriver/mounriver_studio/toolchain/risc-v embedded gcc/bin/../lib/gcc/riscv-none-embed/8.2.0/../../../../riscv-none-embed/lib/rv32imacxw/ilp32\libg_nano.a(lib_a-nano-mallocr.o)
 .bss           0x0000000000000000        0x0 c:/mounriver/mounriver_studio/toolchain/risc-v embedded gcc/bin/../lib/gcc/riscv-none-embed/8.2.0/../../../../riscv-none-embed/lib/rv32imacxw/ilp32\libg_nano.a(lib_a-nano-mallocr.o)
 .text          0x0000000000000000        0x0 c:/mounriver/mounriver_studio/toolchain/risc-v embedded gcc/bin/../lib/gcc/riscv-none-embed/8.2.0/../../../../riscv-none-embed/lib/rv32imacxw/ilp32\libg_nano.a(lib_a-printf.o)
 .data          0x0000000000000000        0x0 c:/mounriver/mounriver_studio/toolchain/risc-v embedded gcc/bin/../lib/gcc/riscv-none-embed/8.2.0/../../../../riscv-none-embed/lib/rv32imacxw/ilp32\libg_nano.a(lib_a-printf.o)
 .bss           0x0000000000000000        0x0 c:/mounriver/mounriver_studio/toolchain/risc-v embedded gcc/bin/../lib/gcc/riscv-none-embed/8.2.0/../../../../riscv-none-embed/lib/rv32imacxw/ilp32\libg_nano.a(lib_a-printf.o)
 .text._printf_r
                0x0000000000000000       0x40 c:/mounriver/mounriver_studio/toolchain/risc-v embedded gcc/bin/../lib/gcc/riscv-none-embed/8.2.0/../../../../riscv-none-embed/lib/rv32imacxw/ilp32\libg_nano.a(lib_a-printf.o)
 .text          0x0000000000000000        0x0 c:/mounriver/mounriver_studio/toolchain/risc-v embedded gcc/bin/../lib/gcc/riscv-none-embed/8.2.0/../../../../riscv-none-embed/lib/rv32imacxw/ilp32\libg_nano.a(lib_a-puts.o)
 .data          0x0000000000000000        0x0 c:/mounriver/mounriver_studio/toolchain/risc-v embedded gcc/bin/../lib/gcc/riscv-none-embed/8.2.0/../../../../riscv-none-embed/lib/rv32imacxw/ilp32\libg_nano.a(lib_a-puts.o)
 .bss           0x0000000000000000        0x0 c:/mounriver/mounriver_studio/toolchain/risc-v embedded gcc/bin/../lib/gcc/riscv-none-embed/8.2.0/../../../../riscv-none-embed/lib/rv32imacxw/ilp32\libg_nano.a(lib_a-puts.o)
 .text          0x0000000000000000        0x0 c:/mounriver/mounriver_studio/toolchain/risc-v embedded gcc/bin/../lib/gcc/riscv-none-embed/8.2.0/../../../../riscv-none-embed/lib/rv32imacxw/ilp32\libg_nano.a(lib_a-sbrkr.o)
 .data          0x0000000000000000        0x0 c:/mounriver/mounriver_studio/toolchain/risc-v embedded gcc/bin/../lib/gcc/riscv-none-embed/8.2.0/../../../../riscv-none-embed/lib/rv32imacxw/ilp32\libg_nano.a(lib_a-sbrkr.o)
 .bss           0x0000000000000000        0x0 c:/mounriver/mounriver_studio/toolchain/risc-v embedded gcc/bin/../lib/gcc/riscv-none-embed/8.2.0/../../../../riscv-none-embed/lib/rv32imacxw/ilp32\libg_nano.a(lib_a-sbrkr.o)
 .text          0x0000000000000000        0x0 c:/mounriver/mounriver_studio/toolchain/risc-v embedded gcc/bin/../lib/gcc/riscv-none-embed/8.2.0/../../../../riscv-none-embed/lib/rv32imacxw/ilp32\libg_nano.a(lib_a-strlen.o)
 .data          0x0000000000000000        0x0 c:/mounriver/mounriver_studio/toolchain/risc-v embedded gcc/bin/../lib/gcc/riscv-none-embed/8.2.0/../../../../riscv-none-embed/lib/rv32imacxw/ilp32\libg_nano.a(lib_a-strlen.o)
 .bss           0x0000000000000000        0x0 c:/mounriver/mounriver_studio/toolchain/risc-v embedded gcc/bin/../lib/gcc/riscv-none-embed/8.2.0/../../../../riscv-none-embed/lib/rv32imacxw/ilp32\libg_nano.a(lib_a-strlen.o)
 .text          0x0000000000000000        0x0 c:/mounriver/mounriver_studio/toolchain/risc-v embedded gcc/bin/../lib/gcc/riscv-none-embed/8.2.0/../../../../riscv-none-embed/lib/rv32imacxw/ilp32\libg_nano.a(lib_a-wbuf.o)
 .data          0x0000000000000000        0x0 c:/mounriver/mounriver_studio/toolchain/risc-v embedded gcc/bin/../lib/gcc/riscv-none-embed/8.2.0/../../../../riscv-none-embed/lib/rv32imacxw/ilp32\libg_nano.a(lib_a-wbuf.o)
 .bss           0x0000000000000000        0x0 c:/mounriver/mounriver_studio/toolchain/risc-v embedded gcc/bin/../lib/gcc/riscv-none-embed/8.2.0/../../../../riscv-none-embed/lib/rv32imacxw/ilp32\libg_nano.a(lib_a-wbuf.o)
 .text.__swbuf  0x0000000000000000       0x16 c:/mounriver/mounriver_studio/toolchain/risc-v embedded gcc/bin/../lib/gcc/riscv-none-embed/8.2.0/../../../../riscv-none-embed/lib/rv32imacxw/ilp32\libg_nano.a(lib_a-wbuf.o)
 .text          0x0000000000000000        0x0 c:/mounriver/mounriver_studio/toolchain/risc-v embedded gcc/bin/../lib/gcc/riscv-none-embed/8.2.0/../../../../riscv-none-embed/lib/rv32imacxw/ilp32\libg_nano.a(lib_a-wsetup.o)
 .data          0x0000000000000000        0x0 c:/mounriver/mounriver_studio/toolchain/risc-v embedded gcc/bin/../lib/gcc/riscv-none-embed/8.2.0/../../../../riscv-none-embed/lib/rv32imacxw/ilp32\libg_nano.a(lib_a-wsetup.o)
 .bss           0x0000000000000000        0x0 c:/mounriver/mounriver_studio/toolchain/risc-v embedded gcc/bin/../lib/gcc/riscv-none-embed/8.2.0/../../../../riscv-none-embed/lib/rv32imacxw/ilp32\libg_nano.a(lib_a-wsetup.o)
 .text          0x0000000000000000        0x0 c:/mounriver/mounriver_studio/toolchain/risc-v embedded gcc/bin/../lib/gcc/riscv-none-embed/8.2.0/../../../../riscv-none-embed/lib/rv32imacxw/ilp32\libg_nano.a(lib_a-fflush.o)
 .data          0x0000000000000000        0x0 c:/mounriver/mounriver_studio/toolchain/risc-v embedded gcc/bin/../lib/gcc/riscv-none-embed/8.2.0/../../../../riscv-none-embed/lib/rv32imacxw/ilp32\libg_nano.a(lib_a-fflush.o)
 .bss           0x0000000000000000        0x0 c:/mounriver/mounriver_studio/toolchain/risc-v embedded gcc/bin/../lib/gcc/riscv-none-embed/8.2.0/../../../../riscv-none-embed/lib/rv32imacxw/ilp32\libg_nano.a(lib_a-fflush.o)
 .text.fflush   0x0000000000000000       0x30 c:/mounriver/mounriver_studio/toolchain/risc-v embedded gcc/bin/../lib/gcc/riscv-none-embed/8.2.0/../../../../riscv-none-embed/lib/rv32imacxw/ilp32\libg_nano.a(lib_a-fflush.o)
 .text          0x0000000000000000        0x0 c:/mounriver/mounriver_studio/toolchain/risc-v embedded gcc/bin/../lib/gcc/riscv-none-embed/8.2.0/../../../../riscv-none-embed/lib/rv32imacxw/ilp32\libg_nano.a(lib_a-findfp.o)
 .data          0x0000000000000000        0x0 c:/mounriver/mounriver_studio/toolchain/risc-v embedded gcc/bin/../lib/gcc/riscv-none-embed/8.2.0/../../../../riscv-none-embed/lib/rv32imacxw/ilp32\libg_nano.a(lib_a-findfp.o)
 .bss           0x0000000000000000        0x0 c:/mounriver/mounriver_studio/toolchain/risc-v embedded gcc/bin/../lib/gcc/riscv-none-embed/8.2.0/../../../../riscv-none-embed/lib/rv32imacxw/ilp32\libg_nano.a(lib_a-findfp.o)
 .text.__fp_lock
                0x0000000000000000        0x4 c:/mounriver/mounriver_studio/toolchain/risc-v embedded gcc/bin/../lib/gcc/riscv-none-embed/8.2.0/../../../../riscv-none-embed/lib/rv32imacxw/ilp32\libg_nano.a(lib_a-findfp.o)
 .text.__fp_unlock
                0x0000000000000000        0x4 c:/mounriver/mounriver_studio/toolchain/risc-v embedded gcc/bin/../lib/gcc/riscv-none-embed/8.2.0/../../../../riscv-none-embed/lib/rv32imacxw/ilp32\libg_nano.a(lib_a-findfp.o)
 .text._cleanup
                0x0000000000000000       0x12 c:/mounriver/mounriver_studio/toolchain/risc-v embedded gcc/bin/../lib/gcc/riscv-none-embed/8.2.0/../../../../riscv-none-embed/lib/rv32imacxw/ilp32\libg_nano.a(lib_a-findfp.o)
 .text.__sfp_lock_acquire
                0x0000000000000000        0x2 c:/mounriver/mounriver_studio/toolchain/risc-v embedded gcc/bin/../lib/gcc/riscv-none-embed/8.2.0/../../../../riscv-none-embed/lib/rv32imacxw/ilp32\libg_nano.a(lib_a-findfp.o)
 .text.__sfp_lock_release
                0x0000000000000000        0x2 c:/mounriver/mounriver_studio/toolchain/risc-v embedded gcc/bin/../lib/gcc/riscv-none-embed/8.2.0/../../../../riscv-none-embed/lib/rv32imacxw/ilp32\libg_nano.a(lib_a-findfp.o)
 .text.__sinit_lock_acquire
                0x0000000000000000        0x2 c:/mounriver/mounriver_studio/toolchain/risc-v embedded gcc/bin/../lib/gcc/riscv-none-embed/8.2.0/../../../../riscv-none-embed/lib/rv32imacxw/ilp32\libg_nano.a(lib_a-findfp.o)
 .text.__sinit_lock_release
                0x0000000000000000        0x2 c:/mounriver/mounriver_studio/toolchain/risc-v embedded gcc/bin/../lib/gcc/riscv-none-embed/8.2.0/../../../../riscv-none-embed/lib/rv32imacxw/ilp32\libg_nano.a(lib_a-findfp.o)
 .text.__fp_lock_all
                0x0000000000000000       0x1a c:/mounriver/mounriver_studio/toolchain/risc-v embedded gcc/bin/../lib/gcc/riscv-none-embed/8.2.0/../../../../riscv-none-embed/lib/rv32imacxw/ilp32\libg_nano.a(lib_a-findfp.o)
 .text.__fp_unlock_all
                0x0000000000000000       0x1a c:/mounriver/mounriver_studio/toolchain/risc-v embedded gcc/bin/../lib/gcc/riscv-none-embed/8.2.0/../../../../riscv-none-embed/lib/rv32imacxw/ilp32\libg_nano.a(lib_a-findfp.o)
 .text          0x0000000000000000        0x0 c:/mounriver/mounriver_studio/toolchain/risc-v embedded gcc/bin/../lib/gcc/riscv-none-embed/8.2.0/../../../../riscv-none-embed/lib/rv32imacxw/ilp32\libg_nano.a(lib_a-fwalk.o)
 .data          0x0000000000000000        0x0 c:/mounriver/mounriver_studio/toolchain/risc-v embedded gcc/bin/../lib/gcc/riscv-none-embed/8.2.0/../../../../riscv-none-embed/lib/rv32imacxw/ilp32\libg_nano.a(lib_a-fwalk.o)
 .bss           0x0000000000000000        0x0 c:/mounriver/mounriver_studio/toolchain/risc-v embedded gcc/bin/../lib/gcc/riscv-none-embed/8.2.0/../../../../riscv-none-embed/lib/rv32imacxw/ilp32\libg_nano.a(lib_a-fwalk.o)
 .text._fwalk   0x0000000000000000       0x60 c:/mounriver/mounriver_studio/toolchain/risc-v embedded gcc/bin/../lib/gcc/riscv-none-embed/8.2.0/../../../../riscv-none-embed/lib/rv32imacxw/ilp32\libg_nano.a(lib_a-fwalk.o)
 .text          0x0000000000000000        0x0 c:/mounriver/mounriver_studio/toolchain/risc-v embedded gcc/bin/../lib/gcc/riscv-none-embed/8.2.0/../../../../riscv-none-embed/lib/rv32imacxw/ilp32\libg_nano.a(lib_a-makebuf.o)
 .data          0x0000000000000000        0x0 c:/mounriver/mounriver_studio/toolchain/risc-v embedded gcc/bin/../lib/gcc/riscv-none-embed/8.2.0/../../../../riscv-none-embed/lib/rv32imacxw/ilp32\libg_nano.a(lib_a-makebuf.o)
 .bss           0x0000000000000000        0x0 c:/mounriver/mounriver_studio/toolchain/risc-v embedded gcc/bin/../lib/gcc/riscv-none-embed/8.2.0/../../../../riscv-none-embed/lib/rv32imacxw/ilp32\libg_nano.a(lib_a-makebuf.o)
 .text          0x0000000000000000        0x0 c:/mounriver/mounriver_studio/toolchain/risc-v embedded gcc/bin/../lib/gcc/riscv-none-embed/8.2.0/../../../../riscv-none-embed/lib/rv32imacxw/ilp32\libg_nano.a(lib_a-mlock.o)
 .data          0x0000000000000000        0x0 c:/mounriver/mounriver_studio/toolchain/risc-v embedded gcc/bin/../lib/gcc/riscv-none-embed/8.2.0/../../../../riscv-none-embed/lib/rv32imacxw/ilp32\libg_nano.a(lib_a-mlock.o)
 .bss           0x0000000000000000        0x0 c:/mounriver/mounriver_studio/toolchain/risc-v embedded gcc/bin/../lib/gcc/riscv-none-embed/8.2.0/../../../../riscv-none-embed/lib/rv32imacxw/ilp32\libg_nano.a(lib_a-mlock.o)
 .text          0x0000000000000000        0x0 c:/mounriver/mounriver_studio/toolchain/risc-v embedded gcc/bin/../lib/gcc/riscv-none-embed/8.2.0/../../../../riscv-none-embed/lib/rv32imacxw/ilp32\libg_nano.a(lib_a-nano-vfprintf.o)
 .data          0x0000000000000000        0x0 c:/mounriver/mounriver_studio/toolchain/risc-v embedded gcc/bin/../lib/gcc/riscv-none-embed/8.2.0/../../../../riscv-none-embed/lib/rv32imacxw/ilp32\libg_nano.a(lib_a-nano-vfprintf.o)
 .bss           0x0000000000000000        0x0 c:/mounriver/mounriver_studio/toolchain/risc-v embedded gcc/bin/../lib/gcc/riscv-none-embed/8.2.0/../../../../riscv-none-embed/lib/rv32imacxw/ilp32\libg_nano.a(lib_a-nano-vfprintf.o)
 .text.__sprint_r
                0x0000000000000000       0x2c c:/mounriver/mounriver_studio/toolchain/risc-v embedded gcc/bin/../lib/gcc/riscv-none-embed/8.2.0/../../../../riscv-none-embed/lib/rv32imacxw/ilp32\libg_nano.a(lib_a-nano-vfprintf.o)
 .text.vfprintf
                0x0000000000000000       0x18 c:/mounriver/mounriver_studio/toolchain/risc-v embedded gcc/bin/../lib/gcc/riscv-none-embed/8.2.0/../../../../riscv-none-embed/lib/rv32imacxw/ilp32\libg_nano.a(lib_a-nano-vfprintf.o)
 .text          0x0000000000000000        0x0 c:/mounriver/mounriver_studio/toolchain/risc-v embedded gcc/bin/../lib/gcc/riscv-none-embed/8.2.0/../../../../riscv-none-embed/lib/rv32imacxw/ilp32\libg_nano.a(lib_a-nano-vfprintf_i.o)
 .data          0x0000000000000000        0x0 c:/mounriver/mounriver_studio/toolchain/risc-v embedded gcc/bin/../lib/gcc/riscv-none-embed/8.2.0/../../../../riscv-none-embed/lib/rv32imacxw/ilp32\libg_nano.a(lib_a-nano-vfprintf_i.o)
 .bss           0x0000000000000000        0x0 c:/mounriver/mounriver_studio/toolchain/risc-v embedded gcc/bin/../lib/gcc/riscv-none-embed/8.2.0/../../../../riscv-none-embed/lib/rv32imacxw/ilp32\libg_nano.a(lib_a-nano-vfprintf_i.o)
 .text          0x0000000000000000        0x0 c:/mounriver/mounriver_studio/toolchain/risc-v embedded gcc/bin/../lib/gcc/riscv-none-embed/8.2.0/../../../../riscv-none-embed/lib/rv32imacxw/ilp32\libg_nano.a(lib_a-reent.o)
 .data          0x0000000000000000        0x0 c:/mounriver/mounriver_studio/toolchain/risc-v embedded gcc/bin/../lib/gcc/riscv-none-embed/8.2.0/../../../../riscv-none-embed/lib/rv32imacxw/ilp32\libg_nano.a(lib_a-reent.o)
 .bss           0x0000000000000000        0x0 c:/mounriver/mounriver_studio/toolchain/risc-v embedded gcc/bin/../lib/gcc/riscv-none-embed/8.2.0/../../../../riscv-none-embed/lib/rv32imacxw/ilp32\libg_nano.a(lib_a-reent.o)
 .text.cleanup_glue
                0x0000000000000000       0x2c c:/mounriver/mounriver_studio/toolchain/risc-v embedded gcc/bin/../lib/gcc/riscv-none-embed/8.2.0/../../../../riscv-none-embed/lib/rv32imacxw/ilp32\libg_nano.a(lib_a-reent.o)
 .text._reclaim_reent
                0x0000000000000000      0x10c c:/mounriver/mounriver_studio/toolchain/risc-v embedded gcc/bin/../lib/gcc/riscv-none-embed/8.2.0/../../../../riscv-none-embed/lib/rv32imacxw/ilp32\libg_nano.a(lib_a-reent.o)
 .text          0x0000000000000000        0x0 c:/mounriver/mounriver_studio/toolchain/risc-v embedded gcc/bin/../lib/gcc/riscv-none-embed/8.2.0/../../../../riscv-none-embed/lib/rv32imacxw/ilp32\libg_nano.a(lib_a-stdio.o)
 .data          0x0000000000000000        0x0 c:/mounriver/mounriver_studio/toolchain/risc-v embedded gcc/bin/../lib/gcc/riscv-none-embed/8.2.0/../../../../riscv-none-embed/lib/rv32imacxw/ilp32\libg_nano.a(lib_a-stdio.o)
 .bss           0x0000000000000000        0x0 c:/mounriver/mounriver_studio/toolchain/risc-v embedded gcc/bin/../lib/gcc/riscv-none-embed/8.2.0/../../../../riscv-none-embed/lib/rv32imacxw/ilp32\libg_nano.a(lib_a-stdio.o)
 .text.__seofread
                0x0000000000000000        0x4 c:/mounriver/mounriver_studio/toolchain/risc-v embedded gcc/bin/../lib/gcc/riscv-none-embed/8.2.0/../../../../riscv-none-embed/lib/rv32imacxw/ilp32\libg_nano.a(lib_a-stdio.o)
 .text          0x0000000000000000        0x0 c:/mounriver/mounriver_studio/toolchain/risc-v embedded gcc/bin/../lib/gcc/riscv-none-embed/8.2.0/../../../../riscv-none-embed/lib/rv32imacxw/ilp32\libg_nano.a(lib_a-writer.o)
 .data          0x0000000000000000        0x0 c:/mounriver/mounriver_studio/toolchain/risc-v embedded gcc/bin/../lib/gcc/riscv-none-embed/8.2.0/../../../../riscv-none-embed/lib/rv32imacxw/ilp32\libg_nano.a(lib_a-writer.o)
 .bss           0x0000000000000000        0x0 c:/mounriver/mounriver_studio/toolchain/risc-v embedded gcc/bin/../lib/gcc/riscv-none-embed/8.2.0/../../../../riscv-none-embed/lib/rv32imacxw/ilp32\libg_nano.a(lib_a-writer.o)
 .text          0x0000000000000000        0x0 c:/mounriver/mounriver_studio/toolchain/risc-v embedded gcc/bin/../lib/gcc/riscv-none-embed/8.2.0/../../../../riscv-none-embed/lib/rv32imacxw/ilp32\libg_nano.a(lib_a-closer.o)
 .data          0x0000000000000000        0x0 c:/mounriver/mounriver_studio/toolchain/risc-v embedded gcc/bin/../lib/gcc/riscv-none-embed/8.2.0/../../../../riscv-none-embed/lib/rv32imacxw/ilp32\libg_nano.a(lib_a-closer.o)
 .bss           0x0000000000000000        0x0 c:/mounriver/mounriver_studio/toolchain/risc-v embedded gcc/bin/../lib/gcc/riscv-none-embed/8.2.0/../../../../riscv-none-embed/lib/rv32imacxw/ilp32\libg_nano.a(lib_a-closer.o)
 .text          0x0000000000000000        0x0 c:/mounriver/mounriver_studio/toolchain/risc-v embedded gcc/bin/../lib/gcc/riscv-none-embed/8.2.0/../../../../riscv-none-embed/lib/rv32imacxw/ilp32\libg_nano.a(lib_a-fstatr.o)
 .data          0x0000000000000000        0x0 c:/mounriver/mounriver_studio/toolchain/risc-v embedded gcc/bin/../lib/gcc/riscv-none-embed/8.2.0/../../../../riscv-none-embed/lib/rv32imacxw/ilp32\libg_nano.a(lib_a-fstatr.o)
 .bss           0x0000000000000000        0x0 c:/mounriver/mounriver_studio/toolchain/risc-v embedded gcc/bin/../lib/gcc/riscv-none-embed/8.2.0/../../../../riscv-none-embed/lib/rv32imacxw/ilp32\libg_nano.a(lib_a-fstatr.o)
 .text          0x0000000000000000        0x0 c:/mounriver/mounriver_studio/toolchain/risc-v embedded gcc/bin/../lib/gcc/riscv-none-embed/8.2.0/../../../../riscv-none-embed/lib/rv32imacxw/ilp32\libg_nano.a(lib_a-fvwrite.o)
 .data          0x0000000000000000        0x0 c:/mounriver/mounriver_studio/toolchain/risc-v embedded gcc/bin/../lib/gcc/riscv-none-embed/8.2.0/../../../../riscv-none-embed/lib/rv32imacxw/ilp32\libg_nano.a(lib_a-fvwrite.o)
 .bss           0x0000000000000000        0x0 c:/mounriver/mounriver_studio/toolchain/risc-v embedded gcc/bin/../lib/gcc/riscv-none-embed/8.2.0/../../../../riscv-none-embed/lib/rv32imacxw/ilp32\libg_nano.a(lib_a-fvwrite.o)
 .text.__sfvwrite_r
                0x0000000000000000      0x306 c:/mounriver/mounriver_studio/toolchain/risc-v embedded gcc/bin/../lib/gcc/riscv-none-embed/8.2.0/../../../../riscv-none-embed/lib/rv32imacxw/ilp32\libg_nano.a(lib_a-fvwrite.o)
 .debug_frame   0x0000000000000000       0x60 c:/mounriver/mounriver_studio/toolchain/risc-v embedded gcc/bin/../lib/gcc/riscv-none-embed/8.2.0/../../../../riscv-none-embed/lib/rv32imacxw/ilp32\libg_nano.a(lib_a-fvwrite.o)
 .text          0x0000000000000000        0x0 c:/mounriver/mounriver_studio/toolchain/risc-v embedded gcc/bin/../lib/gcc/riscv-none-embed/8.2.0/../../../../riscv-none-embed/lib/rv32imacxw/ilp32\libg_nano.a(lib_a-isattyr.o)
 .data          0x0000000000000000        0x0 c:/mounriver/mounriver_studio/toolchain/risc-v embedded gcc/bin/../lib/gcc/riscv-none-embed/8.2.0/../../../../riscv-none-embed/lib/rv32imacxw/ilp32\libg_nano.a(lib_a-isattyr.o)
 .bss           0x0000000000000000        0x0 c:/mounriver/mounriver_studio/toolchain/risc-v embedded gcc/bin/../lib/gcc/riscv-none-embed/8.2.0/../../../../riscv-none-embed/lib/rv32imacxw/ilp32\libg_nano.a(lib_a-isattyr.o)
 .text          0x0000000000000000        0x0 c:/mounriver/mounriver_studio/toolchain/risc-v embedded gcc/bin/../lib/gcc/riscv-none-embed/8.2.0/../../../../riscv-none-embed/lib/rv32imacxw/ilp32\libg_nano.a(lib_a-lseekr.o)
 .data          0x0000000000000000        0x0 c:/mounriver/mounriver_studio/toolchain/risc-v embedded gcc/bin/../lib/gcc/riscv-none-embed/8.2.0/../../../../riscv-none-embed/lib/rv32imacxw/ilp32\libg_nano.a(lib_a-lseekr.o)
 .bss           0x0000000000000000        0x0 c:/mounriver/mounriver_studio/toolchain/risc-v embedded gcc/bin/../lib/gcc/riscv-none-embed/8.2.0/../../../../riscv-none-embed/lib/rv32imacxw/ilp32\libg_nano.a(lib_a-lseekr.o)
 .text          0x0000000000000000        0x0 c:/mounriver/mounriver_studio/toolchain/risc-v embedded gcc/bin/../lib/gcc/riscv-none-embed/8.2.0/../../../../riscv-none-embed/lib/rv32imacxw/ilp32\libg_nano.a(lib_a-memchr.o)
 .data          0x0000000000000000        0x0 c:/mounriver/mounriver_studio/toolchain/risc-v embedded gcc/bin/../lib/gcc/riscv-none-embed/8.2.0/../../../../riscv-none-embed/lib/rv32imacxw/ilp32\libg_nano.a(lib_a-memchr.o)
 .bss           0x0000000000000000        0x0 c:/mounriver/mounriver_studio/toolchain/risc-v embedded gcc/bin/../lib/gcc/riscv-none-embed/8.2.0/../../../../riscv-none-embed/lib/rv32imacxw/ilp32\libg_nano.a(lib_a-memchr.o)
 .text          0x0000000000000000        0x0 c:/mounriver/mounriver_studio/toolchain/risc-v embedded gcc/bin/../lib/gcc/riscv-none-embed/8.2.0/../../../../riscv-none-embed/lib/rv32imacxw/ilp32\libg_nano.a(lib_a-nano-reallocr.o)
 .data          0x0000000000000000        0x0 c:/mounriver/mounriver_studio/toolchain/risc-v embedded gcc/bin/../lib/gcc/riscv-none-embed/8.2.0/../../../../riscv-none-embed/lib/rv32imacxw/ilp32\libg_nano.a(lib_a-nano-reallocr.o)
 .bss           0x0000000000000000        0x0 c:/mounriver/mounriver_studio/toolchain/risc-v embedded gcc/bin/../lib/gcc/riscv-none-embed/8.2.0/../../../../riscv-none-embed/lib/rv32imacxw/ilp32\libg_nano.a(lib_a-nano-reallocr.o)
 .text._realloc_r
                0x0000000000000000       0x72 c:/mounriver/mounriver_studio/toolchain/risc-v embedded gcc/bin/../lib/gcc/riscv-none-embed/8.2.0/../../../../riscv-none-embed/lib/rv32imacxw/ilp32\libg_nano.a(lib_a-nano-reallocr.o)
 .debug_frame   0x0000000000000000       0x40 c:/mounriver/mounriver_studio/toolchain/risc-v embedded gcc/bin/../lib/gcc/riscv-none-embed/8.2.0/../../../../riscv-none-embed/lib/rv32imacxw/ilp32\libg_nano.a(lib_a-nano-reallocr.o)
 .text          0x0000000000000000        0x0 c:/mounriver/mounriver_studio/toolchain/risc-v embedded gcc/bin/../lib/gcc/riscv-none-embed/8.2.0/../../../../riscv-none-embed/lib/rv32imacxw/ilp32\libg_nano.a(lib_a-readr.o)
 .data          0x0000000000000000        0x0 c:/mounriver/mounriver_studio/toolchain/risc-v embedded gcc/bin/../lib/gcc/riscv-none-embed/8.2.0/../../../../riscv-none-embed/lib/rv32imacxw/ilp32\libg_nano.a(lib_a-readr.o)
 .bss           0x0000000000000000        0x0 c:/mounriver/mounriver_studio/toolchain/risc-v embedded gcc/bin/../lib/gcc/riscv-none-embed/8.2.0/../../../../riscv-none-embed/lib/rv32imacxw/ilp32\libg_nano.a(lib_a-readr.o)
 .text          0x0000000000000000        0x0 c:/mounriver/mounriver_studio/toolchain/risc-v embedded gcc/bin/../lib/gcc/riscv-none-embed/8.2.0/../../../../riscv-none-embed/lib/rv32imacxw/ilp32\libg_nano.a(lib_a-nano-msizer.o)
 .data          0x0000000000000000        0x0 c:/mounriver/mounriver_studio/toolchain/risc-v embedded gcc/bin/../lib/gcc/riscv-none-embed/8.2.0/../../../../riscv-none-embed/lib/rv32imacxw/ilp32\libg_nano.a(lib_a-nano-msizer.o)
 .bss           0x0000000000000000        0x0 c:/mounriver/mounriver_studio/toolchain/risc-v embedded gcc/bin/../lib/gcc/riscv-none-embed/8.2.0/../../../../riscv-none-embed/lib/rv32imacxw/ilp32\libg_nano.a(lib_a-nano-msizer.o)
 .text._malloc_usable_size_r
                0x0000000000000000       0x14 c:/mounriver/mounriver_studio/toolchain/risc-v embedded gcc/bin/../lib/gcc/riscv-none-embed/8.2.0/../../../../riscv-none-embed/lib/rv32imacxw/ilp32\libg_nano.a(lib_a-nano-msizer.o)
 .debug_frame   0x0000000000000000       0x20 c:/mounriver/mounriver_studio/toolchain/risc-v embedded gcc/bin/../lib/gcc/riscv-none-embed/8.2.0/../../../../riscv-none-embed/lib/rv32imacxw/ilp32\libg_nano.a(lib_a-nano-msizer.o)
 .text          0x0000000000000000        0x0 c:/mounriver/mounriver_studio/toolchain/risc-v embedded gcc/bin/../lib/gcc/riscv-none-embed/8.2.0/../../../../riscv-none-embed/lib/rv32imacxw/ilp32\libnosys.a(close.o)
 .data          0x0000000000000000        0x0 c:/mounriver/mounriver_studio/toolchain/risc-v embedded gcc/bin/../lib/gcc/riscv-none-embed/8.2.0/../../../../riscv-none-embed/lib/rv32imacxw/ilp32\libnosys.a(close.o)
 .bss           0x0000000000000000        0x0 c:/mounriver/mounriver_studio/toolchain/risc-v embedded gcc/bin/../lib/gcc/riscv-none-embed/8.2.0/../../../../riscv-none-embed/lib/rv32imacxw/ilp32\libnosys.a(close.o)
 .text          0x0000000000000000        0x0 c:/mounriver/mounriver_studio/toolchain/risc-v embedded gcc/bin/../lib/gcc/riscv-none-embed/8.2.0/../../../../riscv-none-embed/lib/rv32imacxw/ilp32\libnosys.a(fstat.o)
 .data          0x0000000000000000        0x0 c:/mounriver/mounriver_studio/toolchain/risc-v embedded gcc/bin/../lib/gcc/riscv-none-embed/8.2.0/../../../../riscv-none-embed/lib/rv32imacxw/ilp32\libnosys.a(fstat.o)
 .bss           0x0000000000000000        0x0 c:/mounriver/mounriver_studio/toolchain/risc-v embedded gcc/bin/../lib/gcc/riscv-none-embed/8.2.0/../../../../riscv-none-embed/lib/rv32imacxw/ilp32\libnosys.a(fstat.o)
 .text          0x0000000000000000        0x0 c:/mounriver/mounriver_studio/toolchain/risc-v embedded gcc/bin/../lib/gcc/riscv-none-embed/8.2.0/../../../../riscv-none-embed/lib/rv32imacxw/ilp32\libnosys.a(isatty.o)
 .data          0x0000000000000000        0x0 c:/mounriver/mounriver_studio/toolchain/risc-v embedded gcc/bin/../lib/gcc/riscv-none-embed/8.2.0/../../../../riscv-none-embed/lib/rv32imacxw/ilp32\libnosys.a(isatty.o)
 .bss           0x0000000000000000        0x0 c:/mounriver/mounriver_studio/toolchain/risc-v embedded gcc/bin/../lib/gcc/riscv-none-embed/8.2.0/../../../../riscv-none-embed/lib/rv32imacxw/ilp32\libnosys.a(isatty.o)
 .text          0x0000000000000000        0x0 c:/mounriver/mounriver_studio/toolchain/risc-v embedded gcc/bin/../lib/gcc/riscv-none-embed/8.2.0/../../../../riscv-none-embed/lib/rv32imacxw/ilp32\libnosys.a(lseek.o)
 .data          0x0000000000000000        0x0 c:/mounriver/mounriver_studio/toolchain/risc-v embedded gcc/bin/../lib/gcc/riscv-none-embed/8.2.0/../../../../riscv-none-embed/lib/rv32imacxw/ilp32\libnosys.a(lseek.o)
 .bss           0x0000000000000000        0x0 c:/mounriver/mounriver_studio/toolchain/risc-v embedded gcc/bin/../lib/gcc/riscv-none-embed/8.2.0/../../../../riscv-none-embed/lib/rv32imacxw/ilp32\libnosys.a(lseek.o)
 .text          0x0000000000000000        0x0 c:/mounriver/mounriver_studio/toolchain/risc-v embedded gcc/bin/../lib/gcc/riscv-none-embed/8.2.0/../../../../riscv-none-embed/lib/rv32imacxw/ilp32\libnosys.a(read.o)
 .data          0x0000000000000000        0x0 c:/mounriver/mounriver_studio/toolchain/risc-v embedded gcc/bin/../lib/gcc/riscv-none-embed/8.2.0/../../../../riscv-none-embed/lib/rv32imacxw/ilp32\libnosys.a(read.o)
 .bss           0x0000000000000000        0x0 c:/mounriver/mounriver_studio/toolchain/risc-v embedded gcc/bin/../lib/gcc/riscv-none-embed/8.2.0/../../../../riscv-none-embed/lib/rv32imacxw/ilp32\libnosys.a(read.o)

Memory Configuration

Name             Origin             Length             Attributes
FLASH            0x0000000000000000 0x0000000000010000 xr
RAM              0x0000000020000000 0x0000000000005000 xrw
*default*        0x0000000000000000 0xffffffffffffffff

Linker script and memory map

LOAD ./User/CanOpenNode.o
LOAD ./User/DataModel.o
LOAD ./User/ch32v20x_it.o
LOAD ./User/dash_draw.o
LOAD ./User/init.o
LOAD ./User/inputs.o
LOAD ./User/led.o
LOAD ./User/main.o
LOAD ./User/process.o
LOAD ./User/system_ch32v20x.o
LOAD ./User/system_init.o
LOAD ./Startup/startup_ch32v20x_D6.o
LOAD ./Peripheral/src/ch32v20x_adc.o
LOAD ./Peripheral/src/ch32v20x_bkp.o
LOAD ./Peripheral/src/ch32v20x_can.o
LOAD ./Peripheral/src/ch32v20x_crc.o
LOAD ./Peripheral/src/ch32v20x_dbgmcu.o
LOAD ./Peripheral/src/ch32v20x_dma.o
LOAD ./Peripheral/src/ch32v20x_exti.o
LOAD ./Peripheral/src/ch32v20x_flash.o
LOAD ./Peripheral/src/ch32v20x_gpio.o
LOAD ./Peripheral/src/ch32v20x_i2c.o
LOAD ./Peripheral/src/ch32v20x_iwdg.o
LOAD ./Peripheral/src/ch32v20x_misc.o
LOAD ./Peripheral/src/ch32v20x_opa.o
LOAD ./Peripheral/src/ch32v20x_pwr.o
LOAD ./Peripheral/src/ch32v20x_rcc.o
LOAD ./Peripheral/src/ch32v20x_rtc.o
LOAD ./Peripheral/src/ch32v20x_spi.o
LOAD ./Peripheral/src/ch32v20x_tim.o
LOAD ./Peripheral/src/ch32v20x_usart.o
LOAD ./Peripheral/src/ch32v20x_wwdg.o
LOAD ./HWLIB/hw_lib_adc.o
LOAD ./HWLIB/hw_lib_din.o
LOAD ./HWLIB/hw_lib_eeprom.o
LOAD ./HWLIB/hw_lib_keyboard.o
LOAD ./HAL/hal_adc.o
LOAD ./HAL/hal_can.o
LOAD ./HAL/hal_dma.o
LOAD ./HAL/hal_gpio.o
LOAD ./HAL/hal_i2c.o
LOAD ./HAL/hal_rtc.o
LOAD ./HAL/hal_spi.o
LOAD ./HAL/hal_timers.o
LOAD ./HAL/hal_wdt.o
LOAD ./FreeRTOS/portable/MemMang/heap_4.o
LOAD ./FreeRTOS/portable/GCC/RISC-V/port.o
LOAD ./FreeRTOS/portable/GCC/RISC-V/portASM.o
LOAD ./FreeRTOS/croutine.o
LOAD ./FreeRTOS/event_groups.o
LOAD ./FreeRTOS/list.o
LOAD ./FreeRTOS/queue.o
LOAD ./FreeRTOS/stream_buffer.o
LOAD ./FreeRTOS/tasks.o
LOAD ./FreeRTOS/timers.o
LOAD ./Drivers/filters.o
LOAD ./Debug/debug.o
LOAD ./Core/core_riscv.o
LOAD ./CANopenNode/keypad/CO_driver_ST32F103.o
LOAD ./CANopenNode/keypad/OD.o
LOAD ./CANopenNode/extra/CO_trace.o
LOAD ./CANopenNode/309/CO_gateway_ascii.o
LOAD ./CANopenNode/305/CO_LSSmaster.o
LOAD ./CANopenNode/305/CO_LSSslave.o
LOAD ./CANopenNode/304/CO_GFC.o
LOAD ./CANopenNode/304/CO_SRDO.o
LOAD ./CANopenNode/303/CO_LEDs.o
LOAD ./CANopenNode/301/CO_Emergency.o
LOAD ./CANopenNode/301/CO_HBconsumer.o
LOAD ./CANopenNode/301/CO_NMT_Heartbeat.o
LOAD ./CANopenNode/301/CO_ODinterface.o
LOAD ./CANopenNode/301/CO_PDO.o
LOAD ./CANopenNode/301/CO_SDOclient.o
LOAD ./CANopenNode/301/CO_SDOserver.o
LOAD ./CANopenNode/301/CO_SYNC.o
LOAD ./CANopenNode/301/CO_TIME.o
LOAD ./CANopenNode/301/CO_fifo.o
LOAD ./CANopenNode/301/crc16-ccitt.o
LOAD ./CANopenNode/CANopen.o
LOAD c:/mounriver/mounriver_studio/toolchain/risc-v embedded gcc/bin/../lib/gcc/riscv-none-embed/8.2.0/../../../../riscv-none-embed/lib/rv32imacxw/ilp32\libm.a
LOAD c:/mounriver/mounriver_studio/toolchain/risc-v embedded gcc/bin/../lib/gcc/riscv-none-embed/8.2.0/rv32imacxw/ilp32\libgcc.a
LOAD c:/mounriver/mounriver_studio/toolchain/risc-v embedded gcc/bin/../lib/gcc/riscv-none-embed/8.2.0/../../../../riscv-none-embed/lib/rv32imacxw/ilp32\libg_nano.a
LOAD c:/mounriver/mounriver_studio/toolchain/risc-v embedded gcc/bin/../lib/gcc/riscv-none-embed/8.2.0/../../../../riscv-none-embed/lib/rv32imacxw/ilp32\libc_nano.a
LOAD c:/mounriver/mounriver_studio/toolchain/risc-v embedded gcc/bin/../lib/gcc/riscv-none-embed/8.2.0/rv32imacxw/ilp32\libgcc.a
START GROUP
LOAD c:/mounriver/mounriver_studio/toolchain/risc-v embedded gcc/bin/../lib/gcc/riscv-none-embed/8.2.0/rv32imacxw/ilp32\libgcc.a
LOAD c:/mounriver/mounriver_studio/toolchain/risc-v embedded gcc/bin/../lib/gcc/riscv-none-embed/8.2.0/../../../../riscv-none-embed/lib/rv32imacxw/ilp32\libc_nano.a
LOAD c:/mounriver/mounriver_studio/toolchain/risc-v embedded gcc/bin/../lib/gcc/riscv-none-embed/8.2.0/../../../../riscv-none-embed/lib/rv32imacxw/ilp32\libnosys.a
END GROUP
START GROUP
LOAD c:/mounriver/mounriver_studio/toolchain/risc-v embedded gcc/bin/../lib/gcc/riscv-none-embed/8.2.0/rv32imacxw/ilp32\libgcc.a
LOAD c:/mounriver/mounriver_studio/toolchain/risc-v embedded gcc/bin/../lib/gcc/riscv-none-embed/8.2.0/../../../../riscv-none-embed/lib/rv32imacxw/ilp32\libc_nano.a
LOAD c:/mounriver/mounriver_studio/toolchain/risc-v embedded gcc/bin/../lib/gcc/riscv-none-embed/8.2.0/../../../../riscv-none-embed/lib/rv32imacxw/ilp32\libnosys.a
END GROUP
                0x0000000000000800                __stack_size = 0x800
                [!provide]                        PROVIDE (_stack_size = __stack_size)

.init           0x0000000000000000       0x38
                0x0000000000000000                _sinit = .
                0x0000000000000000                . = ALIGN (0x4)
 *(SORT_NONE(.init))
 .init          0x0000000000000000       0x38 ./Startup/startup_ch32v20x_D6.o
                0x0000000000000000                _start
                0x0000000000000038                . = ALIGN (0x4)
                0x0000000000000038                _einit = .

.vector         0x0000000000000038      0x108
 *(.vector)
 .vector        0x0000000000000038       0xfc ./Startup/startup_ch32v20x_D6.o
                0x0000000000000140                . = ALIGN (0x40)
 *fill*         0x0000000000000134        0xc 

.text           0x0000000000000200     0xf2f4
                0x0000000000000200                . = ALIGN (0x4)
 *(.text)
 .text          0x0000000000000200      0x2ee ./FreeRTOS/portable/GCC/RISC-V/portASM.o
                0x0000000000000200                SW_Handler
                0x0000000000000300                xPortStartFirstTask
                0x0000000000000400                pxPortInitialiseStack
 .text          0x00000000000004ee       0x60 c:/mounriver/mounriver_studio/toolchain/risc-v embedded gcc/bin/../lib/gcc/riscv-none-embed/8.2.0/rv32imacxw/ilp32\libgcc.a(save-restore.o)
                0x00000000000004ee                __riscv_save_12
                0x00000000000004f6                __riscv_save_9
                0x00000000000004f6                __riscv_save_11
                0x00000000000004f6                __riscv_save_10
                0x00000000000004f6                __riscv_save_8
                0x0000000000000504                __riscv_save_4
                0x0000000000000504                __riscv_save_6
                0x0000000000000504                __riscv_save_5
                0x0000000000000504                __riscv_save_7
                0x000000000000051e                __riscv_save_3
                0x000000000000051e                __riscv_save_2
                0x000000000000051e                __riscv_save_1
                0x000000000000051e                __riscv_save_0
                0x000000000000052a                __riscv_restore_12
                0x000000000000052e                __riscv_restore_11
                0x000000000000052e                __riscv_restore_9
                0x000000000000052e                __riscv_restore_10
                0x000000000000052e                __riscv_restore_8
                0x0000000000000538                __riscv_restore_5
                0x0000000000000538                __riscv_restore_7
                0x0000000000000538                __riscv_restore_6
                0x0000000000000538                __riscv_restore_4
                0x0000000000000542                __riscv_restore_3
                0x0000000000000542                __riscv_restore_0
                0x0000000000000542                __riscv_restore_2
                0x0000000000000542                __riscv_restore_1
 .text          0x000000000000054e       0xa8 c:/mounriver/mounriver_studio/toolchain/risc-v embedded gcc/bin/../lib/gcc/riscv-none-embed/8.2.0/../../../../riscv-none-embed/lib/rv32imacxw/ilp32\libg_nano.a(lib_a-memset.o)
                0x000000000000054e                memset
 *(.text.*)
 .text.xCanOpenProcessTaskHandle
                0x00000000000005f6        0xa ./User/CanOpenNode.o
                0x00000000000005f6                xCanOpenProcessTaskHandle
 .text.xCanOpenPeriodicTaskHandle
                0x0000000000000600        0xa ./User/CanOpenNode.o
                0x0000000000000600                xCanOpenPeriodicTaskHandle
 .text.vCanOpenInit
                0x000000000000060a        0xa ./User/CanOpenNode.o
                0x000000000000060a                vCanOpenInit
 .text.vCanOpenProcess
                0x0000000000000614      0x192 ./User/CanOpenNode.o
                0x0000000000000614                vCanOpenProcess
 .text.vCanOpenPeriodicProcess
                0x00000000000007a6       0x82 ./User/CanOpenNode.o
                0x00000000000007a6                vCanOpenPeriodicProcess
 .text.setReg32
                0x0000000000000828       0x1a ./User/DataModel.o
                0x0000000000000828                setReg32
 .text.setReg16
                0x0000000000000842        0xe ./User/DataModel.o
                0x0000000000000842                setReg16
 .text.setReg   0x0000000000000850       0x32 ./User/DataModel.o
                0x0000000000000850                setReg
 .text.SaveReg16
                0x0000000000000882       0x14 ./User/DataModel.o
                0x0000000000000882                SaveReg16
 .text.getReg16
                0x0000000000000896       0x10 ./User/DataModel.o
                0x0000000000000896                getReg16
 .text.DataModel_Init
                0x00000000000008a6      0x474 ./User/DataModel.o
                0x00000000000008a6                DataModel_Init
 .text.getReg32
                0x0000000000000d1a       0x1c ./User/DataModel.o
                0x0000000000000d1a                getReg32
 .text.getReg8  0x0000000000000d36        0xa ./User/DataModel.o
                0x0000000000000d36                getReg8
 .text.WriteReg
                0x0000000000000d40       0x56 ./User/DataModel.o
                0x0000000000000d40                WriteReg
 .text.vGetBitrate
                0x0000000000000d96       0x2a ./User/DataModel.o
                0x0000000000000d96                vGetBitrate
 .text.vFDGetNMTState
                0x0000000000000dc0        0x6 ./User/DataModel.o
                0x0000000000000dc0                vFDGetNMTState
 .text.vGetNodeId
                0x0000000000000dc6        0x6 ./User/DataModel.o
                0x0000000000000dc6                vGetNodeId
 .text.vIncrementSystemCounters
                0x0000000000000dcc       0x68 ./User/DataModel.o
                0x0000000000000dcc                vIncrementSystemCounters
 .text.vSaveData
                0x0000000000000e34       0x2c ./User/DataModel.o
                0x0000000000000e34                vSaveData
 .text.getOdometr
                0x0000000000000e60       0x12 ./User/DataModel.o
                0x0000000000000e60                getOdometr
 .text.NMI_Handler
                0x0000000000000e72        0x2 ./User/ch32v20x_it.o
                0x0000000000000e72                NMI_Handler
 .text.HardFault_Handler
                0x0000000000000e74       0x66 ./User/ch32v20x_it.o
                0x0000000000000e74                HardFault_Handler
 .text.SegPrint.constprop.4
                0x0000000000000eda       0x56 ./User/dash_draw.o
 .text.xProcessTaskHandle
                0x0000000000000f30        0xa ./User/dash_draw.o
                0x0000000000000f30                xProcessTaskHandle
 .text.vSetErrorReg
                0x0000000000000f3a        0xa ./User/dash_draw.o
                0x0000000000000f3a                vSetErrorReg
 .text.getODValue
                0x0000000000000f44      0x120 ./User/dash_draw.o
                0x0000000000000f44                getODValue
 .text.getCurrErrorCode
                0x0000000000001064       0x42 ./User/dash_draw.o
                0x0000000000001064                getCurrErrorCode
 .text.IncMenuIndex
                0x00000000000010a6       0x6c ./User/dash_draw.o
                0x00000000000010a6                IncMenuIndex
 .text.GoToHome
                0x0000000000001112       0x12 ./User/dash_draw.o
                0x0000000000001112                GoToHome
 .text.SetCurMenuHome
                0x0000000000001124       0x16 ./User/dash_draw.o
                0x0000000000001124                SetCurMenuHome
 .text.GetCurMenuHome
                0x000000000000113a        0x6 ./User/dash_draw.o
                0x000000000000113a                GetCurMenuHome
 .text.SetCurrentMenu
                0x0000000000001140       0x12 ./User/dash_draw.o
                0x0000000000001140                SetCurrentMenu
 .text.SetDefault
                0x0000000000001152       0x28 ./User/dash_draw.o
                0x0000000000001152                SetDefault
 .text.MenuBackHomeCheck
                0x000000000000117a       0x38 ./User/dash_draw.o
                0x000000000000117a                MenuBackHomeCheck
 .text.CheckMenuChannel
                0x00000000000011b2       0x20 ./User/dash_draw.o
                0x00000000000011b2                CheckMenuChannel
 .text.vDashDrawInit
                0x00000000000011d2       0x70 ./User/dash_draw.o
                0x00000000000011d2                vDashDrawInit
 .text.SetErrorRegiter
                0x0000000000001242       0x58 ./User/dash_draw.o
                0x0000000000001242                SetErrorRegiter
 .text.uGetCurrMenu
                0x000000000000129a       0x26 ./User/dash_draw.o
                0x000000000000129a                uGetCurrMenu
 .text.vRGBOff  0x00000000000012c0       0x26 ./User/dash_draw.o
                0x00000000000012c0                vRGBOff
 .text.vGetEdgeData
                0x00000000000012e6       0x2a ./User/dash_draw.o
                0x00000000000012e6                vGetEdgeData
 .text.vRGBMode
                0x0000000000001310       0xbe ./User/dash_draw.o
                0x0000000000001310                vRGBMode
 .text.vBarColorMode
                0x00000000000013ce       0xc2 ./User/dash_draw.o
                0x00000000000013ce                vBarColorMode
 .text.vBarWindowMode
                0x0000000000001490       0x5a ./User/dash_draw.o
                0x0000000000001490                vBarWindowMode
 .text.vBarMode
                0x00000000000014ea       0x66 ./User/dash_draw.o
                0x00000000000014ea                vBarMode
 .text.RedrawNotifyTaskToInit
                0x0000000000001550       0x28 ./User/dash_draw.o
                0x0000000000001550                RedrawNotifyTaskToInit
 .text.vRedrawTask
                0x0000000000001578      0x5a8 ./User/dash_draw.o
                0x0000000000001578                vRedrawTask
 .text.vInit_DeviceConfig
                0x0000000000001b20      0x162 ./User/init.o
                0x0000000000001b20                vInit_DeviceConfig
 .text.ADC1_Event
                0x0000000000001c82       0x48 ./User/inputs.o
                0x0000000000001c82                ADC1_Event
 .text.CaptureCallBack
                0x0000000000001cca       0x30 ./User/inputs.o
                0x0000000000001cca                CaptureCallBack
 .text.fDinStateCallback
                0x0000000000001cfa       0x32 ./User/inputs.o
                0x0000000000001cfa                fDinStateCallback
 .text.vSetDoutState
                0x0000000000001d2c       0x28 ./User/inputs.o
                0x0000000000001d2c                vSetDoutState
 .text.getInputsTaskHandle
                0x0000000000001d54        0xa ./User/inputs.o
                0x0000000000001d54                getInputsTaskHandle
 .text.InputsNotifyTaskToInit
                0x0000000000001d5e       0x28 ./User/inputs.o
                0x0000000000001d5e                InputsNotifyTaskToInit
 .text.ADC1_Init
                0x0000000000001d86       0x54 ./User/inputs.o
                0x0000000000001d86                ADC1_Init
 .text.ADC_FSM  0x0000000000001dda       0xfe ./User/inputs.o
                0x0000000000001dda                ADC_FSM
 .text.GetAIN   0x0000000000001ed8        0xc ./User/inputs.o
                0x0000000000001ed8                GetAIN
 .text.vInputsTask
                0x0000000000001ee4      0x324 ./User/inputs.o
                0x0000000000001ee4                vInputsTask
 .text.SPI1_DMA_Callback
                0x0000000000002208       0x38 ./User/led.o
                0x0000000000002208                SPI1_DMA_Callback
 .text.SPI2_DMA_Callback
                0x0000000000002240       0x3e ./User/led.o
                0x0000000000002240                SPI2_DMA_Callback
 .text.SetBarState
                0x000000000000227e       0x50 ./User/led.o
                0x000000000000227e                SetBarState
 .text.SetRGB   0x00000000000022ce       0xa2 ./User/led.o
                0x00000000000022ce                SetRGB
 .text.SetSegDirect
                0x0000000000002370       0x9c ./User/led.o
                0x0000000000002370                SetSegDirect
 .text.SetSegPoint
                0x000000000000240c       0x22 ./User/led.o
                0x000000000000240c                SetSegPoint
 .text.SetSEG   0x000000000000242e      0x122 ./User/led.o
                0x000000000000242e                SetSEG
 .text.SetBigSeg
                0x0000000000002550       0x14 ./User/led.o
                0x0000000000002550                SetBigSeg
 .text.vSetBrigth
                0x0000000000002564       0x2a ./User/led.o
                0x0000000000002564                vSetBrigth
 .text.vLedDriverStart
                0x000000000000258e       0x62 ./User/led.o
                0x000000000000258e                vLedDriverStart
 .text.vLedProcess
                0x00000000000025f0       0x2c ./User/led.o
                0x00000000000025f0                vLedProcess
 .text.vRGBProcess
                0x000000000000261c      0x10e ./User/led.o
                0x000000000000261c                vRGBProcess
 .text.startup.main
                0x000000000000272a       0x4a ./User/main.o
                0x000000000000272a                main
 .text.vRestartNode
                0x0000000000002774        0x2 ./User/main.o
                0x0000000000002774                vRestartNode
 .text.Error_Handler
                0x0000000000002776        0x8 ./User/main.o
                0x0000000000002776                Error_Handler
 .text.OD_writeV1_7
                0x000000000000277e       0x34 ./User/process.o
 .text.OD_writeV8_14
                0x00000000000027b2       0x34 ./User/process.o
 .text.OD_writeRGBMAP
                0x00000000000027e6       0x40 ./User/process.o
 .text.OD_writeBitrate
                0x0000000000002826       0x32 ./User/process.o
 .text.OD_readAIN_RPM
                0x0000000000002858       0x24 ./User/process.o
 .text.OD_readDIN
                0x000000000000287c       0x1c ./User/process.o
 .text.OD_writeMenuSetup
                0x0000000000002898       0x56 ./User/process.o
 .text.CO_getUint16
                0x00000000000028ee       0x10 ./User/process.o
 .text.OD_writeV15_17
                0x00000000000028fe       0x38 ./User/process.o
 .text.OD_writeBAR
                0x0000000000002936       0x36 ./User/process.o
 .text.WriteRGB
                0x000000000000296c       0x40 ./User/process.o
 .text.OD_writeRGB1
                0x00000000000029ac       0x16 ./User/process.o
 .text.OD_writeRGB2
                0x00000000000029c2       0x18 ./User/process.o
 .text.OD_writeRGB3
                0x00000000000029da       0x18 ./User/process.o
 .text.OD_writeRGB4
                0x00000000000029f2       0x18 ./User/process.o
 .text.OD_writeRGB5
                0x0000000000002a0a       0x18 ./User/process.o
 .text.OD_writeRGB6
                0x0000000000002a22       0x18 ./User/process.o
 .text.OD_writeRGB7
                0x0000000000002a3a       0x18 ./User/process.o
 .text.OD_writeRGB8
                0x0000000000002a52       0x18 ./User/process.o
 .text.OD_writeRGB9
                0x0000000000002a6a       0x18 ./User/process.o
 .text.OD_writeRGB10
                0x0000000000002a82       0x18 ./User/process.o
 .text.OD_writeRGB11
                0x0000000000002a9a       0x18 ./User/process.o
 .text.OD_writeRGB12
                0x0000000000002ab2       0x18 ./User/process.o
 .text.OD_writeRGB13
                0x0000000000002aca       0x18 ./User/process.o
 .text.OD_writeSEG
                0x0000000000002ae2       0x48 ./User/process.o
 .text.CO_getUint32
                0x0000000000002b2a       0x18 ./User/process.o
 .text.OD_writeRPMConfig
                0x0000000000002b42       0x3a ./User/process.o
 .text.OD_writeMenuMap
                0x0000000000002b7c       0x36 ./User/process.o
 .text.OD_writeERROR_REG
                0x0000000000002bb2       0x2a ./User/process.o
 .text.OD_writeDashParam
                0x0000000000002bdc       0x4e ./User/process.o
 .text.OD_readDashParam
                0x0000000000002c2a       0x4a ./User/process.o
 .text.writeADC.isra.2
                0x0000000000002c74       0x7a ./User/process.o
 .text.OD_writeADC1
                0x0000000000002cee       0x2a ./User/process.o
 .text.OD_writeADC2
                0x0000000000002d18       0x2a ./User/process.o
 .text.OD_writeADC3
                0x0000000000002d42       0x2a ./User/process.o
 .text.OD_writeBrigth
                0x0000000000002d6c       0x6a ./User/process.o
 .text.OD_readMenuSetup
                0x0000000000002dd6       0x38 ./User/process.o
 .text.vProceesInit
                0x0000000000002e0e      0x238 ./User/process.o
                0x0000000000002e0e                vProceesInit
 .text.SystemInit
                0x0000000000003046       0xee ./User/system_ch32v20x.o
                0x0000000000003046                SystemInit
 .text.SystemCoreClockUpdate
                0x0000000000003134       0x92 ./User/system_ch32v20x.o
                0x0000000000003134                SystemCoreClockUpdate
 .text.StartDefaultTask
                0x00000000000031c6       0x86 ./User/system_init.o
 .text.vApplicationGetIdleTaskMemory
                0x000000000000324c       0x1c ./User/system_init.o
                0x000000000000324c                vApplicationGetIdleTaskMemory
 .text.vApplicationGetTimerTaskMemory
                0x0000000000003268       0x1c ./User/system_init.o
                0x0000000000003268                vApplicationGetTimerTaskMemory
 .text.vSYStaskInit
                0x0000000000003284      0x110 ./User/system_init.o
                0x0000000000003284                vSYStaskInit
 .text.vSYSqueueInit
                0x0000000000003394        0x2 ./User/system_init.o
                0x0000000000003394                vSYSqueueInit
 .text.vSYSeventInit
                0x0000000000003396        0x2 ./User/system_init.o
                0x0000000000003396                vSYSeventInit
 .text.vector_handler
                0x0000000000003398       0x6c ./Startup/startup_ch32v20x_D6.o
                0x000000000000339c                Ecall_M_Mode_Handler
                0x000000000000339e                Ecall_U_Mode_Handler
                0x00000000000033a0                Break_Point_Handler
                0x00000000000033a6                WWDG_IRQHandler
                0x00000000000033a8                PVD_IRQHandler
                0x00000000000033aa                TAMPER_IRQHandler
                0x00000000000033ae                FLASH_IRQHandler
                0x00000000000033b0                RCC_IRQHandler
                0x00000000000033b2                EXTI0_IRQHandler
                0x00000000000033b4                EXTI1_IRQHandler
                0x00000000000033b6                EXTI2_IRQHandler
                0x00000000000033b8                EXTI3_IRQHandler
                0x00000000000033ba                EXTI4_IRQHandler
                0x00000000000033be                DMA1_Channel2_IRQHandler
                0x00000000000033c6                DMA1_Channel6_IRQHandler
                0x00000000000033d4                EXTI9_5_IRQHandler
                0x00000000000033d6                TIM1_BRK_IRQHandler
                0x00000000000033da                TIM1_TRG_COM_IRQHandler
                0x00000000000033ec                SPI1_IRQHandler
                0x00000000000033ee                SPI2_IRQHandler
                0x00000000000033f0                USART1_IRQHandler
                0x00000000000033f2                USART2_IRQHandler
                0x00000000000033f4                USART3_IRQHandler
                0x00000000000033f6                EXTI15_10_IRQHandler
                0x00000000000033f8                RTCAlarm_IRQHandler
                0x00000000000033fa                USBWakeUp_IRQHandler
                0x00000000000033fc                USBHD_IRQHandler
                0x00000000000033fe                USBHDWakeUp_IRQHandler
                0x0000000000003400                UART4_IRQHandler
                0x0000000000003402                DMA1_Channel8_IRQHandler
 .text.handle_reset
                0x0000000000003404       0x92 ./Startup/startup_ch32v20x_D6.o
                0x0000000000003404                handle_reset
 .text.ADC_DeInit
                0x0000000000003496       0x46 ./Peripheral/src/ch32v20x_adc.o
                0x0000000000003496                ADC_DeInit
 .text.ADC_Init
                0x00000000000034dc       0x56 ./Peripheral/src/ch32v20x_adc.o
                0x00000000000034dc                ADC_Init
 .text.ADC_Cmd  0x0000000000003532       0x10 ./Peripheral/src/ch32v20x_adc.o
                0x0000000000003532                ADC_Cmd
 .text.ADC_DMACmd
                0x0000000000003542       0x12 ./Peripheral/src/ch32v20x_adc.o
                0x0000000000003542                ADC_DMACmd
 .text.ADC_ResetCalibration
                0x0000000000003554        0xa ./Peripheral/src/ch32v20x_adc.o
                0x0000000000003554                ADC_ResetCalibration
 .text.ADC_GetResetCalibrationStatus
                0x000000000000355e        0x8 ./Peripheral/src/ch32v20x_adc.o
                0x000000000000355e                ADC_GetResetCalibrationStatus
 .text.ADC_StartCalibration
                0x0000000000003566        0xa ./Peripheral/src/ch32v20x_adc.o
                0x0000000000003566                ADC_StartCalibration
 .text.ADC_GetCalibrationStatus
                0x0000000000003570        0x8 ./Peripheral/src/ch32v20x_adc.o
                0x0000000000003570                ADC_GetCalibrationStatus
 .text.ADC_SoftwareStartConvCmd
                0x0000000000003578       0x18 ./Peripheral/src/ch32v20x_adc.o
                0x0000000000003578                ADC_SoftwareStartConvCmd
 .text.ADC_RegularChannelConfig
                0x0000000000003590       0xb8 ./Peripheral/src/ch32v20x_adc.o
                0x0000000000003590                ADC_RegularChannelConfig
 .text.ADC_ExternalTrigConvCmd
                0x0000000000003648       0x18 ./Peripheral/src/ch32v20x_adc.o
                0x0000000000003648                ADC_ExternalTrigConvCmd
 .text.ADC_GetITStatus
                0x0000000000003660       0x1c ./Peripheral/src/ch32v20x_adc.o
                0x0000000000003660                ADC_GetITStatus
 .text.ADC_ClearITPendingBit
                0x000000000000367c        0xa ./Peripheral/src/ch32v20x_adc.o
                0x000000000000367c                ADC_ClearITPendingBit
 .text.ADC_BufferCmd
                0x0000000000003686       0x18 ./Peripheral/src/ch32v20x_adc.o
                0x0000000000003686                ADC_BufferCmd
 .text.Get_CalibrationValue
                0x000000000000369e      0x1fe ./Peripheral/src/ch32v20x_adc.o
                0x000000000000369e                Get_CalibrationValue
 .text.BKP_DeInit
                0x000000000000389c       0x14 ./Peripheral/src/ch32v20x_bkp.o
                0x000000000000389c                BKP_DeInit
 .text.CAN_Init
                0x00000000000038b0       0xe8 ./Peripheral/src/ch32v20x_can.o
                0x00000000000038b0                CAN_Init
 .text.CAN_FilterInit
                0x0000000000003998      0x118 ./Peripheral/src/ch32v20x_can.o
                0x0000000000003998                CAN_FilterInit
 .text.CAN_Transmit
                0x0000000000003ab0       0xbc ./Peripheral/src/ch32v20x_can.o
                0x0000000000003ab0                CAN_Transmit
 .text.CAN_Receive
                0x0000000000003b6c       0x8c ./Peripheral/src/ch32v20x_can.o
                0x0000000000003b6c                CAN_Receive
 .text.CAN_OperatingModeRequest
                0x0000000000003bf8       0x72 ./Peripheral/src/ch32v20x_can.o
                0x0000000000003bf8                CAN_OperatingModeRequest
 .text.CAN_ITConfig
                0x0000000000003c6a       0x12 ./Peripheral/src/ch32v20x_can.o
                0x0000000000003c6a                CAN_ITConfig
 .text.CAN_GetFlagStatus
                0x0000000000003c7c       0x56 ./Peripheral/src/ch32v20x_can.o
                0x0000000000003c7c                CAN_GetFlagStatus
 .text.CAN_ClearFlag
                0x0000000000003cd2       0x40 ./Peripheral/src/ch32v20x_can.o
                0x0000000000003cd2                CAN_ClearFlag
 .text.CAN_ClearITPendingBit
                0x0000000000003d12       0x94 ./Peripheral/src/ch32v20x_can.o
                0x0000000000003d12                CAN_ClearITPendingBit
 .text.DMA_Init
                0x0000000000003da6       0x38 ./Peripheral/src/ch32v20x_dma.o
                0x0000000000003da6                DMA_Init
 .text.DMA_Cmd  0x0000000000003dde       0x14 ./Peripheral/src/ch32v20x_dma.o
                0x0000000000003dde                DMA_Cmd
 .text.DMA_ITConfig
                0x0000000000003df2       0x12 ./Peripheral/src/ch32v20x_dma.o
                0x0000000000003df2                DMA_ITConfig
 .text.DMA_SetCurrDataCounter
                0x0000000000003e04        0x4 ./Peripheral/src/ch32v20x_dma.o
                0x0000000000003e04                DMA_SetCurrDataCounter
 .text.DMA_GetFlagStatus
                0x0000000000003e08        0xe ./Peripheral/src/ch32v20x_dma.o
                0x0000000000003e08                DMA_GetFlagStatus
 .text.DMA_GetITStatus
                0x0000000000003e16        0xc ./Peripheral/src/ch32v20x_dma.o
                0x0000000000003e16                DMA_GetITStatus
 .text.DMA_ClearITPendingBit
                0x0000000000003e22        0x8 ./Peripheral/src/ch32v20x_dma.o
                0x0000000000003e22                DMA_ClearITPendingBit
 .text.GPIO_Init
                0x0000000000003e2a       0xfa ./Peripheral/src/ch32v20x_gpio.o
                0x0000000000003e2a                GPIO_Init
 .text.GPIO_ReadInputDataBit
                0x0000000000003f24       0x1e ./Peripheral/src/ch32v20x_gpio.o
                0x0000000000003f24                GPIO_ReadInputDataBit
 .text.GPIO_SetBits
                0x0000000000003f42       0x18 ./Peripheral/src/ch32v20x_gpio.o
                0x0000000000003f42                GPIO_SetBits
 .text.GPIO_ResetBits
                0x0000000000003f5a       0x18 ./Peripheral/src/ch32v20x_gpio.o
                0x0000000000003f5a                GPIO_ResetBits
 .text.GPIO_PinRemapConfig
                0x0000000000003f72       0xf2 ./Peripheral/src/ch32v20x_gpio.o
                0x0000000000003f72                GPIO_PinRemapConfig
 .text.I2C_Init
                0x0000000000004064       0xf2 ./Peripheral/src/ch32v20x_i2c.o
                0x0000000000004064                I2C_Init
 .text.I2C_Cmd  0x0000000000004156       0x18 ./Peripheral/src/ch32v20x_i2c.o
                0x0000000000004156                I2C_Cmd
 .text.I2C_GenerateSTART
                0x000000000000416e       0x1a ./Peripheral/src/ch32v20x_i2c.o
                0x000000000000416e                I2C_GenerateSTART
 .text.I2C_GenerateSTOP
                0x0000000000004188       0x1a ./Peripheral/src/ch32v20x_i2c.o
                0x0000000000004188                I2C_GenerateSTOP
 .text.I2C_AcknowledgeConfig
                0x00000000000041a2       0x1a ./Peripheral/src/ch32v20x_i2c.o
                0x00000000000041a2                I2C_AcknowledgeConfig
 .text.I2C_DualAddressCmd
                0x00000000000041bc       0x18 ./Peripheral/src/ch32v20x_i2c.o
                0x00000000000041bc                I2C_DualAddressCmd
 .text.I2C_ITConfig
                0x00000000000041d4       0x12 ./Peripheral/src/ch32v20x_i2c.o
                0x00000000000041d4                I2C_ITConfig
 .text.I2C_SendData
                0x00000000000041e6        0x4 ./Peripheral/src/ch32v20x_i2c.o
                0x00000000000041e6                I2C_SendData
 .text.I2C_ReceiveData
                0x00000000000041ea        0x8 ./Peripheral/src/ch32v20x_i2c.o
                0x00000000000041ea                I2C_ReceiveData
 .text.I2C_Send7bitAddress
                0x00000000000041f2       0x12 ./Peripheral/src/ch32v20x_i2c.o
                0x00000000000041f2                I2C_Send7bitAddress
 .text.I2C_ReadRegister
                0x0000000000004204       0x14 ./Peripheral/src/ch32v20x_i2c.o
                0x0000000000004204                I2C_ReadRegister
 .text.I2C_GetFlagStatus
                0x0000000000004218       0x32 ./Peripheral/src/ch32v20x_i2c.o
                0x0000000000004218                I2C_GetFlagStatus
 .text.I2C_ClearFlag
                0x000000000000424a        0xc ./Peripheral/src/ch32v20x_i2c.o
                0x000000000000424a                I2C_ClearFlag
 .text.NVIC_PriorityGroupConfig
                0x0000000000004256        0xa ./Peripheral/src/ch32v20x_misc.o
                0x0000000000004256                NVIC_PriorityGroupConfig
 .text.NVIC_Init
                0x0000000000004260       0xaa ./Peripheral/src/ch32v20x_misc.o
                0x0000000000004260                NVIC_Init
 .text.PWR_BackupAccessCmd
                0x000000000000430a       0x16 ./Peripheral/src/ch32v20x_pwr.o
                0x000000000000430a                PWR_BackupAccessCmd
 .text.RCC_ADCCLKConfig
                0x0000000000004320       0x12 ./Peripheral/src/ch32v20x_rcc.o
                0x0000000000004320                RCC_ADCCLKConfig
 .text.RCC_LSEConfig
                0x0000000000004332       0x28 ./Peripheral/src/ch32v20x_rcc.o
                0x0000000000004332                RCC_LSEConfig
 .text.RCC_RTCCLKConfig
                0x000000000000435a        0xc ./Peripheral/src/ch32v20x_rcc.o
                0x000000000000435a                RCC_RTCCLKConfig
 .text.RCC_RTCCLKCmd
                0x0000000000004366       0x20 ./Peripheral/src/ch32v20x_rcc.o
                0x0000000000004366                RCC_RTCCLKCmd
 .text.RCC_GetClocksFreq
                0x0000000000004386       0xbe ./Peripheral/src/ch32v20x_rcc.o
                0x0000000000004386                RCC_GetClocksFreq
 .text.RCC_AHBPeriphClockCmd
                0x0000000000004444       0x1e ./Peripheral/src/ch32v20x_rcc.o
                0x0000000000004444                RCC_AHBPeriphClockCmd
 .text.RCC_APB2PeriphClockCmd
                0x0000000000004462       0x1e ./Peripheral/src/ch32v20x_rcc.o
                0x0000000000004462                RCC_APB2PeriphClockCmd
 .text.RCC_APB1PeriphClockCmd
                0x0000000000004480       0x1e ./Peripheral/src/ch32v20x_rcc.o
                0x0000000000004480                RCC_APB1PeriphClockCmd
 .text.RCC_APB2PeriphResetCmd
                0x000000000000449e       0x1e ./Peripheral/src/ch32v20x_rcc.o
                0x000000000000449e                RCC_APB2PeriphResetCmd
 .text.RCC_APB1PeriphResetCmd
                0x00000000000044bc       0x1e ./Peripheral/src/ch32v20x_rcc.o
                0x00000000000044bc                RCC_APB1PeriphResetCmd
 .text.RCC_BackupResetCmd
                0x00000000000044da       0x20 ./Peripheral/src/ch32v20x_rcc.o
                0x00000000000044da                RCC_BackupResetCmd
 .text.RCC_GetFlagStatus
                0x00000000000044fa       0x2e ./Peripheral/src/ch32v20x_rcc.o
                0x00000000000044fa                RCC_GetFlagStatus
 .text.RTC_ITConfig
                0x0000000000004528       0x1a ./Peripheral/src/ch32v20x_rtc.o
                0x0000000000004528                RTC_ITConfig
 .text.RTC_EnterConfigMode
                0x0000000000004542       0x12 ./Peripheral/src/ch32v20x_rtc.o
                0x0000000000004542                RTC_EnterConfigMode
 .text.RTC_ExitConfigMode
                0x0000000000004554       0x18 ./Peripheral/src/ch32v20x_rtc.o
                0x0000000000004554                RTC_ExitConfigMode
 .text.RTC_SetPrescaler
                0x000000000000456c       0x2e ./Peripheral/src/ch32v20x_rtc.o
                0x000000000000456c                RTC_SetPrescaler
 .text.RTC_WaitForLastTask
                0x000000000000459a       0x10 ./Peripheral/src/ch32v20x_rtc.o
                0x000000000000459a                RTC_WaitForLastTask
 .text.RTC_WaitForSynchro
                0x00000000000045aa       0x24 ./Peripheral/src/ch32v20x_rtc.o
                0x00000000000045aa                RTC_WaitForSynchro
 .text.RTC_ClearFlag
                0x00000000000045ce       0x14 ./Peripheral/src/ch32v20x_rtc.o
                0x00000000000045ce                RTC_ClearFlag
 .text.RTC_GetITStatus
                0x00000000000045e2       0x20 ./Peripheral/src/ch32v20x_rtc.o
                0x00000000000045e2                RTC_GetITStatus
 .text.RTC_ClearITPendingBit
                0x0000000000004602        0xc ./Peripheral/src/ch32v20x_rtc.o
                0x0000000000004602                RTC_ClearITPendingBit
 .text.SPI_I2S_DeInit
                0x000000000000460e       0x3e ./Peripheral/src/ch32v20x_spi.o
                0x000000000000460e                SPI_I2S_DeInit
 .text.SPI_Init
                0x000000000000464c       0x3e ./Peripheral/src/ch32v20x_spi.o
                0x000000000000464c                SPI_Init
 .text.SPI_Cmd  0x000000000000468a       0x1a ./Peripheral/src/ch32v20x_spi.o
                0x000000000000468a                SPI_Cmd
 .text.SPI_I2S_DMACmd
                0x00000000000046a4       0x12 ./Peripheral/src/ch32v20x_spi.o
                0x00000000000046a4                SPI_I2S_DMACmd
 .text.SPI_I2S_GetFlagStatus
                0x00000000000046b6        0xa ./Peripheral/src/ch32v20x_spi.o
                0x00000000000046b6                SPI_I2S_GetFlagStatus
 .text.SPI_I2S_ClearFlag
                0x00000000000046c0        0xc ./Peripheral/src/ch32v20x_spi.o
                0x00000000000046c0                SPI_I2S_ClearFlag
 .text.TI1_Config
                0x00000000000046cc       0x6a ./Peripheral/src/ch32v20x_tim.o
 .text.TI2_Config
                0x0000000000004736       0x82 ./Peripheral/src/ch32v20x_tim.o
 .text.TIM_DeInit
                0x00000000000047b8       0x8a ./Peripheral/src/ch32v20x_tim.o
                0x00000000000047b8                TIM_DeInit
 .text.TIM_TimeBaseInit
                0x0000000000004842       0x6a ./Peripheral/src/ch32v20x_tim.o
                0x0000000000004842                TIM_TimeBaseInit
 .text.TIM_OC1Init
                0x00000000000048ac       0x6a ./Peripheral/src/ch32v20x_tim.o
                0x00000000000048ac                TIM_OC1Init
 .text.TIM_OC2Init
                0x0000000000004916       0x96 ./Peripheral/src/ch32v20x_tim.o
                0x0000000000004916                TIM_OC2Init
 .text.TIM_OC3Init
                0x00000000000049ac       0x94 ./Peripheral/src/ch32v20x_tim.o
                0x00000000000049ac                TIM_OC3Init
 .text.TIM_OC4Init
                0x0000000000004a40       0x6c ./Peripheral/src/ch32v20x_tim.o
                0x0000000000004a40                TIM_OC4Init
 .text.TIM_TimeBaseStructInit
                0x0000000000004aac       0x16 ./Peripheral/src/ch32v20x_tim.o
                0x0000000000004aac                TIM_TimeBaseStructInit
 .text.TIM_Cmd  0x0000000000004ac2       0x18 ./Peripheral/src/ch32v20x_tim.o
                0x0000000000004ac2                TIM_Cmd
 .text.TIM_CtrlPWMOutputs
                0x0000000000004ada       0x16 ./Peripheral/src/ch32v20x_tim.o
                0x0000000000004ada                TIM_CtrlPWMOutputs
 .text.TIM_ITConfig
                0x0000000000004af0       0x12 ./Peripheral/src/ch32v20x_tim.o
                0x0000000000004af0                TIM_ITConfig
 .text.TIM_DMACmd
                0x0000000000004b02        0xc ./Peripheral/src/ch32v20x_tim.o
                0x0000000000004b02                TIM_DMACmd
 .text.TIM_InternalClockConfig
                0x0000000000004b0e       0x10 ./Peripheral/src/ch32v20x_tim.o
                0x0000000000004b0e                TIM_InternalClockConfig
 .text.TIM_ARRPreloadConfig
                0x0000000000004b1e       0x1a ./Peripheral/src/ch32v20x_tim.o
                0x0000000000004b1e                TIM_ARRPreloadConfig
 .text.TIM_OC1PreloadConfig
                0x0000000000004b38        0xe ./Peripheral/src/ch32v20x_tim.o
                0x0000000000004b38                TIM_OC1PreloadConfig
 .text.TIM_OC2PreloadConfig
                0x0000000000004b46       0x16 ./Peripheral/src/ch32v20x_tim.o
                0x0000000000004b46                TIM_OC2PreloadConfig
 .text.TIM_OC3PreloadConfig
                0x0000000000004b5c        0xe ./Peripheral/src/ch32v20x_tim.o
                0x0000000000004b5c                TIM_OC3PreloadConfig
 .text.TIM_OC4PreloadConfig
                0x0000000000004b6a       0x16 ./Peripheral/src/ch32v20x_tim.o
                0x0000000000004b6a                TIM_OC4PreloadConfig
 .text.TIM_SetIC1Prescaler
                0x0000000000004b80       0x16 ./Peripheral/src/ch32v20x_tim.o
                0x0000000000004b80                TIM_SetIC1Prescaler
 .text.TIM_SetIC2Prescaler
                0x0000000000004b96       0x1a ./Peripheral/src/ch32v20x_tim.o
                0x0000000000004b96                TIM_SetIC2Prescaler
 .text.TIM_SetIC3Prescaler
                0x0000000000004bb0       0x16 ./Peripheral/src/ch32v20x_tim.o
                0x0000000000004bb0                TIM_SetIC3Prescaler
 .text.TIM_SetIC4Prescaler
                0x0000000000004bc6       0x1a ./Peripheral/src/ch32v20x_tim.o
                0x0000000000004bc6                TIM_SetIC4Prescaler
 .text.TIM_ICInit
                0x0000000000004be0      0x168 ./Peripheral/src/ch32v20x_tim.o
                0x0000000000004be0                TIM_ICInit
 .text.TIM_GetCapture3
                0x0000000000004d48        0x4 ./Peripheral/src/ch32v20x_tim.o
                0x0000000000004d48                TIM_GetCapture3
 .text.TIM_GetCapture4
                0x0000000000004d4c        0x6 ./Peripheral/src/ch32v20x_tim.o
                0x0000000000004d4c                TIM_GetCapture4
 .text.TIM_GetFlagStatus
                0x0000000000004d52        0xa ./Peripheral/src/ch32v20x_tim.o
                0x0000000000004d52                TIM_GetFlagStatus
 .text.TIM_ClearFlag
                0x0000000000004d5c        0xc ./Peripheral/src/ch32v20x_tim.o
                0x0000000000004d5c                TIM_ClearFlag
 .text.TIM_GetITStatus
                0x0000000000004d68       0x18 ./Peripheral/src/ch32v20x_tim.o
                0x0000000000004d68                TIM_GetITStatus
 .text.TIM_ClearITPendingBit
                0x0000000000004d80        0xc ./Peripheral/src/ch32v20x_tim.o
                0x0000000000004d80                TIM_ClearITPendingBit
 .text.USART_Init
                0x0000000000004d8c       0xbc ./Peripheral/src/ch32v20x_usart.o
                0x0000000000004d8c                USART_Init
 .text.USART_Cmd
                0x0000000000004e48       0x16 ./Peripheral/src/ch32v20x_usart.o
                0x0000000000004e48                USART_Cmd
 .text.USART_SendData
                0x0000000000004e5e        0x8 ./Peripheral/src/ch32v20x_usart.o
                0x0000000000004e5e                USART_SendData
 .text.USART_GetFlagStatus
                0x0000000000004e66        0xa ./Peripheral/src/ch32v20x_usart.o
                0x0000000000004e66                USART_GetFlagStatus
 .text.vAINInit
                0x0000000000004e70       0x36 ./HWLIB/hw_lib_adc.o
                0x0000000000004e70                vAINInit
 .text.fGetAinCalData
                0x0000000000004ea6       0xb2 ./HWLIB/hw_lib_adc.o
                0x0000000000004ea6                fGetAinCalData
 .text.eAinCalDataConfig
                0x0000000000004f58       0x48 ./HWLIB/hw_lib_adc.o
                0x0000000000004f58                eAinCalDataConfig
 .text.vABLineKoofFinde
                0x0000000000004fa0       0x6a ./HWLIB/hw_lib_adc.o
                0x0000000000004fa0                vABLineKoofFinde
 .text.eSetAinCalPoint
                0x000000000000500a       0x64 ./HWLIB/hw_lib_adc.o
                0x000000000000500a                eSetAinCalPoint
 .text.getADC1Buffer
                0x000000000000506e        0xa ./HWLIB/hw_lib_adc.o
                0x000000000000506e                getADC1Buffer
 .text.eDOUTConfigWtihStruct
                0x0000000000005078       0x1a ./HWLIB/hw_lib_din.o
                0x0000000000005078                eDOUTConfigWtihStruct
 .text.eSetDUT  0x0000000000005092       0x12 ./HWLIB/hw_lib_din.o
                0x0000000000005092                eSetDUT
 .text.eDinConfigWtihStruct
                0x00000000000050a4       0x32 ./HWLIB/hw_lib_din.o
                0x00000000000050a4                eDinConfigWtihStruct
 .text.uGetDIN  0x00000000000050d6       0x14 ./HWLIB/hw_lib_din.o
                0x00000000000050d6                uGetDIN
 .text.xGetDIN  0x00000000000050ea       0x24 ./HWLIB/hw_lib_din.o
                0x00000000000050ea                xGetDIN
 .text.eRPMConfig
                0x000000000000510e       0x5a ./HWLIB/hw_lib_din.o
                0x000000000000510e                eRPMConfig
 .text.RMPDataConvert
                0x0000000000005168       0x78 ./HWLIB/hw_lib_din.o
                0x0000000000005168                RMPDataConvert
 .text.getCaputreBuffer
                0x00000000000051e0       0x16 ./HWLIB/hw_lib_din.o
                0x00000000000051e0                getCaputreBuffer
 .text.GetRPM   0x00000000000051f6       0x74 ./HWLIB/hw_lib_din.o
                0x00000000000051f6                GetRPM
 .text.xGetRPM  0x000000000000526a       0x72 ./HWLIB/hw_lib_din.o
                0x000000000000526a                xGetRPM
 .text.vDinDoutProcess
                0x00000000000052dc       0x98 ./HWLIB/hw_lib_din.o
                0x00000000000052dc                vDinDoutProcess
 .text.vInitEEPROM
                0x0000000000005374       0x18 ./HWLIB/hw_lib_eeprom.o
                0x0000000000005374                vInitEEPROM
 .text.xGetEEPROM
                0x000000000000538c        0xa ./HWLIB/hw_lib_eeprom.o
                0x000000000000538c                xGetEEPROM
 .text.eEEPROMWr
                0x0000000000005396       0xb0 ./HWLIB/hw_lib_eeprom.o
                0x0000000000005396                eEEPROMWr
 .text.eEEPROMRd
                0x0000000000005446       0x34 ./HWLIB/hw_lib_eeprom.o
                0x0000000000005446                eEEPROMRd
 .text.bReadEEPROM
                0x000000000000547a       0x1a ./HWLIB/hw_lib_eeprom.o
                0x000000000000547a                bReadEEPROM
 .text.Get_ConversionVal
                0x0000000000005494       0x2e ./HAL/hal_adc.o
                0x0000000000005494                Get_ConversionVal
 .text.HAL_ADC_CommonConfig
                0x00000000000054c2        0xe ./HAL/hal_adc.o
                0x00000000000054c2                HAL_ADC_CommonConfig
 .text.HAL_ADC_ContiniusScanCinvertionDMA
                0x00000000000054d0       0xda ./HAL/hal_adc.o
                0x00000000000054d0                HAL_ADC_ContiniusScanCinvertionDMA
 .text.ADC1_2_IRQHandler
                0x00000000000055aa       0x74 ./HAL/hal_adc.o
                0x00000000000055aa                ADC1_2_IRQHandler
 .text.HAL_CANSetTXCallback
                0x000000000000561e        0xa ./HAL/hal_can.o
                0x000000000000561e                HAL_CANSetTXCallback
 .text.HAL_CANSetRXCallback
                0x0000000000005628        0xa ./HAL/hal_can.o
                0x0000000000005628                HAL_CANSetRXCallback
 .text.HAL_CANSetERRCallback
                0x0000000000005632        0xa ./HAL/hal_can.o
                0x0000000000005632                HAL_CANSetERRCallback
 .text.HAL_CANIntIT
                0x000000000000563c      0x124 ./HAL/hal_can.o
                0x000000000000563c                HAL_CANIntIT
 .text.HAL_CANToInitMode
                0x0000000000005760       0x16 ./HAL/hal_can.o
                0x0000000000005760                HAL_CANToInitMode
 .text.HAL_CANToOperatingMode
                0x0000000000005776       0x16 ./HAL/hal_can.o
                0x0000000000005776                HAL_CANToOperatingMode
 .text.HAL_CANSend
                0x000000000000578c       0x50 ./HAL/hal_can.o
                0x000000000000578c                HAL_CANSend
 .text.HAL_CANSetFiters
                0x00000000000057dc       0x3a ./HAL/hal_can.o
                0x00000000000057dc                HAL_CANSetFiters
 .text.HAL_CANGetRXMessage
                0x0000000000005816       0x52 ./HAL/hal_can.o
                0x0000000000005816                HAL_CANGetRXMessage
 .text.USB_HP_CAN1_TX_IRQHandler
                0x0000000000005868       0xd6 ./HAL/hal_can.o
                0x0000000000005868                USB_HP_CAN1_TX_IRQHandler
 .text.USB_LP_CAN1_RX0_IRQHandler
                0x000000000000593e       0x62 ./HAL/hal_can.o
                0x000000000000593e                USB_LP_CAN1_RX0_IRQHandler
 .text.CAN1_RX1_IRQHandler
                0x00000000000059a0       0x64 ./HAL/hal_can.o
                0x00000000000059a0                CAN1_RX1_IRQHandler
 .text.CAN1_SCE_IRQHandler
                0x0000000000005a04       0x62 ./HAL/hal_can.o
                0x0000000000005a04                CAN1_SCE_IRQHandler
 .text.HAL_DMA_Enable
                0x0000000000005a66        0xe ./HAL/hal_dma.o
                0x0000000000005a66                HAL_DMA_Enable
 .text.HAL_DMA_Disable
                0x0000000000005a74        0xe ./HAL/hal_dma.o
                0x0000000000005a74                HAL_DMA_Disable
 .text.HAL_DMA_SetCounter
                0x0000000000005a82       0x10 ./HAL/hal_dma.o
                0x0000000000005a82                HAL_DMA_SetCounter
 .text.HAL_DMAInitIT
                0x0000000000005a92      0x172 ./HAL/hal_dma.o
                0x0000000000005a92                HAL_DMAInitIT
 .text.HAL_ADC_StartDMA
                0x0000000000005c04       0x64 ./HAL/hal_dma.o
                0x0000000000005c04                HAL_ADC_StartDMA
 .text.DMA1_Channel1_IRQHandler
                0x0000000000005c68       0x64 ./HAL/hal_dma.o
                0x0000000000005c68                DMA1_Channel1_IRQHandler
 .text.DMA1_Channel3_IRQHandler
                0x0000000000005ccc       0x68 ./HAL/hal_dma.o
                0x0000000000005ccc                DMA1_Channel3_IRQHandler
 .text.DMA1_Channel5_IRQHandler
                0x0000000000005d34       0x66 ./HAL/hal_dma.o
                0x0000000000005d34                DMA1_Channel5_IRQHandler
 .text.DMA1_Channel4_IRQHandler
                0x0000000000005d9a       0x64 ./HAL/hal_dma.o
                0x0000000000005d9a                DMA1_Channel4_IRQHandler
 .text.DMA1_Channel7_IRQHandler
                0x0000000000005dfe       0x68 ./HAL/hal_dma.o
                0x0000000000005dfe                DMA1_Channel7_IRQHandler
 .text.HAL_InitGpioLib
                0x0000000000005e66       0x12 ./HAL/hal_gpio.o
                0x0000000000005e66                HAL_InitGpioLib
 .text.HAL_InitGpioRCC
                0x0000000000005e78       0xb6 ./HAL/hal_gpio.o
                0x0000000000005e78                HAL_InitGpioRCC
 .text.HAL_InitGpioOut
                0x0000000000005f2e       0x28 ./HAL/hal_gpio.o
                0x0000000000005f2e                HAL_InitGpioOut
 .text.HAL_InitGpioAIN
                0x0000000000005f56       0x26 ./HAL/hal_gpio.o
                0x0000000000005f56                HAL_InitGpioAIN
 .text.HAL_InitGpioIn
                0x0000000000005f7c       0x28 ./HAL/hal_gpio.o
                0x0000000000005f7c                HAL_InitGpioIn
 .text.HAL_InitGpioAF
                0x0000000000005fa4       0x3c ./HAL/hal_gpio.o
                0x0000000000005fa4                HAL_InitGpioAF
 .text.HAL_GetBit
                0x0000000000005fe0        0xc ./HAL/hal_gpio.o
                0x0000000000005fe0                HAL_GetBit
 .text.HAL_SetBit
                0x0000000000005fec        0xc ./HAL/hal_gpio.o
                0x0000000000005fec                HAL_SetBit
 .text.HAL_ResetBit
                0x0000000000005ff8        0xc ./HAL/hal_gpio.o
                0x0000000000005ff8                HAL_ResetBit
 .text.I2C_Master_TransmitIT
                0x0000000000006004       0xa4 ./HAL/hal_i2c.o
 .text.I2C_Master_ReviceIT
                0x00000000000060a8       0xb8 ./HAL/hal_i2c.o
 .text.I2C_FSM  0x0000000000006160      0x1d6 ./HAL/hal_i2c.o
 .text.InitI2CDMA
                0x0000000000006336      0x118 ./HAL/hal_i2c.o
                0x0000000000006336                InitI2CDMA
 .text.I2C1_EV_IRQHandler
                0x000000000000644e       0x4c ./HAL/hal_i2c.o
                0x000000000000644e                I2C1_EV_IRQHandler
 .text.I2C1_ER_IRQHandler
                0x000000000000649a       0x4c ./HAL/hal_i2c.o
                0x000000000000649a                I2C1_ER_IRQHandler
 .text.I2C2_EV_IRQHandler
                0x00000000000064e6       0x4c ./HAL/hal_i2c.o
                0x00000000000064e6                I2C2_EV_IRQHandler
 .text.I2C2_ER_IRQHandler
                0x0000000000006532       0x4c ./HAL/hal_i2c.o
                0x0000000000006532                I2C2_ER_IRQHandler
 .text.HAL_RTC_IT_Init
                0x000000000000657e       0xb0 ./HAL/hal_rtc.o
                0x000000000000657e                HAL_RTC_IT_Init
 .text.RTC_IRQHandler
                0x000000000000662e       0x64 ./HAL/hal_rtc.o
                0x000000000000662e                RTC_IRQHandler
 .text.HAL_SPI_InitDMA
                0x0000000000006692       0x96 ./HAL/hal_spi.o
                0x0000000000006692                HAL_SPI_InitDMA
 .text.HAL_SPI_RXOveleyClear
                0x0000000000006728       0x10 ./HAL/hal_spi.o
                0x0000000000006728                HAL_SPI_RXOveleyClear
 .text.HAL_SPI_GetBusy
                0x0000000000006738       0x16 ./HAL/hal_spi.o
                0x0000000000006738                HAL_SPI_GetBusy
 .text.vTimerInitRCC
                0x000000000000674e       0x48 ./HAL/hal_timers.o
 .text.TIM1_CC_IRQHandler
                0x0000000000006796       0xea ./HAL/hal_timers.o
                0x0000000000006796                TIM1_CC_IRQHandler
 .text.TIM1_UP_IRQHandler
                0x0000000000006880       0x74 ./HAL/hal_timers.o
                0x0000000000006880                TIM1_UP_IRQHandler
 .text.TIM4_IRQHandler
                0x00000000000068f4       0x74 ./HAL/hal_timers.o
                0x00000000000068f4                TIM4_IRQHandler
 .text.TIM3_IRQHandler
                0x0000000000006968       0x74 ./HAL/hal_timers.o
                0x0000000000006968                TIM3_IRQHandler
 .text.TIM2_IRQHandler
                0x00000000000069dc       0x6c ./HAL/hal_timers.o
                0x00000000000069dc                TIM2_IRQHandler
 .text.HAL_TiemrEneblae
                0x0000000000006a48       0x1c ./HAL/hal_timers.o
                0x0000000000006a48                HAL_TiemrEneblae
 .text.HW_TIMER_BaseTimerInit
                0x0000000000006a64       0x60 ./HAL/hal_timers.o
                0x0000000000006a64                HW_TIMER_BaseTimerInit
 .text.HAL_TIMER_InitIt
                0x0000000000006ac4       0xa4 ./HAL/hal_timers.o
                0x0000000000006ac4                HAL_TIMER_InitIt
 .text.HAL_TIMER_PWMTimersInit
                0x0000000000006b68       0xec ./HAL/hal_timers.o
                0x0000000000006b68                HAL_TIMER_PWMTimersInit
 .text.HAL_TimeInitCaptureIT
                0x0000000000006c54      0x142 ./HAL/hal_timers.o
                0x0000000000006c54                HAL_TimeInitCaptureIT
 .text.HAL_TimeInitCaptureDMA
                0x0000000000006d96      0x114 ./HAL/hal_timers.o
                0x0000000000006d96                HAL_TimeInitCaptureDMA
 .text.HAL_TIMER_DisablePWMCH
                0x0000000000006eaa       0x1c ./HAL/hal_timers.o
                0x0000000000006eaa                HAL_TIMER_DisablePWMCH
 .text.HAL_TIMER_SetPWMPulse
                0x0000000000006ec6       0x80 ./HAL/hal_timers.o
                0x0000000000006ec6                HAL_TIMER_SetPWMPulse
 .text.HAL_TIMER_EnablePWMCH
                0x0000000000006f46       0x1c ./HAL/hal_timers.o
                0x0000000000006f46                HAL_TIMER_EnablePWMCH
 .text.HAL_WDTReset
                0x0000000000006f62        0x2 ./HAL/hal_wdt.o
                0x0000000000006f62                HAL_WDTReset
 .text.prvInsertBlockIntoFreeList
                0x0000000000006f64       0x4c ./FreeRTOS/portable/MemMang/heap_4.o
 .text.pvPortMalloc
                0x0000000000006fb0      0x18a ./FreeRTOS/portable/MemMang/heap_4.o
                0x0000000000006fb0                pvPortMalloc
 .text.vPortFree
                0x000000000000713a       0xa8 ./FreeRTOS/portable/MemMang/heap_4.o
                0x000000000000713a                vPortFree
 .text.vPortSetupTimerInterrupt
                0x00000000000071e2       0x3e ./FreeRTOS/portable/GCC/RISC-V/port.o
                0x00000000000071e2                vPortSetupTimerInterrupt
 .text.xPortStartScheduler
                0x0000000000007220       0x90 ./FreeRTOS/portable/GCC/RISC-V/port.o
                0x0000000000007220                xPortStartScheduler
 .text.SysTick_Handler
                0x00000000000072b0       0x7c ./FreeRTOS/portable/GCC/RISC-V/port.o
                0x00000000000072b0                SysTick_Handler
 .text.vPortEnterCritical
                0x000000000000732c       0x16 ./FreeRTOS/portable/GCC/RISC-V/port.o
                0x000000000000732c                vPortEnterCritical
 .text.vPortExitCritical
                0x0000000000007342       0x42 ./FreeRTOS/portable/GCC/RISC-V/port.o
                0x0000000000007342                vPortExitCritical
 .text.xPortSetInterruptMask
                0x0000000000007384        0xc ./FreeRTOS/portable/GCC/RISC-V/port.o
                0x0000000000007384                xPortSetInterruptMask
 .text.vPortClearInterruptMask
                0x0000000000007390        0x6 ./FreeRTOS/portable/GCC/RISC-V/port.o
                0x0000000000007390                vPortClearInterruptMask
 .text.vListInitialise
                0x0000000000007396       0x14 ./FreeRTOS/list.o
                0x0000000000007396                vListInitialise
 .text.vListInitialiseItem
                0x00000000000073aa        0x6 ./FreeRTOS/list.o
                0x00000000000073aa                vListInitialiseItem
 .text.vListInsertEnd
                0x00000000000073b0       0x18 ./FreeRTOS/list.o
                0x00000000000073b0                vListInsertEnd
 .text.vListInsert
                0x00000000000073c8       0x2e ./FreeRTOS/list.o
                0x00000000000073c8                vListInsert
 .text.uxListRemove
                0x00000000000073f6       0x20 ./FreeRTOS/list.o
                0x00000000000073f6                uxListRemove
 .text.prvIsQueueEmpty
                0x0000000000007416       0x1e ./FreeRTOS/queue.o
 .text.prvCopyDataToQueue
                0x0000000000007434       0x72 ./FreeRTOS/queue.o
 .text.prvCopyDataFromQueue
                0x00000000000074a6       0x28 ./FreeRTOS/queue.o
 .text.prvUnlockQueue
                0x00000000000074ce       0x76 ./FreeRTOS/queue.o
 .text.xQueueGenericReset
                0x0000000000007544       0xc4 ./FreeRTOS/queue.o
                0x0000000000007544                xQueueGenericReset
 .text.xQueueGenericCreateStatic
                0x0000000000007608       0xae ./FreeRTOS/queue.o
                0x0000000000007608                xQueueGenericCreateStatic
 .text.xQueueGenericCreate
                0x00000000000076b6       0x72 ./FreeRTOS/queue.o
                0x00000000000076b6                xQueueGenericCreate
 .text.xQueueGenericSend
                0x0000000000007728      0x1a8 ./FreeRTOS/queue.o
                0x0000000000007728                xQueueGenericSend
 .text.xQueueGiveMutexRecursive
                0x00000000000078d0       0x56 ./FreeRTOS/queue.o
                0x00000000000078d0                xQueueGiveMutexRecursive
 .text.xQueueCreateMutex
                0x0000000000007926       0x2e ./FreeRTOS/queue.o
                0x0000000000007926                xQueueCreateMutex
 .text.xQueueReceive
                0x0000000000007954      0x166 ./FreeRTOS/queue.o
                0x0000000000007954                xQueueReceive
 .text.xQueueSemaphoreTake
                0x0000000000007aba      0x1be ./FreeRTOS/queue.o
                0x0000000000007aba                xQueueSemaphoreTake
 .text.xQueueTakeMutexRecursive
                0x0000000000007c78       0x5a ./FreeRTOS/queue.o
                0x0000000000007c78                xQueueTakeMutexRecursive
 .text.vQueueAddToRegistry
                0x0000000000007cd2       0x6c ./FreeRTOS/queue.o
                0x0000000000007cd2                vQueueAddToRegistry
 .text.vQueueWaitForMessageRestricted
                0x0000000000007d3e       0x5c ./FreeRTOS/queue.o
                0x0000000000007d3e                vQueueWaitForMessageRestricted
 .text.prvIdleTask
                0x0000000000007d9a        0x2 ./FreeRTOS/tasks.o
 .text.prvAddNewTaskToReadyList
                0x0000000000007d9c      0x10a ./FreeRTOS/tasks.o
 .text.prvResetNextTaskUnblockTime
                0x0000000000007ea6       0x20 ./FreeRTOS/tasks.o
 .text.prvTaskIsTaskSuspended
                0x0000000000007ec6       0x50 ./FreeRTOS/tasks.o
 .text.prvInitialiseNewTask.isra.2
                0x0000000000007f16       0xc8 ./FreeRTOS/tasks.o
 .text.prvAddCurrentTaskToDelayedList
                0x0000000000007fde       0xa4 ./FreeRTOS/tasks.o
 .text.xTaskCreateStatic
                0x0000000000008082       0xa6 ./FreeRTOS/tasks.o
                0x0000000000008082                xTaskCreateStatic
 .text.vTaskResume
                0x0000000000008128       0xa6 ./FreeRTOS/tasks.o
                0x0000000000008128                vTaskResume
 .text.vTaskStartScheduler
                0x00000000000081ce       0x90 ./FreeRTOS/tasks.o
                0x00000000000081ce                vTaskStartScheduler
 .text.vTaskSuspendAll
                0x000000000000825e       0x10 ./FreeRTOS/tasks.o
                0x000000000000825e                vTaskSuspendAll
 .text.xTaskGetTickCount
                0x000000000000826e        0x6 ./FreeRTOS/tasks.o
                0x000000000000826e                xTaskGetTickCount
 .text.xTaskIncrementTick
                0x0000000000008274      0x194 ./FreeRTOS/tasks.o
                0x0000000000008274                xTaskIncrementTick
 .text.xTaskResumeAll
                0x0000000000008408      0x154 ./FreeRTOS/tasks.o
                0x0000000000008408                xTaskResumeAll
 .text.vTaskDelay
                0x000000000000855c       0x66 ./FreeRTOS/tasks.o
                0x000000000000855c                vTaskDelay
 .text.vTaskSwitchContext
                0x00000000000085c2       0x92 ./FreeRTOS/tasks.o
                0x00000000000085c2                vTaskSwitchContext
 .text.vTaskSuspend
                0x0000000000008654       0xea ./FreeRTOS/tasks.o
                0x0000000000008654                vTaskSuspend
 .text.vTaskPlaceOnEventList
                0x000000000000873e       0x48 ./FreeRTOS/tasks.o
                0x000000000000873e                vTaskPlaceOnEventList
 .text.vTaskPlaceOnEventListRestricted
                0x0000000000008786       0x76 ./FreeRTOS/tasks.o
                0x0000000000008786                vTaskPlaceOnEventListRestricted
 .text.xTaskRemoveFromEventList
                0x00000000000087fc       0xe4 ./FreeRTOS/tasks.o
                0x00000000000087fc                xTaskRemoveFromEventList
 .text.vTaskInternalSetTimeOutState
                0x00000000000088e0        0xe ./FreeRTOS/tasks.o
                0x00000000000088e0                vTaskInternalSetTimeOutState
 .text.xTaskCheckForTimeOut
                0x00000000000088ee       0xaa ./FreeRTOS/tasks.o
                0x00000000000088ee                xTaskCheckForTimeOut
 .text.vTaskMissedYield
                0x0000000000008998        0x8 ./FreeRTOS/tasks.o
                0x0000000000008998                vTaskMissedYield
 .text.xTaskGetCurrentTaskHandle
                0x00000000000089a0        0xa ./FreeRTOS/tasks.o
                0x00000000000089a0                xTaskGetCurrentTaskHandle
 .text.xTaskGetSchedulerState
                0x00000000000089aa       0x18 ./FreeRTOS/tasks.o
                0x00000000000089aa                xTaskGetSchedulerState
 .text.xTaskPriorityInherit
                0x00000000000089c2       0xaa ./FreeRTOS/tasks.o
                0x00000000000089c2                xTaskPriorityInherit
 .text.xTaskPriorityDisinherit
                0x0000000000008a6c       0xc6 ./FreeRTOS/tasks.o
                0x0000000000008a6c                xTaskPriorityDisinherit
 .text.vTaskPriorityDisinheritAfterTimeout
                0x0000000000008b32       0xe2 ./FreeRTOS/tasks.o
                0x0000000000008b32                vTaskPriorityDisinheritAfterTimeout
 .text.pvTaskIncrementMutexHeldCount
                0x0000000000008c14       0x1c ./FreeRTOS/tasks.o
                0x0000000000008c14                pvTaskIncrementMutexHeldCount
 .text.ulTaskGenericNotifyTake
                0x0000000000008c30       0xb8 ./FreeRTOS/tasks.o
                0x0000000000008c30                ulTaskGenericNotifyTake
 .text.xTaskGenericNotifyWait
                0x0000000000008ce8       0xe6 ./FreeRTOS/tasks.o
                0x0000000000008ce8                xTaskGenericNotifyWait
 .text.xTaskGenericNotify
                0x0000000000008dce      0x1ac ./FreeRTOS/tasks.o
                0x0000000000008dce                xTaskGenericNotify
 .text.xTaskGenericNotifyFromISR
                0x0000000000008f7a      0x1e8 ./FreeRTOS/tasks.o
                0x0000000000008f7a                xTaskGenericNotifyFromISR
 .text.ulTaskGenericNotifyValueClear
                0x0000000000009162       0x3e ./FreeRTOS/tasks.o
                0x0000000000009162                ulTaskGenericNotifyValueClear
 .text.prvCheckForValidListAndQueue
                0x00000000000091a0       0x6a ./FreeRTOS/timers.o
 .text.prvInsertTimerInActiveList
                0x000000000000920a       0x3e ./FreeRTOS/timers.o
 .text.prvReloadTimer
                0x0000000000009248       0x2a ./FreeRTOS/timers.o
 .text.prvProcessExpiredTimer
                0x0000000000009272       0x42 ./FreeRTOS/timers.o
 .text.prvSwitchTimerLists
                0x00000000000092b4       0x28 ./FreeRTOS/timers.o
 .text.prvTimerTask
                0x00000000000092dc      0x188 ./FreeRTOS/timers.o
 .text.xTimerCreateTimerTask
                0x0000000000009464       0x6e ./FreeRTOS/timers.o
                0x0000000000009464                xTimerCreateTimerTask
 .text.vRCFilter
                0x00000000000094d2       0x30 ./Drivers/filters.o
                0x00000000000094d2                vRCFilter
 .text.vInitABFilter
                0x0000000000009502       0x22 ./Drivers/filters.o
                0x0000000000009502                vInitABFilter
 .text.vInitRunAverga
                0x0000000000009524        0x8 ./Drivers/filters.o
                0x0000000000009524                vInitRunAverga
 .text.vInitMedianFilter
                0x000000000000952c       0x12 ./Drivers/filters.o
                0x000000000000952c                vInitMedianFilter
 .text.MedianFilter
                0x000000000000953e       0x6e ./Drivers/filters.o
                0x000000000000953e                MedianFilter
 .text.Delay_Init
                0x00000000000095ac       0x2a ./Debug/debug.o
                0x00000000000095ac                Delay_Init
 .text.Delay_Ms
                0x00000000000095d6       0x36 ./Debug/debug.o
                0x00000000000095d6                Delay_Ms
 .text.USART_Printf_Init
                0x000000000000960c       0x5a ./Debug/debug.o
                0x000000000000960c                USART_Printf_Init
 .text._write   0x0000000000009666       0x3e ./Debug/debug.o
                0x0000000000009666                _write
 .text._sbrk    0x00000000000096a4       0x2a ./Debug/debug.o
                0x00000000000096a4                _sbrk
 .text.__get_MEPC
                0x00000000000096ce        0x6 ./Core/core_riscv.o
                0x00000000000096ce                __get_MEPC
 .text.__get_MCAUSE
                0x00000000000096d4        0x6 ./Core/core_riscv.o
                0x00000000000096d4                __get_MCAUSE
 .text.__get_MTVAL
                0x00000000000096da        0x6 ./Core/core_riscv.o
                0x00000000000096da                __get_MTVAL
 .text.prv_read_can_received_msg
                0x00000000000096e0       0x50 ./CANopenNode/keypad/CO_driver_ST32F103.o
                0x00000000000096e0                prv_read_can_received_msg
 .text.prv_send_can_message.isra.0
                0x0000000000009730       0x2c ./CANopenNode/keypad/CO_driver_ST32F103.o
 .text.CAN_SendMessage
                0x000000000000975c       0x66 ./CANopenNode/keypad/CO_driver_ST32F103.o
                0x000000000000975c                CAN_SendMessage
 .text.co_drv_create_os_objects
                0x00000000000097c2       0x30 ./CANopenNode/keypad/CO_driver_ST32F103.o
                0x00000000000097c2                co_drv_create_os_objects
 .text.co_drv_mutex_lock
                0x00000000000097f2       0x18 ./CANopenNode/keypad/CO_driver_ST32F103.o
                0x00000000000097f2                co_drv_mutex_lock
 .text.co_drv_mutex_unlock
                0x000000000000980a       0x16 ./CANopenNode/keypad/CO_driver_ST32F103.o
                0x000000000000980a                co_drv_mutex_unlock
 .text.CO_CANsetConfigurationMode
                0x0000000000009820       0x10 ./CANopenNode/keypad/CO_driver_ST32F103.o
                0x0000000000009820                CO_CANsetConfigurationMode
 .text.CO_CANsetNormalMode
                0x0000000000009830       0x1c ./CANopenNode/keypad/CO_driver_ST32F103.o
                0x0000000000009830                CO_CANsetNormalMode
 .text.CO_CANmodule_init
                0x000000000000984c      0x110 ./CANopenNode/keypad/CO_driver_ST32F103.o
                0x000000000000984c                CO_CANmodule_init
 .text.CO_CANmodule_disable
                0x000000000000995c       0x14 ./CANopenNode/keypad/CO_driver_ST32F103.o
                0x000000000000995c                CO_CANmodule_disable
 .text.CO_CANrxBufferInit
                0x0000000000009970       0x52 ./CANopenNode/keypad/CO_driver_ST32F103.o
                0x0000000000009970                CO_CANrxBufferInit
 .text.CO_CANtxBufferInit
                0x00000000000099c2       0x3a ./CANopenNode/keypad/CO_driver_ST32F103.o
                0x00000000000099c2                CO_CANtxBufferInit
 .text.CO_CANmodule_process
                0x00000000000099fc       0x12 ./CANopenNode/keypad/CO_driver_ST32F103.o
                0x00000000000099fc                CO_CANmodule_process
 .text.CO_CANsend
                0x0000000000009a0e       0x46 ./CANopenNode/keypad/CO_driver_ST32F103.o
                0x0000000000009a0e                CO_CANsend
 .text.CO_LSSslave_receive
                0x0000000000009a54      0x1a8 ./CANopenNode/305/CO_LSSslave.o
 .text.CO_LSSslave_init
                0x0000000000009bfc       0xa4 ./CANopenNode/305/CO_LSSslave.o
                0x0000000000009bfc                CO_LSSslave_init
 .text.CO_LSSslave_process
                0x0000000000009ca0      0x1a2 ./CANopenNode/305/CO_LSSslave.o
                0x0000000000009ca0                CO_LSSslave_process
 .text.OD_write_1003
                0x0000000000009e42       0x28 ./CANopenNode/301/CO_Emergency.o
 .text.OD_read_1003
                0x0000000000009e6a       0x8c ./CANopenNode/301/CO_Emergency.o
 .text.OD_read_1014_default
                0x0000000000009ef6       0x50 ./CANopenNode/301/CO_Emergency.o
 .text.CO_EM_init
                0x0000000000009f46      0x112 ./CANopenNode/301/CO_Emergency.o
                0x0000000000009f46                CO_EM_init
 .text.CO_error
                0x000000000000a058       0xc4 ./CANopenNode/301/CO_Emergency.o
                0x000000000000a058                CO_error
 .text.CO_EM_process
                0x000000000000a11c      0x17e ./CANopenNode/301/CO_Emergency.o
                0x000000000000a11c                CO_EM_process
 .text.CO_NMT_receive
                0x000000000000a29a       0x18 ./CANopenNode/301/CO_NMT_Heartbeat.o
 .text.OD_write_1017
                0x000000000000a2b2       0x48 ./CANopenNode/301/CO_NMT_Heartbeat.o
 .text.CO_NMT_init
                0x000000000000a2fa       0xec ./CANopenNode/301/CO_NMT_Heartbeat.o
                0x000000000000a2fa                CO_NMT_init
 .text.CO_NMT_process
                0x000000000000a3e6      0x106 ./CANopenNode/301/CO_NMT_Heartbeat.o
                0x000000000000a3e6                CO_NMT_process
 .text.OD_readDisabled
                0x000000000000a4ec        0x4 ./CANopenNode/301/CO_ODinterface.o
 .text.OD_readOriginal
                0x000000000000a4f0       0x50 ./CANopenNode/301/CO_ODinterface.o
                0x000000000000a4f0                OD_readOriginal
 .text.OD_writeOriginal
                0x000000000000a540       0x54 ./CANopenNode/301/CO_ODinterface.o
                0x000000000000a540                OD_writeOriginal
 .text.OD_writeDisabled
                0x000000000000a594        0x4 ./CANopenNode/301/CO_ODinterface.o
 .text.OD_find  0x000000000000a598       0x70 ./CANopenNode/301/CO_ODinterface.o
                0x000000000000a598                OD_find
 .text.OD_getSub
                0x000000000000a608       0xf2 ./CANopenNode/301/CO_ODinterface.o
                0x000000000000a608                OD_getSub
 .text.OD_getSDOabCode
                0x000000000000a6fa       0x20 ./CANopenNode/301/CO_ODinterface.o
                0x000000000000a6fa                OD_getSDOabCode
 .text.OD_get_value
                0x000000000000a71a       0x34 ./CANopenNode/301/CO_ODinterface.o
                0x000000000000a71a                OD_get_value
 .text.OD_set_value
                0x000000000000a74e       0x2e ./CANopenNode/301/CO_ODinterface.o
                0x000000000000a74e                OD_set_value
 .text.OD_getPtr
                0x000000000000a77c       0x3c ./CANopenNode/301/CO_ODinterface.o
                0x000000000000a77c                OD_getPtr
 .text.OD_write_dummy
                0x000000000000a7b8        0x8 ./CANopenNode/301/CO_PDO.o
 .text.OD_read_dummy
                0x000000000000a7c0       0x2e ./CANopenNode/301/CO_PDO.o
 .text.PDOconfigMap
                0x000000000000a7ee       0xfc ./CANopenNode/301/CO_PDO.o
 .text.CO_PDO_receive
                0x000000000000a8ea       0x48 ./CANopenNode/301/CO_PDO.o
 .text.OD_read_PDO_commParam
                0x000000000000a932       0x70 ./CANopenNode/301/CO_PDO.o
 .text.PDO_initMapping.constprop.3
                0x000000000000a9a2       0xe4 ./CANopenNode/301/CO_PDO.o
 .text.OD_write_PDO_mapping
                0x000000000000aa86       0xb2 ./CANopenNode/301/CO_PDO.o
 .text.OD_write_18xx
                0x000000000000ab38      0x184 ./CANopenNode/301/CO_PDO.o
 .text.OD_write_14xx
                0x000000000000acbc      0x15a ./CANopenNode/301/CO_PDO.o
 .text.CO_RPDO_init
                0x000000000000ae16      0x172 ./CANopenNode/301/CO_PDO.o
                0x000000000000ae16                CO_RPDO_init
 .text.CO_RPDO_process
                0x000000000000af88      0x114 ./CANopenNode/301/CO_PDO.o
                0x000000000000af88                CO_RPDO_process
 .text.CO_TPDO_init
                0x000000000000b09c      0x1d2 ./CANopenNode/301/CO_PDO.o
                0x000000000000b09c                CO_TPDO_init
 .text.CO_TPDO_process
                0x000000000000b26e      0x15e ./CANopenNode/301/CO_PDO.o
                0x000000000000b26e                CO_TPDO_process
 .text.CO_SDOserver_init_canRxTx
                0x000000000000b3cc       0x82 ./CANopenNode/301/CO_SDOserver.o
 .text.CO_SDO_receive
                0x000000000000b44e       0x38 ./CANopenNode/301/CO_SDOserver.o
 .text.readFromOd.isra.1.constprop.5
                0x000000000000b486       0xf6 ./CANopenNode/301/CO_SDOserver.o
 .text.OD_write_1201_additional
                0x000000000000b57c      0x158 ./CANopenNode/301/CO_SDOserver.o
 .text.CO_SDOserver_init
                0x000000000000b6d4      0x172 ./CANopenNode/301/CO_SDOserver.o
                0x000000000000b6d4                CO_SDOserver_init
 .text.CO_SDOserver_process
                0x000000000000b846      0x60e ./CANopenNode/301/CO_SDOserver.o
                0x000000000000b846                CO_SDOserver_process
 .text.CO_delete
                0x000000000000be54       0x56 ./CANopenNode/CANopen.o
                0x000000000000be54                CO_delete
 .text.CO_new   0x000000000000beaa      0x102 ./CANopenNode/CANopen.o
                0x000000000000beaa                CO_new
 .text.CO_CANinit
                0x000000000000bfac       0x36 ./CANopenNode/CANopen.o
                0x000000000000bfac                CO_CANinit
 .text.CO_LSSinit
                0x000000000000bfe2       0x32 ./CANopenNode/CANopen.o
                0x000000000000bfe2                CO_LSSinit
 .text.CO_CANopenInit
                0x000000000000c014       0xb8 ./CANopenNode/CANopen.o
                0x000000000000c014                CO_CANopenInit
 .text.CO_CANopenInitPDO
                0x000000000000c0cc       0xea ./CANopenNode/CANopen.o
                0x000000000000c0cc                CO_CANopenInitPDO
 .text.CO_process
                0x000000000000c1b6       0x7e ./CANopenNode/CANopen.o
                0x000000000000c1b6                CO_process
 .text.CO_process_RPDO
                0x000000000000c234       0x40 ./CANopenNode/CANopen.o
                0x000000000000c234                CO_process_RPDO
 .text.CO_process_TPDO
                0x000000000000c274       0x40 ./CANopenNode/CANopen.o
                0x000000000000c274                CO_process_TPDO
 .text.__addsf3
                0x000000000000c2b4      0x36a c:/mounriver/mounriver_studio/toolchain/risc-v embedded gcc/bin/../lib/gcc/riscv-none-embed/8.2.0/rv32imacxw/ilp32\libgcc.a(addsf3.o)
                0x000000000000c2b4                __addsf3
 .text.__divsf3
                0x000000000000c61e      0x2b2 c:/mounriver/mounriver_studio/toolchain/risc-v embedded gcc/bin/../lib/gcc/riscv-none-embed/8.2.0/rv32imacxw/ilp32\libgcc.a(divsf3.o)
                0x000000000000c61e                __divsf3
 .text.__gesf2  0x000000000000c8d0       0x86 c:/mounriver/mounriver_studio/toolchain/risc-v embedded gcc/bin/../lib/gcc/riscv-none-embed/8.2.0/rv32imacxw/ilp32\libgcc.a(gesf2.o)
                0x000000000000c8d0                __gesf2
                0x000000000000c8d0                __gtsf2
 .text.__lesf2  0x000000000000c956       0x8c c:/mounriver/mounriver_studio/toolchain/risc-v embedded gcc/bin/../lib/gcc/riscv-none-embed/8.2.0/rv32imacxw/ilp32\libgcc.a(lesf2.o)
                0x000000000000c956                __ltsf2
                0x000000000000c956                __lesf2
 .text.__mulsf3
                0x000000000000c9e2      0x290 c:/mounriver/mounriver_studio/toolchain/risc-v embedded gcc/bin/../lib/gcc/riscv-none-embed/8.2.0/rv32imacxw/ilp32\libgcc.a(mulsf3.o)
                0x000000000000c9e2                __mulsf3
 .text.__subsf3
                0x000000000000cc72      0x388 c:/mounriver/mounriver_studio/toolchain/risc-v embedded gcc/bin/../lib/gcc/riscv-none-embed/8.2.0/rv32imacxw/ilp32\libgcc.a(subsf3.o)
                0x000000000000cc72                __subsf3
 .text.__fixsfsi
                0x000000000000cffa       0x62 c:/mounriver/mounriver_studio/toolchain/risc-v embedded gcc/bin/../lib/gcc/riscv-none-embed/8.2.0/rv32imacxw/ilp32\libgcc.a(fixsfsi.o)
                0x000000000000cffa                __fixsfsi
 .text.__fixunssfsi
                0x000000000000d05c       0x56 c:/mounriver/mounriver_studio/toolchain/risc-v embedded gcc/bin/../lib/gcc/riscv-none-embed/8.2.0/rv32imacxw/ilp32\libgcc.a(fixunssfsi.o)
                0x000000000000d05c                __fixunssfsi
 .text.__floatsisf
                0x000000000000d0b2       0xc6 c:/mounriver/mounriver_studio/toolchain/risc-v embedded gcc/bin/../lib/gcc/riscv-none-embed/8.2.0/rv32imacxw/ilp32\libgcc.a(floatsisf.o)
                0x000000000000d0b2                __floatsisf
 .text.__floatunsisf
                0x000000000000d178       0xce c:/mounriver/mounriver_studio/toolchain/risc-v embedded gcc/bin/../lib/gcc/riscv-none-embed/8.2.0/rv32imacxw/ilp32\libgcc.a(floatunsisf.o)
                0x000000000000d178                __floatunsisf
 .text.__clzsi2
                0x000000000000d246       0x6e c:/mounriver/mounriver_studio/toolchain/risc-v embedded gcc/bin/../lib/gcc/riscv-none-embed/8.2.0/rv32imacxw/ilp32\libgcc.a(_clzsi2.o)
                0x000000000000d246                __clzsi2
 .text.calloc   0x000000000000d2b4        0xc c:/mounriver/mounriver_studio/toolchain/risc-v embedded gcc/bin/../lib/gcc/riscv-none-embed/8.2.0/../../../../riscv-none-embed/lib/rv32imacxw/ilp32\libg_nano.a(lib_a-calloc.o)
                0x000000000000d2b4                calloc
 .text.free     0x000000000000d2c0        0xa c:/mounriver/mounriver_studio/toolchain/risc-v embedded gcc/bin/../lib/gcc/riscv-none-embed/8.2.0/../../../../riscv-none-embed/lib/rv32imacxw/ilp32\libg_nano.a(lib_a-malloc.o)
                0x000000000000d2c0                free
 .text.memcpy   0x000000000000d2ca       0xb2 c:/mounriver/mounriver_studio/toolchain/risc-v embedded gcc/bin/../lib/gcc/riscv-none-embed/8.2.0/../../../../riscv-none-embed/lib/rv32imacxw/ilp32\libg_nano.a(lib_a-memcpy.o)
                0x000000000000d2ca                memcpy
 .text.memmove  0x000000000000d37c       0x46 c:/mounriver/mounriver_studio/toolchain/risc-v embedded gcc/bin/../lib/gcc/riscv-none-embed/8.2.0/../../../../riscv-none-embed/lib/rv32imacxw/ilp32\libg_nano.a(lib_a-memmove.o)
                0x000000000000d37c                memmove
 .text._calloc_r
                0x000000000000d3c2       0x26 c:/mounriver/mounriver_studio/toolchain/risc-v embedded gcc/bin/../lib/gcc/riscv-none-embed/8.2.0/../../../../riscv-none-embed/lib/rv32imacxw/ilp32\libg_nano.a(lib_a-nano-callocr.o)
                0x000000000000d3c2                _calloc_r
 .text._free_r  0x000000000000d3e8       0xa8 c:/mounriver/mounriver_studio/toolchain/risc-v embedded gcc/bin/../lib/gcc/riscv-none-embed/8.2.0/../../../../riscv-none-embed/lib/rv32imacxw/ilp32\libg_nano.a(lib_a-nano-freer.o)
                0x000000000000d3e8                _free_r
 .text._malloc_r
                0x000000000000d490       0xd4 c:/mounriver/mounriver_studio/toolchain/risc-v embedded gcc/bin/../lib/gcc/riscv-none-embed/8.2.0/../../../../riscv-none-embed/lib/rv32imacxw/ilp32\libg_nano.a(lib_a-nano-mallocr.o)
                0x000000000000d490                _malloc_r
 .text.printf   0x000000000000d564       0x40 c:/mounriver/mounriver_studio/toolchain/risc-v embedded gcc/bin/../lib/gcc/riscv-none-embed/8.2.0/../../../../riscv-none-embed/lib/rv32imacxw/ilp32\libg_nano.a(lib_a-printf.o)
                0x000000000000d564                iprintf
                0x000000000000d564                printf
 .text._puts_r  0x000000000000d5a4       0xd4 c:/mounriver/mounriver_studio/toolchain/risc-v embedded gcc/bin/../lib/gcc/riscv-none-embed/8.2.0/../../../../riscv-none-embed/lib/rv32imacxw/ilp32\libg_nano.a(lib_a-puts.o)
                0x000000000000d5a4                _puts_r
 .text.puts     0x000000000000d678        0xc c:/mounriver/mounriver_studio/toolchain/risc-v embedded gcc/bin/../lib/gcc/riscv-none-embed/8.2.0/../../../../riscv-none-embed/lib/rv32imacxw/ilp32\libg_nano.a(lib_a-puts.o)
                0x000000000000d678                puts
 .text._sbrk_r  0x000000000000d684       0x32 c:/mounriver/mounriver_studio/toolchain/risc-v embedded gcc/bin/../lib/gcc/riscv-none-embed/8.2.0/../../../../riscv-none-embed/lib/rv32imacxw/ilp32\libg_nano.a(lib_a-sbrkr.o)
                0x000000000000d684                _sbrk_r
 .text.strlen   0x000000000000d6b6       0x12 c:/mounriver/mounriver_studio/toolchain/risc-v embedded gcc/bin/../lib/gcc/riscv-none-embed/8.2.0/../../../../riscv-none-embed/lib/rv32imacxw/ilp32\libg_nano.a(lib_a-strlen.o)
                0x000000000000d6b6                strlen
 .text.__swbuf_r
                0x000000000000d6c8       0xbc c:/mounriver/mounriver_studio/toolchain/risc-v embedded gcc/bin/../lib/gcc/riscv-none-embed/8.2.0/../../../../riscv-none-embed/lib/rv32imacxw/ilp32\libg_nano.a(lib_a-wbuf.o)
                0x000000000000d6c8                __swbuf_r
 .text.__swsetup_r
                0x000000000000d784       0xfe c:/mounriver/mounriver_studio/toolchain/risc-v embedded gcc/bin/../lib/gcc/riscv-none-embed/8.2.0/../../../../riscv-none-embed/lib/rv32imacxw/ilp32\libg_nano.a(lib_a-wsetup.o)
                0x000000000000d784                __swsetup_r
 .text.__sflush_r
                0x000000000000d882      0x132 c:/mounriver/mounriver_studio/toolchain/risc-v embedded gcc/bin/../lib/gcc/riscv-none-embed/8.2.0/../../../../riscv-none-embed/lib/rv32imacxw/ilp32\libg_nano.a(lib_a-fflush.o)
                0x000000000000d882                __sflush_r
 .text._fflush_r
                0x000000000000d9b4       0x66 c:/mounriver/mounriver_studio/toolchain/risc-v embedded gcc/bin/../lib/gcc/riscv-none-embed/8.2.0/../../../../riscv-none-embed/lib/rv32imacxw/ilp32\libg_nano.a(lib_a-fflush.o)
                0x000000000000d9b4                _fflush_r
 .text.std      0x000000000000da1a       0x66 c:/mounriver/mounriver_studio/toolchain/risc-v embedded gcc/bin/../lib/gcc/riscv-none-embed/8.2.0/../../../../riscv-none-embed/lib/rv32imacxw/ilp32\libg_nano.a(lib_a-findfp.o)
 .text._cleanup_r
                0x000000000000da80        0xa c:/mounriver/mounriver_studio/toolchain/risc-v embedded gcc/bin/../lib/gcc/riscv-none-embed/8.2.0/../../../../riscv-none-embed/lib/rv32imacxw/ilp32\libg_nano.a(lib_a-findfp.o)
                0x000000000000da80                _cleanup_r
 .text.__sfmoreglue
                0x000000000000da8a       0x48 c:/mounriver/mounriver_studio/toolchain/risc-v embedded gcc/bin/../lib/gcc/riscv-none-embed/8.2.0/../../../../riscv-none-embed/lib/rv32imacxw/ilp32\libg_nano.a(lib_a-findfp.o)
                0x000000000000da8a                __sfmoreglue
 .text.__sinit  0x000000000000dad2       0x6c c:/mounriver/mounriver_studio/toolchain/risc-v embedded gcc/bin/../lib/gcc/riscv-none-embed/8.2.0/../../../../riscv-none-embed/lib/rv32imacxw/ilp32\libg_nano.a(lib_a-findfp.o)
                0x000000000000dad2                __sinit
 .text.__sfp    0x000000000000db3e       0xa0 c:/mounriver/mounriver_studio/toolchain/risc-v embedded gcc/bin/../lib/gcc/riscv-none-embed/8.2.0/../../../../riscv-none-embed/lib/rv32imacxw/ilp32\libg_nano.a(lib_a-findfp.o)
                0x000000000000db3e                __sfp
 .text._fwalk_reent
                0x000000000000dbde       0x6a c:/mounriver/mounriver_studio/toolchain/risc-v embedded gcc/bin/../lib/gcc/riscv-none-embed/8.2.0/../../../../riscv-none-embed/lib/rv32imacxw/ilp32\libg_nano.a(lib_a-fwalk.o)
                0x000000000000dbde                _fwalk_reent
 .text.__swhatbuf_r
                0x000000000000dc48       0x58 c:/mounriver/mounriver_studio/toolchain/risc-v embedded gcc/bin/../lib/gcc/riscv-none-embed/8.2.0/../../../../riscv-none-embed/lib/rv32imacxw/ilp32\libg_nano.a(lib_a-makebuf.o)
                0x000000000000dc48                __swhatbuf_r
 .text.__smakebuf_r
                0x000000000000dca0       0x94 c:/mounriver/mounriver_studio/toolchain/risc-v embedded gcc/bin/../lib/gcc/riscv-none-embed/8.2.0/../../../../riscv-none-embed/lib/rv32imacxw/ilp32\libg_nano.a(lib_a-makebuf.o)
                0x000000000000dca0                __smakebuf_r
 .text.__malloc_lock
                0x000000000000dd34        0x2 c:/mounriver/mounriver_studio/toolchain/risc-v embedded gcc/bin/../lib/gcc/riscv-none-embed/8.2.0/../../../../riscv-none-embed/lib/rv32imacxw/ilp32\libg_nano.a(lib_a-mlock.o)
                0x000000000000dd34                __malloc_lock
 .text.__malloc_unlock
                0x000000000000dd36        0x2 c:/mounriver/mounriver_studio/toolchain/risc-v embedded gcc/bin/../lib/gcc/riscv-none-embed/8.2.0/../../../../riscv-none-embed/lib/rv32imacxw/ilp32\libg_nano.a(lib_a-mlock.o)
                0x000000000000dd36                __malloc_unlock
 .text.__sfputc_r
                0x000000000000dd38       0x28 c:/mounriver/mounriver_studio/toolchain/risc-v embedded gcc/bin/../lib/gcc/riscv-none-embed/8.2.0/../../../../riscv-none-embed/lib/rv32imacxw/ilp32\libg_nano.a(lib_a-nano-vfprintf.o)
 .text.__sfputs_r
                0x000000000000dd60       0x42 c:/mounriver/mounriver_studio/toolchain/risc-v embedded gcc/bin/../lib/gcc/riscv-none-embed/8.2.0/../../../../riscv-none-embed/lib/rv32imacxw/ilp32\libg_nano.a(lib_a-nano-vfprintf.o)
                0x000000000000dd60                __sfputs_r
 .text._vfprintf_r
                0x000000000000dda2      0x288 c:/mounriver/mounriver_studio/toolchain/risc-v embedded gcc/bin/../lib/gcc/riscv-none-embed/8.2.0/../../../../riscv-none-embed/lib/rv32imacxw/ilp32\libg_nano.a(lib_a-nano-vfprintf.o)
                0x000000000000dda2                _vfprintf_r
                0x000000000000dda2                _vfiprintf_r
 .text._printf_common
                0x000000000000e02a      0x10c c:/mounriver/mounriver_studio/toolchain/risc-v embedded gcc/bin/../lib/gcc/riscv-none-embed/8.2.0/../../../../riscv-none-embed/lib/rv32imacxw/ilp32\libg_nano.a(lib_a-nano-vfprintf_i.o)
                0x000000000000e02a                _printf_common
 .text._printf_i
                0x000000000000e136      0x2a2 c:/mounriver/mounriver_studio/toolchain/risc-v embedded gcc/bin/../lib/gcc/riscv-none-embed/8.2.0/../../../../riscv-none-embed/lib/rv32imacxw/ilp32\libg_nano.a(lib_a-nano-vfprintf_i.o)
                0x000000000000e136                _printf_i
 .text.__sread  0x000000000000e3d8       0x2c c:/mounriver/mounriver_studio/toolchain/risc-v embedded gcc/bin/../lib/gcc/riscv-none-embed/8.2.0/../../../../riscv-none-embed/lib/rv32imacxw/ilp32\libg_nano.a(lib_a-stdio.o)
                0x000000000000e3d8                __sread
 .text.__swrite
                0x000000000000e404       0x48 c:/mounriver/mounriver_studio/toolchain/risc-v embedded gcc/bin/../lib/gcc/riscv-none-embed/8.2.0/../../../../riscv-none-embed/lib/rv32imacxw/ilp32\libg_nano.a(lib_a-stdio.o)
                0x000000000000e404                __swrite
 .text.__sseek  0x000000000000e44c       0x30 c:/mounriver/mounriver_studio/toolchain/risc-v embedded gcc/bin/../lib/gcc/riscv-none-embed/8.2.0/../../../../riscv-none-embed/lib/rv32imacxw/ilp32\libg_nano.a(lib_a-stdio.o)
                0x000000000000e44c                __sseek
 .text.__sclose
                0x000000000000e47c        0x6 c:/mounriver/mounriver_studio/toolchain/risc-v embedded gcc/bin/../lib/gcc/riscv-none-embed/8.2.0/../../../../riscv-none-embed/lib/rv32imacxw/ilp32\libg_nano.a(lib_a-stdio.o)
                0x000000000000e47c                __sclose
 .text._write_r
                0x000000000000e482       0x36 c:/mounriver/mounriver_studio/toolchain/risc-v embedded gcc/bin/../lib/gcc/riscv-none-embed/8.2.0/../../../../riscv-none-embed/lib/rv32imacxw/ilp32\libg_nano.a(lib_a-writer.o)
                0x000000000000e482                _write_r
 .text._close_r
                0x000000000000e4b8       0x30 c:/mounriver/mounriver_studio/toolchain/risc-v embedded gcc/bin/../lib/gcc/riscv-none-embed/8.2.0/../../../../riscv-none-embed/lib/rv32imacxw/ilp32\libg_nano.a(lib_a-closer.o)
                0x000000000000e4b8                _close_r
 .text._fstat_r
                0x000000000000e4e8       0x32 c:/mounriver/mounriver_studio/toolchain/risc-v embedded gcc/bin/../lib/gcc/riscv-none-embed/8.2.0/../../../../riscv-none-embed/lib/rv32imacxw/ilp32\libg_nano.a(lib_a-fstatr.o)
                0x000000000000e4e8                _fstat_r
 .text._isatty_r
                0x000000000000e51a       0x30 c:/mounriver/mounriver_studio/toolchain/risc-v embedded gcc/bin/../lib/gcc/riscv-none-embed/8.2.0/../../../../riscv-none-embed/lib/rv32imacxw/ilp32\libg_nano.a(lib_a-isattyr.o)
                0x000000000000e51a                _isatty_r
 .text._lseek_r
                0x000000000000e54a       0x34 c:/mounriver/mounriver_studio/toolchain/risc-v embedded gcc/bin/../lib/gcc/riscv-none-embed/8.2.0/../../../../riscv-none-embed/lib/rv32imacxw/ilp32\libg_nano.a(lib_a-lseekr.o)
                0x000000000000e54a                _lseek_r
 .text.memchr   0x000000000000e57e       0x18 c:/mounriver/mounriver_studio/toolchain/risc-v embedded gcc/bin/../lib/gcc/riscv-none-embed/8.2.0/../../../../riscv-none-embed/lib/rv32imacxw/ilp32\libg_nano.a(lib_a-memchr.o)
                0x000000000000e57e                memchr
 .text._read_r  0x000000000000e596       0x34 c:/mounriver/mounriver_studio/toolchain/risc-v embedded gcc/bin/../lib/gcc/riscv-none-embed/8.2.0/../../../../riscv-none-embed/lib/rv32imacxw/ilp32\libg_nano.a(lib_a-readr.o)
                0x000000000000e596                _read_r
 .text._close   0x000000000000e5ca       0x10 c:/mounriver/mounriver_studio/toolchain/risc-v embedded gcc/bin/../lib/gcc/riscv-none-embed/8.2.0/../../../../riscv-none-embed/lib/rv32imacxw/ilp32\libnosys.a(close.o)
                0x000000000000e5ca                _close
 .text._fstat   0x000000000000e5da       0x10 c:/mounriver/mounriver_studio/toolchain/risc-v embedded gcc/bin/../lib/gcc/riscv-none-embed/8.2.0/../../../../riscv-none-embed/lib/rv32imacxw/ilp32\libnosys.a(fstat.o)
                0x000000000000e5da                _fstat
 .text._isatty  0x000000000000e5ea       0x10 c:/mounriver/mounriver_studio/toolchain/risc-v embedded gcc/bin/../lib/gcc/riscv-none-embed/8.2.0/../../../../riscv-none-embed/lib/rv32imacxw/ilp32\libnosys.a(isatty.o)
                0x000000000000e5ea                _isatty
 .text._lseek   0x000000000000e5fa       0x10 c:/mounriver/mounriver_studio/toolchain/risc-v embedded gcc/bin/../lib/gcc/riscv-none-embed/8.2.0/../../../../riscv-none-embed/lib/rv32imacxw/ilp32\libnosys.a(lseek.o)
                0x000000000000e5fa                _lseek
 .text._read    0x000000000000e60a       0x10 c:/mounriver/mounriver_studio/toolchain/risc-v embedded gcc/bin/../lib/gcc/riscv-none-embed/8.2.0/../../../../riscv-none-embed/lib/rv32imacxw/ilp32\libnosys.a(read.o)
                0x000000000000e60a                _read
 *(.rodata)
 *(.rodata*)
 *fill*         0x000000000000e61a        0x2 
 .rodata.CSWTCH.14
                0x000000000000e61c       0x10 ./User/DataModel.o
 .rodata.CalPoint
                0x000000000000e62c       0x48 ./User/DataModel.o
                0x000000000000e62c                CalPoint
 .rodata.vIncrementSystemCounters.cst4
                0x000000000000e674        0x4 ./User/DataModel.o
 .rodata.HardFault_Handler.str1.4
                0x000000000000e678       0x42 ./User/ch32v20x_it.o
 *fill*         0x000000000000e6ba        0x2 
 .rodata.getODValue
                0x000000000000e6bc       0x74 ./User/dash_draw.o
 .rodata.vRedrawTask
                0x000000000000e730       0x54 ./User/dash_draw.o
 .rodata.getODValue.cst4
                0x000000000000e784        0x8 ./User/dash_draw.o
 .rodata.vBarColorMode.cst4
                0x000000000000e78c        0x4 ./User/dash_draw.o
 .rodata.ADC_FSM.cst4
                0x000000000000e790       0x14 ./User/inputs.o
 .rodata.vInputsTask.cst4
                0x000000000000e7a4        0xc ./User/inputs.o
 .rodata.SetRGB
                0x000000000000e7b0       0x38 ./User/led.o
 .rodata.SetSegDirect
                0x000000000000e7e8       0x1c ./User/led.o
 .rodata.Brigth
                0x000000000000e804       0x1e ./User/led.o
 *fill*         0x000000000000e822        0x2 
 .rodata.DigitMask
                0x000000000000e824        0xa ./User/led.o
                0x000000000000e824                DigitMask
 *fill*         0x000000000000e82e        0x2 
 .rodata.main.str1.4
                0x000000000000e830       0x20 ./User/main.o
 .rodata.OD_ADC1_CAL_extension
                0x000000000000e850       0x10 ./User/process.o
                0x000000000000e850                OD_ADC1_CAL_extension
 .rodata.OD_ADC2_CAL_extension
                0x000000000000e860       0x10 ./User/process.o
                0x000000000000e860                OD_ADC2_CAL_extension
 .rodata.OD_ADC3_CAL_extension
                0x000000000000e870       0x10 ./User/process.o
                0x000000000000e870                OD_ADC3_CAL_extension
 .rodata.OD_AIN_RPM_extension
                0x000000000000e880       0x10 ./User/process.o
                0x000000000000e880                OD_AIN_RPM_extension
 .rodata.OD_BAR_extension
                0x000000000000e890       0x10 ./User/process.o
                0x000000000000e890                OD_BAR_extension
 .rodata.OD_BITRATE_extension
                0x000000000000e8a0       0x10 ./User/process.o
                0x000000000000e8a0                OD_BITRATE_extension
 .rodata.OD_BRIGTH_extension
                0x000000000000e8b0       0x10 ./User/process.o
                0x000000000000e8b0                OD_BRIGTH_extension
 .rodata.OD_DASH_PARAM_extension
                0x000000000000e8c0       0x10 ./User/process.o
                0x000000000000e8c0                OD_DASH_PARAM_extension
 .rodata.OD_DIN_extension
                0x000000000000e8d0       0x10 ./User/process.o
                0x000000000000e8d0                OD_DIN_extension
 .rodata.OD_ERROR_REG_extension
                0x000000000000e8e0       0x10 ./User/process.o
                0x000000000000e8e0                OD_ERROR_REG_extension
 .rodata.OD_MENU_MAP_extension
                0x000000000000e8f0       0x10 ./User/process.o
                0x000000000000e8f0                OD_MENU_MAP_extension
 .rodata.OD_MENU_SETUP_extension
                0x000000000000e900       0x10 ./User/process.o
                0x000000000000e900                OD_MENU_SETUP_extension
 .rodata.OD_RGB10_extension
                0x000000000000e910       0x10 ./User/process.o
                0x000000000000e910                OD_RGB10_extension
 .rodata.OD_RGB11_extension
                0x000000000000e920       0x10 ./User/process.o
                0x000000000000e920                OD_RGB11_extension
 .rodata.OD_RGB12_extension
                0x000000000000e930       0x10 ./User/process.o
                0x000000000000e930                OD_RGB12_extension
 .rodata.OD_RGB13_extension
                0x000000000000e940       0x10 ./User/process.o
                0x000000000000e940                OD_RGB13_extension
 .rodata.OD_RGB1_extension
                0x000000000000e950       0x10 ./User/process.o
                0x000000000000e950                OD_RGB1_extension
 .rodata.OD_RGB2_extension
                0x000000000000e960       0x10 ./User/process.o
                0x000000000000e960                OD_RGB2_extension
 .rodata.OD_RGB3_extension
                0x000000000000e970       0x10 ./User/process.o
                0x000000000000e970                OD_RGB3_extension
 .rodata.OD_RGB4_extension
                0x000000000000e980       0x10 ./User/process.o
                0x000000000000e980                OD_RGB4_extension
 .rodata.OD_RGB5_extension
                0x000000000000e990       0x10 ./User/process.o
                0x000000000000e990                OD_RGB5_extension
 .rodata.OD_RGB6_extension
                0x000000000000e9a0       0x10 ./User/process.o
                0x000000000000e9a0                OD_RGB6_extension
 .rodata.OD_RGB7_extension
                0x000000000000e9b0       0x10 ./User/process.o
                0x000000000000e9b0                OD_RGB7_extension
 .rodata.OD_RGB8_extension
                0x000000000000e9c0       0x10 ./User/process.o
                0x000000000000e9c0                OD_RGB8_extension
 .rodata.OD_RGB9_extension
                0x000000000000e9d0       0x10 ./User/process.o
                0x000000000000e9d0                OD_RGB9_extension
 .rodata.OD_RGBMAP_extension
                0x000000000000e9e0       0x10 ./User/process.o
                0x000000000000e9e0                OD_RGBMAP_extension
 .rodata.OD_RPMCONFIG_extension
                0x000000000000e9f0       0x10 ./User/process.o
                0x000000000000e9f0                OD_RPMCONFIG_extension
 .rodata.OD_SEG_extension
                0x000000000000ea00       0x10 ./User/process.o
                0x000000000000ea00                OD_SEG_extension
 .rodata.OD_V15_17_extension
                0x000000000000ea10       0x10 ./User/process.o
                0x000000000000ea10                OD_V15_17_extension
 .rodata.OD_V1_7_extension
                0x000000000000ea20       0x10 ./User/process.o
                0x000000000000ea20                OD_V1_7_extension
 .rodata.OD_V8_14_extension
                0x000000000000ea30       0x10 ./User/process.o
                0x000000000000ea30                OD_V8_14_extension
 .rodata.writeADC.isra.2.cst4
                0x000000000000ea40        0x4 ./User/process.o
 .rodata.vSYStaskInit.str1.4
                0x000000000000ea40       0x44 ./User/system_init.o
 .rodata.GetRPM.cst4
                0x000000000000ea84        0x8 ./HWLIB/hw_lib_din.o
 .rodata.vSetRPMConfig.cst4
                0x000000000000ea8c        0x4 ./HWLIB/hw_lib_din.o
 .rodata.ADC_chennel_ref
                0x000000000000ea90       0x12 ./HAL/hal_adc.o
 *fill*         0x000000000000eaa2        0x2 
 .rodata.I2C_FSM
                0x000000000000eaa4       0x30 ./HAL/hal_i2c.o
 .rodata.vTimerInitRCC
                0x000000000000ead4       0x1c ./HAL/hal_timers.o
 .rodata.timers
                0x000000000000eaf0       0x14 ./HAL/hal_timers.o
 .rodata.pvPortMalloc.str1.4
                0x000000000000eb04       0x49 ./FreeRTOS/portable/MemMang/heap_4.o
 *fill*         0x000000000000eb4d        0x3 
 .rodata.xPortStartScheduler.str1.4
                0x000000000000eb50       0x27 ./FreeRTOS/portable/GCC/RISC-V/port.o
                                         0x49 (size before relaxing)
 *fill*         0x000000000000eb77        0x1 
 .rodata.xQueueGenericReset.str1.4
                0x000000000000eb78       0x14 ./FreeRTOS/queue.o
                                         0x35 (size before relaxing)
 .rodata.xTaskGenericNotify
                0x000000000000eb8c       0x14 ./FreeRTOS/tasks.o
 .rodata.xTaskGenericNotifyFromISR
                0x000000000000eba0       0x14 ./FreeRTOS/tasks.o
 .rodata.prvTaskIsTaskSuspended.str1.4
                0x000000000000ebb4       0x14 ./FreeRTOS/tasks.o
                                         0x35 (size before relaxing)
 .rodata.vTaskStartScheduler.str1.4
                0x000000000000ebc8        0x5 ./FreeRTOS/tasks.o
 *fill*         0x000000000000ebcd        0x3 
 .rodata.prvTimerTask
                0x000000000000ebd0       0x24 ./FreeRTOS/timers.o
 .rodata.prvCheckForValidListAndQueue.str1.4
                0x000000000000ebf4        0x5 ./FreeRTOS/timers.o
 *fill*         0x000000000000ebf9        0x3 
 .rodata.prvTimerTask.str1.4
                0x000000000000ebfc       0x15 ./FreeRTOS/timers.o
                                         0x39 (size before relaxing)
 *fill*         0x000000000000ec11        0x3 
 .rodata.xTimerCreateTimerTask.str1.4
                0x000000000000ec14        0x8 ./FreeRTOS/timers.o
 .rodata.vInitABFilter.cst4
                0x000000000000ec1c        0x4 ./Drivers/filters.o
 .rodata.ODObjs
                0x000000000000ec20      0x5fc ./CANopenNode/keypad/OD.o
 .rodata.CO_LSS_bitTimingTableLookup
                0x000000000000f21c       0x14 ./CANopenNode/305/CO_LSSslave.o
 .rodata.abortCodes.6804
                0x000000000000f230       0x68 ./CANopenNode/301/CO_ODinterface.o
 .rodata.__divsf3
                0x000000000000f298       0x80 c:/mounriver/mounriver_studio/toolchain/risc-v embedded gcc/bin/../lib/gcc/riscv-none-embed/8.2.0/rv32imacxw/ilp32\libgcc.a(divsf3.o)
 .rodata.__mulsf3
                0x000000000000f318       0x40 c:/mounriver/mounriver_studio/toolchain/risc-v embedded gcc/bin/../lib/gcc/riscv-none-embed/8.2.0/rv32imacxw/ilp32\libgcc.a(mulsf3.o)
 .rodata.__clz_tab
                0x000000000000f358      0x100 c:/mounriver/mounriver_studio/toolchain/risc-v embedded gcc/bin/../lib/gcc/riscv-none-embed/8.2.0/rv32imacxw/ilp32\libgcc.a(_clz.o)
                0x000000000000f358                __clz_tab
 .rodata.__sf_fake_stderr
                0x000000000000f458       0x20 c:/mounriver/mounriver_studio/toolchain/risc-v embedded gcc/bin/../lib/gcc/riscv-none-embed/8.2.0/../../../../riscv-none-embed/lib/rv32imacxw/ilp32\libg_nano.a(lib_a-findfp.o)
                0x000000000000f458                __sf_fake_stderr
 .rodata.__sf_fake_stdin
                0x000000000000f478       0x20 c:/mounriver/mounriver_studio/toolchain/risc-v embedded gcc/bin/../lib/gcc/riscv-none-embed/8.2.0/../../../../riscv-none-embed/lib/rv32imacxw/ilp32\libg_nano.a(lib_a-findfp.o)
                0x000000000000f478                __sf_fake_stdin
 .rodata.__sf_fake_stdout
                0x000000000000f498       0x20 c:/mounriver/mounriver_studio/toolchain/risc-v embedded gcc/bin/../lib/gcc/riscv-none-embed/8.2.0/../../../../riscv-none-embed/lib/rv32imacxw/ilp32\libg_nano.a(lib_a-findfp.o)
                0x000000000000f498                __sf_fake_stdout
 .rodata._vfprintf_r.str1.4
                0x000000000000f4b8       0x13 c:/mounriver/mounriver_studio/toolchain/risc-v embedded gcc/bin/../lib/gcc/riscv-none-embed/8.2.0/../../../../riscv-none-embed/lib/rv32imacxw/ilp32\libg_nano.a(lib_a-nano-vfprintf.o)
 *fill*         0x000000000000f4cb        0x1 
 .rodata._printf_i.str1.4
                0x000000000000f4cc       0x28 c:/mounriver/mounriver_studio/toolchain/risc-v embedded gcc/bin/../lib/gcc/riscv-none-embed/8.2.0/../../../../riscv-none-embed/lib/rv32imacxw/ilp32\libg_nano.a(lib_a-nano-vfprintf_i.o)
                                         0x25 (size before relaxing)
 *(.glue_7)
 *(.glue_7t)
 *(.gnu.linkonce.t.*)
                0x000000000000f4f4                . = ALIGN (0x4)

.rela.dyn       0x000000000000f4f4        0x0
 .rela.init     0x000000000000f4f4        0x0 ./User/CanOpenNode.o
 .rela.vector   0x000000000000f4f4        0x0 ./User/CanOpenNode.o
 .rela.text.handle_reset
                0x000000000000f4f4        0x0 ./User/CanOpenNode.o
 .rela.text.xPortStartScheduler
                0x000000000000f4f4        0x0 ./User/CanOpenNode.o
 .rela.sdata2.xISRStackTop
                0x000000000000f4f4        0x0 ./User/CanOpenNode.o
 .rela.text._sbrk
                0x000000000000f4f4        0x0 ./User/CanOpenNode.o
 .rela.sdata.curbrk.4668
                0x000000000000f4f4        0x0 ./User/CanOpenNode.o
 .rela.text._sbrk_r
                0x000000000000f4f4        0x0 ./User/CanOpenNode.o
 .rela.text._vfprintf_r
                0x000000000000f4f4        0x0 ./User/CanOpenNode.o
 .rela.text._write_r
                0x000000000000f4f4        0x0 ./User/CanOpenNode.o
 .rela.text._close_r
                0x000000000000f4f4        0x0 ./User/CanOpenNode.o
 .rela.text._fstat_r
                0x000000000000f4f4        0x0 ./User/CanOpenNode.o
 .rela.text._isatty_r
                0x000000000000f4f4        0x0 ./User/CanOpenNode.o
 .rela.text._lseek_r
                0x000000000000f4f4        0x0 ./User/CanOpenNode.o
 .rela.text._read_r
                0x000000000000f4f4        0x0 ./User/CanOpenNode.o
 .rela.text._close
                0x000000000000f4f4        0x0 ./User/CanOpenNode.o
 .rela.text._fstat
                0x000000000000f4f4        0x0 ./User/CanOpenNode.o
 .rela.text._isatty
                0x000000000000f4f4        0x0 ./User/CanOpenNode.o
 .rela.text._lseek
                0x000000000000f4f4        0x0 ./User/CanOpenNode.o
 .rela.text._read
                0x000000000000f4f4        0x0 ./User/CanOpenNode.o

.fini           0x000000000000f4f4        0x0
 *(SORT_NONE(.fini))
                0x000000000000f4f4                . = ALIGN (0x4)
                [!provide]                        PROVIDE (_etext = .)
                [!provide]                        PROVIDE (_eitcm = .)

.preinit_array  0x000000000000f4f4        0x0
                [!provide]                        PROVIDE (__preinit_array_start = .)
 *(.preinit_array)
                [!provide]                        PROVIDE (__preinit_array_end = .)

.init_array     0x000000000000f4f4        0x0
                [!provide]                        PROVIDE (__init_array_start = .)
 *(SORT_BY_INIT_PRIORITY(.init_array.*) SORT_BY_INIT_PRIORITY(.ctors.*))
 *(.init_array EXCLUDE_FILE(*crtend?.o *crtend.o *crtbegin?.o *crtbegin.o) .ctors)
                [!provide]                        PROVIDE (__init_array_end = .)

.fini_array     0x000000000000f4f4        0x0
                [!provide]                        PROVIDE (__fini_array_start = .)
 *(SORT_BY_INIT_PRIORITY(.fini_array.*) SORT_BY_INIT_PRIORITY(.dtors.*))
 *(.fini_array EXCLUDE_FILE(*crtend?.o *crtend.o *crtbegin?.o *crtbegin.o) .dtors)
                [!provide]                        PROVIDE (__fini_array_end = .)

.ctors
 *crtbegin.o(.ctors)
 *crtbegin?.o(.ctors)
 *(EXCLUDE_FILE(*crtend?.o *crtend.o) .ctors)
 *(SORT_BY_NAME(.ctors.*))
 *(.ctors)

.dtors
 *crtbegin.o(.dtors)
 *crtbegin?.o(.dtors)
 *(EXCLUDE_FILE(*crtend?.o *crtend.o) .dtors)
 *(SORT_BY_NAME(.dtors.*))
 *(.dtors)

.dalign         0x0000000020000000        0x0 load address 0x000000000000f4f4
                0x0000000020000000                . = ALIGN (0x4)
                0x0000000020000000                PROVIDE (_data_vma = .)

.dlalign        0x000000000000f4f4        0x0
                0x000000000000f4f4                . = ALIGN (0x4)
                0x000000000000f4f4                PROVIDE (_data_lma = .)

.data           0x0000000020000000      0x5b0 load address 0x000000000000f4f4
 *(.gnu.linkonce.r.*)
 *(.data .data.*)
 .data.AHBPrescTable
                0x0000000020000000       0x10 ./User/system_ch32v20x.o
                0x0000000020000000                AHBPrescTable
 .data.APBAHBPrescTable
                0x0000000020000010       0x10 ./Peripheral/src/ch32v20x_rcc.o
 .data.ODList   0x0000000020000020      0x2b8 ./CANopenNode/keypad/OD.o
 .data.OD_      0x00000000200002d8       0x34 ./CANopenNode/keypad/OD.o
                0x00000000200002d8                OD_
 .data.OD_RAM   0x000000002000030c       0x38 ./CANopenNode/keypad/OD.o
                0x000000002000030c                OD_RAM
 .data.OD_ROM   0x0000000020000344      0x1c8 ./CANopenNode/keypad/OD.o
                0x0000000020000344                OD_ROM
 .data.impure_data
                0x000000002000050c       0x60 c:/mounriver/mounriver_studio/toolchain/risc-v embedded gcc/bin/../lib/gcc/riscv-none-embed/8.2.0/../../../../riscv-none-embed/lib/rv32imacxw/ilp32\libg_nano.a(lib_a-impure.o)
 *(.gnu.linkonce.d.*)
                0x0000000020000570                . = ALIGN (0x8)
 *fill*         0x000000002000056c        0x4 
                0x0000000020000d70                PROVIDE (__global_pointer$ = (. + 0x800))
 *(.sdata .sdata.*)
 .sdata.SystemCoreClock
                0x0000000020000570        0x4 ./User/system_ch32v20x.o
                0x0000000020000570                SystemCoreClock
 .sdata.ADCPrescTable
                0x0000000020000574        0x4 ./Peripheral/src/ch32v20x_rcc.o
 .sdata.uxCriticalNesting
                0x0000000020000578        0x4 ./FreeRTOS/portable/GCC/RISC-V/port.o
 .sdata.uxTopUsedPriority
                0x000000002000057c        0x4 ./FreeRTOS/tasks.o
                0x000000002000057c                uxTopUsedPriority
 .sdata.curbrk.4668
                0x0000000020000580        0x4 ./Debug/debug.o
 .sdata.OD      0x0000000020000584        0x4 ./CANopenNode/keypad/OD.o
                0x0000000020000584                OD
 .sdata.OD_PERSIST_COMM
                0x0000000020000588        0x8 ./CANopenNode/keypad/OD.o
                0x0000000020000588                OD_PERSIST_COMM
 .sdata._OD     0x0000000020000590        0x8 ./CANopenNode/keypad/OD.o
 .sdata._impure_ptr
                0x0000000020000598        0x4 c:/mounriver/mounriver_studio/toolchain/risc-v embedded gcc/bin/../lib/gcc/riscv-none-embed/8.2.0/../../../../riscv-none-embed/lib/rv32imacxw/ilp32\libg_nano.a(lib_a-impure.o)
                0x0000000020000598                _impure_ptr
 *(.sdata2.*)
 .sdata2.CSWTCH.12
                0x000000002000059c        0x4 ./HAL/hal_timers.o
 .sdata2.xISRStackTop
                0x00000000200005a0        0x4 ./FreeRTOS/portable/GCC/RISC-V/port.o
                0x00000000200005a0                xISRStackTop
 .sdata2._global_impure_ptr
                0x00000000200005a4        0x4 c:/mounriver/mounriver_studio/toolchain/risc-v embedded gcc/bin/../lib/gcc/riscv-none-embed/8.2.0/../../../../riscv-none-embed/lib/rv32imacxw/ilp32\libg_nano.a(lib_a-impure.o)
                0x00000000200005a4                _global_impure_ptr
 *(.gnu.linkonce.s.*)
                0x00000000200005a8                . = ALIGN (0x8)
 *(.srodata.cst16)
 *(.srodata.cst8)
 *(.srodata.cst4)
 *(.srodata.cst2)
 *(.srodata .srodata.*)
 .srodata       0x00000000200005a8        0x5 ./User/inputs.o
                0x00000000200005b0                . = ALIGN (0x4)
 *fill*         0x00000000200005ad        0x3 
                0x00000000200005b0                PROVIDE (_edata = .)

.bss            0x00000000200005b0     0x2c28 load address 0x000000000000faa4
                0x00000000200005b0                . = ALIGN (0x4)
                0x00000000200005b0                PROVIDE (_sbss = .)
 *(.sbss*)
 .sbss.CO       0x00000000200005b0        0x4 ./User/CanOpenNode.o
 .sbss.co_heap_used
                0x00000000200005b4        0x4 ./User/CanOpenNode.o
 .sbss.pCanOpenPeriodicTaskHandle
                0x00000000200005b8        0x4 ./User/CanOpenNode.o
 .sbss.pCanOpenProcessTaskHandle
                0x00000000200005bc        0x4 ./User/CanOpenNode.o
 .sbss.pcan     0x00000000200005c0        0x4 ./User/CanOpenNode.o
 .sbss.reset    0x00000000200005c4        0x4 ./User/CanOpenNode.o
 .sbss.odometr  0x00000000200005c8        0x4 ./User/DataModel.o
 .sbss.secondcounter
                0x00000000200005cc        0x2 ./User/DataModel.o
 .sbss.COUNTER  0x00000000200005ce        0x2 ./User/dash_draw.o
 .sbss.ErrorRegister
                0x00000000200005d0        0x4 ./User/dash_draw.o
 .sbss.MenuSatate
                0x00000000200005d4        0x4 ./User/dash_draw.o
 .sbss.MenuViewBlink
                0x00000000200005d8        0x1 ./User/dash_draw.o
 .sbss.STATUS   0x00000000200005d9        0x1 ./User/dash_draw.o
 .sbss.ServiceModeCounter
                0x00000000200005da        0x2 ./User/dash_draw.o
 .sbss.ServieModeFSM
                0x00000000200005dc        0x1 ./User/dash_draw.o
 *fill*         0x00000000200005dd        0x3 
 .sbss.pProcessTaskHandle
                0x00000000200005e0        0x4 ./User/dash_draw.o
 .sbss.pTaskToNotifykHandle
                0x00000000200005e4        0x4 ./User/dash_draw.o
 .sbss.BufAIN   0x00000000200005e8        0x8 ./User/inputs.o
                0x00000000200005e8                BufAIN
 .sbss.OD_AIN_flagsPDO
                0x00000000200005f0        0x4 ./User/inputs.o
 .sbss.OD_DIN_flagsPDO
                0x00000000200005f4        0x4 ./User/inputs.o
 .sbss.pInputsTaskHandle
                0x00000000200005f8        0x4 ./User/inputs.o
 .sbss.pTaskToNotifykHandle
                0x00000000200005fc        0x4 ./User/inputs.o
 .sbss.xHigherPriorityTaskWoken.7277
                0x0000000020000600        0x4 ./User/inputs.o
 .sbss.SPI2_DATA
                0x0000000020000604        0x8 ./User/led.o
 .sbss.counterRGB
                0x000000002000060c        0x2 ./User/led.o
 *fill*         0x000000002000060e        0x2 
 .sbss.DeafaultTaskFSM
                0x0000000020000610        0x4 ./User/system_init.o
 .sbss.MCU_Version
                0x0000000020000614        0x1 ./Peripheral/src/ch32v20x_gpio.o
                0x0000000020000614                MCU_Version
 *fill*         0x0000000020000615        0x3 
 .sbss.NVIC_Priority_Group
                0x0000000020000618        0x4 ./Peripheral/src/ch32v20x_misc.o
                0x0000000020000618                NVIC_Priority_Group
 .sbss.usCurMaxIndex
                0x000000002000061c        0x2 ./HWLIB/hw_lib_adc.o
 *fill*         0x000000002000061e        0x2 
 .sbss.xDoutConfig
                0x0000000020000620        0x8 ./HWLIB/hw_lib_din.o
 .sbss.Calibrattion_Val
                0x0000000020000628        0x2 ./HAL/hal_adc.o
 *fill*         0x000000002000062a        0x2 
 .sbss.adcs     0x000000002000062c        0x4 ./HAL/hal_adc.o
                0x000000002000062c                adcs
 .sbss.pEEPROM  0x0000000020000630        0x4 ./HAL/hal_i2c.o
                0x0000000020000630                pEEPROM
 .sbss.func     0x0000000020000634        0x4 ./HAL/hal_rtc.o
 .sbss.pxEnd    0x0000000020000638        0x4 ./FreeRTOS/portable/MemMang/heap_4.o
 .sbss.xBlockAllocatedBit
                0x000000002000063c        0x4 ./FreeRTOS/portable/MemMang/heap_4.o
 .sbss.xFreeBytesRemaining
                0x0000000020000640        0x4 ./FreeRTOS/portable/MemMang/heap_4.o
 .sbss.xMinimumEverFreeBytesRemaining
                0x0000000020000644        0x4 ./FreeRTOS/portable/MemMang/heap_4.o
 .sbss.xNumberOfSuccessfulAllocations
                0x0000000020000648        0x4 ./FreeRTOS/portable/MemMang/heap_4.o
 .sbss.xNumberOfSuccessfulFrees
                0x000000002000064c        0x4 ./FreeRTOS/portable/MemMang/heap_4.o
 .sbss.xStart   0x0000000020000650        0x8 ./FreeRTOS/portable/MemMang/heap_4.o
 .sbss.pxCurrentTCB
                0x0000000020000658        0x4 ./FreeRTOS/tasks.o
                0x0000000020000658                pxCurrentTCB
 .sbss.pxDelayedTaskList
                0x000000002000065c        0x4 ./FreeRTOS/tasks.o
 .sbss.pxOverflowDelayedTaskList
                0x0000000020000660        0x4 ./FreeRTOS/tasks.o
 .sbss.uxCurrentNumberOfTasks
                0x0000000020000664        0x4 ./FreeRTOS/tasks.o
 .sbss.uxSchedulerSuspended
                0x0000000020000668        0x4 ./FreeRTOS/tasks.o
 .sbss.uxTaskNumber
                0x000000002000066c        0x4 ./FreeRTOS/tasks.o
 .sbss.uxTopReadyPriority
                0x0000000020000670        0x4 ./FreeRTOS/tasks.o
 .sbss.xNextTaskUnblockTime
                0x0000000020000674        0x4 ./FreeRTOS/tasks.o
 .sbss.xNumOfOverflows
                0x0000000020000678        0x4 ./FreeRTOS/tasks.o
 .sbss.xPendedTicks
                0x000000002000067c        0x4 ./FreeRTOS/tasks.o
 .sbss.xSchedulerRunning
                0x0000000020000680        0x4 ./FreeRTOS/tasks.o
 .sbss.xTickCount
                0x0000000020000684        0x4 ./FreeRTOS/tasks.o
 .sbss.xYieldPending
                0x0000000020000688        0x4 ./FreeRTOS/tasks.o
 .sbss.pxCurrentTimerList
                0x000000002000068c        0x4 ./FreeRTOS/timers.o
 .sbss.pxOverflowTimerList
                0x0000000020000690        0x4 ./FreeRTOS/timers.o
 .sbss.xLastTime.5774
                0x0000000020000694        0x4 ./FreeRTOS/timers.o
 .sbss.xTimerQueue
                0x0000000020000698        0x4 ./FreeRTOS/timers.o
 .sbss.xTimerTaskHandle
                0x000000002000069c        0x4 ./FreeRTOS/timers.o
 .sbss.p_ms     0x00000000200006a0        0x2 ./Debug/debug.o
 .sbss.p_us     0x00000000200006a2        0x1 ./Debug/debug.o
 *fill*         0x00000000200006a3        0x1 
 .sbss.CANModule_local
                0x00000000200006a4        0x4 ./CANopenNode/keypad/CO_driver_ST32F103.o
 .sbss.co_drv_app_thread_sync_semaphore
                0x00000000200006a8        0x4 ./CANopenNode/keypad/CO_driver_ST32F103.o
                0x00000000200006a8                co_drv_app_thread_sync_semaphore
 .sbss.co_drv_periodic_thread_sync_semaphore
                0x00000000200006ac        0x4 ./CANopenNode/keypad/CO_driver_ST32F103.o
                0x00000000200006ac                co_drv_periodic_thread_sync_semaphore
 .sbss.co_mutex
                0x00000000200006b0        0x4 ./CANopenNode/keypad/CO_driver_ST32F103.o
 .sbss.__malloc_free_list
                0x00000000200006b4        0x4 c:/mounriver/mounriver_studio/toolchain/risc-v embedded gcc/bin/../lib/gcc/riscv-none-embed/8.2.0/../../../../riscv-none-embed/lib/rv32imacxw/ilp32\libg_nano.a(lib_a-nano-mallocr.o)
                0x00000000200006b4                __malloc_free_list
 .sbss.__malloc_sbrk_start
                0x00000000200006b8        0x4 c:/mounriver/mounriver_studio/toolchain/risc-v embedded gcc/bin/../lib/gcc/riscv-none-embed/8.2.0/../../../../riscv-none-embed/lib/rv32imacxw/ilp32\libg_nano.a(lib_a-nano-mallocr.o)
                0x00000000200006b8                __malloc_sbrk_start
 *(.gnu.linkonce.sb.*)
 *(.bss*)
 .bss.DATA_MODEL_REGISTER
                0x00000000200006bc      0x226 ./User/DataModel.o
 *fill*         0x00000000200008e2        0x2 
 .bss.menu      0x00000000200008e4       0x38 ./User/dash_draw.o
 .bss.ADC_OLD_RAW
                0x000000002000091c        0xa ./User/inputs.o
 *fill*         0x0000000020000926        0x2 
 .bss.OurVData  0x0000000020000928       0x14 ./User/inputs.o
 .bss.RPM_AB_FILTER_STRUC
                0x000000002000093c       0x10 ./User/inputs.o
 .bss.RPM_AVER_FILTER_STRUC
                0x000000002000094c       0x20 ./User/inputs.o
 .bss.RPM_MIDIAN_FILTER_STRUC
                0x000000002000096c       0x20 ./User/inputs.o
 .bss.SPI1_DATA
                0x000000002000098c        0xa ./User/led.o
 *fill*         0x0000000020000996        0x2 
 .bss.data      0x0000000020000998        0xa ./User/led.o
 *fill*         0x00000000200009a2        0x2 
 .bss.CanOpnePeriodicTaskBuffer
                0x00000000200009a4      0x400 ./User/system_init.o
 .bss.CanOpnePeriodicTaskControlBlock
                0x0000000020000da4       0x58 ./User/system_init.o
 .bss.CanOpneProccesTaskBuffer
                0x0000000020000dfc      0xaf0 ./User/system_init.o
 .bss.CanOpneProccesTaskControlBlock
                0x00000000200018ec       0x58 ./User/system_init.o
 .bss.InputsTaskBuffer
                0x0000000020001944      0x200 ./User/system_init.o
 .bss.InputsTaskControlBlock
                0x0000000020001b44       0x58 ./User/system_init.o
 .bss.ProcessTaskBuffer
                0x0000000020001b9c      0x400 ./User/system_init.o
 .bss.ProcessTaskControlBlock
                0x0000000020001f9c       0x58 ./User/system_init.o
 .bss.defaultTaskBuffer
                0x0000000020001ff4      0x200 ./User/system_init.o
 .bss.defaultTaskControlBlock
                0x00000000200021f4       0x58 ./User/system_init.o
 .bss.uxIdleTaskStack
                0x000000002000224c      0x200 ./User/system_init.o
 .bss.uxTimerTaskStack
                0x000000002000244c      0x200 ./User/system_init.o
 .bss.xIdleTaskTCB
                0x000000002000264c       0x58 ./User/system_init.o
 .bss.xTimerTaskTCB
                0x00000000200026a4       0x58 ./User/system_init.o
 .bss.ADC1_IN_Buffer
                0x00000000200026fc       0x1e ./HWLIB/hw_lib_adc.o
                0x00000000200026fc                ADC1_IN_Buffer
 *fill*         0x000000002000271a        0x2 
 .bss.muRawVData
                0x000000002000271c        0xe ./HWLIB/hw_lib_adc.o
 *fill*         0x000000002000272a        0x2 
 .bss.xAinData  0x000000002000272c        0xa ./HWLIB/hw_lib_adc.o
 *fill*         0x0000000020002736        0x2 
 .bss.xKoofData
                0x0000000020002738      0x474 ./HWLIB/hw_lib_adc.o
 .bss.RPM       0x0000000020002bac       0x58 ./HWLIB/hw_lib_din.o
 .bss.RPM_MIDIAN_FILTER_STRUC
                0x0000000020002c04       0x20 ./HWLIB/hw_lib_din.o
 .bss.xDinConfig
                0x0000000020002c24       0x70 ./HWLIB/hw_lib_din.o
 .bss.Dev       0x0000000020002c94       0x28 ./HWLIB/hw_lib_eeprom.o
 .bss.CAN       0x0000000020002cbc        0xc ./HAL/hal_can.o
 .bss.DMA_CALLback
                0x0000000020002cc8       0x1c ./HAL/hal_dma.o
                0x0000000020002cc8                DMA_CALLback
 .bss.InitPort  0x0000000020002ce4       0x20 ./HAL/hal_gpio.o
                0x0000000020002ce4                InitPort
 .bss.config    0x0000000020002d04       0x64 ./HAL/hal_timers.o
 .bss.ucHeap    0x0000000020002d68      0x200 ./FreeRTOS/portable/MemMang/heap_4.o
 .bss.xQueueRegistry
                0x0000000020002f68       0x40 ./FreeRTOS/queue.o
                0x0000000020002f68                xQueueRegistry
 .bss.pxReadyTasksLists
                0x0000000020002fa8      0x12c ./FreeRTOS/tasks.o
 .bss.xDelayedTaskList1
                0x00000000200030d4       0x14 ./FreeRTOS/tasks.o
 .bss.xDelayedTaskList2
                0x00000000200030e8       0x14 ./FreeRTOS/tasks.o
 .bss.xPendingReadyList
                0x00000000200030fc       0x14 ./FreeRTOS/tasks.o
 .bss.xSuspendedTaskList
                0x0000000020003110       0x14 ./FreeRTOS/tasks.o
 .bss.ucStaticTimerQueueStorage.5818
                0x0000000020003124       0x40 ./FreeRTOS/timers.o
 .bss.xActiveTimerList1
                0x0000000020003164       0x14 ./FreeRTOS/timers.o
 .bss.xActiveTimerList2
                0x0000000020003178       0x14 ./FreeRTOS/timers.o
 .bss.xStaticTimerQueue.5817
                0x000000002000318c       0x48 ./FreeRTOS/timers.o
 *(.gnu.linkonce.b.*)
 *(COMMON*)
 COMMON         0x00000000200031d4        0x4 c:/mounriver/mounriver_studio/toolchain/risc-v embedded gcc/bin/../lib/gcc/riscv-none-embed/8.2.0/../../../../riscv-none-embed/lib/rv32imacxw/ilp32\libg_nano.a(lib_a-reent.o)
                0x00000000200031d4                errno
                0x00000000200031d8                . = ALIGN (0x4)
                0x00000000200031d8                PROVIDE (_ebss = .)
                0x00000000200031d8                PROVIDE (_end = _ebss)
                [!provide]                        PROVIDE (end = .)

.stack          0x0000000020004800      0x800
                0x0000000020004800                PROVIDE (_heap_end = .)
                0x0000000020004800                . = ALIGN (0x4)
                [!provide]                        PROVIDE (_susrstack = .)
                0x0000000020005000                . = (. + __stack_size)
 *fill*         0x0000000020004800      0x800 
                0x0000000020005000                PROVIDE (_eusrstack = .)
                0x0000000020005000                __freertos_irq_stack_top = .
OUTPUT(DASH.elf elf32-littleriscv)

.debug_info     0x0000000000000000    0x551ae
 .debug_info    0x0000000000000000     0x2d53 ./User/CanOpenNode.o
 .debug_info    0x0000000000002d53     0x28e4 ./User/DataModel.o
 .debug_info    0x0000000000005637      0xab8 ./User/ch32v20x_it.o
 .debug_info    0x00000000000060ef     0x3019 ./User/dash_draw.o
 .debug_info    0x0000000000009108     0x1371 ./User/init.o
 .debug_info    0x000000000000a479     0x3470 ./User/inputs.o
 .debug_info    0x000000000000d8e9     0x1586 ./User/led.o
 .debug_info    0x000000000000ee6f     0x16ba ./User/main.o
 .debug_info    0x0000000000010529     0x39da ./User/process.o
 .debug_info    0x0000000000013f03      0xb90 ./User/system_ch32v20x.o
 .debug_info    0x0000000000014a93     0x1c38 ./User/system_init.o
 .debug_info    0x00000000000166cb       0x22 ./Startup/startup_ch32v20x_D6.o
 .debug_info    0x00000000000166ed     0x16fd ./Peripheral/src/ch32v20x_adc.o
 .debug_info    0x0000000000017dea     0x1097 ./Peripheral/src/ch32v20x_bkp.o
 .debug_info    0x0000000000018e81     0x1821 ./Peripheral/src/ch32v20x_can.o
 .debug_info    0x000000000001a6a2      0xd28 ./Peripheral/src/ch32v20x_dma.o
 .debug_info    0x000000000001b3ca     0x12cf ./Peripheral/src/ch32v20x_gpio.o
 .debug_info    0x000000000001c699     0x1486 ./Peripheral/src/ch32v20x_i2c.o
 .debug_info    0x000000000001db1f      0xe83 ./Peripheral/src/ch32v20x_misc.o
 .debug_info    0x000000000001e9a2     0x1025 ./Peripheral/src/ch32v20x_pwr.o
 .debug_info    0x000000000001f9c7     0x1263 ./Peripheral/src/ch32v20x_rcc.o
 .debug_info    0x0000000000020c2a      0xd56 ./Peripheral/src/ch32v20x_rtc.o
 .debug_info    0x0000000000021980     0x12c8 ./Peripheral/src/ch32v20x_spi.o
 .debug_info    0x0000000000022c48     0x2ac5 ./Peripheral/src/ch32v20x_tim.o
 .debug_info    0x000000000002570d     0x13bb ./Peripheral/src/ch32v20x_usart.o
 .debug_info    0x0000000000026ac8     0x1091 ./HWLIB/hw_lib_adc.o
 .debug_info    0x0000000000027b59     0x1567 ./HWLIB/hw_lib_din.o
 .debug_info    0x00000000000290c0      0xfeb ./HWLIB/hw_lib_eeprom.o
 .debug_info    0x000000000002a0ab     0x1319 ./HAL/hal_adc.o
 .debug_info    0x000000000002b3c4     0x1806 ./HAL/hal_can.o
 .debug_info    0x000000000002cbca     0x13e8 ./HAL/hal_dma.o
 .debug_info    0x000000000002dfb2     0x1099 ./HAL/hal_gpio.o
 .debug_info    0x000000000002f04b     0x1938 ./HAL/hal_i2c.o
 .debug_info    0x0000000000030983      0xdf2 ./HAL/hal_rtc.o
 .debug_info    0x0000000000031775      0xd8a ./HAL/hal_spi.o
 .debug_info    0x00000000000324ff     0x21e8 ./HAL/hal_timers.o
 .debug_info    0x00000000000346e7      0xa9f ./HAL/hal_wdt.o
 .debug_info    0x0000000000035186      0xe63 ./FreeRTOS/portable/MemMang/heap_4.o
 .debug_info    0x0000000000035fe9     0x1080 ./FreeRTOS/portable/GCC/RISC-V/port.o
 .debug_info    0x0000000000037069       0x26 ./FreeRTOS/portable/GCC/RISC-V/portASM.o
 .debug_info    0x000000000003708f      0xb87 ./FreeRTOS/list.o
 .debug_info    0x0000000000037c16     0x33ba ./FreeRTOS/queue.o
 .debug_info    0x000000000003afd0     0x3b1e ./FreeRTOS/tasks.o
 .debug_info    0x000000000003eaee     0x267d ./FreeRTOS/timers.o
 .debug_info    0x000000000004116b      0xd5d ./Drivers/filters.o
 .debug_info    0x0000000000041ec8      0xf05 ./Debug/debug.o
 .debug_info    0x0000000000042dcd      0x376 ./Core/core_riscv.o
 .debug_info    0x0000000000043143     0x195f ./CANopenNode/keypad/CO_driver_ST32F103.o
 .debug_info    0x0000000000044aa2     0x1a99 ./CANopenNode/keypad/OD.o
 .debug_info    0x000000000004653b     0x17c6 ./CANopenNode/305/CO_LSSslave.o
 .debug_info    0x0000000000047d01     0x1e26 ./CANopenNode/301/CO_Emergency.o
 .debug_info    0x0000000000049b27     0x19e3 ./CANopenNode/301/CO_NMT_Heartbeat.o
 .debug_info    0x000000000004b50a     0x14b9 ./CANopenNode/301/CO_ODinterface.o
 .debug_info    0x000000000004c9c3     0x333b ./CANopenNode/301/CO_PDO.o
 .debug_info    0x000000000004fcfe     0x262a ./CANopenNode/301/CO_SDOserver.o
 .debug_info    0x0000000000052328     0x2e86 ./CANopenNode/CANopen.o

.debug_abbrev   0x0000000000000000     0xc501
 .debug_abbrev  0x0000000000000000      0x3da ./User/CanOpenNode.o
 .debug_abbrev  0x00000000000003da      0x4cd ./User/DataModel.o
 .debug_abbrev  0x00000000000008a7      0x265 ./User/ch32v20x_it.o
 .debug_abbrev  0x0000000000000b0c      0x608 ./User/dash_draw.o
 .debug_abbrev  0x0000000000001114      0x2a8 ./User/init.o
 .debug_abbrev  0x00000000000013bc      0x567 ./User/inputs.o
 .debug_abbrev  0x0000000000001923      0x365 ./User/led.o
 .debug_abbrev  0x0000000000001c88      0x300 ./User/main.o
 .debug_abbrev  0x0000000000001f88      0x45d ./User/process.o
 .debug_abbrev  0x00000000000023e5      0x2c0 ./User/system_ch32v20x.o
 .debug_abbrev  0x00000000000026a5      0x325 ./User/system_init.o
 .debug_abbrev  0x00000000000029ca       0x12 ./Startup/startup_ch32v20x_D6.o
 .debug_abbrev  0x00000000000029dc      0x3a9 ./Peripheral/src/ch32v20x_adc.o
 .debug_abbrev  0x0000000000002d85      0x2cc ./Peripheral/src/ch32v20x_bkp.o
 .debug_abbrev  0x0000000000003051      0x3fa ./Peripheral/src/ch32v20x_can.o
 .debug_abbrev  0x000000000000344b      0x302 ./Peripheral/src/ch32v20x_dma.o
 .debug_abbrev  0x000000000000374d      0x34b ./Peripheral/src/ch32v20x_gpio.o
 .debug_abbrev  0x0000000000003a98      0x3a7 ./Peripheral/src/ch32v20x_i2c.o
 .debug_abbrev  0x0000000000003e3f      0x2fb ./Peripheral/src/ch32v20x_misc.o
 .debug_abbrev  0x000000000000413a      0x3aa ./Peripheral/src/ch32v20x_pwr.o
 .debug_abbrev  0x00000000000044e4      0x351 ./Peripheral/src/ch32v20x_rcc.o
 .debug_abbrev  0x0000000000004835      0x2c0 ./Peripheral/src/ch32v20x_rtc.o
 .debug_abbrev  0x0000000000004af5      0x307 ./Peripheral/src/ch32v20x_spi.o
 .debug_abbrev  0x0000000000004dfc      0x418 ./Peripheral/src/ch32v20x_tim.o
 .debug_abbrev  0x0000000000005214      0x312 ./Peripheral/src/ch32v20x_usart.o
 .debug_abbrev  0x0000000000005526      0x3f8 ./HWLIB/hw_lib_adc.o
 .debug_abbrev  0x000000000000591e      0x4b8 ./HWLIB/hw_lib_din.o
 .debug_abbrev  0x0000000000005dd6      0x364 ./HWLIB/hw_lib_eeprom.o
 .debug_abbrev  0x000000000000613a      0x3a6 ./HAL/hal_adc.o
 .debug_abbrev  0x00000000000064e0      0x39e ./HAL/hal_can.o
 .debug_abbrev  0x000000000000687e      0x30e ./HAL/hal_dma.o
 .debug_abbrev  0x0000000000006b8c      0x362 ./HAL/hal_gpio.o
 .debug_abbrev  0x0000000000006eee      0x3d6 ./HAL/hal_i2c.o
 .debug_abbrev  0x00000000000072c4      0x2b4 ./HAL/hal_rtc.o
 .debug_abbrev  0x0000000000007578      0x285 ./HAL/hal_spi.o
 .debug_abbrev  0x00000000000077fd      0x4c5 ./HAL/hal_timers.o
 .debug_abbrev  0x0000000000007cc2      0x25a ./HAL/hal_wdt.o
 .debug_abbrev  0x0000000000007f1c      0x36c ./FreeRTOS/portable/MemMang/heap_4.o
 .debug_abbrev  0x0000000000008288      0x3ad ./FreeRTOS/portable/GCC/RISC-V/port.o
 .debug_abbrev  0x0000000000008635       0x14 ./FreeRTOS/portable/GCC/RISC-V/portASM.o
 .debug_abbrev  0x0000000000008649      0x254 ./FreeRTOS/list.o
 .debug_abbrev  0x000000000000889d      0x4a1 ./FreeRTOS/queue.o
 .debug_abbrev  0x0000000000008d3e      0x540 ./FreeRTOS/tasks.o
 .debug_abbrev  0x000000000000927e      0x45f ./FreeRTOS/timers.o
 .debug_abbrev  0x00000000000096dd      0x2e5 ./Drivers/filters.o
 .debug_abbrev  0x00000000000099c2      0x2d7 ./Debug/debug.o
 .debug_abbrev  0x0000000000009c99       0xe0 ./Core/core_riscv.o
 .debug_abbrev  0x0000000000009d79      0x501 ./CANopenNode/keypad/CO_driver_ST32F103.o
 .debug_abbrev  0x000000000000a27a      0x275 ./CANopenNode/keypad/OD.o
 .debug_abbrev  0x000000000000a4ef      0x43f ./CANopenNode/305/CO_LSSslave.o
 .debug_abbrev  0x000000000000a92e      0x482 ./CANopenNode/301/CO_Emergency.o
 .debug_abbrev  0x000000000000adb0      0x46f ./CANopenNode/301/CO_NMT_Heartbeat.o
 .debug_abbrev  0x000000000000b21f      0x3ef ./CANopenNode/301/CO_ODinterface.o
 .debug_abbrev  0x000000000000b60e      0x5c7 ./CANopenNode/301/CO_PDO.o
 .debug_abbrev  0x000000000000bbd5      0x4f3 ./CANopenNode/301/CO_SDOserver.o
 .debug_abbrev  0x000000000000c0c8      0x439 ./CANopenNode/CANopen.o

.debug_loc      0x0000000000000000    0x18f32
 .debug_loc     0x0000000000000000      0x158 ./User/CanOpenNode.o
 .debug_loc     0x0000000000000158      0x570 ./User/DataModel.o
 .debug_loc     0x00000000000006c8      0xf79 ./User/dash_draw.o
 .debug_loc     0x0000000000001641      0x5a9 ./User/inputs.o
 .debug_loc     0x0000000000001bea      0x626 ./User/led.o
 .debug_loc     0x0000000000002210     0x2361 ./User/process.o
 .debug_loc     0x0000000000004571       0xac ./User/system_ch32v20x.o
 .debug_loc     0x000000000000461d       0x21 ./User/system_init.o
 .debug_loc     0x000000000000463e      0xab6 ./Peripheral/src/ch32v20x_adc.o
 .debug_loc     0x00000000000050f4       0xd8 ./Peripheral/src/ch32v20x_bkp.o
 .debug_loc     0x00000000000051cc      0x999 ./Peripheral/src/ch32v20x_can.o
 .debug_loc     0x0000000000005b65      0x155 ./Peripheral/src/ch32v20x_dma.o
 .debug_loc     0x0000000000005cba      0x8d6 ./Peripheral/src/ch32v20x_gpio.o
 .debug_loc     0x0000000000006590      0x70d ./Peripheral/src/ch32v20x_i2c.o
 .debug_loc     0x0000000000006c9d       0xce ./Peripheral/src/ch32v20x_misc.o
 .debug_loc     0x0000000000006d6b      0x278 ./Peripheral/src/ch32v20x_pwr.o
 .debug_loc     0x0000000000006fe3      0x797 ./Peripheral/src/ch32v20x_rcc.o
 .debug_loc     0x000000000000777a      0x272 ./Peripheral/src/ch32v20x_rtc.o
 .debug_loc     0x00000000000079ec      0x57f ./Peripheral/src/ch32v20x_spi.o
 .debug_loc     0x0000000000007f6b     0x190e ./Peripheral/src/ch32v20x_tim.o
 .debug_loc     0x0000000000009879      0x757 ./Peripheral/src/ch32v20x_usart.o
 .debug_loc     0x0000000000009fd0      0x588 ./HWLIB/hw_lib_adc.o
 .debug_loc     0x000000000000a558      0x50e ./HWLIB/hw_lib_din.o
 .debug_loc     0x000000000000aa66      0x3d5 ./HWLIB/hw_lib_eeprom.o
 .debug_loc     0x000000000000ae3b      0x1a2 ./HAL/hal_adc.o
 .debug_loc     0x000000000000afdd      0x1ea ./HAL/hal_can.o
 .debug_loc     0x000000000000b1c7      0x369 ./HAL/hal_dma.o
 .debug_loc     0x000000000000b530      0x3a2 ./HAL/hal_gpio.o
 .debug_loc     0x000000000000b8d2      0x2e2 ./HAL/hal_i2c.o
 .debug_loc     0x000000000000bbb4       0x8a ./HAL/hal_rtc.o
 .debug_loc     0x000000000000bc3e       0xb2 ./HAL/hal_spi.o
 .debug_loc     0x000000000000bcf0      0x71b ./HAL/hal_timers.o
 .debug_loc     0x000000000000c40b      0x330 ./FreeRTOS/portable/MemMang/heap_4.o
 .debug_loc     0x000000000000c73b       0xad ./FreeRTOS/portable/GCC/RISC-V/port.o
 .debug_loc     0x000000000000c7e8       0x94 ./FreeRTOS/list.o
 .debug_loc     0x000000000000c87c     0x1ea1 ./FreeRTOS/queue.o
 .debug_loc     0x000000000000e71d     0x265f ./FreeRTOS/tasks.o
 .debug_loc     0x0000000000010d7c     0x12b2 ./FreeRTOS/timers.o
 .debug_loc     0x000000000001202e      0x2b7 ./Drivers/filters.o
 .debug_loc     0x00000000000122e5      0x177 ./Debug/debug.o
 .debug_loc     0x000000000001245c      0x615 ./CANopenNode/keypad/CO_driver_ST32F103.o
 .debug_loc     0x0000000000012a71      0xa23 ./CANopenNode/305/CO_LSSslave.o
 .debug_loc     0x0000000000013494      0xb9d ./CANopenNode/301/CO_Emergency.o
 .debug_loc     0x0000000000014031      0x70f ./CANopenNode/301/CO_NMT_Heartbeat.o
 .debug_loc     0x0000000000014740      0x7bb ./CANopenNode/301/CO_ODinterface.o
 .debug_loc     0x0000000000014efb     0x21c9 ./CANopenNode/301/CO_PDO.o
 .debug_loc     0x00000000000170c4     0x1280 ./CANopenNode/301/CO_SDOserver.o
 .debug_loc     0x0000000000018344      0xbee ./CANopenNode/CANopen.o

.debug_aranges  0x0000000000000000     0x1e70
 .debug_aranges
                0x0000000000000000       0x40 ./User/CanOpenNode.o
 .debug_aranges
                0x0000000000000040       0x98 ./User/DataModel.o
 .debug_aranges
                0x00000000000000d8       0x28 ./User/ch32v20x_it.o
 .debug_aranges
                0x0000000000000100       0xf8 ./User/dash_draw.o
 .debug_aranges
                0x00000000000001f8       0x20 ./User/init.o
 .debug_aranges
                0x0000000000000218       0x70 ./User/inputs.o
 .debug_aranges
                0x0000000000000288       0x78 ./User/led.o
 .debug_aranges
                0x0000000000000300       0x30 ./User/main.o
 .debug_aranges
                0x0000000000000330      0x150 ./User/process.o
 .debug_aranges
                0x0000000000000480       0x28 ./User/system_ch32v20x.o
 .debug_aranges
                0x00000000000004a8       0x40 ./User/system_init.o
 .debug_aranges
                0x00000000000004e8       0x30 ./Startup/startup_ch32v20x_D6.o
 .debug_aranges
                0x0000000000000518      0x150 ./Peripheral/src/ch32v20x_adc.o
 .debug_aranges
                0x0000000000000668       0x78 ./Peripheral/src/ch32v20x_bkp.o
 .debug_aranges
                0x00000000000006e0       0xd8 ./Peripheral/src/ch32v20x_can.o
 .debug_aranges
                0x00000000000007b8       0x60 ./Peripheral/src/ch32v20x_dma.o
 .debug_aranges
                0x0000000000000818       0xb0 ./Peripheral/src/ch32v20x_gpio.o
 .debug_aranges
                0x00000000000008c8      0x110 ./Peripheral/src/ch32v20x_i2c.o
 .debug_aranges
                0x00000000000009d8       0x28 ./Peripheral/src/ch32v20x_misc.o
 .debug_aranges
                0x0000000000000a00       0x88 ./Peripheral/src/ch32v20x_pwr.o
 .debug_aranges
                0x0000000000000a88      0x128 ./Peripheral/src/ch32v20x_rcc.o
 .debug_aranges
                0x0000000000000bb0       0x80 ./Peripheral/src/ch32v20x_rtc.o
 .debug_aranges
                0x0000000000000c30       0xd0 ./Peripheral/src/ch32v20x_spi.o
 .debug_aranges
                0x0000000000000d00      0x2d0 ./Peripheral/src/ch32v20x_tim.o
 .debug_aranges
                0x0000000000000fd0      0x100 ./Peripheral/src/ch32v20x_usart.o
 .debug_aranges
                0x00000000000010d0       0x88 ./HWLIB/hw_lib_adc.o
 .debug_aranges
                0x0000000000001158       0xb8 ./HWLIB/hw_lib_din.o
 .debug_aranges
                0x0000000000001210       0x40 ./HWLIB/hw_lib_eeprom.o
 .debug_aranges
                0x0000000000001250       0x50 ./HAL/hal_adc.o
 .debug_aranges
                0x00000000000012a0       0x80 ./HAL/hal_can.o
 .debug_aranges
                0x0000000000001320       0x68 ./HAL/hal_dma.o
 .debug_aranges
                0x0000000000001388       0x70 ./HAL/hal_gpio.o
 .debug_aranges
                0x00000000000013f8       0x40 ./HAL/hal_i2c.o
 .debug_aranges
                0x0000000000001438       0x30 ./HAL/hal_rtc.o
 .debug_aranges
                0x0000000000001468       0x30 ./HAL/hal_spi.o
 .debug_aranges
                0x0000000000001498       0xd8 ./HAL/hal_timers.o
 .debug_aranges
                0x0000000000001570       0x28 ./HAL/hal_wdt.o
 .debug_aranges
                0x0000000000001598       0x50 ./FreeRTOS/portable/MemMang/heap_4.o
 .debug_aranges
                0x00000000000015e8       0x58 ./FreeRTOS/portable/GCC/RISC-V/port.o
 .debug_aranges
                0x0000000000001640       0x20 ./FreeRTOS/portable/GCC/RISC-V/portASM.o
 .debug_aranges
                0x0000000000001660       0x40 ./FreeRTOS/list.o
 .debug_aranges
                0x00000000000016a0      0x110 ./FreeRTOS/queue.o
 .debug_aranges
                0x00000000000017b0      0x1b0 ./FreeRTOS/tasks.o
 .debug_aranges
                0x0000000000001960       0xc0 ./FreeRTOS/timers.o
 .debug_aranges
                0x0000000000001a20       0x50 ./Drivers/filters.o
 .debug_aranges
                0x0000000000001a70       0x48 ./Debug/debug.o
 .debug_aranges
                0x0000000000001ab8       0xb0 ./Core/core_riscv.o
 .debug_aranges
                0x0000000000001b68       0x98 ./CANopenNode/keypad/CO_driver_ST32F103.o
 .debug_aranges
                0x0000000000001c00       0x18 ./CANopenNode/keypad/OD.o
 .debug_aranges
                0x0000000000001c18       0x48 ./CANopenNode/305/CO_LSSslave.o
 .debug_aranges
                0x0000000000001c60       0x48 ./CANopenNode/301/CO_Emergency.o
 .debug_aranges
                0x0000000000001ca8       0x38 ./CANopenNode/301/CO_NMT_Heartbeat.o
 .debug_aranges
                0x0000000000001ce0       0x60 ./CANopenNode/301/CO_ODinterface.o
 .debug_aranges
                0x0000000000001d40       0x80 ./CANopenNode/301/CO_PDO.o
 .debug_aranges
                0x0000000000001dc0       0x48 ./CANopenNode/301/CO_SDOserver.o
 .debug_aranges
                0x0000000000001e08       0x68 ./CANopenNode/CANopen.o

.debug_ranges   0x0000000000000000     0x3d38
 .debug_ranges  0x0000000000000000       0x88 ./User/CanOpenNode.o
 .debug_ranges  0x0000000000000088      0x818 ./User/DataModel.o
 .debug_ranges  0x00000000000008a0       0x18 ./User/ch32v20x_it.o
 .debug_ranges  0x00000000000008b8      0x298 ./User/dash_draw.o
 .debug_ranges  0x0000000000000b50       0x10 ./User/init.o
 .debug_ranges  0x0000000000000b60      0x160 ./User/inputs.o
 .debug_ranges  0x0000000000000cc0      0x100 ./User/led.o
 .debug_ranges  0x0000000000000dc0       0x20 ./User/main.o
 .debug_ranges  0x0000000000000de0      0x580 ./User/process.o
 .debug_ranges  0x0000000000001360       0x38 ./User/system_ch32v20x.o
 .debug_ranges  0x0000000000001398       0x30 ./User/system_init.o
 .debug_ranges  0x00000000000013c8       0x28 ./Startup/startup_ch32v20x_D6.o
 .debug_ranges  0x00000000000013f0      0x140 ./Peripheral/src/ch32v20x_adc.o
 .debug_ranges  0x0000000000001530       0x68 ./Peripheral/src/ch32v20x_bkp.o
 .debug_ranges  0x0000000000001598       0xf8 ./Peripheral/src/ch32v20x_can.o
 .debug_ranges  0x0000000000001690       0x50 ./Peripheral/src/ch32v20x_dma.o
 .debug_ranges  0x00000000000016e0       0xa0 ./Peripheral/src/ch32v20x_gpio.o
 .debug_ranges  0x0000000000001780      0x100 ./Peripheral/src/ch32v20x_i2c.o
 .debug_ranges  0x0000000000001880       0x48 ./Peripheral/src/ch32v20x_misc.o
 .debug_ranges  0x00000000000018c8       0xf8 ./Peripheral/src/ch32v20x_pwr.o
 .debug_ranges  0x00000000000019c0      0x118 ./Peripheral/src/ch32v20x_rcc.o
 .debug_ranges  0x0000000000001ad8       0x70 ./Peripheral/src/ch32v20x_rtc.o
 .debug_ranges  0x0000000000001b48       0xc0 ./Peripheral/src/ch32v20x_spi.o
 .debug_ranges  0x0000000000001c08      0x2f0 ./Peripheral/src/ch32v20x_tim.o
 .debug_ranges  0x0000000000001ef8       0xf0 ./Peripheral/src/ch32v20x_usart.o
 .debug_ranges  0x0000000000001fe8      0x100 ./HWLIB/hw_lib_adc.o
 .debug_ranges  0x00000000000020e8      0x128 ./HWLIB/hw_lib_din.o
 .debug_ranges  0x0000000000002210       0x48 ./HWLIB/hw_lib_eeprom.o
 .debug_ranges  0x0000000000002258       0x60 ./HAL/hal_adc.o
 .debug_ranges  0x00000000000022b8       0x88 ./HAL/hal_can.o
 .debug_ranges  0x0000000000002340       0x58 ./HAL/hal_dma.o
 .debug_ranges  0x0000000000002398       0x78 ./HAL/hal_gpio.o
 .debug_ranges  0x0000000000002410       0x30 ./HAL/hal_i2c.o
 .debug_ranges  0x0000000000002440       0x20 ./HAL/hal_rtc.o
 .debug_ranges  0x0000000000002460       0x20 ./HAL/hal_spi.o
 .debug_ranges  0x0000000000002480      0x160 ./HAL/hal_timers.o
 .debug_ranges  0x00000000000025e0       0x18 ./HAL/hal_wdt.o
 .debug_ranges  0x00000000000025f8       0x40 ./FreeRTOS/portable/MemMang/heap_4.o
 .debug_ranges  0x0000000000002638       0x60 ./FreeRTOS/portable/GCC/RISC-V/port.o
 .debug_ranges  0x0000000000002698       0x30 ./FreeRTOS/list.o
 .debug_ranges  0x00000000000026c8      0x2d8 ./FreeRTOS/queue.o
 .debug_ranges  0x00000000000029a0      0x3e0 ./FreeRTOS/tasks.o
 .debug_ranges  0x0000000000002d80      0x198 ./FreeRTOS/timers.o
 .debug_ranges  0x0000000000002f18       0x90 ./Drivers/filters.o
 .debug_ranges  0x0000000000002fa8       0x38 ./Debug/debug.o
 .debug_ranges  0x0000000000002fe0       0xa0 ./Core/core_riscv.o
 .debug_ranges  0x0000000000003080       0xe8 ./CANopenNode/keypad/CO_driver_ST32F103.o
 .debug_ranges  0x0000000000003168       0xf0 ./CANopenNode/305/CO_LSSslave.o
 .debug_ranges  0x0000000000003258      0x140 ./CANopenNode/301/CO_Emergency.o
 .debug_ranges  0x0000000000003398       0x90 ./CANopenNode/301/CO_NMT_Heartbeat.o
 .debug_ranges  0x0000000000003428       0xd8 ./CANopenNode/301/CO_ODinterface.o
 .debug_ranges  0x0000000000003500      0x480 ./CANopenNode/301/CO_PDO.o
 .debug_ranges  0x0000000000003980      0x270 ./CANopenNode/301/CO_SDOserver.o
 .debug_ranges  0x0000000000003bf0      0x148 ./CANopenNode/CANopen.o

.debug_line     0x0000000000000000    0x36103
 .debug_line    0x0000000000000000      0xa81 ./User/CanOpenNode.o
 .debug_line    0x0000000000000a81     0x1998 ./User/DataModel.o
 .debug_line    0x0000000000002419      0x39c ./User/ch32v20x_it.o
 .debug_line    0x00000000000027b5     0x202e ./User/dash_draw.o
 .debug_line    0x00000000000047e3      0x4dc ./User/init.o
 .debug_line    0x0000000000004cbf      0xf80 ./User/inputs.o
 .debug_line    0x0000000000005c3f     0x105d ./User/led.o
 .debug_line    0x0000000000006c9c      0x4dd ./User/main.o
 .debug_line    0x0000000000007179     0x1c75 ./User/process.o
 .debug_line    0x0000000000008dee      0x660 ./User/system_ch32v20x.o
 .debug_line    0x000000000000944e      0x6f4 ./User/system_init.o
 .debug_line    0x0000000000009b42      0x25f ./Startup/startup_ch32v20x_D6.o
 .debug_line    0x0000000000009da1     0x1a80 ./Peripheral/src/ch32v20x_adc.o
 .debug_line    0x000000000000b821      0x61d ./Peripheral/src/ch32v20x_bkp.o
 .debug_line    0x000000000000be3e     0x1a28 ./Peripheral/src/ch32v20x_can.o
 .debug_line    0x000000000000d866      0x76a ./Peripheral/src/ch32v20x_dma.o
 .debug_line    0x000000000000dfd0     0x14b1 ./Peripheral/src/ch32v20x_gpio.o
 .debug_line    0x000000000000f481     0x10f0 ./Peripheral/src/ch32v20x_i2c.o
 .debug_line    0x0000000000010571      0x484 ./Peripheral/src/ch32v20x_misc.o
 .debug_line    0x00000000000109f5      0xa79 ./Peripheral/src/ch32v20x_pwr.o
 .debug_line    0x000000000001146e     0x1122 ./Peripheral/src/ch32v20x_rcc.o
 .debug_line    0x0000000000012590      0x75a ./Peripheral/src/ch32v20x_rtc.o
 .debug_line    0x0000000000012cea      0xcba ./Peripheral/src/ch32v20x_spi.o
 .debug_line    0x00000000000139a4     0x30a3 ./Peripheral/src/ch32v20x_tim.o
 .debug_line    0x0000000000016a47      0xf5a ./Peripheral/src/ch32v20x_usart.o
 .debug_line    0x00000000000179a1      0xa8c ./HWLIB/hw_lib_adc.o
 .debug_line    0x000000000001842d      0xf8e ./HWLIB/hw_lib_din.o
 .debug_line    0x00000000000193bb      0x637 ./HWLIB/hw_lib_eeprom.o
 .debug_line    0x00000000000199f2      0x7ea ./HAL/hal_adc.o
 .debug_line    0x000000000001a1dc      0xba4 ./HAL/hal_can.o
 .debug_line    0x000000000001ad80      0xabe ./HAL/hal_dma.o
 .debug_line    0x000000000001b83e      0x8c3 ./HAL/hal_gpio.o
 .debug_line    0x000000000001c101      0xe26 ./HAL/hal_i2c.o
 .debug_line    0x000000000001cf27      0x4b8 ./HAL/hal_rtc.o
 .debug_line    0x000000000001d3df      0x462 ./HAL/hal_spi.o
 .debug_line    0x000000000001d841     0x148f ./HAL/hal_timers.o
 .debug_line    0x000000000001ecd0      0x33b ./HAL/hal_wdt.o
 .debug_line    0x000000000001f00b      0xc01 ./FreeRTOS/portable/MemMang/heap_4.o
 .debug_line    0x000000000001fc0c      0x71a ./FreeRTOS/portable/GCC/RISC-V/port.o
 .debug_line    0x0000000000020326      0x368 ./FreeRTOS/portable/GCC/RISC-V/portASM.o
 .debug_line    0x000000000002068e      0x626 ./FreeRTOS/list.o
 .debug_line    0x0000000000020cb4     0x3356 ./FreeRTOS/queue.o
 .debug_line    0x000000000002400a     0x4c89 ./FreeRTOS/tasks.o
 .debug_line    0x0000000000028c93     0x17d6 ./FreeRTOS/timers.o
 .debug_line    0x000000000002a469      0x752 ./Drivers/filters.o
 .debug_line    0x000000000002abbb      0x6b5 ./Debug/debug.o
 .debug_line    0x000000000002b270      0x446 ./Core/core_riscv.o
 .debug_line    0x000000000002b6b6     0x1171 ./CANopenNode/keypad/CO_driver_ST32F103.o
 .debug_line    0x000000000002c827      0x341 ./CANopenNode/keypad/OD.o
 .debug_line    0x000000000002cb68      0xfdd ./CANopenNode/305/CO_LSSslave.o
 .debug_line    0x000000000002db45     0x1109 ./CANopenNode/301/CO_Emergency.o
 .debug_line    0x000000000002ec4e      0xb11 ./CANopenNode/301/CO_NMT_Heartbeat.o
 .debug_line    0x000000000002f75f      0xe65 ./CANopenNode/301/CO_ODinterface.o
 .debug_line    0x00000000000305c4     0x2793 ./CANopenNode/301/CO_PDO.o
 .debug_line    0x0000000000032d57     0x23be ./CANopenNode/301/CO_SDOserver.o
 .debug_line    0x0000000000035115      0xfee ./CANopenNode/CANopen.o

.debug_str      0x0000000000000000     0xcf7e
 .debug_str     0x0000000000000000     0x24af ./User/CanOpenNode.o
                                       0x261c (size before relaxing)
 .debug_str     0x00000000000024af      0x3ba ./User/DataModel.o
                                       0x1671 (size before relaxing)
 .debug_str     0x0000000000002869       0x6e ./User/ch32v20x_it.o
                                        0x6aa (size before relaxing)
 .debug_str     0x00000000000028d7      0x90b ./User/dash_draw.o
                                       0x1cdd (size before relaxing)
 .debug_str     0x00000000000031e2      0x1d7 ./User/init.o
                                        0xac7 (size before relaxing)
 .debug_str     0x00000000000033b9      0xc15 ./User/inputs.o
                                       0x2457 (size before relaxing)
 .debug_str     0x0000000000003fce      0x1df ./User/led.o
                                        0xc0c (size before relaxing)
 .debug_str     0x00000000000041ad       0xb3 ./User/main.o
                                       0x12be (size before relaxing)
 .debug_str     0x0000000000004260      0x50c ./User/process.o
                                       0x198f (size before relaxing)
 .debug_str     0x000000000000476c       0xf6 ./User/system_ch32v20x.o
                                        0x6d8 (size before relaxing)
 .debug_str     0x0000000000004862      0x33d ./User/system_init.o
                                       0x169b (size before relaxing)
 .debug_str     0x0000000000004b9f       0x2d ./Startup/startup_ch32v20x_D6.o
                                         0x4c (size before relaxing)
 .debug_str     0x0000000000004bcc      0x557 ./Peripheral/src/ch32v20x_adc.o
                                        0xc22 (size before relaxing)
 .debug_str     0x0000000000005123      0x3b0 ./Peripheral/src/ch32v20x_bkp.o
                                        0xab0 (size before relaxing)
 .debug_str     0x00000000000054d3      0x45e ./Peripheral/src/ch32v20x_can.o
                                        0xbc6 (size before relaxing)
 .debug_str     0x0000000000005931      0x1bb ./Peripheral/src/ch32v20x_dma.o
                                        0x7fe (size before relaxing)
 .debug_str     0x0000000000005aec      0x2e7 ./Peripheral/src/ch32v20x_gpio.o
                                        0x9c7 (size before relaxing)
 .debug_str     0x0000000000005dd3      0x434 ./Peripheral/src/ch32v20x_i2c.o
                                        0xaeb (size before relaxing)
 .debug_str     0x0000000000006207      0x114 ./Peripheral/src/ch32v20x_misc.o
                                        0xa90 (size before relaxing)
 .debug_str     0x000000000000631b      0x198 ./Peripheral/src/ch32v20x_pwr.o
                                        0x862 (size before relaxing)
 .debug_str     0x00000000000064b3      0x312 ./Peripheral/src/ch32v20x_rcc.o
                                        0xac7 (size before relaxing)
 .debug_str     0x00000000000067c5      0x194 ./Peripheral/src/ch32v20x_rtc.o
                                        0x7f7 (size before relaxing)
 .debug_str     0x0000000000006959      0x31b ./Peripheral/src/ch32v20x_spi.o
                                        0xa9a (size before relaxing)
 .debug_str     0x0000000000006c74      0xaa8 ./Peripheral/src/ch32v20x_tim.o
                                       0x12c4 (size before relaxing)
 .debug_str     0x000000000000771c      0x409 ./Peripheral/src/ch32v20x_usart.o
                                        0xb22 (size before relaxing)
 .debug_str     0x0000000000007b25      0x178 ./HWLIB/hw_lib_adc.o
                                        0x916 (size before relaxing)
 .debug_str     0x0000000000007c9d      0x149 ./HWLIB/hw_lib_din.o
                                        0xbfb (size before relaxing)
 .debug_str     0x0000000000007de6      0x263 ./HWLIB/hw_lib_eeprom.o
                                        0xa48 (size before relaxing)
 .debug_str     0x0000000000008049      0x11c ./HAL/hal_adc.o
                                        0xe07 (size before relaxing)
 .debug_str     0x0000000000008165      0x255 ./HAL/hal_can.o
                                        0xfd0 (size before relaxing)
 .debug_str     0x00000000000083ba      0x147 ./HAL/hal_dma.o
                                        0xe19 (size before relaxing)
 .debug_str     0x0000000000008501       0xda ./HAL/hal_gpio.o
                                        0x998 (size before relaxing)
 .debug_str     0x00000000000085db       0xf6 ./HAL/hal_i2c.o
                                       0x116f (size before relaxing)
 .debug_str     0x00000000000086d1       0x42 ./HAL/hal_rtc.o
                                        0xac7 (size before relaxing)
 .debug_str     0x0000000000008713       0x3d ./HAL/hal_spi.o
                                        0x826 (size before relaxing)
 .debug_str     0x0000000000008750      0x285 ./HAL/hal_timers.o
                                       0x126e (size before relaxing)
 .debug_str     0x00000000000089d5       0x74 ./HAL/hal_wdt.o
                                        0x6d3 (size before relaxing)
 .debug_str     0x0000000000008a49      0x312 ./FreeRTOS/portable/MemMang/heap_4.o
                                        0x8df (size before relaxing)
 .debug_str     0x0000000000008d5b       0xfa ./FreeRTOS/portable/GCC/RISC-V/port.o
                                        0xb22 (size before relaxing)
 .debug_str     0x0000000000008e55       0x2a ./FreeRTOS/portable/GCC/RISC-V/portASM.o
                                         0x55 (size before relaxing)
 .debug_str     0x0000000000008e7f      0x10f ./FreeRTOS/list.o
                                        0x6e9 (size before relaxing)
 .debug_str     0x0000000000008f8e      0x7c5 ./FreeRTOS/queue.o
                                       0x13d0 (size before relaxing)
 .debug_str     0x0000000000009753      0x8af ./FreeRTOS/tasks.o
                                       0x188f (size before relaxing)
 .debug_str     0x000000000000a002      0x551 ./FreeRTOS/timers.o
                                       0x138b (size before relaxing)
 .debug_str     0x000000000000a553       0x56 ./Drivers/filters.o
                                        0x78a (size before relaxing)
 .debug_str     0x000000000000a5a9       0x67 ./Debug/debug.o
                                        0x90a (size before relaxing)
 .debug_str     0x000000000000a610       0xe3 ./Core/core_riscv.o
                                        0x29b (size before relaxing)
 .debug_str     0x000000000000a6f3      0x225 ./CANopenNode/keypad/CO_driver_ST32F103.o
                                        0xf67 (size before relaxing)
 .debug_str     0x000000000000a918      0x73c ./CANopenNode/keypad/OD.o
                                       0x18f1 (size before relaxing)
 .debug_str     0x000000000000b054      0x406 ./CANopenNode/305/CO_LSSslave.o
                                       0x1161 (size before relaxing)
 .debug_str     0x000000000000b45a      0xab8 ./CANopenNode/301/CO_Emergency.o
                                       0x198a (size before relaxing)
 .debug_str     0x000000000000bf12      0x13a ./CANopenNode/301/CO_NMT_Heartbeat.o
                                       0x1569 (size before relaxing)
 .debug_str     0x000000000000c04c       0xb2 ./CANopenNode/301/CO_ODinterface.o
                                        0xa8c (size before relaxing)
 .debug_str     0x000000000000c0fe      0x343 ./CANopenNode/301/CO_PDO.o
                                       0x1b28 (size before relaxing)
 .debug_str     0x000000000000c441      0xa39 ./CANopenNode/301/CO_SDOserver.o
                                       0x1d6f (size before relaxing)
 .debug_str     0x000000000000ce7a      0x104 ./CANopenNode/CANopen.o
                                       0x2534 (size before relaxing)

.comment        0x0000000000000000       0x33
 .comment       0x0000000000000000       0x33 ./User/CanOpenNode.o
                                         0x34 (size before relaxing)
 .comment       0x0000000000000033       0x34 ./User/DataModel.o
 .comment       0x0000000000000033       0x34 ./User/ch32v20x_it.o
 .comment       0x0000000000000033       0x34 ./User/dash_draw.o
 .comment       0x0000000000000033       0x34 ./User/init.o
 .comment       0x0000000000000033       0x34 ./User/inputs.o
 .comment       0x0000000000000033       0x34 ./User/led.o
 .comment       0x0000000000000033       0x34 ./User/main.o
 .comment       0x0000000000000033       0x34 ./User/process.o
 .comment       0x0000000000000033       0x34 ./User/system_ch32v20x.o
 .comment       0x0000000000000033       0x34 ./User/system_init.o
 .comment       0x0000000000000033       0x34 ./Peripheral/src/ch32v20x_adc.o
 .comment       0x0000000000000033       0x34 ./Peripheral/src/ch32v20x_bkp.o
 .comment       0x0000000000000033       0x34 ./Peripheral/src/ch32v20x_can.o
 .comment       0x0000000000000033       0x34 ./Peripheral/src/ch32v20x_dma.o
 .comment       0x0000000000000033       0x34 ./Peripheral/src/ch32v20x_gpio.o
 .comment       0x0000000000000033       0x34 ./Peripheral/src/ch32v20x_i2c.o
 .comment       0x0000000000000033       0x34 ./Peripheral/src/ch32v20x_misc.o
 .comment       0x0000000000000033       0x34 ./Peripheral/src/ch32v20x_pwr.o
 .comment       0x0000000000000033       0x34 ./Peripheral/src/ch32v20x_rcc.o
 .comment       0x0000000000000033       0x34 ./Peripheral/src/ch32v20x_rtc.o
 .comment       0x0000000000000033       0x34 ./Peripheral/src/ch32v20x_spi.o
 .comment       0x0000000000000033       0x34 ./Peripheral/src/ch32v20x_tim.o
 .comment       0x0000000000000033       0x34 ./Peripheral/src/ch32v20x_usart.o
 .comment       0x0000000000000033       0x34 ./HWLIB/hw_lib_adc.o
 .comment       0x0000000000000033       0x34 ./HWLIB/hw_lib_din.o
 .comment       0x0000000000000033       0x34 ./HWLIB/hw_lib_eeprom.o
 .comment       0x0000000000000033       0x34 ./HAL/hal_adc.o
 .comment       0x0000000000000033       0x34 ./HAL/hal_can.o
 .comment       0x0000000000000033       0x34 ./HAL/hal_dma.o
 .comment       0x0000000000000033       0x34 ./HAL/hal_gpio.o
 .comment       0x0000000000000033       0x34 ./HAL/hal_i2c.o
 .comment       0x0000000000000033       0x34 ./HAL/hal_rtc.o
 .comment       0x0000000000000033       0x34 ./HAL/hal_spi.o
 .comment       0x0000000000000033       0x34 ./HAL/hal_timers.o
 .comment       0x0000000000000033       0x34 ./HAL/hal_wdt.o
 .comment       0x0000000000000033       0x34 ./FreeRTOS/portable/MemMang/heap_4.o
 .comment       0x0000000000000033       0x34 ./FreeRTOS/portable/GCC/RISC-V/port.o
 .comment       0x0000000000000033       0x34 ./FreeRTOS/list.o
 .comment       0x0000000000000033       0x34 ./FreeRTOS/queue.o
 .comment       0x0000000000000033       0x34 ./FreeRTOS/tasks.o
 .comment       0x0000000000000033       0x34 ./FreeRTOS/timers.o
 .comment       0x0000000000000033       0x34 ./Drivers/filters.o
 .comment       0x0000000000000033       0x34 ./Debug/debug.o
 .comment       0x0000000000000033       0x34 ./Core/core_riscv.o
 .comment       0x0000000000000033       0x34 ./CANopenNode/keypad/CO_driver_ST32F103.o
 .comment       0x0000000000000033       0x34 ./CANopenNode/keypad/OD.o
 .comment       0x0000000000000033       0x34 ./CANopenNode/305/CO_LSSslave.o
 .comment       0x0000000000000033       0x34 ./CANopenNode/301/CO_Emergency.o
 .comment       0x0000000000000033       0x34 ./CANopenNode/301/CO_NMT_Heartbeat.o
 .comment       0x0000000000000033       0x34 ./CANopenNode/301/CO_ODinterface.o
 .comment       0x0000000000000033       0x34 ./CANopenNode/301/CO_PDO.o
 .comment       0x0000000000000033       0x34 ./CANopenNode/301/CO_SDOserver.o
 .comment       0x0000000000000033       0x34 ./CANopenNode/CANopen.o

.debug_frame    0x0000000000000000     0x65ac
 .debug_frame   0x0000000000000000       0x90 ./User/CanOpenNode.o
 .debug_frame   0x0000000000000090      0x190 ./User/DataModel.o
 .debug_frame   0x0000000000000220       0x58 ./User/ch32v20x_it.o
 .debug_frame   0x0000000000000278      0x318 ./User/dash_draw.o
 .debug_frame   0x0000000000000590       0x34 ./User/init.o
 .debug_frame   0x00000000000005c4      0x180 ./User/inputs.o
 .debug_frame   0x0000000000000744      0x158 ./User/led.o
 .debug_frame   0x000000000000089c       0x48 ./User/main.o
 .debug_frame   0x00000000000008e4      0x550 ./User/process.o
 .debug_frame   0x0000000000000e34       0x3c ./User/system_ch32v20x.o
 .debug_frame   0x0000000000000e70       0x94 ./User/system_init.o
 .debug_frame   0x0000000000000f04      0x2b4 ./Peripheral/src/ch32v20x_adc.o
 .debug_frame   0x00000000000011b8       0xec ./Peripheral/src/ch32v20x_bkp.o
 .debug_frame   0x00000000000012a4      0x19c ./Peripheral/src/ch32v20x_can.o
 .debug_frame   0x0000000000001440       0xcc ./Peripheral/src/ch32v20x_dma.o
 .debug_frame   0x000000000000150c      0x170 ./Peripheral/src/ch32v20x_gpio.o
 .debug_frame   0x000000000000167c      0x264 ./Peripheral/src/ch32v20x_i2c.o
 .debug_frame   0x00000000000018e0       0x30 ./Peripheral/src/ch32v20x_misc.o
 .debug_frame   0x0000000000001910       0xfc ./Peripheral/src/ch32v20x_pwr.o
 .debug_frame   0x0000000000001a0c      0x244 ./Peripheral/src/ch32v20x_rcc.o
 .debug_frame   0x0000000000001c50      0x12c ./Peripheral/src/ch32v20x_rtc.o
 .debug_frame   0x0000000000001d7c      0x1a8 ./Peripheral/src/ch32v20x_spi.o
 .debug_frame   0x0000000000001f24      0x614 ./Peripheral/src/ch32v20x_tim.o
 .debug_frame   0x0000000000002538      0x204 ./Peripheral/src/ch32v20x_usart.o
 .debug_frame   0x000000000000273c      0x190 ./HWLIB/hw_lib_adc.o
 .debug_frame   0x00000000000028cc      0x228 ./HWLIB/hw_lib_din.o
 .debug_frame   0x0000000000002af4       0xc8 ./HWLIB/hw_lib_eeprom.o
 .debug_frame   0x0000000000002bbc      0x138 ./HAL/hal_adc.o
 .debug_frame   0x0000000000002cf4      0x27c ./HAL/hal_can.o
 .debug_frame   0x0000000000002f70      0x27c ./HAL/hal_dma.o
 .debug_frame   0x00000000000031ec      0x170 ./HAL/hal_gpio.o
 .debug_frame   0x000000000000335c      0x218 ./HAL/hal_i2c.o
 .debug_frame   0x0000000000003574       0xac ./HAL/hal_rtc.o
 .debug_frame   0x0000000000003620       0x74 ./HAL/hal_spi.o
 .debug_frame   0x0000000000003694      0x424 ./HAL/hal_timers.o
 .debug_frame   0x0000000000003ab8       0x50 ./HAL/hal_wdt.o
 .debug_frame   0x0000000000003b08       0xc8 ./FreeRTOS/portable/MemMang/heap_4.o
 .debug_frame   0x0000000000003bd0       0xf4 ./FreeRTOS/portable/GCC/RISC-V/port.o
 .debug_frame   0x0000000000003cc4       0x60 ./FreeRTOS/list.o
 .debug_frame   0x0000000000003d24      0x4a8 ./FreeRTOS/queue.o
 .debug_frame   0x00000000000041cc      0x67c ./FreeRTOS/tasks.o
 .debug_frame   0x0000000000004848      0x2d0 ./FreeRTOS/timers.o
 .debug_frame   0x0000000000004b18       0xb0 ./Drivers/filters.o
 .debug_frame   0x0000000000004bc8       0x9c ./Debug/debug.o
 .debug_frame   0x0000000000004c64      0x140 ./Core/core_riscv.o
 .debug_frame   0x0000000000004da4      0x1f0 ./CANopenNode/keypad/CO_driver_ST32F103.o
 .debug_frame   0x0000000000004f94       0xe0 ./CANopenNode/305/CO_LSSslave.o
 .debug_frame   0x0000000000005074      0x108 ./CANopenNode/301/CO_Emergency.o
 .debug_frame   0x000000000000517c       0xac ./CANopenNode/301/CO_NMT_Heartbeat.o
 .debug_frame   0x0000000000005228      0x128 ./CANopenNode/301/CO_ODinterface.o
 .debug_frame   0x0000000000005350      0x314 ./CANopenNode/301/CO_PDO.o
 .debug_frame   0x0000000000005664      0x14c ./CANopenNode/301/CO_SDOserver.o
 .debug_frame   0x00000000000057b0      0x1d0 ./CANopenNode/CANopen.o
 .debug_frame   0x0000000000005980       0x40 c:/mounriver/mounriver_studio/toolchain/risc-v embedded gcc/bin/../lib/gcc/riscv-none-embed/8.2.0/rv32imacxw/ilp32\libgcc.a(addsf3.o)
 .debug_frame   0x00000000000059c0       0x50 c:/mounriver/mounriver_studio/toolchain/risc-v embedded gcc/bin/../lib/gcc/riscv-none-embed/8.2.0/rv32imacxw/ilp32\libgcc.a(divsf3.o)
 .debug_frame   0x0000000000005a10       0x20 c:/mounriver/mounriver_studio/toolchain/risc-v embedded gcc/bin/../lib/gcc/riscv-none-embed/8.2.0/rv32imacxw/ilp32\libgcc.a(gesf2.o)
 .debug_frame   0x0000000000005a30       0x20 c:/mounriver/mounriver_studio/toolchain/risc-v embedded gcc/bin/../lib/gcc/riscv-none-embed/8.2.0/rv32imacxw/ilp32\libgcc.a(lesf2.o)
 .debug_frame   0x0000000000005a50       0x50 c:/mounriver/mounriver_studio/toolchain/risc-v embedded gcc/bin/../lib/gcc/riscv-none-embed/8.2.0/rv32imacxw/ilp32\libgcc.a(mulsf3.o)
 .debug_frame   0x0000000000005aa0       0x3c c:/mounriver/mounriver_studio/toolchain/risc-v embedded gcc/bin/../lib/gcc/riscv-none-embed/8.2.0/rv32imacxw/ilp32\libgcc.a(subsf3.o)
 .debug_frame   0x0000000000005adc       0x20 c:/mounriver/mounriver_studio/toolchain/risc-v embedded gcc/bin/../lib/gcc/riscv-none-embed/8.2.0/rv32imacxw/ilp32\libgcc.a(fixsfsi.o)
 .debug_frame   0x0000000000005afc       0x20 c:/mounriver/mounriver_studio/toolchain/risc-v embedded gcc/bin/../lib/gcc/riscv-none-embed/8.2.0/rv32imacxw/ilp32\libgcc.a(fixunssfsi.o)
 .debug_frame   0x0000000000005b1c       0x38 c:/mounriver/mounriver_studio/toolchain/risc-v embedded gcc/bin/../lib/gcc/riscv-none-embed/8.2.0/rv32imacxw/ilp32\libgcc.a(floatsisf.o)
 .debug_frame   0x0000000000005b54       0x44 c:/mounriver/mounriver_studio/toolchain/risc-v embedded gcc/bin/../lib/gcc/riscv-none-embed/8.2.0/rv32imacxw/ilp32\libgcc.a(floatunsisf.o)
 .debug_frame   0x0000000000005b98       0x20 c:/mounriver/mounriver_studio/toolchain/risc-v embedded gcc/bin/../lib/gcc/riscv-none-embed/8.2.0/rv32imacxw/ilp32\libgcc.a(_clzsi2.o)
 .debug_frame   0x0000000000005bb8       0x20 c:/mounriver/mounriver_studio/toolchain/risc-v embedded gcc/bin/../lib/gcc/riscv-none-embed/8.2.0/../../../../riscv-none-embed/lib/rv32imacxw/ilp32\libg_nano.a(lib_a-calloc.o)
 .debug_frame   0x0000000000005bd8       0x30 c:/mounriver/mounriver_studio/toolchain/risc-v embedded gcc/bin/../lib/gcc/riscv-none-embed/8.2.0/../../../../riscv-none-embed/lib/rv32imacxw/ilp32\libg_nano.a(lib_a-malloc.o)
 .debug_frame   0x0000000000005c08       0x20 c:/mounriver/mounriver_studio/toolchain/risc-v embedded gcc/bin/../lib/gcc/riscv-none-embed/8.2.0/../../../../riscv-none-embed/lib/rv32imacxw/ilp32\libg_nano.a(lib_a-memcpy.o)
 .debug_frame   0x0000000000005c28       0x20 c:/mounriver/mounriver_studio/toolchain/risc-v embedded gcc/bin/../lib/gcc/riscv-none-embed/8.2.0/../../../../riscv-none-embed/lib/rv32imacxw/ilp32\libg_nano.a(lib_a-memmove.o)
 .debug_frame   0x0000000000005c48       0x30 c:/mounriver/mounriver_studio/toolchain/risc-v embedded gcc/bin/../lib/gcc/riscv-none-embed/8.2.0/../../../../riscv-none-embed/lib/rv32imacxw/ilp32\libg_nano.a(lib_a-nano-callocr.o)
 .debug_frame   0x0000000000005c78       0x40 c:/mounriver/mounriver_studio/toolchain/risc-v embedded gcc/bin/../lib/gcc/riscv-none-embed/8.2.0/../../../../riscv-none-embed/lib/rv32imacxw/ilp32\libg_nano.a(lib_a-nano-freer.o)
 .debug_frame   0x0000000000005cb8       0x40 c:/mounriver/mounriver_studio/toolchain/risc-v embedded gcc/bin/../lib/gcc/riscv-none-embed/8.2.0/../../../../riscv-none-embed/lib/rv32imacxw/ilp32\libg_nano.a(lib_a-nano-mallocr.o)
 .debug_frame   0x0000000000005cf8       0x54 c:/mounriver/mounriver_studio/toolchain/risc-v embedded gcc/bin/../lib/gcc/riscv-none-embed/8.2.0/../../../../riscv-none-embed/lib/rv32imacxw/ilp32\libg_nano.a(lib_a-printf.o)
 .debug_frame   0x0000000000005d4c       0x54 c:/mounriver/mounriver_studio/toolchain/risc-v embedded gcc/bin/../lib/gcc/riscv-none-embed/8.2.0/../../../../riscv-none-embed/lib/rv32imacxw/ilp32\libg_nano.a(lib_a-puts.o)
 .debug_frame   0x0000000000005da0       0x30 c:/mounriver/mounriver_studio/toolchain/risc-v embedded gcc/bin/../lib/gcc/riscv-none-embed/8.2.0/../../../../riscv-none-embed/lib/rv32imacxw/ilp32\libg_nano.a(lib_a-sbrkr.o)
 .debug_frame   0x0000000000005dd0       0x20 c:/mounriver/mounriver_studio/toolchain/risc-v embedded gcc/bin/../lib/gcc/riscv-none-embed/8.2.0/../../../../riscv-none-embed/lib/rv32imacxw/ilp32\libg_nano.a(lib_a-strlen.o)
 .debug_frame   0x0000000000005df0       0x50 c:/mounriver/mounriver_studio/toolchain/risc-v embedded gcc/bin/../lib/gcc/riscv-none-embed/8.2.0/../../../../riscv-none-embed/lib/rv32imacxw/ilp32\libg_nano.a(lib_a-wbuf.o)
 .debug_frame   0x0000000000005e40       0x3c c:/mounriver/mounriver_studio/toolchain/risc-v embedded gcc/bin/../lib/gcc/riscv-none-embed/8.2.0/../../../../riscv-none-embed/lib/rv32imacxw/ilp32\libg_nano.a(lib_a-wsetup.o)
 .debug_frame   0x0000000000005e7c       0x7c c:/mounriver/mounriver_studio/toolchain/risc-v embedded gcc/bin/../lib/gcc/riscv-none-embed/8.2.0/../../../../riscv-none-embed/lib/rv32imacxw/ilp32\libg_nano.a(lib_a-fflush.o)
 .debug_frame   0x0000000000005ef8      0x148 c:/mounriver/mounriver_studio/toolchain/risc-v embedded gcc/bin/../lib/gcc/riscv-none-embed/8.2.0/../../../../riscv-none-embed/lib/rv32imacxw/ilp32\libg_nano.a(lib_a-findfp.o)
 .debug_frame   0x0000000000006040       0x88 c:/mounriver/mounriver_studio/toolchain/risc-v embedded gcc/bin/../lib/gcc/riscv-none-embed/8.2.0/../../../../riscv-none-embed/lib/rv32imacxw/ilp32\libg_nano.a(lib_a-fwalk.o)
 .debug_frame   0x00000000000060c8       0x64 c:/mounriver/mounriver_studio/toolchain/risc-v embedded gcc/bin/../lib/gcc/riscv-none-embed/8.2.0/../../../../riscv-none-embed/lib/rv32imacxw/ilp32\libg_nano.a(lib_a-makebuf.o)
 .debug_frame   0x000000000000612c       0x30 c:/mounriver/mounriver_studio/toolchain/risc-v embedded gcc/bin/../lib/gcc/riscv-none-embed/8.2.0/../../../../riscv-none-embed/lib/rv32imacxw/ilp32\libg_nano.a(lib_a-mlock.o)
 .debug_frame   0x000000000000615c       0xd0 c:/mounriver/mounriver_studio/toolchain/risc-v embedded gcc/bin/../lib/gcc/riscv-none-embed/8.2.0/../../../../riscv-none-embed/lib/rv32imacxw/ilp32\libg_nano.a(lib_a-nano-vfprintf.o)
 .debug_frame   0x000000000000622c       0x8c c:/mounriver/mounriver_studio/toolchain/risc-v embedded gcc/bin/../lib/gcc/riscv-none-embed/8.2.0/../../../../riscv-none-embed/lib/rv32imacxw/ilp32\libg_nano.a(lib_a-nano-vfprintf_i.o)
 .debug_frame   0x00000000000062b8       0x70 c:/mounriver/mounriver_studio/toolchain/risc-v embedded gcc/bin/../lib/gcc/riscv-none-embed/8.2.0/../../../../riscv-none-embed/lib/rv32imacxw/ilp32\libg_nano.a(lib_a-reent.o)
 .debug_frame   0x0000000000006328       0xa4 c:/mounriver/mounriver_studio/toolchain/risc-v embedded gcc/bin/../lib/gcc/riscv-none-embed/8.2.0/../../../../riscv-none-embed/lib/rv32imacxw/ilp32\libg_nano.a(lib_a-stdio.o)
 .debug_frame   0x00000000000063cc       0x30 c:/mounriver/mounriver_studio/toolchain/risc-v embedded gcc/bin/../lib/gcc/riscv-none-embed/8.2.0/../../../../riscv-none-embed/lib/rv32imacxw/ilp32\libg_nano.a(lib_a-writer.o)
 .debug_frame   0x00000000000063fc       0x30 c:/mounriver/mounriver_studio/toolchain/risc-v embedded gcc/bin/../lib/gcc/riscv-none-embed/8.2.0/../../../../riscv-none-embed/lib/rv32imacxw/ilp32\libg_nano.a(lib_a-closer.o)
 .debug_frame   0x000000000000642c       0x30 c:/mounriver/mounriver_studio/toolchain/risc-v embedded gcc/bin/../lib/gcc/riscv-none-embed/8.2.0/../../../../riscv-none-embed/lib/rv32imacxw/ilp32\libg_nano.a(lib_a-fstatr.o)
 .debug_frame   0x000000000000645c       0x30 c:/mounriver/mounriver_studio/toolchain/risc-v embedded gcc/bin/../lib/gcc/riscv-none-embed/8.2.0/../../../../riscv-none-embed/lib/rv32imacxw/ilp32\libg_nano.a(lib_a-isattyr.o)
 .debug_frame   0x000000000000648c       0x30 c:/mounriver/mounriver_studio/toolchain/risc-v embedded gcc/bin/../lib/gcc/riscv-none-embed/8.2.0/../../../../riscv-none-embed/lib/rv32imacxw/ilp32\libg_nano.a(lib_a-lseekr.o)
 .debug_frame   0x00000000000064bc       0x20 c:/mounriver/mounriver_studio/toolchain/risc-v embedded gcc/bin/../lib/gcc/riscv-none-embed/8.2.0/../../../../riscv-none-embed/lib/rv32imacxw/ilp32\libg_nano.a(lib_a-memchr.o)
 .debug_frame   0x00000000000064dc       0x30 c:/mounriver/mounriver_studio/toolchain/risc-v embedded gcc/bin/../lib/gcc/riscv-none-embed/8.2.0/../../../../riscv-none-embed/lib/rv32imacxw/ilp32\libg_nano.a(lib_a-readr.o)
 .debug_frame   0x000000000000650c       0x20 c:/mounriver/mounriver_studio/toolchain/risc-v embedded gcc/bin/../lib/gcc/riscv-none-embed/8.2.0/../../../../riscv-none-embed/lib/rv32imacxw/ilp32\libnosys.a(close.o)
 .debug_frame   0x000000000000652c       0x20 c:/mounriver/mounriver_studio/toolchain/risc-v embedded gcc/bin/../lib/gcc/riscv-none-embed/8.2.0/../../../../riscv-none-embed/lib/rv32imacxw/ilp32\libnosys.a(fstat.o)
 .debug_frame   0x000000000000654c       0x20 c:/mounriver/mounriver_studio/toolchain/risc-v embedded gcc/bin/../lib/gcc/riscv-none-embed/8.2.0/../../../../riscv-none-embed/lib/rv32imacxw/ilp32\libnosys.a(isatty.o)
 .debug_frame   0x000000000000656c       0x20 c:/mounriver/mounriver_studio/toolchain/risc-v embedded gcc/bin/../lib/gcc/riscv-none-embed/8.2.0/../../../../riscv-none-embed/lib/rv32imacxw/ilp32\libnosys.a(lseek.o)
 .debug_frame   0x000000000000658c       0x20 c:/mounriver/mounriver_studio/toolchain/risc-v embedded gcc/bin/../lib/gcc/riscv-none-embed/8.2.0/../../../../riscv-none-embed/lib/rv32imacxw/ilp32\libnosys.a(read.o)

.stab           0x0000000000000000       0x84
 .stab          0x0000000000000000       0x24 c:/mounriver/mounriver_studio/toolchain/risc-v embedded gcc/bin/../lib/gcc/riscv-none-embed/8.2.0/../../../../riscv-none-embed/lib/rv32imacxw/ilp32\libnosys.a(close.o)
 .stab          0x0000000000000024       0x18 c:/mounriver/mounriver_studio/toolchain/risc-v embedded gcc/bin/../lib/gcc/riscv-none-embed/8.2.0/../../../../riscv-none-embed/lib/rv32imacxw/ilp32\libnosys.a(fstat.o)
                                         0x24 (size before relaxing)
 .stab          0x000000000000003c       0x18 c:/mounriver/mounriver_studio/toolchain/risc-v embedded gcc/bin/../lib/gcc/riscv-none-embed/8.2.0/../../../../riscv-none-embed/lib/rv32imacxw/ilp32\libnosys.a(isatty.o)
                                         0x24 (size before relaxing)
 .stab          0x0000000000000054       0x18 c:/mounriver/mounriver_studio/toolchain/risc-v embedded gcc/bin/../lib/gcc/riscv-none-embed/8.2.0/../../../../riscv-none-embed/lib/rv32imacxw/ilp32\libnosys.a(lseek.o)
                                         0x24 (size before relaxing)
 .stab          0x000000000000006c       0x18 c:/mounriver/mounriver_studio/toolchain/risc-v embedded gcc/bin/../lib/gcc/riscv-none-embed/8.2.0/../../../../riscv-none-embed/lib/rv32imacxw/ilp32\libnosys.a(read.o)
                                         0x24 (size before relaxing)

.stabstr        0x0000000000000000      0x117
 .stabstr       0x0000000000000000      0x117 c:/mounriver/mounriver_studio/toolchain/risc-v embedded gcc/bin/../lib/gcc/riscv-none-embed/8.2.0/../../../../riscv-none-embed/lib/rv32imacxw/ilp32\libnosys.a(close.o)
