
DASH.elf:     file format elf32-littleriscv
DASH.elf
architecture: riscv:rv32, flags 0x00000112:
EXEC_P, HAS_SYMS, D_PAGED
start address 0x00000000

Program Header:
    LOAD off    0x00001000 vaddr 0x00000000 paddr 0x00000000 align 2**12
         filesz 0x0000d798 memsz 0x0000d798 flags r-x
    LOAD off    0x0000f000 vaddr 0x20000000 paddr 0x0000d798 align 2**12
         filesz 0x000005c0 memsz 0x00003200 flags rw-
    LOAD off    0x0000f800 vaddr 0x20004800 paddr 0x20004800 align 2**12
         filesz 0x00000000 memsz 0x00000800 flags rw-

Sections:
Idx Name          Size      VMA       LMA       File off  Algn
  0 .init         00000038  00000000  00000000  00001000  2**1
                  CONTENTS, ALLOC, LOAD, READONLY, CODE
  1 .vector       00000108  00000038  00000038  00001038  2**1
                  CONTENTS, ALLOC, LOAD, READONLY, CODE
  2 .text         0000d598  00000200  00000200  00001200  2**8
                  CONTENTS, ALLOC, LOAD, READONLY, CODE
  3 .fini         00000000  0000d798  0000d798  0000f5c0  2**0
                  CONTENTS, ALLOC, LOAD, CODE
  4 .dalign       00000000  20000000  20000000  0000f5c0  2**0
                  CONTENTS
  5 .dlalign      00000000  0000d798  0000d798  0000f5c0  2**0
                  CONTENTS
  6 .data         000005c0  20000000  0000d798  0000f000  2**2
                  CONTENTS, ALLOC, LOAD, DATA
  7 .bss          00002c40  200005c0  0000dd58  0000f5c0  2**2
                  ALLOC
  8 .stack        00000800  20004800  20004800  0000f800  2**0
                  ALLOC
  9 .debug_info   00051a77  00000000  00000000  0000f5c0  2**0
                  CONTENTS, READONLY, DEBUGGING
 10 .debug_abbrev 0000c4f2  00000000  00000000  00061037  2**0
                  CONTENTS, READONLY, DEBUGGING
 11 .debug_loc    00016300  00000000  00000000  0006d529  2**0
                  CONTENTS, READONLY, DEBUGGING
 12 .debug_aranges 00001d90  00000000  00000000  00083830  2**3
                  CONTENTS, READONLY, DEBUGGING
 13 .debug_ranges 000036d0  00000000  00000000  000855c0  2**3
                  CONTENTS, READONLY, DEBUGGING
 14 .debug_line   00034118  00000000  00000000  00088c90  2**0
                  CONTENTS, READONLY, DEBUGGING
 15 .debug_str    0000cb5a  00000000  00000000  000bcda8  2**0
                  CONTENTS, READONLY, DEBUGGING
 16 .comment      00000033  00000000  00000000  000c9902  2**0
                  CONTENTS, READONLY
 17 .debug_frame  00006004  00000000  00000000  000c9938  2**2
                  CONTENTS, READONLY, DEBUGGING
 18 .stab         00000084  00000000  00000000  000cf93c  2**2
                  CONTENTS, READONLY, DEBUGGING
 19 .stabstr      00000117  00000000  00000000  000cf9c0  2**0
                  CONTENTS, READONLY, DEBUGGING
SYMBOL TABLE:
00000000 l    d  .init	00000000 .init
00000038 l    d  .vector	00000000 .vector
00000200 l    d  .text	00000000 .text
0000d798 l    d  .fini	00000000 .fini
20000000 l    d  .dalign	00000000 .dalign
0000d798 l    d  .dlalign	00000000 .dlalign
20000000 l    d  .data	00000000 .data
200005c0 l    d  .bss	00000000 .bss
20004800 l    d  .stack	00000000 .stack
00000000 l    d  .debug_info	00000000 .debug_info
00000000 l    d  .debug_abbrev	00000000 .debug_abbrev
00000000 l    d  .debug_loc	00000000 .debug_loc
00000000 l    d  .debug_aranges	00000000 .debug_aranges
00000000 l    d  .debug_ranges	00000000 .debug_ranges
00000000 l    d  .debug_line	00000000 .debug_line
00000000 l    d  .debug_str	00000000 .debug_str
00000000 l    d  .comment	00000000 .comment
00000000 l    d  .debug_frame	00000000 .debug_frame
00000000 l    d  .stab	00000000 .stab
00000000 l    d  .stabstr	00000000 .stabstr
00000000 l    df *ABS*	00000000 ./Startup/startup_ch32v20x_D6.o
00000038 l       .vector	00000000 _vector_base
00000000 l    df *ABS*	00000000 ./FreeRTOS/portable/GCC/RISC-V/portASM.o
0000025c l       .text	00000000 processed_source
00000428 l       .text	00000000 chip_specific_stack_frame
00000000 l    df *ABS*	00000000 CanOpenNode.c
200005c0 l     O .bss	00000004 CO
200005c4 l     O .bss	00000004 co_heap_used
200005c8 l     O .bss	00000004 pCanOpenPeriodicTaskHandle
200005cc l     O .bss	00000004 pCanOpenProcessTaskHandle
200005d0 l     O .bss	00000004 pcan
200005d4 l     O .bss	00000004 reset
00000000 l    df *ABS*	00000000 DataModel.c
200006c8 l     O .bss	0000021c DATA_MODEL_REGISTER
0000cab0 l     O .text	00000010 CSWTCH.19
200005d8 l     O .bss	00000001 data_init
00000000 l    df *ABS*	00000000 ch32v20x_it.c
00000000 l    df *ABS*	00000000 dash_draw.c
200008e4 l     O .bss	00000038 menu
200005dc l     O .bss	00000004 ErrorRegister
200005e0 l     O .bss	00000001 keystate
200005e4 l     O .bss	00000004 pKeyboard
200005e8 l     O .bss	00000004 pProcessTaskHandle
200005ec l     O .bss	00000004 pTaskToNotifykHandle
00000000 l    df *ABS*	00000000 init.c
00000000 l    df *ABS*	00000000 inputs.c
0000163a l     F .text	0000000e DMA1_Channel7_Callback
00001648 l     F .text	0000000e DMA1_Channel4_Callback
2000091c l     O .bss	0000000a ADC_OLD_RAW
20000928 l     O .bss	00000014 OurVData
2000093c l     O .bss	0000000a ViewData
200005f0 l     O .bss	00000004 OD_AIN_flagsPDO
200005f4 l     O .bss	00000004 OD_DIN_flagsPDO
200005f8 l     O .bss	00000004 pInputsTaskHandle
200005fc l     O .bss	00000004 pTaskToNotifykHandle
20000600 l     O .bss	00000004 xHigherPriorityTaskWoken.7237
00000000 l    df *ABS*	00000000 keyboard_task.c
20000604 l     O .bss	00000001 COUNTERS
20000608 l     O .bss	00000001 STATUS
2000060c l     O .bss	00000004 pKeybardTaskHandle
00000000 l    df *ABS*	00000000 led.c
20000948 l     O .bss	0000000a SPI1_DATA
0000cc30 l     O .text	0000001e Brigth
20000610 l     O .bss	00000008 SPI2_DATA
00000000 l    df *ABS*	00000000 main.c
00000000 l    df *ABS*	00000000 system_ch32v20x.c
00000000 l    df *ABS*	00000000 system_init.c
00002046 l     F .text	0000021a StartDefaultTask
20000db0 l     O .bss	00000af0 CanOpneProccesTaskBuffer
20000954 l     O .bss	00000400 CanOpnePeriodicTaskBuffer
20000d54 l     O .bss	0000005c CanOpnePeriodicTaskControlBlock
200018a0 l     O .bss	0000005c CanOpneProccesTaskControlBlock
200018fc l     O .bss	00000200 InputsTaskBuffer
20001afc l     O .bss	0000005c InputsTaskControlBlock
20001b58 l     O .bss	00000200 KeyboardTaskBuffer
20001d58 l     O .bss	0000005c KeyboardTaskControlBlock
20001db4 l     O .bss	00000400 ProcessTaskBuffer
200021b4 l     O .bss	0000005c ProcessTaskControlBlock
20002210 l     O .bss	00000200 defaultTaskBuffer
20002410 l     O .bss	0000005c defaultTaskControlBlock
2000248c l     O .bss	00000200 uxIdleTaskStack
2000268c l     O .bss	00000200 uxTimerTaskStack
2000288c l     O .bss	0000005c xIdleTaskTCB
200028e8 l     O .bss	00000048 xStaticQueue
20002930 l     O .bss	0000005c xTimerTaskTCB
20000618 l     O .bss	00000004 DeafaultTaskFSM
00000000 l    df *ABS*	00000000 ch32v20x_adc.c
00000000 l    df *ABS*	00000000 ch32v20x_bkp.c
00000000 l    df *ABS*	00000000 ch32v20x_can.c
00000000 l    df *ABS*	00000000 ch32v20x_dma.c
00000000 l    df *ABS*	00000000 ch32v20x_gpio.c
00000000 l    df *ABS*	00000000 ch32v20x_i2c.c
00000000 l    df *ABS*	00000000 ch32v20x_misc.c
00000000 l    df *ABS*	00000000 ch32v20x_pwr.c
00000000 l    df *ABS*	00000000 ch32v20x_rcc.c
20000010 l     O .data	00000010 APBAHBPrescTable
20000584 l     O .data	00000004 ADCPrescTable
00000000 l    df *ABS*	00000000 ch32v20x_rtc.c
00000000 l    df *ABS*	00000000 ch32v20x_spi.c
00000000 l    df *ABS*	00000000 ch32v20x_tim.c
00000000 l    df *ABS*	00000000 ch32v20x_usart.c
00000000 l    df *ABS*	00000000 hw_lib_adc.c
200029ac l     O .bss	0000000e muRawVData
200029bc l     O .bss	0000000a xAinData
20000624 l     O .bss	00000002 usCurMaxIndex
00000000 l    df *ABS*	00000000 hw_lib_din.c
200029c8 l     O .bss	00000070 RPM
20002a38 l     O .bss	00000020 RPM_AVER_FILTER_STRUC
20002a58 l     O .bss	00000020 RPM_MIDIAN_FILTER_STRUC
20002a78 l     O .bss	00000054 xDinConfig
20000628 l     O .bss	00000008 xDoutConfig
00000000 l    df *ABS*	00000000 hw_lib_eeprom.c
20002acc l     O .bss	00000028 Dev
00000000 l    df *ABS*	00000000 hw_lib_keyboard.c
00004018 l     F .text	00000030 vPostState
20002af4 l     O .bss	00000018 Keyboard
20000630 l     O .bss	00000004 pKeyboardQueue
00000000 l    df *ABS*	00000000 hal_adc.c
0000ccd8 l     O .text	00000012 ADC_chennel_ref
20000634 l     O .bss	00000002 Calibrattion_Val
00000000 l    df *ABS*	00000000 hal_can.c
20002b0c l     O .bss	0000000c CAN
00000000 l    df *ABS*	00000000 hal_dma.c
00000000 l    df *ABS*	00000000 hal_gpio.c
00000000 l    df *ABS*	00000000 hal_i2c.c
00004ca2 l     F .text	0000008e I2C_Master_TransmitIT
00004d30 l     F .text	000000a2 I2C_Master_ReviceIT
00004dd2 l     F .text	000001d6 I2C_FSM
00000000 l    df *ABS*	00000000 hal_rtc.c
20000640 l     O .bss	00000004 func
00000000 l    df *ABS*	00000000 hal_spi.c
00000000 l    df *ABS*	00000000 hal_timers.c
000053aa l     F .text	00000048 vTimerInitRCC
20002b54 l     O .bss	0000003c config
0000cd38 l     O .text	00000014 timers
200005ac l     O .data	00000004 CSWTCH.0
00000000 l    df *ABS*	00000000 hal_wdt.c
00000000 l    df *ABS*	00000000 heap_4.c
000058d4 l     F .text	0000004c prvInsertBlockIntoFreeList
20002b90 l     O .bss	00000400 ucHeap
20000644 l     O .bss	00000004 pxEnd
20000648 l     O .bss	00000004 xBlockAllocatedBit
2000064c l     O .bss	00000004 xFreeBytesRemaining
20000650 l     O .bss	00000004 xMinimumEverFreeBytesRemaining
20000654 l     O .bss	00000004 xNumberOfSuccessfulAllocations
20000658 l     O .bss	00000004 xNumberOfSuccessfulFrees
2000065c l     O .bss	00000008 xStart
00000000 l    df *ABS*	00000000 port.c
20000588 l     O .data	00000004 uxCriticalNesting
00000000 l    df *ABS*	00000000 list.c
00000000 l    df *ABS*	00000000 queue.c
00005d86 l     F .text	0000001e prvIsQueueEmpty
00005da4 l     F .text	00000072 prvCopyDataToQueue
00005e16 l     F .text	00000028 prvCopyDataFromQueue
00005e3e l     F .text	00000076 prvUnlockQueue
00000000 l    df *ABS*	00000000 tasks.c
0000670a l     F .text	00000002 prvIdleTask
0000670c l     F .text	0000010e prvAddNewTaskToReadyList
0000681a l     F .text	00000020 prvResetNextTaskUnblockTime
0000683a l     F .text	00000050 prvTaskIsTaskSuspended
0000688a l     F .text	000000c8 prvInitialiseNewTask.isra.2
00006952 l     F .text	000000a4 prvAddCurrentTaskToDelayedList
20002fd0 l     O .bss	0000012c pxReadyTasksLists
200030fc l     O .bss	00000014 xDelayedTaskList1
20003110 l     O .bss	00000014 xDelayedTaskList2
20003124 l     O .bss	00000014 xPendingReadyList
20003138 l     O .bss	00000014 xSuspendedTaskList
20000668 l     O .bss	00000004 pxDelayedTaskList
2000066c l     O .bss	00000004 pxOverflowDelayedTaskList
20000670 l     O .bss	00000004 uxCurrentNumberOfTasks
20000674 l     O .bss	00000004 uxSchedulerSuspended
20000678 l     O .bss	00000004 uxTaskNumber
2000067c l     O .bss	00000004 uxTopReadyPriority
20000680 l     O .bss	00000004 xNextTaskUnblockTime
20000684 l     O .bss	00000004 xNumOfOverflows
20000688 l     O .bss	00000004 xPendedTicks
2000068c l     O .bss	00000004 xSchedulerRunning
20000690 l     O .bss	00000004 xTickCount
20000694 l     O .bss	00000004 xYieldPending
00000000 l    df *ABS*	00000000 timers.c
00007b3c l     F .text	0000006a prvCheckForValidListAndQueue
00007ba6 l     F .text	0000003e prvInsertTimerInActiveList
00007be4 l     F .text	0000002a prvReloadTimer
00007c0e l     F .text	00000042 prvProcessExpiredTimer
00007c50 l     F .text	00000028 prvSwitchTimerLists
00007c78 l     F .text	00000188 prvTimerTask
2000314c l     O .bss	00000040 ucStaticTimerQueueStorage.5818
2000318c l     O .bss	00000014 xActiveTimerList1
200031a0 l     O .bss	00000014 xActiveTimerList2
200031b4 l     O .bss	00000048 xStaticTimerQueue.5817
20000698 l     O .bss	00000004 pxCurrentTimerList
2000069c l     O .bss	00000004 pxOverflowTimerList
200006a0 l     O .bss	00000004 xLastTime.5774
200006a4 l     O .bss	00000004 xTimerQueue
200006a8 l     O .bss	00000004 xTimerTaskHandle
00000000 l    df *ABS*	00000000 filters.c
00000000 l    df *ABS*	00000000 debug.c
200006ac l     O .bss	00000002 p_ms
200006ae l     O .bss	00000001 p_us
20000590 l     O .data	00000004 curbrk.4668
00000000 l    df *ABS*	00000000 core_riscv.c
00000000 l    df *ABS*	00000000 CO_driver_ST32F103.c
000080c4 l     F .text	0000002c prv_send_can_message.isra.0
200006b0 l     O .bss	00000004 CANModule_local
200006bc l     O .bss	00000004 co_mutex
00000000 l    df *ABS*	00000000 CO_LSSslave.c
000083e8 l     F .text	000001a8 CO_LSSslave_receive
0000d4c0 l     O .text	00000014 CO_LSS_bitTimingTableLookup
00000000 l    df *ABS*	00000000 CO_Emergency.c
000087d6 l     F .text	00000028 OD_write_1003
000087fe l     F .text	0000008c OD_read_1003
0000888a l     F .text	00000050 OD_read_1014_default
00000000 l    df *ABS*	00000000 CO_NMT_Heartbeat.c
00008c2e l     F .text	00000018 CO_NMT_receive
00008c46 l     F .text	00000048 OD_write_1017
00000000 l    df *ABS*	00000000 CO_ODinterface.c
00008e80 l     F .text	00000004 OD_readDisabled
00008f28 l     F .text	00000004 OD_writeDisabled
0000d4d4 l     O .text	00000068 abortCodes.6774
00000000 l    df *ABS*	00000000 CO_PDO.c
0000914c l     F .text	00000008 OD_write_dummy
00009154 l     F .text	0000002e OD_read_dummy
00009182 l     F .text	000000fc PDOconfigMap
0000927e l     F .text	00000048 CO_PDO_receive
000092c6 l     F .text	00000070 OD_read_PDO_commParam
00009336 l     F .text	000000e4 PDO_initMapping.constprop.3
0000941a l     F .text	000000b2 OD_write_PDO_mapping
000094cc l     F .text	00000184 OD_write_18xx
00009650 l     F .text	0000015a OD_write_14xx
00000000 l    df *ABS*	00000000 CO_SDOserver.c
00009d60 l     F .text	00000082 CO_SDOserver_init_canRxTx
00009de2 l     F .text	00000038 CO_SDO_receive
00009e1a l     F .text	000000f6 readFromOd.isra.1.constprop.5
00009f10 l     F .text	00000158 OD_write_1201_additional
00000000 l    df *ABS*	00000000 CANopen.c
00000000 l    df *ABS*	00000000 addsf3.c
00000000 l    df *ABS*	00000000 divsf3.c
00000000 l    df *ABS*	00000000 mulsf3.c
00000000 l    df *ABS*	00000000 fixunssfsi.c
00000000 l    df *ABS*	00000000 floatsisf.c
00000000 l    df *ABS*	00000000 floatunsisf.c
00000000 l    df *ABS*	00000000 libgcc2.c
00000000 l    df *ABS*	00000000 calloc.c
00000000 l    df *ABS*	00000000 malloc.c
00000000 l    df *ABS*	00000000 memcpy.c
00000000 l    df *ABS*	00000000 memmove.c
00000000 l    df *ABS*	00000000 nano-mallocr.c
00000000 l    df *ABS*	00000000 nano-mallocr.c
00000000 l    df *ABS*	00000000 nano-mallocr.c
00000000 l    df *ABS*	00000000 printf.c
00000000 l    df *ABS*	00000000 puts.c
00000000 l    df *ABS*	00000000 sbrkr.c
00000000 l    df *ABS*	00000000 strlen.c
00000000 l    df *ABS*	00000000 wbuf.c
00000000 l    df *ABS*	00000000 wsetup.c
00000000 l    df *ABS*	00000000 fflush.c
00000000 l    df *ABS*	00000000 findfp.c
0000beae l     F .text	00000066 std
00000000 l    df *ABS*	00000000 fwalk.c
00000000 l    df *ABS*	00000000 makebuf.c
00000000 l    df *ABS*	00000000 mlock.c
00000000 l    df *ABS*	00000000 nano-vfprintf.c
0000c1cc l     F .text	00000028 __sfputc_r
00000000 l    df *ABS*	00000000 nano-vfprintf_i.c
00000000 l    df *ABS*	00000000 stdio.c
00000000 l    df *ABS*	00000000 writer.c
00000000 l    df *ABS*	00000000 closer.c
00000000 l    df *ABS*	00000000 fstatr.c
00000000 l    df *ABS*	00000000 isattyr.c
00000000 l    df *ABS*	00000000 lseekr.c
00000000 l    df *ABS*	00000000 memchr.c
00000000 l    df *ABS*	00000000 readr.c
00000000 l    df *ABS*	00000000 close.c
00000000 l    df *ABS*	00000000 fstat.c
00000000 l    df *ABS*	00000000 isatty.c
00000000 l    df *ABS*	00000000 lseek.c
00000000 l    df *ABS*	00000000 read.c
00000000 l    df *ABS*	00000000 OD.c
20000020 l     O .data	000002b8 ODList
0000ce64 l     O .text	0000065c ODObjs
200005a0 l     O .data	00000008 _OD
00000000 l    df *ABS*	00000000 libgcc2.c
00000000 l    df *ABS*	00000000 impure.c
20000520 l     O .data	00000060 impure_data
00000000 l    df *ABS*	00000000 reent.c
00001e22 g     F .text	0000002c vLedProcess
00003a4c g     F .text	00000016 TIM_TimeBaseStructInit
00002426  w      .text	00000000 EXTI2_IRQHandler
00009c02 g     F .text	0000015e CO_TPDO_process
00003c76 g     F .text	00000012 eSetDUT
000097aa g     F .text	00000172 CO_RPDO_init
00000f8e g     F .text	0000001a vAcceptError
0000abc8 g     F .text	00000040 CO_process_RPDO
0000c9ae g     F .text	00000030 _isatty_r
00005836 g     F .text	00000080 HAL_TIMER_SetPWMPulse
0000ba38 g     F .text	000000d4 _puts_r
0000a7e8 g     F .text	00000056 CO_delete
0000c9de g     F .text	00000034 _lseek_r
00002e4e g     F .text	00000014 DMA_Cmd
00002298 g     F .text	00000144 vSYStaskInit
00004730 g     F .text	00000172 HAL_DMAInitIT
00005cb2 g     F .text	00000042 vPortExitCritical
0000a068 g     F .text	00000172 CO_SDOserver_init
0000b9f8 g     F .text	00000040 printf
20000d80 g       .data	00000000 __global_pointer$
000004f6 g     F .text	00000028 .hidden __riscv_save_8
00002e86 g     F .text	0000000a DMA_GetITStatus
0000244c  w      .text	00000000 TIM1_CC_IRQHandler
200006b8 g     O .bss	00000004 co_drv_periodic_thread_sync_semaphore
00003276 g     F .text	00000008 I2C_ReceiveData
0000c8e0 g     F .text	00000030 __sseek
0000bf66 g     F .text	0000006c __sinit
00001a58 g     F .text	00000042 vInitKeybord
0000bb5c g     F .text	000000bc __swbuf_r
00000d44 g     F .text	00000066 HardFault_Handler
00002d82 g     F .text	00000094 CAN_ClearITPendingBit
000066ae g     F .text	0000005c vQueueWaitForMessageRestricted
00002a08 g     F .text	00000118 CAN_FilterInit
000035ce g     F .text	00000012 RTC_EnterConfigMode
0000bf1e g     F .text	00000048 __sfmoreglue
0000c1ca g     F .text	00000002 __malloc_unlock
000090e2 g     F .text	0000002e OD_set_value
00000840 g     F .text	0000000e setReg16
000025b2 g     F .text	00000012 ADC_DMACmd
0000365a g     F .text	00000014 RTC_ClearFlag
00000542 g     F .text	0000000c .hidden __riscv_restore_3
0000afb2 g     F .text	000002ae .hidden __divsf3
00003acc g     F .text	0000000e TIM_OC1PreloadConfig
00008156 g     F .text	00000030 co_drv_create_os_objects
00005c20 g     F .text	0000007c SysTick_Handler
000025d6 g     F .text	0000000a ADC_StartCalibration
00008590 g     F .text	000000a4 CO_LSSslave_init
000032ec g     F .text	000000aa NVIC_Init
00002418  w      .text	00000000 PVD_IRQHandler
000026d0 g     F .text	0000001c ADC_GetITStatus
00000d14 g     F .text	00000014 vIncrementSystemCounters
0000b810 g     F .text	00000046 memmove
00001b74 g     F .text	00000002 vSetInitBrigth
00007afe g     F .text	0000003e ulTaskGenericNotifyValueClear
0000052e g     F .text	00000020 .hidden __riscv_restore_10
0000369a g     F .text	0000003e SPI_I2S_DeInit
00000d42 g     F .text	00000002 NMI_Handler
00002428  w      .text	00000000 EXTI3_IRQHandler
000004f6 g     F .text	00000028 .hidden __riscv_save_11
00004720 g     F .text	00000010 HAL_DMA_SetCounter
000058d2 g     F .text	00000002 HAL_WDTReset
00006240 g     F .text	00000056 xQueueGiveMutexRecursive
20000664 g     O .bss	00000004 pxCurrentTCB
2000298c g     O .bss	0000001e ADC1_IN_Buffer
00000e94 g     F .text	00000060 IncMenuIndex
00003c12 g     F .text	0000000a USART_GetFlagStatus
0000c97c g     F .text	00000032 _fstat_r
000015f2 g     F .text	00000048 ADC1_Event
00008f9c g     F .text	000000f2 OD_getSub
200031fc g     O .bss	00000004 errno
200005c0 g       .bss	00000000 _sbss
00000800 g       *ABS*	00000000 __stack_size
000088da g     F .text	00000112 CO_EM_init
00003d62 g     F .text	0000008c RMPDataConvert
000026b8 g     F .text	00000018 ADC_ExternalTrigConvCmd
00007fa0 g     F .text	0000005a USART_Printf_Init
00004c42 g     F .text	0000003c HAL_InitGpioAF
00002e16 g     F .text	00000038 DMA_Init
0000819e g     F .text	00000016 co_drv_mutex_unlock
00007268 g     F .text	0000000e vTaskInternalSetTimeOutState
00000542 g     F .text	0000000c .hidden __riscv_restore_2
00000614 g     F .text	00000190 vCanOpenProcess
00001cb2 g     F .text	000000c4 SetSEG
200002d8 g     O .data	00000044 OD_
00003fca g     F .text	00000034 eEEPROMRd
00003566 g     F .text	00000020 RCC_BackupResetCmd
00004704 g     F .text	0000000e HAL_DMA_Enable
200006b4 g     O .bss	00000004 co_drv_app_thread_sync_semaphore
00000fa8 g     F .text	00000026 vRGBOff
00005b90 g     F .text	00000090 xPortStartScheduler
00000f1c g     F .text	00000072 vDashDrawInit
00003a7a g     F .text	00000016 TIM_CtrlPWMOutputs
00003260 g     F .text	00000012 I2C_ITConfig
0000b75e g     F .text	000000b2 memcpy
000070c2 g     F .text	00000048 vTaskPlaceOnEventList
000048a2 g     F .text	00000064 HAL_ADC_StartDMA
000025a2 g     F .text	00000010 ADC_Cmd
0000a9a8 g     F .text	000000b8 CO_CANopenInit
000051da g     F .text	000000b0 HAL_RTC_IT_Init
00001238 g     F .text	00000028 RedrawNotifyTaskToInit
0000bf14 g     F .text	0000000a _cleanup_r
00002ffe g     F .text	000000f2 GPIO_PinRemapConfig
00005b52  w    F .text	0000003e vPortSetupTimerInterrupt
000008d0 g     F .text	00000404 DataModel_Init
00000600 g     F .text	0000000a xCanOpenPeriodicTaskHandle
00002422  w      .text	00000000 EXTI0_IRQHandler
00007e6e g     F .text	00000030 vRCFilter
00005142 g     F .text	0000004c I2C2_EV_IRQHandler
00003a62 g     F .text	00000018 TIM_Cmd
0000bb0c g     F .text	0000000c puts
00005aaa g     F .text	000000a8 vPortFree
00003afe g     F .text	00000016 TIM_OC4PreloadConfig
20000580 g     O .data	00000004 SystemCoreClock
20005000 g       .stack	00000000 __freertos_irq_stack_top
000026ec g     F .text	0000000a ADC_ClearITPendingBit
0000642a g     F .text	000001be xQueueSemaphoreTake
0000991c g     F .text	00000114 CO_RPDO_process
00000d0e g     F .text	00000006 vGetNodeId
0000ca6e g     F .text	00000010 _fstat
000058b6 g     F .text	0000001c HAL_TIMER_EnablePWMCH
00001656 g     F .text	00000030 fDinStateCallback
00000038 g       .init	00000000 _einit
00003b2c g     F .text	0000000c TIM_ClearITPendingBit
00008c8e g     F .text	000000ec CO_NMT_init
00002e74 g     F .text	00000004 DMA_SetCurrDataCounter
0000374c g     F .text	0000000c SPI_I2S_ClearFlag
000034ee g     F .text	0000001e RCC_APB2PeriphClockCmd
000004ee g     F .text	00000030 .hidden __riscv_save_12
00005d20 g     F .text	00000018 vListInsertEnd
00004160 g     F .text	0000000e HAL_ADC_CommonConfig
00004248 g     F .text	00000074 ADC1_2_IRQHandler
00001260 g     F .text	00000232 vRedrawTask
000075c4 g     F .text	000000b8 ulTaskGenericNotifyTake
00002e98 g     F .text	000000fa GPIO_Init
000033ac g     F .text	00000012 RCC_ADCCLKConfig
00002410  w      .text	00000000 Break_Point_Handler
0000052e g     F .text	00000020 .hidden __riscv_restore_11
20000620 g     O .bss	00000004 NVIC_Priority_Group
0000245c  w      .text	00000000 SPI1_IRQHandler
000025c4 g     F .text	0000000a ADC_ResetCalibration
000005f6 g     F .text	0000000a xCanOpenProcessTaskHandle
00003bf4 g     F .text	00000016 USART_Cmd
20000638 g     O .bss	00000004 adcs
00001a34 g     F .text	0000001a fPortState
0000bb18 g     F .text	00000032 _sbrk_r
0000241a  w      .text	00000000 TAMPER_IRQHandler
0000051e g     F .text	0000000c .hidden __riscv_save_1
00001ae6 g     F .text	0000003e SPI2_DMA_Callback
00001492 g     F .text	00000160 vInit_DeviceConfig
00000542 g     F .text	0000000c .hidden __riscv_restore_0
000043fe g     F .text	00000016 HAL_CANToInitMode
0000394c g     F .text	00000094 TIM_OC3Init
0000ca2a g     F .text	00000034 _read_r
0000060a g     F .text	0000000a vCanOpenInit
00005d1a g     F .text	00000006 vListInitialiseItem
00000cde g     F .text	0000002a vGetBitrate
000033be g     F .text	00000028 RCC_LSEConfig
00000504 g     F .text	0000001a .hidden __riscv_save_7
0000a976 g     F .text	00000032 CO_LSSinit
00007e9e g     F .text	0000002e RunAvrageFilter
000062c4 g     F .text	00000166 xQueueReceive
000033f2 g     F .text	00000020 RCC_RTCCLKCmd
20002f90 g     O .bss	00000040 xQueueRegistry
00005d00 g     F .text	00000006 vPortClearInterruptMask
00002e90 g     F .text	00000008 DMA_ClearITPendingBit
0000447a g     F .text	0000003a HAL_CANSetFiters
0000227c g     F .text	0000001c vApplicationGetTimerTaskMemory
00003758 g     F .text	0000008a TIM_DeInit
0000350c g     F .text	0000001e RCC_APB1PeriphClockCmd
00002cec g     F .text	00000056 CAN_GetFlagStatus
00004fa8 g     F .text	00000102 InitI2CDMA
0000240c  w      .text	00000000 Ecall_M_Mode_Handler
20004800 g       .stack	00000000 _heap_end
00001b24 g     F .text	00000050 SetBarState
00001aae g     F .text	00000038 SPI1_DMA_Callback
0000ca7e g     F .text	00000010 _isatty
00000cd4 g     F .text	0000000a getReg8
200005b4 g     O .data	00000004 _global_impure_ptr
00000538 g     F .text	00000016 .hidden __riscv_restore_5
00000826 g     F .text	0000001a setReg32
00003742 g     F .text	0000000a SPI_I2S_GetFlagStatus
00003ffe g     F .text	0000001a bReadEEPROM
000034d0 g     F .text	0000001e RCC_AHBPeriphClockCmd
00004a38 g     F .text	00000064 DMA1_Channel4_IRQHandler
00002600 g     F .text	000000b8 ADC_RegularChannelConfig
000052ee g     F .text	00000096 HAL_SPI_InitDMA
00003cce g     F .text	00000024 xGetDIN
00003272 g     F .text	00000004 I2C_SendData
00008038 g     F .text	0000002a _sbrk
00005920 g     F .text	0000018a pvPortMalloc
00008304 g     F .text	00000052 CO_CANrxBufferInit
00008d7a g     F .text	00000106 CO_NMT_process
20000598 g     O .data	00000008 OD_PERSIST_COMM
0000581a g     F .text	0000001c HAL_TIMER_DisablePWMCH
00003cf2 g     F .text	00000016 uGetRPMBuffer
00008186 g     F .text	00000018 co_drv_mutex_lock
00005d06 g     F .text	00000014 vListInitialise
000016a2 g     F .text	0000000a getInputsTaskHandle
000035f8 g     F .text	0000002e RTC_SetPrescaler
000030f0 g     F .text	000000f2 I2C_Init
00002e78 g     F .text	0000000e DMA_GetFlagStatus
20000594 g     O .data	00000004 OD
00000538 g     F .text	00000016 .hidden __riscv_restore_6
00002464  w      .text	00000000 USART3_IRQHandler
00006be6 g     F .text	00000006 xTaskGetTickCount
00006098 g     F .text	000001a8 xQueueGenericSend
000090ae g     F .text	00000034 OD_get_value
00003396 g     F .text	00000016 PWR_BackupAccessCmd
0000528a g     F .text	00000064 RTC_IRQHandler
000083a2 g     F .text	00000046 CO_CANsend
000025e0 g     F .text	00000008 ADC_GetCalibrationStatus
20003200 g       .bss	00000000 _ebss
00004a9c g     F .text	00000068 DMA1_Channel7_IRQHandler
0000384c g     F .text	0000006a TIM_OC1Init
000025e8 g     F .text	00000018 ADC_SoftwareStartConvCmd
00003f10 g     F .text	0000000a xGetEEPROM
00003af0 g     F .text	0000000e TIM_OC3PreloadConfig
000025ce g     F .text	00000008 ADC_GetResetCalibrationStatus
000081c4 g     F .text	0000001c CO_CANsetNormalMode
0000463e g     F .text	00000064 CAN1_RX1_IRQHandler
0000b748 g     F .text	0000000c calloc
00007f40 g     F .text	0000002a Delay_Init
00003636 g     F .text	00000024 RTC_WaitForSynchro
000073f8 g     F .text	000000ca xTaskPriorityDisinherit
00003586 g     F .text	0000002e RCC_GetFlagStatus
00008f2c g     F .text	00000070 OD_find
0000290c g     F .text	00000014 BKP_DeInit
2000031c g     O .data	00000034 OD_RAM
00002c68 g     F .text	00000072 CAN_OperatingModeRequest
00000d08 g     F .text	00000006 vFDGetNMTState
00007180 g     F .text	000000e8 xTaskRemoveFromEventList
00002fb0 g     F .text	00000018 GPIO_SetBits
00005466 g     F .text	00000074 TIM4_IRQHandler
00003ab2 g     F .text	0000001a TIM_ARRPreloadConfig
0000908e g     F .text	00000020 OD_getSDOabCode
000004f6 g     F .text	00000028 .hidden __riscv_save_9
00000ff8 g     F .text	000000be vRGBMode
00002fe0 g     F .text	0000001e GPIO_WriteBit
00004b04 g     F .text	00000012 HAL_InitGpioLib
00003dee g     F .text	00000072 xGetRPM
000031fa g     F .text	0000001a I2C_GenerateSTART
0000d6fc g     O .text	00000020 __sf_fake_stderr
00000504 g     F .text	0000001a .hidden __riscv_save_4
00000db4 g     F .text	000000e0 getODValue
00001db4 g     F .text	0000006e vLedDriverStart
0000180e g     F .text	00000226 vInputsTask
000050aa g     F .text	0000004c I2C1_EV_IRQHandler
200005b0 g     O .data	00000004 xISRStackTop
00008356 g     F .text	0000003a CO_CANtxBufferInit
000044b4 g     F .text	00000052 HAL_CANGetRXMessage
00003b14 g     F .text	00000018 TIM_GetITStatus
00008e84 g     F .text	00000050 OD_readOriginal
0000246c  w      .text	00000000 USBHD_IRQHandler
20000350 g     O .data	000001d0 OD_ROM
000042da g     F .text	00000124 HAL_CANIntIT
00003412 g     F .text	000000be RCC_GetClocksFreq
000075a8 g     F .text	0000001c pvTaskIncrementMutexHeldCount
00002436  w      .text	00000000 DMA1_Channel6_IRQHandler
0000b6da g     F .text	0000006e .hidden __clzsi2
00008ed4 g     F .text	00000054 OD_writeOriginal
0000c1f4 g     F .text	00000042 __sfputs_r
00002470  w      .text	00000000 UART4_IRQHandler
0000ca12 g     F .text	00000018 memchr
00003b38 g     F .text	000000bc USART_Init
00007276 g     F .text	000000aa xTaskCheckForTimeOut
0000b87c g     F .text	000000a8 _free_r
0000734a g     F .text	000000ae xTaskPriorityInherit
000054da g     F .text	00000074 TIM3_IRQHandler
00002420  w      .text	00000000 RCC_IRQHandler
0000aa60 g     F .text	000000ea CO_CANopenInitPDO
00003c1c g     F .text	00000036 vAINInit
00002bdc g     F .text	0000008c CAN_Receive
0000051e g     F .text	0000000c .hidden __riscv_save_3
00002d42 g     F .text	00000040 CAN_ClearFlag
0000244a  w      .text	00000000 TIM1_TRG_COM_IRQHandler
00002920 g     F .text	000000e8 CAN_Init
0000767c g     F .text	000000e6 xTaskGenericNotifyWait
00004906 g     F .text	00000064 DMA1_Channel1_IRQHandler
00000000 g       .init	00000000 _start
00006bd6 g     F .text	00000010 vTaskSuspendAll
0000ac08 g     F .text	00000040 CO_process_TPDO
20000000 g     O .data	00000010 AHBPrescTable
000032a4 g     F .text	00000032 I2C_GetFlagStatus
0000ca8e g     F .text	00000010 _lseek
00003ada g     F .text	00000016 TIM_OC2PreloadConfig
000033e6 g     F .text	0000000c RCC_RTCCLKConfig
0000b546 g     F .text	000000c6 .hidden __floatsisf
00005d66 g     F .text	00000020 uxListRemove
00002466  w      .text	00000000 EXTI15_10_IRQHandler
00003a90 g     F .text	00000012 TIM_ITConfig
00001a9a g     F .text	00000014 vKeyboardTask
000038b6 g     F .text	00000096 TIM_OC2Init
000007a4 g     F .text	00000082 vCanOpenPeriodicProcess
000055ba g     F .text	0000001c HAL_TiemrEneblae
0000cac0 g     O .text	00000050 CalPoint
000069f6 g     F .text	000000a6 xTaskCreateStatic
00003c52 g     F .text	0000000a getADC1Buffer
00006a9c g     F .text	000000aa vTaskResume
00002472  w      .text	00000000 DMA1_Channel8_IRQHandler
00000fce g     F .text	0000002a vGetEdgeData
00006f42 g     F .text	00000096 vTaskSwitchContext
00001ebc g     F .text	00000002 vRestartNode
00004bcc g     F .text	00000028 HAL_InitGpioOut
00005f78 g     F .text	000000ae xQueueGenericCreateStatic
000031e2 g     F .text	00000018 I2C_Cmd
0000710a g     F .text	00000076 vTaskPlaceOnEventListRestricted
0000366e g     F .text	00000020 RTC_GetITStatus
00002fc8 g     F .text	00000018 GPIO_ResetBits
00008068 g     F .text	00000006 __get_MCAUSE
00008390 g     F .text	00000012 CO_CANmodule_process
00009110 g     F .text	0000003c OD_getPtr
0000c94c g     F .text	00000030 _close_r
000032d6 g     F .text	0000000c I2C_ClearFlag
20000000 g       .dalign	00000000 _data_vma
00000ef4 g     F .text	0000000e SetCurMenuHome
00008074 g     F .text	00000050 prv_read_can_received_msg
000008b4 g     F .text	0000001c getReg32
00002260 g     F .text	0000001c vApplicationGetIdleTaskMemory
00002cda g     F .text	00000012 CAN_ITConfig
000039e0 g     F .text	0000006c TIM_OC4Init
00003c5c g     F .text	0000001a eDOUTConfigWtihStruct
2000061c g     O .bss	00000001 MCU_Version
00003d08 g     F .text	0000005a eRPMConfig
0000bc18 g     F .text	000000fe __swsetup_r
00002444  w      .text	00000000 EXTI9_5_IRQHandler
00006fd8 g     F .text	000000ea vTaskSuspend
0000bfd2 g     F .text	000000a0 __sfp
0000a83e g     F .text	00000102 CO_new
000042d0 g     F .text	0000000a HAL_CANSetERRCallback
0000563c g     F .text	0000004e HW_TIMER_BaseTimerInit
000004f6 g     F .text	00000028 .hidden __riscv_save_10
0000c86c g     F .text	0000002c __sread
0000327e g     F .text	00000012 I2C_Send7bitAddress
0000c1c8 g     F .text	00000002 __malloc_lock
00000538 g     F .text	00000016 .hidden __riscv_restore_4
0000806e g     F .text	00000006 __get_MTVAL
000065e8 g     F .text	0000005a xQueueTakeMutexRecursive
0000052e g     F .text	00000020 .hidden __riscv_restore_8
00004132 g     F .text	0000002e Get_ConversionVal
000089ec g     F .text	000000c4 CO_error
00008062 g     F .text	00000006 __get_MEPC
0000be48 g     F .text	00000066 _fflush_r
00000504 g     F .text	0000001a .hidden __riscv_save_6
0000b856 g     F .text	00000026 _calloc_r
0000245e  w      .text	00000000 SPI2_IRQHandler
000008a4 g     F .text	00000010 getReg16
0000572e g     F .text	000000ec HAL_TIMER_PWMTimersInit
0000d71c g     O .text	00000020 __sf_fake_stdin
00007762 g     F .text	000001b0 xTaskGenericNotify
00005384 g     F .text	00000010 HAL_SPI_RXOveleyClear
0000054e g     F .text	000000a8 memset
0000052e g     F .text	00000020 .hidden __riscv_restore_9
00000538 g     F .text	00000016 .hidden __riscv_restore_7
00001e7a g     F .text	00000042 main
00005394 g     F .text	00000016 HAL_SPI_GetBusy
00007ecc g     F .text	00000074 MedianFilter
00005d38 g     F .text	0000002e vListInsert
0000568a g     F .text	000000a4 HAL_TIMER_InitIt
000081e0 g     F .text	00000110 CO_CANmodule_init
0000c910 g     F .text	00000006 __sclose
000042bc g     F .text	0000000a HAL_CANSetTXCallback
00007e00 g     F .text	0000006e xTimerCreateTimerTask
00003730 g     F .text	00000012 SPI_I2S_DMACmd
0000b924 g     F .text	000000d4 _malloc_r
00003aa2 g     F .text	00000010 TIM_InternalClockConfig
0000270e g     F .text	000001fe Get_CalibrationValue
000049d2 g     F .text	00000066 DMA1_Channel5_IRQHandler
00007328 g     F .text	0000000a xTaskGetCurrentTaskHandle
0000242a  w      .text	00000000 EXTI4_IRQHandler
00007f6a g     F .text	00000036 Delay_Ms
00006026 g     F .text	00000072 xQueueGenericCreate
000045dc g     F .text	00000062 USB_LP_CAN1_RX0_IRQHandler
0000b260 g     F .text	00000290 .hidden __mulsf3
000026f6 g     F .text	00000018 ADC_BufferCmd
00003716 g     F .text	0000001a SPI_Cmd
00001c16 g     F .text	0000009c SetSegDirect
00001178 g     F .text	0000005a vBarWindowMode
00001a4e g     F .text	0000000a xKeyboardProcessTaskHandle
00001ec6 g     F .text	000000ee SystemInit
00007912 g     F .text	000001ec xTaskGenericNotifyFromISR
00000f02 g     F .text	0000001a CheckMenuChannel
0000b9f8 g     F .text	00000040 iprintf
00006d84 g     F .text	00000158 xTaskResumeAll
2000058c g     O .data	00000004 uxTopUsedPriority
00004506 g     F .text	000000d6 USB_HP_CAN1_TX_IRQHandler
0000d5fc g     O .text	00000100 .hidden __clz_tab
00005cf4 g     F .text	0000000c xPortSetInterruptMask
00006b46 g     F .text	00000090 vTaskStartScheduler
00000000 g       .init	00000000 _sinit
00000d28 g     F .text	00000016 vSaveData
0000246e  w      .text	00000000 USBHDWakeUp_IRQHandler
0000c916 g     F .text	00000036 _write_r
00003ef8 g     F .text	00000018 vInitEEPROM
00000300 g       .text	00000000 xPortStartFirstTask
0000496a g     F .text	00000068 DMA1_Channel3_IRQHandler
00000d3e g     F .text	00000004 getOdometr
000081b4 g     F .text	00000010 CO_CANsetConfigurationMode
000080f0 g     F .text	00000066 CAN_SendMessage
0000c4be g     F .text	0000010c _printf_common
200005a8 g     O .data	00000004 _impure_ptr
00009a30 g     F .text	000001d2 CO_TPDO_init
000053f2 g     F .text	00000074 TIM1_UP_IRQHandler
0000bd16 g     F .text	00000132 __sflush_r
00004c7e g     F .text	0000000c HAL_GetBit
00001686 g     F .text	0000001c vSetDoutState
00008ab0 g     F .text	0000017e CO_EM_process
00002416  w      .text	00000000 WWDG_IRQHandler
00004c8a g     F .text	0000000c HAL_SetBit
00004c1a g     F .text	00000028 HAL_InitGpioIn
00003548 g     F .text	0000001e RCC_APB1PeriphResetCmd
0000240e  w      .text	00000000 Ecall_U_Mode_Handler
00007320 g     F .text	00000008 vTaskMissedYield
00002e62 g     F .text	00000012 DMA_ITConfig
0000a1da g     F .text	0000060e CO_SDOserver_process
0000554e g     F .text	0000006c TIM2_IRQHandler
20005000 g       .stack	00000000 _eusrstack
0000051e g     F .text	0000000c .hidden __riscv_save_2
000055d6 g     F .text	00000066 HAL_GetTimerCounterRegAdres
00000200 g       .text	00000000 SW_Handler
00006642 g     F .text	0000006c vQueueAddToRegistry
000016d4 g     F .text	00000058 ADC1_Init
00006bec g     F .text	00000198 xTaskIncrementTick
00002506 g     F .text	00000046 ADC_DeInit
00003cba g     F .text	00000014 uGetDIN
000011d2 g     F .text	00000066 vBarMode
00003c88 g     F .text	00000032 eDinConfigWtihStruct
00002446  w      .text	00000000 TIM1_BRK_IRQHandler
0000c0dc g     F .text	00000058 __swhatbuf_r
0000254c g     F .text	00000056 ADC_Init
00003c0a g     F .text	00000008 USART_SendData
0000172c g     F .text	00000090 ADC_FSM
00002424  w      .text	00000000 EXTI1_IRQHandler
00003626 g     F .text	00000010 RTC_WaitForLastTask
00003290 g     F .text	00000014 I2C_ReadRegister
000040ac g     F .text	00000086 HW_LIB_KeyboradFSM
000042c6 g     F .text	0000000a HAL_CANSetRXCallback
00000504 g     F .text	0000001a .hidden __riscv_save_5
00008634 g     F .text	000001a2 CO_LSSslave_process
00005eb4 g     F .text	000000c4 xQueueGenericReset
00007ffa g     F .text	0000003e _write
200005c0 g       .data	00000000 _edata
20003200 g       .bss	00000000 _end
0000442a g     F .text	00000050 HAL_CANSend
000037e2 g     F .text	0000006a TIM_TimeBaseInit
00002468  w      .text	00000000 RTCAlarm_IRQHandler
2000246c g     O .bss	00000020 ucQueueStorageArea
00001802 g     F .text	0000000c GetAIN
00003f1a g     F .text	000000b0 eEEPROMWr
0000d798 g       .dlalign	00000000 _data_lma
00001b76 g     F .text	000000a0 SetRGB
000016ac g     F .text	00000028 InputsNotifyTaskToInit
00002462  w      .text	00000000 USART2_IRQHandler
0000c898 g     F .text	00000048 __swrite
0000cc50 g     O .text	0000000a DigitMask
00004052 g     F .text	0000000a HW_LIB_GetKeyboardPeriod
000035e0 g     F .text	00000018 RTC_ExitConfigMode
0000c236 g     F .text	00000288 _vfiprintf_r
0000c072 g     F .text	0000006a _fwalk_reent
00001fb4 g     F .text	00000092 SystemCoreClockUpdate
0000b60c g     F .text	000000ce .hidden __floatunsisf
0000405c g     F .text	00000050 eKeyboardInit
00004048 g     F .text	0000000a xKeyboardQueue
0000084e g     F .text	0000000a setReg8
0000368e g     F .text	0000000c RTC_ClearITPendingBit
2000063c g     O .bss	00000004 pEEPROM
0000518e g     F .text	0000004c I2C2_ER_IRQHandler
00006edc g     F .text	00000066 vTaskDelay
0000242e  w      .text	00000000 DMA1_Channel2_IRQHandler
00001d8a g     F .text	0000002a vSetBrigth
0000d73c g     O .text	00000020 __sf_fake_stdout
00003248 g     F .text	00000018 I2C_DualAddressCmd
0000ab4a g     F .text	0000007e CO_process
000035b4 g     F .text	0000001a RTC_ITConfig
0000052a g     F .text	00000024 .hidden __riscv_restore_12
00007332 g     F .text	00000018 xTaskGetSchedulerState
00001d76 g     F .text	00000014 SetBigSeg
00002406 g     F .text	00000002 vSYSeventInit
000074c2 g     F .text	000000e6 vTaskPriorityDisinheritAfterTimeout
0000ca9e g     F .text	00000010 _read
00002474  w      .text	00000000 handle_reset
000046a2 g     F .text	00000062 CAN1_SCE_IRQHandler
0000b4f0 g     F .text	00000056 .hidden __fixunssfsi
0000241e  w      .text	00000000 FLASH_IRQHandler
0000051e g     F .text	0000000c .hidden __riscv_save_0
000017bc g     F .text	00000046 xGetAin
000023dc g     F .text	0000002a vSYSqueueInit
000010b6 g     F .text	000000c2 vBarColorMode
00002460  w      .text	00000000 USART1_IRQHandler
0000c134 g     F .text	00000094 __smakebuf_r
00003e60 g     F .text	00000098 vDinDoutProcess
0000322e g     F .text	0000001a I2C_AcknowledgeConfig
0000bb4a g     F .text	00000012 strlen
00000400 g       .text	00000000 pxPortInitialiseStack
0000c5ca g     F .text	000002a2 _printf_i
200006c4 g     O .bss	00000004 __malloc_sbrk_start
00000daa g     F .text	0000000a xProcessTaskHandle
0000352a g     F .text	0000001e RCC_APB2PeriphResetCmd
00003214 g     F .text	0000001a I2C_GenerateSTOP
000050f6 g     F .text	0000004c I2C1_ER_IRQHandler
000036d8 g     F .text	0000003e SPI_Init
000032e2 g     F .text	0000000a NVIC_PriorityGroupConfig
00005c9c g     F .text	00000016 vPortEnterCritical
00004bf4 g     F .text	00000026 HAL_InitGpioAIN
00004712 g     F .text	0000000e HAL_DMA_Disable
200006c0 g     O .bss	00000004 __malloc_free_list
0000416e g     F .text	000000da HAL_ADC_ContiniusScanCinvertionDMA
20002b34 g     O .bss	00000020 InitPort
00000542 g     F .text	0000000c .hidden __riscv_restore_1
0000c236 g     F .text	00000288 _vfprintf_r
0000a940 g     F .text	00000036 CO_CANinit
00004414 g     F .text	00000016 HAL_CANToOperatingMode
00004b16 g     F .text	000000b6 HAL_InitGpioRCC
00000858 g     F .text	0000004c setReg
20002b18 g     O .bss	0000001c DMA_CALLback
00004c96 g     F .text	0000000c HAL_ResetBit
00002f92 g     F .text	0000001e GPIO_ReadInputDataBit
00006296 g     F .text	0000002e xQueueCreateMutex
00002b20 g     F .text	000000bc CAN_Transmit
0000ac48 g     F .text	0000036a .hidden __addsf3
00001e4e g     F .text	0000002c vRGBProcess
0000246a  w      .text	00000000 USBWakeUp_IRQHandler
0000ca5e g     F .text	00000010 _close
0000b754 g     F .text	0000000a free
00001ebe g     F .text	00000008 Error_Handler
000082f0 g     F .text	00000014 CO_CANmodule_disable



Disassembly of section .init:

00000000 <_sinit>:
   0:	4740206f          	j	2474 <handle_reset>
   4:	00000013          	nop
   8:	00000013          	nop
   c:	00000013          	nop
  10:	00000013          	nop
  14:	00000013          	nop
  18:	00000013          	nop
  1c:	00000013          	nop
  20:	00000013          	nop
  24:	00000013          	nop
  28:	00000013          	nop
  2c:	00000013          	nop
  30:	00000013          	nop
  34:	00100073          	ebreak

Disassembly of section .vector:

00000038 <_vector_base>:
	...
  40:	0d42                	slli	s10,s10,0x10
  42:	0000                	unimp
  44:	0d44                	addi	s1,sp,660
  46:	0000                	unimp
  48:	0000                	unimp
  4a:	0000                	unimp
  4c:	240c                	lbu	a1,8(s0)
	...
  56:	0000                	unimp
  58:	240e                	lhu	a1,8(s0)
  5a:	0000                	unimp
  5c:	2410                	lbu	a2,8(s0)
	...
  66:	0000                	unimp
  68:	5c20                	lw	s0,120(s0)
  6a:	0000                	unimp
  6c:	0000                	unimp
  6e:	0000                	unimp
  70:	0200                	addi	s0,sp,256
  72:	0000                	unimp
  74:	0000                	unimp
  76:	0000                	unimp
  78:	2416                	lhu	a3,8(s0)
  7a:	0000                	unimp
  7c:	2418                	lbu	a4,8(s0)
  7e:	0000                	unimp
  80:	241a                	lhu	a4,8(s0)
  82:	0000                	unimp
  84:	528a                	lw	t0,160(sp)
  86:	0000                	unimp
  88:	241e                	lhu	a5,8(s0)
  8a:	0000                	unimp
  8c:	2420                	lbu	s0,10(s0)
  8e:	0000                	unimp
  90:	2422                	lhu	s0,10(s0)
  92:	0000                	unimp
  94:	2424                	lbu	s1,10(s0)
  96:	0000                	unimp
  98:	2426                	lhu	s1,10(s0)
  9a:	0000                	unimp
  9c:	2428                	lbu	a0,10(s0)
  9e:	0000                	unimp
  a0:	242a                	lhu	a0,10(s0)
  a2:	0000                	unimp
  a4:	4906                	lw	s2,64(sp)
  a6:	0000                	unimp
  a8:	242e                	lhu	a1,10(s0)
  aa:	0000                	unimp
  ac:	496a                	lw	s2,152(sp)
  ae:	0000                	unimp
  b0:	4a38                	lw	a4,80(a2)
  b2:	0000                	unimp
  b4:	49d2                	lw	s3,20(sp)
  b6:	0000                	unimp
  b8:	2436                	lhu	a3,10(s0)
  ba:	0000                	unimp
  bc:	4a9c                	lw	a5,16(a3)
  be:	0000                	unimp
  c0:	4248                	lw	a0,4(a2)
  c2:	0000                	unimp
  c4:	4506                	lw	a0,64(sp)
  c6:	0000                	unimp
  c8:	45dc                	lw	a5,12(a1)
  ca:	0000                	unimp
  cc:	463e                	lw	a2,204(sp)
  ce:	0000                	unimp
  d0:	46a2                	lw	a3,8(sp)
  d2:	0000                	unimp
  d4:	2444                	lbu	s1,12(s0)
  d6:	0000                	unimp
  d8:	2446                	lhu	s1,12(s0)
  da:	0000                	unimp
  dc:	53f2                	lw	t2,60(sp)
  de:	0000                	unimp
  e0:	244a                	lhu	a0,12(s0)
  e2:	0000                	unimp
  e4:	244c                	lbu	a1,12(s0)
  e6:	0000                	unimp
  e8:	554e                	lw	a0,240(sp)
  ea:	0000                	unimp
  ec:	54da                	lw	s1,180(sp)
  ee:	0000                	unimp
  f0:	5466                	lw	s0,120(sp)
  f2:	0000                	unimp
  f4:	50aa                	lw	ra,168(sp)
  f6:	0000                	unimp
  f8:	50f6                	lw	ra,124(sp)
  fa:	0000                	unimp
  fc:	5142                	lw	sp,48(sp)
  fe:	0000                	unimp
 100:	518e                	lw	gp,224(sp)
 102:	0000                	unimp
 104:	245c                	lbu	a5,12(s0)
 106:	0000                	unimp
 108:	245e                	lhu	a5,12(s0)
 10a:	0000                	unimp
 10c:	2460                	lbu	s0,14(s0)
 10e:	0000                	unimp
 110:	2462                	lhu	s0,14(s0)
 112:	0000                	unimp
 114:	2464                	lbu	s1,14(s0)
 116:	0000                	unimp
 118:	2466                	lhu	s1,14(s0)
 11a:	0000                	unimp
 11c:	2468                	lbu	a0,14(s0)
 11e:	0000                	unimp
 120:	246a                	lhu	a0,14(s0)
 122:	0000                	unimp
 124:	246c                	lbu	a1,14(s0)
 126:	0000                	unimp
 128:	246e                	lhu	a1,14(s0)
 12a:	0000                	unimp
 12c:	2470                	lbu	a2,14(s0)
 12e:	0000                	unimp
 130:	2472                	lhu	a2,14(s0)
	...

Disassembly of section .text:

00000200 <SW_Handler>:
     200:	f8810113          	addi	sp,sp,-120
     204:	c206                	sw	ra,4(sp)
     206:	c416                	sw	t0,8(sp)
     208:	c61a                	sw	t1,12(sp)
     20a:	c81e                	sw	t2,16(sp)
     20c:	ca22                	sw	s0,20(sp)
     20e:	cc26                	sw	s1,24(sp)
     210:	ce2a                	sw	a0,28(sp)
     212:	d02e                	sw	a1,32(sp)
     214:	d232                	sw	a2,36(sp)
     216:	d436                	sw	a3,40(sp)
     218:	d63a                	sw	a4,44(sp)
     21a:	d83e                	sw	a5,48(sp)
     21c:	da42                	sw	a6,52(sp)
     21e:	dc46                	sw	a7,56(sp)
     220:	de4a                	sw	s2,60(sp)
     222:	c0ce                	sw	s3,64(sp)
     224:	c2d2                	sw	s4,68(sp)
     226:	c4d6                	sw	s5,72(sp)
     228:	c6da                	sw	s6,76(sp)
     22a:	c8de                	sw	s7,80(sp)
     22c:	cae2                	sw	s8,84(sp)
     22e:	cce6                	sw	s9,88(sp)
     230:	ceea                	sw	s10,92(sp)
     232:	d0ee                	sw	s11,96(sp)
     234:	d2f2                	sw	t3,100(sp)
     236:	d4f6                	sw	t4,104(sp)
     238:	d6fa                	sw	t5,108(sp)
     23a:	d8fe                	sw	t6,112(sp)
     23c:	300022f3          	csrr	t0,mstatus
     240:	da96                	sw	t0,116(sp)
     242:	20000297          	auipc	t0,0x20000
     246:	4222a283          	lw	t0,1058(t0) # 20000664 <pxCurrentTCB>
     24a:	0022a023          	sw	sp,0(t0)
     24e:	341025f3          	csrr	a1,mepc
     252:	c02e                	sw	a1,0(sp)
     254:	8301a103          	lw	sp,-2000(gp) # 200005b0 <xISRStackTop>
     258:	4eb060ef          	jal	ra,6f42 <vTaskSwitchContext>

0000025c <processed_source>:
     25c:	20000317          	auipc	t1,0x20000
     260:	40832303          	lw	t1,1032(t1) # 20000664 <pxCurrentTCB>
     264:	00032103          	lw	sp,0(t1)
     268:	4282                	lw	t0,0(sp)
     26a:	34129073          	csrw	mepc,t0
     26e:	52d6                	lw	t0,116(sp)
     270:	30029073          	csrw	mstatus,t0
     274:	4092                	lw	ra,4(sp)
     276:	42a2                	lw	t0,8(sp)
     278:	4332                	lw	t1,12(sp)
     27a:	43c2                	lw	t2,16(sp)
     27c:	4452                	lw	s0,20(sp)
     27e:	44e2                	lw	s1,24(sp)
     280:	4572                	lw	a0,28(sp)
     282:	5582                	lw	a1,32(sp)
     284:	5612                	lw	a2,36(sp)
     286:	56a2                	lw	a3,40(sp)
     288:	5732                	lw	a4,44(sp)
     28a:	57c2                	lw	a5,48(sp)
     28c:	5852                	lw	a6,52(sp)
     28e:	58e2                	lw	a7,56(sp)
     290:	5972                	lw	s2,60(sp)
     292:	4986                	lw	s3,64(sp)
     294:	4a16                	lw	s4,68(sp)
     296:	4aa6                	lw	s5,72(sp)
     298:	4b36                	lw	s6,76(sp)
     29a:	4bc6                	lw	s7,80(sp)
     29c:	4c56                	lw	s8,84(sp)
     29e:	4ce6                	lw	s9,88(sp)
     2a0:	4d76                	lw	s10,92(sp)
     2a2:	5d86                	lw	s11,96(sp)
     2a4:	5e16                	lw	t3,100(sp)
     2a6:	5ea6                	lw	t4,104(sp)
     2a8:	5f36                	lw	t5,108(sp)
     2aa:	5fc6                	lw	t6,112(sp)
     2ac:	07810113          	addi	sp,sp,120
     2b0:	30200073          	mret
     2b4:	00000013          	nop
     2b8:	00000013          	nop
     2bc:	00000013          	nop
     2c0:	00000013          	nop
     2c4:	00000013          	nop
     2c8:	00000013          	nop
     2cc:	00000013          	nop
     2d0:	00000013          	nop
     2d4:	00000013          	nop
     2d8:	00000013          	nop
     2dc:	00000013          	nop
     2e0:	00000013          	nop
     2e4:	00000013          	nop
     2e8:	00000013          	nop
     2ec:	00000013          	nop
     2f0:	00000013          	nop
     2f4:	00000013          	nop
     2f8:	00000013          	nop
     2fc:	00000013          	nop

00000300 <xPortStartFirstTask>:
     300:	8301a283          	lw	t0,-2000(gp) # 200005b0 <xISRStackTop>
     304:	e0028293          	addi	t0,t0,-512
     308:	34029073          	csrw	mscratch,t0
     30c:	20000117          	auipc	sp,0x20000
     310:	35812103          	lw	sp,856(sp) # 20000664 <pxCurrentTCB>
     314:	4102                	lw	sp,0(sp)
     316:	4082                	lw	ra,0(sp)
     318:	4332                	lw	t1,12(sp)
     31a:	43c2                	lw	t2,16(sp)
     31c:	4452                	lw	s0,20(sp)
     31e:	44e2                	lw	s1,24(sp)
     320:	4572                	lw	a0,28(sp)
     322:	5582                	lw	a1,32(sp)
     324:	5612                	lw	a2,36(sp)
     326:	56a2                	lw	a3,40(sp)
     328:	5732                	lw	a4,44(sp)
     32a:	57c2                	lw	a5,48(sp)
     32c:	5852                	lw	a6,52(sp)
     32e:	58e2                	lw	a7,56(sp)
     330:	5972                	lw	s2,60(sp)
     332:	4986                	lw	s3,64(sp)
     334:	4a16                	lw	s4,68(sp)
     336:	4aa6                	lw	s5,72(sp)
     338:	4b36                	lw	s6,76(sp)
     33a:	4bc6                	lw	s7,80(sp)
     33c:	4c56                	lw	s8,84(sp)
     33e:	4ce6                	lw	s9,88(sp)
     340:	4d76                	lw	s10,92(sp)
     342:	5d86                	lw	s11,96(sp)
     344:	5e16                	lw	t3,100(sp)
     346:	5ea6                	lw	t4,104(sp)
     348:	5f36                	lw	t5,108(sp)
     34a:	5fc6                	lw	t6,112(sp)
     34c:	52d6                	lw	t0,116(sp)
     34e:	02a1                	addi	t0,t0,8
     350:	30029073          	csrw	mstatus,t0
     354:	42a2                	lw	t0,8(sp)
     356:	07810113          	addi	sp,sp,120
     35a:	8082                	ret
     35c:	00000013          	nop
     360:	00000013          	nop
     364:	00000013          	nop
     368:	00000013          	nop
     36c:	00000013          	nop
     370:	00000013          	nop
     374:	00000013          	nop
     378:	00000013          	nop
     37c:	00000013          	nop
     380:	00000013          	nop
     384:	00000013          	nop
     388:	00000013          	nop
     38c:	00000013          	nop
     390:	00000013          	nop
     394:	00000013          	nop
     398:	00000013          	nop
     39c:	00000013          	nop
     3a0:	00000013          	nop
     3a4:	00000013          	nop
     3a8:	00000013          	nop
     3ac:	00000013          	nop
     3b0:	00000013          	nop
     3b4:	00000013          	nop
     3b8:	00000013          	nop
     3bc:	00000013          	nop
     3c0:	00000013          	nop
     3c4:	00000013          	nop
     3c8:	00000013          	nop
     3cc:	00000013          	nop
     3d0:	00000013          	nop
     3d4:	00000013          	nop
     3d8:	00000013          	nop
     3dc:	00000013          	nop
     3e0:	00000013          	nop
     3e4:	00000013          	nop
     3e8:	00000013          	nop
     3ec:	00000013          	nop
     3f0:	00000013          	nop
     3f4:	00000013          	nop
     3f8:	00000013          	nop
     3fc:	00000013          	nop

00000400 <pxPortInitialiseStack>:
     400:	300022f3          	csrr	t0,mstatus
     404:	ff72f293          	andi	t0,t0,-9
     408:	18800313          	li	t1,392
     40c:	0312                	slli	t1,t1,0x4
     40e:	0062e2b3          	or	t0,t0,t1
     412:	1571                	addi	a0,a0,-4
     414:	00552023          	sw	t0,0(a0)
     418:	fa850513          	addi	a0,a0,-88
     41c:	c110                	sw	a2,0(a0)
     41e:	1521                	addi	a0,a0,-24
     420:	00052023          	sw	zero,0(a0)
     424:	00000293          	li	t0,0

00000428 <chip_specific_stack_frame>:
     428:	00028763          	beqz	t0,436 <chip_specific_stack_frame+0xe>
     42c:	1571                	addi	a0,a0,-4
     42e:	00052023          	sw	zero,0(a0)
     432:	12fd                	addi	t0,t0,-1
     434:	bfd5                	j	428 <chip_specific_stack_frame>
     436:	1571                	addi	a0,a0,-4
     438:	c10c                	sw	a1,0(a0)
     43a:	8082                	ret
	...

000004ee <__riscv_save_12>:
     4ee:	7139                	addi	sp,sp,-64
     4f0:	4301                	li	t1,0
     4f2:	c66e                	sw	s11,12(sp)
     4f4:	a019                	j	4fa <__riscv_save_10+0x4>

000004f6 <__riscv_save_10>:
     4f6:	7139                	addi	sp,sp,-64
     4f8:	5341                	li	t1,-16
     4fa:	c86a                	sw	s10,16(sp)
     4fc:	ca66                	sw	s9,20(sp)
     4fe:	cc62                	sw	s8,24(sp)
     500:	ce5e                	sw	s7,28(sp)
     502:	a019                	j	508 <__riscv_save_4+0x4>

00000504 <__riscv_save_4>:
     504:	7139                	addi	sp,sp,-64
     506:	5301                	li	t1,-32
     508:	d05a                	sw	s6,32(sp)
     50a:	d256                	sw	s5,36(sp)
     50c:	d452                	sw	s4,40(sp)
     50e:	d64e                	sw	s3,44(sp)
     510:	d84a                	sw	s2,48(sp)
     512:	da26                	sw	s1,52(sp)
     514:	dc22                	sw	s0,56(sp)
     516:	de06                	sw	ra,60(sp)
     518:	40610133          	sub	sp,sp,t1
     51c:	8282                	jr	t0

0000051e <__riscv_save_0>:
     51e:	1141                	addi	sp,sp,-16
     520:	c04a                	sw	s2,0(sp)
     522:	c226                	sw	s1,4(sp)
     524:	c422                	sw	s0,8(sp)
     526:	c606                	sw	ra,12(sp)
     528:	8282                	jr	t0

0000052a <__riscv_restore_12>:
     52a:	4db2                	lw	s11,12(sp)
     52c:	0141                	addi	sp,sp,16

0000052e <__riscv_restore_10>:
     52e:	4d02                	lw	s10,0(sp)
     530:	4c92                	lw	s9,4(sp)
     532:	4c22                	lw	s8,8(sp)
     534:	4bb2                	lw	s7,12(sp)
     536:	0141                	addi	sp,sp,16

00000538 <__riscv_restore_4>:
     538:	4b02                	lw	s6,0(sp)
     53a:	4a92                	lw	s5,4(sp)
     53c:	4a22                	lw	s4,8(sp)
     53e:	49b2                	lw	s3,12(sp)
     540:	0141                	addi	sp,sp,16

00000542 <__riscv_restore_0>:
     542:	4902                	lw	s2,0(sp)
     544:	4492                	lw	s1,4(sp)
     546:	4422                	lw	s0,8(sp)
     548:	40b2                	lw	ra,12(sp)
     54a:	0141                	addi	sp,sp,16
     54c:	8082                	ret

0000054e <memset>:
     54e:	433d                	li	t1,15
     550:	872a                	mv	a4,a0
     552:	02c37363          	bgeu	t1,a2,578 <memset+0x2a>
     556:	00f77793          	andi	a5,a4,15
     55a:	efbd                	bnez	a5,5d8 <memset+0x8a>
     55c:	e5ad                	bnez	a1,5c6 <memset+0x78>
     55e:	ff067693          	andi	a3,a2,-16
     562:	8a3d                	andi	a2,a2,15
     564:	96ba                	add	a3,a3,a4
     566:	c30c                	sw	a1,0(a4)
     568:	c34c                	sw	a1,4(a4)
     56a:	c70c                	sw	a1,8(a4)
     56c:	c74c                	sw	a1,12(a4)
     56e:	0741                	addi	a4,a4,16
     570:	fed76be3          	bltu	a4,a3,566 <memset+0x18>
     574:	e211                	bnez	a2,578 <memset+0x2a>
     576:	8082                	ret
     578:	40c306b3          	sub	a3,t1,a2
     57c:	068a                	slli	a3,a3,0x2
     57e:	00000297          	auipc	t0,0x0
     582:	9696                	add	a3,a3,t0
     584:	00a68067          	jr	10(a3)
     588:	00b70723          	sb	a1,14(a4)
     58c:	00b706a3          	sb	a1,13(a4)
     590:	00b70623          	sb	a1,12(a4)
     594:	00b705a3          	sb	a1,11(a4)
     598:	00b70523          	sb	a1,10(a4)
     59c:	00b704a3          	sb	a1,9(a4)
     5a0:	00b70423          	sb	a1,8(a4)
     5a4:	00b703a3          	sb	a1,7(a4)
     5a8:	00b70323          	sb	a1,6(a4)
     5ac:	00b702a3          	sb	a1,5(a4)
     5b0:	00b70223          	sb	a1,4(a4)
     5b4:	00b701a3          	sb	a1,3(a4)
     5b8:	00b70123          	sb	a1,2(a4)
     5bc:	00b700a3          	sb	a1,1(a4)
     5c0:	00b70023          	sb	a1,0(a4)
     5c4:	8082                	ret
     5c6:	0ff5f593          	andi	a1,a1,255
     5ca:	00859693          	slli	a3,a1,0x8
     5ce:	8dd5                	or	a1,a1,a3
     5d0:	01059693          	slli	a3,a1,0x10
     5d4:	8dd5                	or	a1,a1,a3
     5d6:	b761                	j	55e <memset+0x10>
     5d8:	00279693          	slli	a3,a5,0x2
     5dc:	00000297          	auipc	t0,0x0
     5e0:	9696                	add	a3,a3,t0
     5e2:	8286                	mv	t0,ra
     5e4:	fa8680e7          	jalr	-88(a3)
     5e8:	8096                	mv	ra,t0
     5ea:	17c1                	addi	a5,a5,-16
     5ec:	8f1d                	sub	a4,a4,a5
     5ee:	963e                	add	a2,a2,a5
     5f0:	f8c374e3          	bgeu	t1,a2,578 <memset+0x2a>
     5f4:	b7a5                	j	55c <memset+0xe>

000005f6 <xCanOpenProcessTaskHandle>:
     5f6:	20000537          	lui	a0,0x20000
     5fa:	5cc50513          	addi	a0,a0,1484 # 200005cc <pCanOpenProcessTaskHandle>
     5fe:	8082                	ret

00000600 <xCanOpenPeriodicTaskHandle>:
     600:	20000537          	lui	a0,0x20000
     604:	5c850513          	addi	a0,a0,1480 # 200005c8 <pCanOpenPeriodicTaskHandle>
     608:	8082                	ret

0000060a <vCanOpenInit>:
     60a:	200007b7          	lui	a5,0x20000
     60e:	5ca7a823          	sw	a0,1488(a5) # 200005d0 <pcan>
     612:	8082                	ret

00000614 <vCanOpenProcess>:
     614:	ee3ff2ef          	jal	t0,4f6 <__riscv_save_10>
     618:	200005b7          	lui	a1,0x20000
     61c:	7139                	addi	sp,sp,-64
     61e:	5c458593          	addi	a1,a1,1476 # 200005c4 <co_heap_used>
     622:	4501                	li	a0,0
     624:	20000437          	lui	s0,0x20000
     628:	2160a0ef          	jal	ra,a83e <CO_new>
     62c:	5ca42023          	sw	a0,1472(s0) # 200005c0 <_edata>
     630:	5c040413          	addi	s0,s0,1472
     634:	e119                	bnez	a0,63a <vCanOpenProcess+0x26>
     636:	089010ef          	jal	ra,1ebe <Error_Handler>
     63a:	401c                	lw	a5,0(s0)
     63c:	20000737          	lui	a4,0x20000
     640:	5d072703          	lw	a4,1488(a4) # 200005d0 <pcan>
     644:	43dc                	lw	a5,4(a5)
     646:	c398                	sw	a4,0(a5)
     648:	30f070ef          	jal	ra,8156 <co_drv_create_os_objects>
     64c:	33b070ef          	jal	ra,8186 <co_drv_mutex_lock>
     650:	68e000ef          	jal	ra,cde <vGetBitrate>
     654:	02a11323          	sh	a0,38(sp)
     658:	d602                	sw	zero,44(sp)
     65a:	6b4000ef          	jal	ra,d0e <vGetNodeId>
     65e:	401c                	lw	a5,0(s0)
     660:	02a102a3          	sb	a0,37(sp)
     664:	43dc                	lw	a5,4(a5)
     666:	4388                	lw	a0,0(a5)
     668:	0007aa23          	sw	zero,20(a5)
     66c:	349070ef          	jal	ra,81b4 <CO_CANsetConfigurationMode>
     670:	401c                	lw	a5,0(s0)
     672:	43c8                	lw	a0,4(a5)
     674:	47d070ef          	jal	ra,82f0 <CO_CANmodule_disable>
     678:	4008                	lw	a0,0(s0)
     67a:	02615603          	lhu	a2,38(sp)
     67e:	415c                	lw	a5,4(a0)
     680:	438c                	lw	a1,0(a5)
     682:	2be0a0ef          	jal	ra,a940 <CO_CANinit>
     686:	c119                	beqz	a0,68c <vCanOpenProcess+0x78>
     688:	037010ef          	jal	ra,1ebe <Error_Handler>
     68c:	200007b7          	lui	a5,0x20000
     690:	35078793          	addi	a5,a5,848 # 20000350 <OD_ROM>
     694:	5398                	lw	a4,32(a5)
     696:	4008                	lw	a0,0(s0)
     698:	02610693          	addi	a3,sp,38
     69c:	d83a                	sw	a4,48(sp)
     69e:	53d8                	lw	a4,36(a5)
     6a0:	02510613          	addi	a2,sp,37
     6a4:	180c                	addi	a1,sp,48
     6a6:	da3a                	sw	a4,52(sp)
     6a8:	5798                	lw	a4,40(a5)
     6aa:	57dc                	lw	a5,44(a5)
     6ac:	dc3a                	sw	a4,56(sp)
     6ae:	de3e                	sw	a5,60(sp)
     6b0:	2c60a0ef          	jal	ra,a976 <CO_LSSinit>
     6b4:	c119                	beqz	a0,6ba <vCanOpenProcess+0xa6>
     6b6:	009010ef          	jal	ra,1ebe <Error_Handler>
     6ba:	8141a683          	lw	a3,-2028(gp) # 20000594 <OD>
     6be:	02514903          	lbu	s2,37(sp)
     6c2:	00042a03          	lw	s4,0(s0)
     6c6:	ce36                	sw	a3,28(sp)
     6c8:	2581                	jal	d08 <vFDGetNMTState>
     6ca:	1f400793          	li	a5,500
     6ce:	c03e                	sw	a5,0(sp)
     6d0:	46f2                	lw	a3,28(sp)
     6d2:	6789                	lui	a5,0x2
     6d4:	02c10993          	addi	s3,sp,44
     6d8:	07c5                	addi	a5,a5,17
     6da:	8fc9                	or	a5,a5,a0
     6dc:	c64e                	sw	s3,12(sp)
     6de:	c44a                	sw	s2,8(sp)
     6e0:	c202                	sw	zero,4(sp)
     6e2:	3e800893          	li	a7,1000
     6e6:	1f400813          	li	a6,500
     6ea:	4701                	li	a4,0
     6ec:	4601                	li	a2,0
     6ee:	4581                	li	a1,0
     6f0:	8552                	mv	a0,s4
     6f2:	2b60a0ef          	jal	ra,a9a8 <CO_CANopenInit>
     6f6:	c511                	beqz	a0,702 <vCanOpenProcess+0xee>
     6f8:	57b5                	li	a5,-19
     6fa:	00f50463          	beq	a0,a5,702 <vCanOpenProcess+0xee>
     6fe:	7c0010ef          	jal	ra,1ebe <Error_Handler>
     702:	4008                	lw	a0,0(s0)
     704:	8141a603          	lw	a2,-2028(gp) # 20000594 <OD>
     708:	874e                	mv	a4,s3
     70a:	494c                	lw	a1,20(a0)
     70c:	86ca                	mv	a3,s2
     70e:	3520a0ef          	jal	ra,aa60 <CO_CANopenInitPDO>
     712:	c119                	beqz	a0,718 <vCanOpenProcess+0x104>
     714:	7aa010ef          	jal	ra,1ebe <Error_Handler>
     718:	401c                	lw	a5,0(s0)
     71a:	439c                	lw	a5,0(a5)
     71c:	c399                	beqz	a5,722 <vCanOpenProcess+0x10e>
     71e:	7a0010ef          	jal	ra,1ebe <Error_Handler>
     722:	401c                	lw	a5,0(s0)
     724:	200004b7          	lui	s1,0x20000
     728:	6989                	lui	s3,0x2
     72a:	43c8                	lw	a0,4(a5)
     72c:	3e800a13          	li	s4,1000
     730:	295070ef          	jal	ra,81c4 <CO_CANsetNormalMode>
     734:	5c04aa23          	sw	zero,1492(s1) # 200005d4 <reset>
     738:	267070ef          	jal	ra,819e <co_drv_mutex_unlock>
     73c:	4aa060ef          	jal	ra,6be6 <xTaskGetTickCount>
     740:	892a                	mv	s2,a0
     742:	d402                	sw	zero,40(sp)
     744:	5d448493          	addi	s1,s1,1492
     748:	71098993          	addi	s3,s3,1808 # 2710 <Get_CalibrationValue+0x2>
     74c:	409c                	lw	a5,0(s1)
     74e:	cb89                	beqz	a5,760 <vCanOpenProcess+0x14c>
     750:	beef07b7          	lui	a5,0xbeef0
     754:	e000e737          	lui	a4,0xe000e
     758:	08078793          	addi	a5,a5,128 # beef0080 <__freertos_irq_stack_top+0x9eeeb080>
     75c:	c73c                	sw	a5,72(a4)
     75e:	bffd                	j	75c <vCanOpenProcess+0x148>
     760:	55a2                	lw	a1,40(sp)
     762:	9341a503          	lw	a0,-1740(gp) # 200006b4 <co_drv_app_thread_sync_semaphore>
     766:	0345d5b3          	divu	a1,a1,s4
     76a:	4c1050ef          	jal	ra,642a <xQueueSemaphoreTake>
     76e:	219070ef          	jal	ra,8186 <co_drv_mutex_lock>
     772:	d44e                	sw	s3,40(sp)
     774:	472060ef          	jal	ra,6be6 <xTaskGetTickCount>
     778:	41250633          	sub	a2,a0,s2
     77c:	03460633          	mul	a2,a2,s4
     780:	8aaa                	mv	s5,a0
     782:	4008                	lw	a0,0(s0)
     784:	1034                	addi	a3,sp,40
     786:	4581                	li	a1,0
     788:	8956                	mv	s2,s5
     78a:	3c00a0ef          	jal	ra,ab4a <CO_process>
     78e:	c088                	sw	a0,0(s1)
     790:	9381a503          	lw	a0,-1736(gp) # 200006b8 <co_drv_periodic_thread_sync_semaphore>
     794:	4681                	li	a3,0
     796:	4601                	li	a2,0
     798:	4581                	li	a1,0
     79a:	0ff050ef          	jal	ra,6098 <xQueueGenericSend>
     79e:	201070ef          	jal	ra,819e <co_drv_mutex_unlock>
     7a2:	b76d                	j	74c <vCanOpenProcess+0x138>

000007a4 <vCanOpenPeriodicProcess>:
     7a4:	d61ff2ef          	jal	t0,504 <__riscv_save_4>
     7a8:	1141                	addi	sp,sp,-16
     7aa:	1dd070ef          	jal	ra,8186 <co_drv_mutex_lock>
     7ae:	438060ef          	jal	ra,6be6 <xTaskGetTickCount>
     7b2:	6989                	lui	s3,0x2
     7b4:	842a                	mv	s0,a0
     7b6:	c602                	sw	zero,12(sp)
     7b8:	3e800a13          	li	s4,1000
     7bc:	71098993          	addi	s3,s3,1808 # 2710 <Get_CalibrationValue+0x2>
     7c0:	20000b37          	lui	s6,0x20000
     7c4:	1db070ef          	jal	ra,819e <co_drv_mutex_unlock>
     7c8:	45b2                	lw	a1,12(sp)
     7ca:	9381a503          	lw	a0,-1736(gp) # 200006b8 <co_drv_periodic_thread_sync_semaphore>
     7ce:	5c0b0913          	addi	s2,s6,1472 # 200005c0 <_edata>
     7d2:	0345d5b3          	divu	a1,a1,s4
     7d6:	84a2                	mv	s1,s0
     7d8:	453050ef          	jal	ra,642a <xQueueSemaphoreTake>
     7dc:	1ab070ef          	jal	ra,8186 <co_drv_mutex_lock>
     7e0:	00092783          	lw	a5,0(s2)
     7e4:	c64e                	sw	s3,12(sp)
     7e6:	cf95                	beqz	a5,822 <__stack_size+0x22>
     7e8:	43dc                	lw	a5,4(a5)
     7ea:	4bdc                	lw	a5,20(a5)
     7ec:	cb9d                	beqz	a5,822 <__stack_size+0x22>
     7ee:	3f8060ef          	jal	ra,6be6 <xTaskGetTickCount>
     7f2:	84aa                	mv	s1,a0
     7f4:	00092503          	lw	a0,0(s2)
     7f8:	411c                	lw	a5,0(a0)
     7fa:	e785                	bnez	a5,822 <__stack_size+0x22>
     7fc:	415c                	lw	a5,4(a0)
     7fe:	4bdc                	lw	a5,20(a5)
     800:	c38d                	beqz	a5,822 <__stack_size+0x22>
     802:	40848433          	sub	s0,s1,s0
     806:	03440433          	mul	s0,s0,s4
     80a:	0074                	addi	a3,sp,12
     80c:	4581                	li	a1,0
     80e:	8622                	mv	a2,s0
     810:	3b80a0ef          	jal	ra,abc8 <CO_process_RPDO>
     814:	00092503          	lw	a0,0(s2)
     818:	0074                	addi	a3,sp,12
     81a:	8622                	mv	a2,s0
     81c:	4581                	li	a1,0
     81e:	3ea0a0ef          	jal	ra,ac08 <CO_process_TPDO>
     822:	8426                	mv	s0,s1
     824:	b745                	j	7c4 <vCanOpenPeriodicProcess+0x20>

00000826 <setReg32>:
     826:	94818793          	addi	a5,gp,-1720 # 200006c8 <DATA_MODEL_REGISTER>
     82a:	953e                	add	a0,a0,a5
     82c:	0085d793          	srli	a5,a1,0x8
     830:	a10c                	sb	a1,0(a0)
     832:	b11c                	sb	a5,1(a0)
     834:	0105d793          	srli	a5,a1,0x10
     838:	81e1                	srli	a1,a1,0x18
     83a:	a13c                	sb	a5,2(a0)
     83c:	b12c                	sb	a1,3(a0)
     83e:	8082                	ret

00000840 <setReg16>:
     840:	94818793          	addi	a5,gp,-1720 # 200006c8 <DATA_MODEL_REGISTER>
     844:	953e                	add	a0,a0,a5
     846:	a10c                	sb	a1,0(a0)
     848:	81a1                	srli	a1,a1,0x8
     84a:	b10c                	sb	a1,1(a0)
     84c:	8082                	ret

0000084e <setReg8>:
     84e:	94818793          	addi	a5,gp,-1720 # 200006c8 <DATA_MODEL_REGISTER>
     852:	953e                	add	a0,a0,a5
     854:	a10c                	sb	a1,0(a0)
     856:	8082                	ret

00000858 <setReg>:
     858:	4789                	li	a5,2
     85a:	00f60f63          	beq	a2,a5,878 <setReg+0x20>
     85e:	4791                	li	a5,4
     860:	02f60463          	beq	a2,a5,888 <setReg+0x30>
     864:	4785                	li	a5,1
     866:	00f61763          	bne	a2,a5,874 <setReg+0x1c>
     86a:	2198                	lbu	a4,0(a1)
     86c:	94818793          	addi	a5,gp,-1720 # 200006c8 <DATA_MODEL_REGISTER>
     870:	953e                	add	a0,a0,a5
     872:	a118                	sb	a4,0(a0)
     874:	4501                	li	a0,0
     876:	8082                	ret
     878:	219a                	lhu	a4,0(a1)
     87a:	94818793          	addi	a5,gp,-1720 # 200006c8 <DATA_MODEL_REGISTER>
     87e:	953e                	add	a0,a0,a5
     880:	a118                	sb	a4,0(a0)
     882:	8321                	srli	a4,a4,0x8
     884:	b118                	sb	a4,1(a0)
     886:	b7fd                	j	874 <setReg+0x1c>
     888:	4198                	lw	a4,0(a1)
     88a:	94818793          	addi	a5,gp,-1720 # 200006c8 <DATA_MODEL_REGISTER>
     88e:	953e                	add	a0,a0,a5
     890:	00875793          	srli	a5,a4,0x8
     894:	a118                	sb	a4,0(a0)
     896:	b11c                	sb	a5,1(a0)
     898:	01075793          	srli	a5,a4,0x10
     89c:	8361                	srli	a4,a4,0x18
     89e:	a13c                	sb	a5,2(a0)
     8a0:	b138                	sb	a4,3(a0)
     8a2:	bfc9                	j	874 <setReg+0x1c>

000008a4 <getReg16>:
     8a4:	94818793          	addi	a5,gp,-1720 # 200006c8 <DATA_MODEL_REGISTER>
     8a8:	97aa                	add	a5,a5,a0
     8aa:	3398                	lbu	a4,1(a5)
     8ac:	2388                	lbu	a0,0(a5)
     8ae:	0722                	slli	a4,a4,0x8
     8b0:	8d59                	or	a0,a0,a4
     8b2:	8082                	ret

000008b4 <getReg32>:
     8b4:	94818793          	addi	a5,gp,-1720 # 200006c8 <DATA_MODEL_REGISTER>
     8b8:	97aa                	add	a5,a5,a0
     8ba:	3398                	lbu	a4,1(a5)
     8bc:	23a8                	lbu	a0,2(a5)
     8be:	0722                	slli	a4,a4,0x8
     8c0:	0542                	slli	a0,a0,0x10
     8c2:	8f49                	or	a4,a4,a0
     8c4:	2388                	lbu	a0,0(a5)
     8c6:	8f49                	or	a4,a4,a0
     8c8:	33a8                	lbu	a0,3(a5)
     8ca:	0562                	slli	a0,a0,0x18
     8cc:	8d59                	or	a0,a0,a4
     8ce:	8082                	ret

000008d0 <DataModel_Init>:
     8d0:	c27ff2ef          	jal	t0,4f6 <__riscv_save_10>
     8d4:	1141                	addi	sp,sp,-16
     8d6:	21c00613          	li	a2,540
     8da:	4581                	li	a1,0
     8dc:	94818513          	addi	a0,gp,-1720 # 200006c8 <DATA_MODEL_REGISTER>
     8e0:	31bd                	jal	54e <memset>
     8e2:	4681                	li	a3,0
     8e4:	20600613          	li	a2,518
     8e8:	94818593          	addi	a1,gp,-1720 # 200006c8 <DATA_MODEL_REGISTER>
     8ec:	4501                	li	a0,0
     8ee:	6dc030ef          	jal	ra,3fca <eEEPROMRd>
     8f2:	3c051e63          	bnez	a0,cce <DataModel_Init+0x3fe>
     8f6:	94818413          	addi	s0,gp,-1720 # 200006c8 <DATA_MODEL_REGISTER>
     8fa:	2018                	lbu	a4,0(s0)
     8fc:	05400793          	li	a5,84
     900:	24f70b63          	beq	a4,a5,b56 <DataModel_Init+0x286>
     904:	6485                	lui	s1,0x1
     906:	f5448793          	addi	a5,s1,-172 # f54 <vDashDrawInit+0x38>
     90a:	a01e                	sh	a5,0(s0)
     90c:	47bd                	li	a5,15
     90e:	a03c                	sb	a5,2(s0)
     910:	4789                	li	a5,2
     912:	a05e                	sh	a5,4(s0)
     914:	47d9                	li	a5,22
     916:	1cf40ba3          	sb	a5,471(s0)
     91a:	6789                	lui	a5,0x2
     91c:	40178793          	addi	a5,a5,1025 # 2401 <vSYSqueueInit+0x25>
     920:	a47e                	sh	a5,14(s0)
     922:	050007b7          	lui	a5,0x5000
     926:	c81c                	sw	a5,16(s0)
     928:	240007b7          	lui	a5,0x24000
     92c:	c85c                	sw	a5,20(s0)
     92e:	50000793          	li	a5,1280
     932:	cc1c                	sw	a5,24(s0)
     934:	1c040c23          	sb	zero,472(s0)
     938:	020007b7          	lui	a5,0x2000
     93c:	00042e23          	sw	zero,28(s0)
     940:	02042023          	sw	zero,32(s0)
     944:	02042223          	sw	zero,36(s0)
     948:	02042423          	sw	zero,40(s0)
     94c:	02042623          	sw	zero,44(s0)
     950:	02042823          	sw	zero,48(s0)
     954:	02042a23          	sw	zero,52(s0)
     958:	02042c23          	sw	zero,56(s0)
     95c:	02042e23          	sw	zero,60(s0)
     960:	04042023          	sw	zero,64(s0)
     964:	04042223          	sw	zero,68(s0)
     968:	04042423          	sw	zero,72(s0)
     96c:	04042623          	sw	zero,76(s0)
     970:	04042823          	sw	zero,80(s0)
     974:	04042a23          	sw	zero,84(s0)
     978:	04042c23          	sw	zero,88(s0)
     97c:	04042e23          	sw	zero,92(s0)
     980:	06042023          	sw	zero,96(s0)
     984:	06042223          	sw	zero,100(s0)
     988:	06042423          	sw	zero,104(s0)
     98c:	06042623          	sw	zero,108(s0)
     990:	06042823          	sw	zero,112(s0)
     994:	06042a23          	sw	zero,116(s0)
     998:	06042c23          	sw	zero,120(s0)
     99c:	10078693          	addi	a3,a5,256 # 2000100 <_data_lma+0x1ff2968>
     9a0:	0af42423          	sw	a5,168(s0)
     9a4:	0af42a23          	sw	a5,180(s0)
     9a8:	033607b7          	lui	a5,0x3360
     9ac:	10078793          	addi	a5,a5,256 # 3360100 <_data_lma+0x3352968>
     9b0:	0cf42823          	sw	a5,208(s0)
     9b4:	02f307b7          	lui	a5,0x2f30
     9b8:	03f78793          	addi	a5,a5,63 # 2f3003f <_data_lma+0x2f228a7>
     9bc:	0cf42a23          	sw	a5,212(s0)
     9c0:	000607b7          	lui	a5,0x60
     9c4:	0f378793          	addi	a5,a5,243 # 600f3 <_data_lma+0x5295b>
     9c8:	0cf42c23          	sw	a5,216(s0)
     9cc:	00cf07b7          	lui	a5,0xcf0
     9d0:	0db78793          	addi	a5,a5,219 # cf00db <_data_lma+0xce2943>
     9d4:	0cf42e23          	sw	a5,220(s0)
     9d8:	00ed07b7          	lui	a5,0xed0
     9dc:	20000713          	li	a4,512
     9e0:	0e678793          	addi	a5,a5,230 # ed00e6 <_data_lma+0xec294e>
     9e4:	10000593          	li	a1,256
     9e8:	4515                	li	a0,5
     9ea:	0ef42023          	sw	a5,224(s0)
     9ee:	0ad42623          	sw	a3,172(s0)
     9f2:	0ae42823          	sw	a4,176(s0)
     9f6:	0ad42c23          	sw	a3,184(s0)
     9fa:	0ae42e23          	sw	a4,188(s0)
     9fe:	06042e23          	sw	zero,124(s0)
     a02:	08042023          	sw	zero,128(s0)
     a06:	08042223          	sw	zero,132(s0)
     a0a:	08042423          	sw	zero,136(s0)
     a0e:	08042623          	sw	zero,140(s0)
     a12:	08042823          	sw	zero,144(s0)
     a16:	08042a23          	sw	zero,148(s0)
     a1a:	08042c23          	sw	zero,152(s0)
     a1e:	08042e23          	sw	zero,156(s0)
     a22:	0a042023          	sw	zero,160(s0)
     a26:	0a042223          	sw	zero,164(s0)
     a2a:	0c042023          	sw	zero,192(s0)
     a2e:	0c042223          	sw	zero,196(s0)
     a32:	0c042423          	sw	zero,200(s0)
     a36:	0c042623          	sw	zero,204(s0)
     a3a:	33f5                	jal	826 <setReg32>
     a3c:	4581                	li	a1,0
     a3e:	4525                	li	a0,9
     a40:	33dd                	jal	826 <setReg32>
     a42:	31348493          	addi	s1,s1,787
     a46:	47cd                	li	a5,19
     a48:	6a35                	lui	s4,0xd
     a4a:	0e941223          	sh	s1,228(s0)
     a4e:	0ef40323          	sb	a5,230(s0)
     a52:	ac0a0a13          	addi	s4,s4,-1344 # cac0 <CalPoint>
     a56:	0e700493          	li	s1,231
     a5a:	4ba9                	li	s7,10
     a5c:	13300b13          	li	s6,307
     a60:	000a5983          	lhu	s3,0(s4)
     a64:	8526                	mv	a0,s1
     a66:	0a11                	addi	s4,s4,4
     a68:	037989b3          	mul	s3,s3,s7
     a6c:	09c2                	slli	s3,s3,0x10
     a6e:	0109d993          	srli	s3,s3,0x10
     a72:	85ce                	mv	a1,s3
     a74:	33f1                	jal	840 <setReg16>
     a76:	ffea5a83          	lhu	s5,-2(s4)
     a7a:	00248513          	addi	a0,s1,2
     a7e:	0542                	slli	a0,a0,0x10
     a80:	85d6                	mv	a1,s5
     a82:	8141                	srli	a0,a0,0x10
     a84:	3b75                	jal	840 <setReg16>
     a86:	05048513          	addi	a0,s1,80
     a8a:	0542                	slli	a0,a0,0x10
     a8c:	85ce                	mv	a1,s3
     a8e:	8141                	srli	a0,a0,0x10
     a90:	3b45                	jal	840 <setReg16>
     a92:	05248513          	addi	a0,s1,82
     a96:	0542                	slli	a0,a0,0x10
     a98:	85d6                	mv	a1,s5
     a9a:	8141                	srli	a0,a0,0x10
     a9c:	3355                	jal	840 <setReg16>
     a9e:	0a048513          	addi	a0,s1,160
     aa2:	0542                	slli	a0,a0,0x10
     aa4:	85ce                	mv	a1,s3
     aa6:	8141                	srli	a0,a0,0x10
     aa8:	3b61                	jal	840 <setReg16>
     aaa:	0a248513          	addi	a0,s1,162
     aae:	0491                	addi	s1,s1,4
     ab0:	0542                	slli	a0,a0,0x10
     ab2:	04c2                	slli	s1,s1,0x10
     ab4:	85d6                	mv	a1,s5
     ab6:	8141                	srli	a0,a0,0x10
     ab8:	80c1                	srli	s1,s1,0x10
     aba:	3359                	jal	840 <setReg16>
     abc:	fb6492e3          	bne	s1,s6,a60 <DataModel_Init+0x190>
     ac0:	03e807b7          	lui	a5,0x3e80
     ac4:	3e878793          	addi	a5,a5,1000 # 3e803e8 <_data_lma+0x3e72c50>
     ac8:	4581                	li	a1,0
     aca:	1dc00513          	li	a0,476
     ace:	1cf42c23          	sw	a5,472(s0)
     ad2:	3b91                	jal	826 <setReg32>
     ad4:	4581                	li	a1,0
     ad6:	1e000513          	li	a0,480
     ada:	33b1                	jal	826 <setReg32>
     adc:	4581                	li	a1,0
     ade:	1e400513          	li	a0,484
     ae2:	3391                	jal	826 <setReg32>
     ae4:	4581                	li	a1,0
     ae6:	1e800513          	li	a0,488
     aea:	3b35                	jal	826 <setReg32>
     aec:	4581                	li	a1,0
     aee:	1ec00513          	li	a0,492
     af2:	3b15                	jal	826 <setReg32>
     af4:	4581                	li	a1,0
     af6:	1f000513          	li	a0,496
     afa:	3335                	jal	826 <setReg32>
     afc:	4581                	li	a1,0
     afe:	1f400513          	li	a0,500
     b02:	3315                	jal	826 <setReg32>
     b04:	4581                	li	a1,0
     b06:	1f800513          	li	a0,504
     b0a:	3b31                	jal	826 <setReg32>
     b0c:	4581                	li	a1,0
     b0e:	1fc00513          	li	a0,508
     b12:	3b11                	jal	826 <setReg32>
     b14:	4581                	li	a1,0
     b16:	20000513          	li	a0,512
     b1a:	3331                	jal	826 <setReg32>
     b1c:	47c1                	li	a5,16
     b1e:	4681                	li	a3,0
     b20:	1cf40ba3          	sb	a5,471(s0)
     b24:	20600613          	li	a2,518
     b28:	10000793          	li	a5,256
     b2c:	94818593          	addi	a1,gp,-1720 # 200006c8 <DATA_MODEL_REGISTER>
     b30:	4501                	li	a0,0
     b32:	20f41223          	sh	a5,516(s0)
     b36:	3e4030ef          	jal	ra,3f1a <eEEPROMWr>
     b3a:	20600613          	li	a2,518
     b3e:	4581                	li	a1,0
     b40:	94818513          	addi	a0,gp,-1720 # 200006c8 <DATA_MODEL_REGISTER>
     b44:	3429                	jal	54e <memset>
     b46:	4681                	li	a3,0
     b48:	20600613          	li	a2,518
     b4c:	94818593          	addi	a1,gp,-1720 # 200006c8 <DATA_MODEL_REGISTER>
     b50:	4501                	li	a0,0
     b52:	478030ef          	jal	ra,3fca <eEEPROMRd>
     b56:	200007b7          	lui	a5,0x20000
     b5a:	4705                	li	a4,1
     b5c:	5ce78c23          	sb	a4,1496(a5) # 200005d8 <data_init>
     b60:	8141a783          	lw	a5,-2028(gp) # 20000594 <OD>
     b64:	4705                	li	a4,1
     b66:	4685                	li	a3,1
     b68:	43c8                	lw	a0,4(a5)
     b6a:	00440613          	addi	a2,s0,4
     b6e:	4581                	li	a1,0
     b70:	26450513          	addi	a0,a0,612
     b74:	56e080ef          	jal	ra,90e2 <OD_set_value>
     b78:	0d240993          	addi	s3,s0,210
     b7c:	4909                	li	s2,2
     b7e:	4a2d                	li	s4,11
     b80:	8141a783          	lw	a5,-2028(gp) # 20000594 <OD>
     b84:	85ca                	mv	a1,s2
     b86:	0905                	addi	s2,s2,1
     b88:	43c8                	lw	a0,4(a5)
     b8a:	864e                	mv	a2,s3
     b8c:	4705                	li	a4,1
     b8e:	4689                	li	a3,2
     b90:	18050513          	addi	a0,a0,384
     b94:	0ff97913          	andi	s2,s2,255
     b98:	54a080ef          	jal	ra,90e2 <OD_set_value>
     b9c:	0989                	addi	s3,s3,2
     b9e:	ff4911e3          	bne	s2,s4,b80 <DataModel_Init+0x2b0>
     ba2:	8141a783          	lw	a5,-2028(gp) # 20000594 <OD>
     ba6:	4705                	li	a4,1
     ba8:	4689                	li	a3,2
     baa:	43c8                	lw	a0,4(a5)
     bac:	00f40613          	addi	a2,s0,15
     bb0:	4599                	li	a1,6
     bb2:	24050513          	addi	a0,a0,576
     bb6:	52c080ef          	jal	ra,90e2 <OD_set_value>
     bba:	8141a783          	lw	a5,-2028(gp) # 20000594 <OD>
     bbe:	4705                	li	a4,1
     bc0:	4689                	li	a3,2
     bc2:	43c8                	lw	a0,4(a5)
     bc4:	01140613          	addi	a2,s0,17
     bc8:	4595                	li	a1,5
     bca:	24050513          	addi	a0,a0,576
     bce:	514080ef          	jal	ra,90e2 <OD_set_value>
     bd2:	8141a783          	lw	a5,-2028(gp) # 20000594 <OD>
     bd6:	4705                	li	a4,1
     bd8:	4689                	li	a3,2
     bda:	43c8                	lw	a0,4(a5)
     bdc:	01340613          	addi	a2,s0,19
     be0:	4585                	li	a1,1
     be2:	24050513          	addi	a0,a0,576
     be6:	4fc080ef          	jal	ra,90e2 <OD_set_value>
     bea:	8141a783          	lw	a5,-2028(gp) # 20000594 <OD>
     bee:	4705                	li	a4,1
     bf0:	4689                	li	a3,2
     bf2:	43c8                	lw	a0,4(a5)
     bf4:	01540613          	addi	a2,s0,21
     bf8:	4589                	li	a1,2
     bfa:	24050513          	addi	a0,a0,576
     bfe:	4e4080ef          	jal	ra,90e2 <OD_set_value>
     c02:	8141a783          	lw	a5,-2028(gp) # 20000594 <OD>
     c06:	4705                	li	a4,1
     c08:	4689                	li	a3,2
     c0a:	43c8                	lw	a0,4(a5)
     c0c:	01740613          	addi	a2,s0,23
     c10:	458d                	li	a1,3
     c12:	24050513          	addi	a0,a0,576
     c16:	4cc080ef          	jal	ra,90e2 <OD_set_value>
     c1a:	8141a783          	lw	a5,-2028(gp) # 20000594 <OD>
     c1e:	4705                	li	a4,1
     c20:	4689                	li	a3,2
     c22:	43c8                	lw	a0,4(a5)
     c24:	01940613          	addi	a2,s0,25
     c28:	4591                	li	a1,4
     c2a:	24050513          	addi	a0,a0,576
     c2e:	4b4080ef          	jal	ra,90e2 <OD_set_value>
     c32:	4905                	li	s2,1
     c34:	0c240b93          	addi	s7,s0,194
     c38:	4c31                	li	s8,12
     c3a:	4c9d                	li	s9,7
     c3c:	4b3d                	li	s6,15
     c3e:	03890ab3          	mul	s5,s2,s8
     c42:	8141a783          	lw	a5,-2028(gp) # 20000594 <OD>
     c46:	4705                	li	a4,1
     c48:	4685                	li	a3,1
     c4a:	43c8                	lw	a0,4(a5)
     c4c:	012b8633          	add	a2,s7,s2
     c50:	0ff97593          	andi	a1,s2,255
     c54:	18c50513          	addi	a0,a0,396
     c58:	48a080ef          	jal	ra,90e2 <OD_set_value>
     c5c:	01b40a13          	addi	s4,s0,27
     c60:	18ca8a93          	addi	s5,s5,396
     c64:	4985                	li	s3,1
     c66:	8141a783          	lw	a5,-2028(gp) # 20000594 <OD>
     c6a:	8652                	mv	a2,s4
     c6c:	0ff9f593          	andi	a1,s3,255
     c70:	43c8                	lw	a0,4(a5)
     c72:	4705                	li	a4,1
     c74:	4689                	li	a3,2
     c76:	9556                	add	a0,a0,s5
     c78:	0985                	addi	s3,s3,1
     c7a:	468080ef          	jal	ra,90e2 <OD_set_value>
     c7e:	0a09                	addi	s4,s4,2
     c80:	ff9993e3          	bne	s3,s9,c66 <DataModel_Init+0x396>
     c84:	0905                	addi	s2,s2,1
     c86:	fb691ce3          	bne	s2,s6,c3e <DataModel_Init+0x36e>
     c8a:	8141a783          	lw	a5,-2028(gp) # 20000594 <OD>
     c8e:	4705                	li	a4,1
     c90:	4685                	li	a3,1
     c92:	43c8                	lw	a0,4(a5)
     c94:	0d140613          	addi	a2,s0,209
     c98:	45bd                	li	a1,15
     c9a:	18c50513          	addi	a0,a0,396
     c9e:	444080ef          	jal	ra,90e2 <OD_set_value>
     ca2:	300c                	lbu	a1,1(s0)
     ca4:	4501                	li	a0,0
     ca6:	6cf000ef          	jal	ra,1b74 <vSetInitBrigth>
     caa:	202c                	lbu	a1,2(s0)
     cac:	4505                	li	a0,1
     cae:	6c7000ef          	jal	ra,1b74 <vSetInitBrigth>
     cb2:	4515                	li	a0,5
     cb4:	3101                	jal	8b4 <getReg32>
     cb6:	8141a783          	lw	a5,-2028(gp) # 20000594 <OD>
     cba:	c62a                	sw	a0,12(sp)
     cbc:	4705                	li	a4,1
     cbe:	43c8                	lw	a0,4(a5)
     cc0:	4691                	li	a3,4
     cc2:	0070                	addi	a2,sp,12
     cc4:	4589                	li	a1,2
     cc6:	15c50513          	addi	a0,a0,348
     cca:	418080ef          	jal	ra,90e2 <OD_set_value>
     cce:	0141                	addi	sp,sp,16
     cd0:	85fff06f          	j	52e <__riscv_restore_10>

00000cd4 <getReg8>:
     cd4:	94818793          	addi	a5,gp,-1720 # 200006c8 <DATA_MODEL_REGISTER>
     cd8:	953e                	add	a0,a0,a5
     cda:	2108                	lbu	a0,0(a0)
     cdc:	8082                	ret

00000cde <vGetBitrate>:
     cde:	841ff2ef          	jal	t0,51e <__riscv_save_0>
     ce2:	4581                	li	a1,0
     ce4:	4511                	li	a0,4
     ce6:	318030ef          	jal	ra,3ffe <bReadEEPROM>
     cea:	471d                	li	a4,7
     cec:	07d00793          	li	a5,125
     cf0:	00a76963          	bltu	a4,a0,d02 <vGetBitrate+0x24>
     cf4:	00151793          	slli	a5,a0,0x1
     cf8:	6535                	lui	a0,0xd
     cfa:	ab050513          	addi	a0,a0,-1360 # cab0 <CSWTCH.19>
     cfe:	953e                	add	a0,a0,a5
     d00:	211e                	lhu	a5,0(a0)
     d02:	853e                	mv	a0,a5
     d04:	83fff06f          	j	542 <__riscv_restore_0>

00000d08 <vFDGetNMTState>:
     d08:	10000513          	li	a0,256
     d0c:	8082                	ret

00000d0e <vGetNodeId>:
     d0e:	b1f1c503          	lbu	a0,-1249(gp) # 2000089f <DATA_MODEL_REGISTER+0x1d7>
     d12:	8082                	ret

00000d14 <vIncrementSystemCounters>:
     d14:	80bff2ef          	jal	t0,51e <__riscv_save_0>
     d18:	4515                	li	a0,5
     d1a:	3e69                	jal	8b4 <getReg32>
     d1c:	00150593          	addi	a1,a0,1
     d20:	4515                	li	a0,5
     d22:	3611                	jal	826 <setReg32>
     d24:	81fff06f          	j	542 <__riscv_restore_0>

00000d28 <vSaveData>:
     d28:	ff6ff2ef          	jal	t0,51e <__riscv_save_0>
     d2c:	4681                	li	a3,0
     d2e:	4621                	li	a2,8
     d30:	94d18593          	addi	a1,gp,-1715 # 200006cd <DATA_MODEL_REGISTER+0x5>
     d34:	4515                	li	a0,5
     d36:	1e4030ef          	jal	ra,3f1a <eEEPROMWr>
     d3a:	809ff06f          	j	542 <__riscv_restore_0>

00000d3e <getOdometr>:
     d3e:	4501                	li	a0,0
     d40:	8082                	ret

00000d42 <NMI_Handler>:
     d42:	a001                	j	d42 <NMI_Handler>

00000d44 <HardFault_Handler>:
     d44:	7139                	addi	sp,sp,-64
     d46:	d62a                	sw	a0,44(sp)
     d48:	0000d537          	lui	a0,0xd
     d4c:	b1050513          	addi	a0,a0,-1264 # cb10 <CalPoint+0x50>
     d50:	de06                	sw	ra,60(sp)
     d52:	dc16                	sw	t0,56(sp)
     d54:	da1a                	sw	t1,52(sp)
     d56:	d81e                	sw	t2,48(sp)
     d58:	d232                	sw	a2,36(sp)
     d5a:	d036                	sw	a3,32(sp)
     d5c:	ce3a                	sw	a4,28(sp)
     d5e:	cc3e                	sw	a5,24(sp)
     d60:	ca42                	sw	a6,20(sp)
     d62:	c846                	sw	a7,16(sp)
     d64:	c672                	sw	t3,12(sp)
     d66:	c476                	sw	t4,8(sp)
     d68:	c27a                	sw	t5,4(sp)
     d6a:	c07e                	sw	t6,0(sp)
     d6c:	d42e                	sw	a1,40(sp)
     d6e:	59f0a0ef          	jal	ra,bb0c <puts>
     d72:	2f0070ef          	jal	ra,8062 <__get_MEPC>
     d76:	85aa                	mv	a1,a0
     d78:	0000d537          	lui	a0,0xd
     d7c:	b2450513          	addi	a0,a0,-1244 # cb24 <CalPoint+0x64>
     d80:	4790a0ef          	jal	ra,b9f8 <iprintf>
     d84:	2e4070ef          	jal	ra,8068 <__get_MCAUSE>
     d88:	85aa                	mv	a1,a0
     d8a:	0000d537          	lui	a0,0xd
     d8e:	b3450513          	addi	a0,a0,-1228 # cb34 <CalPoint+0x74>
     d92:	4670a0ef          	jal	ra,b9f8 <iprintf>
     d96:	2d8070ef          	jal	ra,806e <__get_MTVAL>
     d9a:	85aa                	mv	a1,a0
     d9c:	0000d537          	lui	a0,0xd
     da0:	b4450513          	addi	a0,a0,-1212 # cb44 <CalPoint+0x84>
     da4:	4550a0ef          	jal	ra,b9f8 <iprintf>
     da8:	a001                	j	da8 <HardFault_Handler+0x64>

00000daa <xProcessTaskHandle>:
     daa:	20000537          	lui	a0,0x20000
     dae:	5e850513          	addi	a0,a0,1512 # 200005e8 <pProcessTaskHandle>
     db2:	8082                	ret

00000db4 <getODValue>:
     db4:	fff50793          	addi	a5,a0,-1
     db8:	476d                	li	a4,27
     dba:	0cf76b63          	bltu	a4,a5,e90 <getODValue+0xdc>
     dbe:	f60ff2ef          	jal	t0,51e <__riscv_save_0>
     dc2:	6735                	lui	a4,0xd
     dc4:	078a                	slli	a5,a5,0x2
     dc6:	b5470713          	addi	a4,a4,-1196 # cb54 <CalPoint+0x94>
     dca:	97ba                	add	a5,a5,a4
     dcc:	439c                	lw	a5,0(a5)
     dce:	1141                	addi	sp,sp,-16
     dd0:	8782                	jr	a5
     dd2:	20750513          	addi	a0,a0,519
     dd6:	0542                	slli	a0,a0,0x10
     dd8:	8141                	srli	a0,a0,0x10
     dda:	3ded                	jal	cd4 <getReg8>
     ddc:	0141                	addi	sp,sp,16
     dde:	f64ff06f          	j	542 <__riscv_restore_0>
     de2:	20750513          	addi	a0,a0,519
     de6:	0542                	slli	a0,a0,0x10
     de8:	8141                	srli	a0,a0,0x10
     dea:	3c6d                	jal	8a4 <getReg16>
     dec:	bfc5                	j	ddc <getODValue+0x28>
     dee:	1539                	addi	a0,a0,-18
     df0:	0ff57513          	andi	a0,a0,255
     df4:	20f000ef          	jal	ra,1802 <GetAIN>
     df8:	0000d7b7          	lui	a5,0xd
     dfc:	bc47a583          	lw	a1,-1084(a5) # cbc4 <CalPoint+0x104>
     e00:	4600a0ef          	jal	ra,b260 <__mulsf3>
     e04:	6ec0a0ef          	jal	ra,b4f0 <__fixunssfsi>
     e08:	bfd1                	j	ddc <getODValue+0x28>
     e0a:	00e10593          	addi	a1,sp,14
     e0e:	4501                	li	a0,0
     e10:	7df020ef          	jal	ra,3dee <xGetRPM>
     e14:	1d800513          	li	a0,472
     e18:	3471                	jal	8a4 <getReg16>
     e1a:	84aa                	mv	s1,a0
     e1c:	8728                	lhu	a0,14(sp)
     e1e:	7280a0ef          	jal	ra,b546 <__floatsisf>
     e22:	842a                	mv	s0,a0
     e24:	8526                	mv	a0,s1
     e26:	7e60a0ef          	jal	ra,b60c <__floatunsisf>
     e2a:	0000d7b7          	lui	a5,0xd
     e2e:	bc87a583          	lw	a1,-1080(a5) # cbc8 <CalPoint+0x108>
     e32:	1800a0ef          	jal	ra,afb2 <__divsf3>
     e36:	85aa                	mv	a1,a0
     e38:	8522                	mv	a0,s0
     e3a:	4260a0ef          	jal	ra,b260 <__mulsf3>
     e3e:	0000d7b7          	lui	a5,0xd
     e42:	bc47a583          	lw	a1,-1084(a5) # cbc4 <CalPoint+0x104>
     e46:	41a0a0ef          	jal	ra,b260 <__mulsf3>
     e4a:	6a60a0ef          	jal	ra,b4f0 <__fixunssfsi>
     e4e:	0542                	slli	a0,a0,0x10
     e50:	8141                	srli	a0,a0,0x10
     e52:	b769                	j	ddc <getODValue+0x28>
     e54:	00e10593          	addi	a1,sp,14
     e58:	4505                	li	a0,1
     e5a:	795020ef          	jal	ra,3dee <xGetRPM>
     e5e:	1da00513          	li	a0,474
     e62:	bf5d                	j	e18 <getODValue+0x64>
     e64:	200007b7          	lui	a5,0x20000
     e68:	5e07c503          	lbu	a0,1504(a5) # 200005e0 <keystate>
     e6c:	bf85                	j	ddc <getODValue+0x28>
     e6e:	00e10593          	addi	a1,sp,14
     e72:	4509                	li	a0,2
     e74:	65b020ef          	jal	ra,3cce <xGetDIN>
     e78:	8708                	lbu	a0,14(sp)
     e7a:	b78d                	j	ddc <getODValue+0x28>
     e7c:	35c9                	jal	d3e <getOdometr>
     e7e:	bfb9                	j	ddc <getODValue+0x28>
     e80:	4515                	li	a0,5
     e82:	3c0d                	jal	8b4 <getReg32>
     e84:	bfa1                	j	ddc <getODValue+0x28>
     e86:	200007b7          	lui	a5,0x20000
     e8a:	5dc7a503          	lw	a0,1500(a5) # 200005dc <ErrorRegister>
     e8e:	b7b9                	j	ddc <getODValue+0x28>
     e90:	4501                	li	a0,0
     e92:	8082                	ret

00000e94 <IncMenuIndex>:
     e94:	b6418693          	addi	a3,gp,-1180 # 200008e4 <menu>
     e98:	0246c703          	lbu	a4,36(a3)
     e9c:	b6418793          	addi	a5,gp,-1180 # 200008e4 <menu>
     ea0:	00271613          	slli	a2,a4,0x2
     ea4:	96b2                	add	a3,a3,a2
     ea6:	4290                	lw	a2,0(a3)
     ea8:	46f1                	li	a3,28
     eaa:	02d61963          	bne	a2,a3,edc <IncMenuIndex+0x48>
     eae:	5b8c                	lw	a1,48(a5)
     eb0:	c595                	beqz	a1,edc <IncMenuIndex+0x48>
     eb2:	0357c683          	lbu	a3,53(a5)
     eb6:	4805                	li	a6,1
     eb8:	02000513          	li	a0,32
     ebc:	40d85633          	sra	a2,a6,a3
     ec0:	00c03633          	snez	a2,a2
     ec4:	0685                	addi	a3,a3,1
     ec6:	8e6d                	and	a2,a2,a1
     ec8:	0ff6f693          	andi	a3,a3,255
     ecc:	c601                	beqz	a2,ed4 <IncMenuIndex+0x40>
     ece:	02d78aa3          	sb	a3,53(a5)
     ed2:	8082                	ret
     ed4:	fed574e3          	bgeu	a0,a3,ebc <IncMenuIndex+0x28>
     ed8:	02078aa3          	sb	zero,53(a5)
     edc:	0705                	addi	a4,a4,1
     ede:	0347c683          	lbu	a3,52(a5)
     ee2:	0ff77713          	andi	a4,a4,255
     ee6:	02e78223          	sb	a4,36(a5)
     eea:	00d76463          	bltu	a4,a3,ef2 <IncMenuIndex+0x5e>
     eee:	02078223          	sb	zero,36(a5)
     ef2:	8082                	ret

00000ef4 <SetCurMenuHome>:
     ef4:	b6418793          	addi	a5,gp,-1180 # 200008e4 <menu>
     ef8:	0247c703          	lbu	a4,36(a5)
     efc:	02e782a3          	sb	a4,37(a5)
     f00:	8082                	ret

00000f02 <CheckMenuChannel>:
     f02:	c511                	beqz	a0,f0e <CheckMenuChannel+0xc>
     f04:	47f1                	li	a5,28
     f06:	00f50863          	beq	a0,a5,f16 <CheckMenuChannel+0x14>
     f0a:	4501                	li	a0,0
     f0c:	8082                	ret
     f0e:	b8018c23          	sb	zero,-1128(gp) # 20000918 <menu+0x34>
     f12:	4505                	li	a0,1
     f14:	8082                	ret
     f16:	b8a18823          	sb	a0,-1136(gp) # 20000910 <menu+0x2c>
     f1a:	bfc5                	j	f0a <CheckMenuChannel+0x8>

00000f1c <vDashDrawInit>:
     f1c:	de8ff2ef          	jal	t0,504 <__riscv_save_4>
     f20:	20400513          	li	a0,516
     f24:	b6418493          	addi	s1,gp,-1180 # 200008e4 <menu>
     f28:	3375                	jal	cd4 <getReg8>
     f2a:	02a482a3          	sb	a0,37(s1)
     f2e:	20500513          	li	a0,517
     f32:	334d                	jal	cd4 <getReg8>
     f34:	0254c783          	lbu	a5,37(s1)
     f38:	02a48323          	sb	a0,38(s1)
     f3c:	02048a23          	sb	zero,52(s1)
     f40:	02f48223          	sb	a5,36(s1)
     f44:	b6418913          	addi	s2,gp,-1180 # 200008e4 <menu>
     f48:	4481                	li	s1,0
     f4a:	b6418413          	addi	s0,gp,-1180 # 200008e4 <menu>
     f4e:	4a05                	li	s4,1
     f50:	49a5                	li	s3,9
     f52:	00249513          	slli	a0,s1,0x2
     f56:	1dc50513          	addi	a0,a0,476
     f5a:	0542                	slli	a0,a0,0x10
     f5c:	8141                	srli	a0,a0,0x10
     f5e:	957ff0ef          	jal	ra,8b4 <getReg32>
     f62:	00a92023          	sw	a0,0(s2)
     f66:	0ff57513          	andi	a0,a0,255
     f6a:	0ff4fa93          	andi	s5,s1,255
     f6e:	3f51                	jal	f02 <CheckMenuChannel>
     f70:	01451a63          	bne	a0,s4,f84 <vDashDrawInit+0x68>
     f74:	03540a23          	sb	s5,52(s0)
     f78:	02042823          	sw	zero,48(s0)
     f7c:	02040aa3          	sb	zero,53(s0)
     f80:	db8ff06f          	j	538 <__riscv_restore_4>
     f84:	0485                	addi	s1,s1,1
     f86:	0911                	addi	s2,s2,4
     f88:	fd3495e3          	bne	s1,s3,f52 <vDashDrawInit+0x36>
     f8c:	b7f5                	j	f78 <vDashDrawInit+0x5c>

00000f8e <vAcceptError>:
     f8e:	b6418793          	addi	a5,gp,-1180 # 200008e4 <menu>
     f92:	02d7c703          	lbu	a4,45(a5)
     f96:	cb01                	beqz	a4,fa6 <vAcceptError+0x18>
     f98:	d86ff2ef          	jal	t0,51e <__riscv_save_0>
     f9c:	020786a3          	sb	zero,45(a5)
     fa0:	3f91                	jal	ef4 <SetCurMenuHome>
     fa2:	da0ff06f          	j	542 <__riscv_restore_0>
     fa6:	8082                	ret

00000fa8 <vRGBOff>:
     fa8:	d76ff2ef          	jal	t0,51e <__riscv_save_0>
     fac:	4601                	li	a2,0
     fae:	4589                	li	a1,2
     fb0:	842a                	mv	s0,a0
     fb2:	3c5000ef          	jal	ra,1b76 <SetRGB>
     fb6:	8522                	mv	a0,s0
     fb8:	4601                	li	a2,0
     fba:	458d                	li	a1,3
     fbc:	3bb000ef          	jal	ra,1b76 <SetRGB>
     fc0:	4601                	li	a2,0
     fc2:	4585                	li	a1,1
     fc4:	8522                	mv	a0,s0
     fc6:	3b1000ef          	jal	ra,1b76 <SetRGB>
     fca:	d78ff06f          	j	542 <__riscv_restore_0>

00000fce <vGetEdgeData>:
     fce:	d50ff2ef          	jal	t0,51e <__riscv_save_0>
     fd2:	1141                	addi	sp,sp,-16
     fd4:	842a                	mv	s0,a0
     fd6:	c432                	sw	a2,8(sp)
     fd8:	c62e                	sw	a1,12(sp)
     fda:	8cbff0ef          	jal	ra,8a4 <getReg16>
     fde:	45b2                	lw	a1,12(sp)
     fe0:	a18a                	sh	a0,0(a1)
     fe2:	00240513          	addi	a0,s0,2
     fe6:	0542                	slli	a0,a0,0x10
     fe8:	8141                	srli	a0,a0,0x10
     fea:	8bbff0ef          	jal	ra,8a4 <getReg16>
     fee:	4622                	lw	a2,8(sp)
     ff0:	a20a                	sh	a0,0(a2)
     ff2:	0141                	addi	sp,sp,16
     ff4:	d4eff06f          	j	542 <__riscv_restore_0>

00000ff8 <vRGBMode>:
     ff8:	d26ff2ef          	jal	t0,51e <__riscv_save_0>
     ffc:	4931                	li	s2,12
     ffe:	03250933          	mul	s2,a0,s2
    1002:	1141                	addi	sp,sp,-16
    1004:	0070                	addi	a2,sp,12
    1006:	84aa                	mv	s1,a0
    1008:	842e                	mv	s0,a1
    100a:	00e10593          	addi	a1,sp,14
    100e:	01b90513          	addi	a0,s2,27
    1012:	3f75                	jal	fce <vGetEdgeData>
    1014:	8638                	lhu	a4,12(sp)
    1016:	873c                	lhu	a5,14(sp)
    1018:	4601                	li	a2,0
    101a:	00f766b3          	or	a3,a4,a5
    101e:	ce89                	beqz	a3,1038 <vRGBMode+0x40>
    1020:	00e7e963          	bltu	a5,a4,1032 <vRGBMode+0x3a>
    1024:	00e46a63          	bltu	s0,a4,1038 <vRGBMode+0x40>
    1028:	0087b633          	sltu	a2,a5,s0
    102c:	00164613          	xori	a2,a2,1
    1030:	a021                	j	1038 <vRGBMode+0x40>
    1032:	4605                	li	a2,1
    1034:	fee46ae3          	bltu	s0,a4,1028 <vRGBMode+0x30>
    1038:	4589                	li	a1,2
    103a:	8526                	mv	a0,s1
    103c:	33b000ef          	jal	ra,1b76 <SetRGB>
    1040:	0070                	addi	a2,sp,12
    1042:	00e10593          	addi	a1,sp,14
    1046:	01f90513          	addi	a0,s2,31
    104a:	3751                	jal	fce <vGetEdgeData>
    104c:	8638                	lhu	a4,12(sp)
    104e:	873c                	lhu	a5,14(sp)
    1050:	4601                	li	a2,0
    1052:	00f766b3          	or	a3,a4,a5
    1056:	ce89                	beqz	a3,1070 <vRGBMode+0x78>
    1058:	00e7e963          	bltu	a5,a4,106a <vRGBMode+0x72>
    105c:	00e46a63          	bltu	s0,a4,1070 <vRGBMode+0x78>
    1060:	0087b633          	sltu	a2,a5,s0
    1064:	00164613          	xori	a2,a2,1
    1068:	a021                	j	1070 <vRGBMode+0x78>
    106a:	4605                	li	a2,1
    106c:	fee46ae3          	bltu	s0,a4,1060 <vRGBMode+0x68>
    1070:	4585                	li	a1,1
    1072:	8526                	mv	a0,s1
    1074:	303000ef          	jal	ra,1b76 <SetRGB>
    1078:	0070                	addi	a2,sp,12
    107a:	00e10593          	addi	a1,sp,14
    107e:	02390513          	addi	a0,s2,35
    1082:	37b1                	jal	fce <vGetEdgeData>
    1084:	8638                	lhu	a4,12(sp)
    1086:	873c                	lhu	a5,14(sp)
    1088:	4601                	li	a2,0
    108a:	00f766b3          	or	a3,a4,a5
    108e:	ce89                	beqz	a3,10a8 <vRGBMode+0xb0>
    1090:	00e7e963          	bltu	a5,a4,10a2 <vRGBMode+0xaa>
    1094:	00e46a63          	bltu	s0,a4,10a8 <vRGBMode+0xb0>
    1098:	0087b633          	sltu	a2,a5,s0
    109c:	00164613          	xori	a2,a2,1
    10a0:	a021                	j	10a8 <vRGBMode+0xb0>
    10a2:	4605                	li	a2,1
    10a4:	fee46ae3          	bltu	s0,a4,1098 <vRGBMode+0xa0>
    10a8:	458d                	li	a1,3
    10aa:	8526                	mv	a0,s1
    10ac:	2cb000ef          	jal	ra,1b76 <SetRGB>
    10b0:	0141                	addi	sp,sp,16
    10b2:	c90ff06f          	j	542 <__riscv_restore_0>

000010b6 <vBarColorMode>:
    10b6:	c40ff2ef          	jal	t0,4f6 <__riscv_save_10>
    10ba:	1141                	addi	sp,sp,-16
    10bc:	8aaa                	mv	s5,a0
    10be:	84ae                	mv	s1,a1
    10c0:	453d                	li	a0,15
    10c2:	006c                	addi	a1,sp,12
    10c4:	89b2                	mv	s3,a2
    10c6:	00e10613          	addi	a2,sp,14
    10ca:	8936                	mv	s2,a3
    10cc:	8c3a                	mv	s8,a4
    10ce:	8b3e                	mv	s6,a5
    10d0:	8d42                	mv	s10,a6
    10d2:	8cc6                	mv	s9,a7
    10d4:	04415403          	lhu	s0,68(sp)
    10d8:	3ddd                	jal	fce <vGetEdgeData>
    10da:	8628                	lhu	a0,12(sp)
    10dc:	00e15b83          	lhu	s7,14(sp)
    10e0:	41750533          	sub	a0,a0,s7
    10e4:	4620a0ef          	jal	ra,b546 <__floatsisf>
    10e8:	0000d7b7          	lui	a5,0xd
    10ec:	bcc7a583          	lw	a1,-1076(a5) # cbcc <CalPoint+0x10c>
    10f0:	1700a0ef          	jal	ra,b260 <__mulsf3>
    10f4:	8a2a                	mv	s4,a0
    10f6:	03346e63          	bltu	s0,s3,1132 <vBarColorMode+0x7c>
    10fa:	41798533          	sub	a0,s3,s7
    10fe:	4480a0ef          	jal	ra,b546 <__floatsisf>
    1102:	85d2                	mv	a1,s4
    1104:	6af090ef          	jal	ra,afb2 <__divsf3>
    1108:	3e80a0ef          	jal	ra,b4f0 <__fixunssfsi>
    110c:	00ad0023          	sb	a0,0(s10)
    1110:	41340533          	sub	a0,s0,s3
    1114:	00897463          	bgeu	s2,s0,111c <vBarColorMode+0x66>
    1118:	41390533          	sub	a0,s2,s3
    111c:	0542                	slli	a0,a0,0x10
    111e:	8141                	srli	a0,a0,0x10
    1120:	4ec0a0ef          	jal	ra,b60c <__floatunsisf>
    1124:	85d2                	mv	a1,s4
    1126:	68d090ef          	jal	ra,afb2 <__divsf3>
    112a:	3c60a0ef          	jal	ra,b4f0 <__fixunssfsi>
    112e:	00ac8023          	sb	a0,0(s9)
    1132:	03546d63          	bltu	s0,s5,116c <vBarColorMode+0xb6>
    1136:	417a8533          	sub	a0,s5,s7
    113a:	40c0a0ef          	jal	ra,b546 <__floatsisf>
    113e:	85d2                	mv	a1,s4
    1140:	673090ef          	jal	ra,afb2 <__divsf3>
    1144:	3ac0a0ef          	jal	ra,b4f0 <__fixunssfsi>
    1148:	00ac0023          	sb	a0,0(s8)
    114c:	0284e363          	bltu	s1,s0,1172 <vBarColorMode+0xbc>
    1150:	41540433          	sub	s0,s0,s5
    1154:	01041513          	slli	a0,s0,0x10
    1158:	8141                	srli	a0,a0,0x10
    115a:	4b20a0ef          	jal	ra,b60c <__floatunsisf>
    115e:	85d2                	mv	a1,s4
    1160:	653090ef          	jal	ra,afb2 <__divsf3>
    1164:	38c0a0ef          	jal	ra,b4f0 <__fixunssfsi>
    1168:	00ab0023          	sb	a0,0(s6)
    116c:	0141                	addi	sp,sp,16
    116e:	bc0ff06f          	j	52e <__riscv_restore_10>
    1172:	41548433          	sub	s0,s1,s5
    1176:	bff9                	j	1154 <vBarColorMode+0x9e>

00001178 <vBarWindowMode>:
    1178:	00014803          	lbu	a6,0(sp)
    117c:	8238                	lhu	a4,4(sp)
    117e:	02a5f663          	bgeu	a1,a0,11aa <vBarWindowMode+0x32>
    1182:	00a77463          	bgeu	a4,a0,118a <vBarWindowMode+0x12>
    1186:	00e6e663          	bltu	a3,a4,1192 <vBarWindowMode+0x1a>
    118a:	00b77963          	bgeu	a4,a1,119c <vBarWindowMode+0x24>
    118e:	02e67f63          	bgeu	a2,a4,11cc <vBarWindowMode+0x54>
    1192:	01088023          	sb	a6,0(a7)
    1196:	01078023          	sb	a6,0(a5)
    119a:	8082                	ret
    119c:	00d76463          	bltu	a4,a3,11a4 <vBarWindowMode+0x2c>
    11a0:	fee67be3          	bgeu	a2,a4,1196 <vBarWindowMode+0x1e>
    11a4:	01088023          	sb	a6,0(a7)
    11a8:	8082                	ret
    11aa:	00e67763          	bgeu	a2,a4,11b8 <vBarWindowMode+0x40>
    11ae:	feb762e3          	bltu	a4,a1,1192 <vBarWindowMode+0x1a>
    11b2:	fed779e3          	bgeu	a4,a3,11a4 <vBarWindowMode+0x2c>
    11b6:	a019                	j	11bc <vBarWindowMode+0x44>
    11b8:	00d77563          	bgeu	a4,a3,11c2 <vBarWindowMode+0x4a>
    11bc:	fce56be3          	bltu	a0,a4,1192 <vBarWindowMode+0x1a>
    11c0:	b7d5                	j	11a4 <vBarWindowMode+0x2c>
    11c2:	feb771e3          	bgeu	a4,a1,11a4 <vBarWindowMode+0x2c>
    11c6:	fce568e3          	bltu	a0,a4,1196 <vBarWindowMode+0x1e>
    11ca:	bfe9                	j	11a4 <vBarWindowMode+0x2c>
    11cc:	fcd76ce3          	bltu	a4,a3,11a4 <vBarWindowMode+0x2c>
    11d0:	b7d9                	j	1196 <vBarWindowMode+0x1e>

000011d2 <vBarMode>:
    11d2:	b4cff2ef          	jal	t0,51e <__riscv_save_0>
    11d6:	7179                	addi	sp,sp,-48
    11d8:	892a                	mv	s2,a0
    11da:	842e                	mv	s0,a1
    11dc:	84b2                	mv	s1,a2
    11de:	106c                	addi	a1,sp,44
    11e0:	02e10613          	addi	a2,sp,46
    11e4:	453d                	li	a0,15
    11e6:	ce36                	sw	a3,28(sp)
    11e8:	cc3a                	sw	a4,24(sp)
    11ea:	ca3e                	sw	a5,20(sp)
    11ec:	c842                	sw	a6,16(sp)
    11ee:	c646                	sw	a7,12(sp)
    11f0:	3bf9                	jal	fce <vGetEdgeData>
    11f2:	46f2                	lw	a3,28(sp)
    11f4:	48b2                	lw	a7,12(sp)
    11f6:	4842                	lw	a6,16(sp)
    11f8:	47d2                	lw	a5,20(sp)
    11fa:	4762                	lw	a4,24(sp)
    11fc:	0286f463          	bgeu	a3,s0,1224 <vBarMode+0x52>
    1200:	0126eb63          	bltu	a3,s2,1216 <vBarMode+0x44>
    1204:	0128e963          	bltu	a7,s2,1216 <vBarMode+0x44>
    1208:	0116e963          	bltu	a3,a7,121a <vBarMode+0x48>
    120c:	01070023          	sb	a6,0(a4)
    1210:	01078023          	sb	a6,0(a5)
    1214:	a029                	j	121e <vBarMode+0x4c>
    1216:	ff16fde3          	bgeu	a3,a7,1210 <vBarMode+0x3e>
    121a:	01070023          	sb	a6,0(a4)
    121e:	6145                	addi	sp,sp,48
    1220:	b22ff06f          	j	542 <__riscv_restore_0>
    1224:	00946763          	bltu	s0,s1,1232 <vBarMode+0x60>
    1228:	0098e563          	bltu	a7,s1,1232 <vBarMode+0x60>
    122c:	ff1462e3          	bltu	s0,a7,1210 <vBarMode+0x3e>
    1230:	bff1                	j	120c <vBarMode+0x3a>
    1232:	ff1474e3          	bgeu	s0,a7,121a <vBarMode+0x48>
    1236:	bfe9                	j	1210 <vBarMode+0x3e>

00001238 <RedrawNotifyTaskToInit>:
    1238:	ae6ff2ef          	jal	t0,51e <__riscv_save_0>
    123c:	0ec060ef          	jal	ra,7328 <xTaskGetCurrentTaskHandle>
    1240:	200007b7          	lui	a5,0x20000
    1244:	5ea7a623          	sw	a0,1516(a5) # 200005ec <pTaskToNotifykHandle>
    1248:	200007b7          	lui	a5,0x20000
    124c:	5e87a503          	lw	a0,1512(a5) # 200005e8 <pProcessTaskHandle>
    1250:	4701                	li	a4,0
    1252:	468d                	li	a3,3
    1254:	4611                	li	a2,4
    1256:	4581                	li	a1,0
    1258:	50a060ef          	jal	ra,7762 <xTaskGenericNotify>
    125c:	ae6ff06f          	j	542 <__riscv_restore_0>

00001260 <vRedrawTask>:
    1260:	a8eff2ef          	jal	t0,4ee <__riscv_save_12>
    1264:	7139                	addi	sp,sp,-64
    1266:	5e3020ef          	jal	ra,4048 <xKeyboardQueue>
    126a:	411c                	lw	a5,0(a0)
    126c:	0000d737          	lui	a4,0xd
    1270:	bcc72a83          	lw	s5,-1076(a4) # cbcc <CalPoint+0x10c>
    1274:	20000437          	lui	s0,0x20000
    1278:	69c1                	lui	s3,0x10
    127a:	5ef42223          	sw	a5,1508(s0) # 200005e4 <pKeyboard>
    127e:	4901                	li	s2,0
    1280:	4785                	li	a5,1
    1282:	5e440413          	addi	s0,s0,1508
    1286:	b6418493          	addi	s1,gp,-1180 # 200008e4 <menu>
    128a:	19fd                	addi	s3,s3,-1
    128c:	20000a37          	lui	s4,0x20000
    1290:	20000b37          	lui	s6,0x20000
    1294:	4709                	li	a4,2
    1296:	02e78763          	beq	a5,a4,12c4 <vRedrawTask+0x64>
    129a:	577d                	li	a4,-1
    129c:	1874                	addi	a3,sp,60
    129e:	0ff00613          	li	a2,255
    12a2:	4581                	li	a1,0
    12a4:	4501                	li	a0,0
    12a6:	3d6060ef          	jal	ra,767c <xTaskGenericNotifyWait>
    12aa:	5772                	lw	a4,60(sp)
    12ac:	4785                	li	a5,1
    12ae:	8b11                	andi	a4,a4,4
    12b0:	d375                	beqz	a4,1294 <vRedrawTask+0x34>
    12b2:	31ad                	jal	f1c <vDashDrawInit>
    12b4:	5ecb2503          	lw	a0,1516(s6) # 200005ec <pTaskToNotifykHandle>
    12b8:	4701                	li	a4,0
    12ba:	4689                	li	a3,2
    12bc:	4601                	li	a2,0
    12be:	4581                	li	a1,0
    12c0:	4a2060ef          	jal	ra,7762 <xTaskGenericNotify>
    12c4:	4529                	li	a0,10
    12c6:	417050ef          	jal	ra,6edc <vTaskDelay>
    12ca:	4008                	lw	a0,0(s0)
    12cc:	4601                	li	a2,0
    12ce:	106c                	addi	a1,sp,44
    12d0:	7f5040ef          	jal	ra,62c4 <xQueueReceive>
    12d4:	c105                	beqz	a0,12f4 <vRedrawTask+0x94>
    12d6:	02d14783          	lbu	a5,45(sp)
    12da:	04000713          	li	a4,64
    12de:	12e78a63          	beq	a5,a4,1412 <vRedrawTask+0x1b2>
    12e2:	08000713          	li	a4,128
    12e6:	12e78d63          	beq	a5,a4,1420 <vRedrawTask+0x1c0>
    12ea:	4709                	li	a4,2
    12ec:	00e79463          	bne	a5,a4,12f4 <vRedrawTask+0x94>
    12f0:	3111                	jal	ef4 <SetCurMenuHome>
    12f2:	4905                	li	s2,1
    12f4:	4b81                	li	s7,0
    12f6:	4cb9                	li	s9,14
    12f8:	0c3b8513          	addi	a0,s7,195
    12fc:	0542                	slli	a0,a0,0x10
    12fe:	8141                	srli	a0,a0,0x10
    1300:	0ffbfc13          	andi	s8,s7,255
    1304:	9d1ff0ef          	jal	ra,cd4 <getReg8>
    1308:	12051363          	bnez	a0,142e <vRedrawTask+0x1ce>
    130c:	8562                	mv	a0,s8
    130e:	3969                	jal	fa8 <vRGBOff>
    1310:	0b85                	addi	s7,s7,1
    1312:	ff9b93e3          	bne	s7,s9,12f8 <vRedrawTask+0x98>
    1316:	0d100513          	li	a0,209
    131a:	9bbff0ef          	jal	ra,cd4 <getReg8>
    131e:	02010423          	sb	zero,40(sp)
    1322:	020104a3          	sb	zero,41(sp)
    1326:	02010523          	sb	zero,42(sp)
    132a:	020105a3          	sb	zero,43(sp)
    132e:	cd3d                	beqz	a0,13ac <vRedrawTask+0x14c>
    1330:	a85ff0ef          	jal	ra,db4 <getODValue>
    1334:	01051c93          	slli	s9,a0,0x10
    1338:	03a10613          	addi	a2,sp,58
    133c:	182c                	addi	a1,sp,56
    133e:	8daa                	mv	s11,a0
    1340:	453d                	li	a0,15
    1342:	3171                	jal	fce <vGetEdgeData>
    1344:	1850                	addi	a2,sp,52
    1346:	03610593          	addi	a1,sp,54
    134a:	454d                	li	a0,19
    134c:	3149                	jal	fce <vGetEdgeData>
    134e:	1810                	addi	a2,sp,48
    1350:	03210593          	addi	a1,sp,50
    1354:	455d                	li	a0,23
    1356:	39a5                	jal	fce <vGetEdgeData>
    1358:	03a15783          	lhu	a5,58(sp)
    135c:	03815503          	lhu	a0,56(sp)
    1360:	010cdc93          	srli	s9,s9,0x10
    1364:	8d1d                	sub	a0,a0,a5
    1366:	1e00a0ef          	jal	ra,b546 <__floatsisf>
    136a:	85d6                	mv	a1,s5
    136c:	6f5090ef          	jal	ra,b260 <__mulsf3>
    1370:	8d2a                	mv	s10,a0
    1372:	4539                	li	a0,14
    1374:	961ff0ef          	jal	ra,cd4 <getReg8>
    1378:	03415603          	lhu	a2,52(sp)
    137c:	03015b83          	lhu	s7,48(sp)
    1380:	03215c03          	lhu	s8,50(sp)
    1384:	03615683          	lhu	a3,54(sp)
    1388:	e95d                	bnez	a0,143e <vRedrawTask+0x1de>
    138a:	017c6463          	bltu	s8,s7,1392 <vRedrawTask+0x132>
    138e:	00c6ff63          	bgeu	a3,a2,13ac <vRedrawTask+0x14c>
    1392:	c266                	sw	s9,4(sp)
    1394:	c06a                	sw	s10,0(sp)
    1396:	02910893          	addi	a7,sp,41
    139a:	02810813          	addi	a6,sp,40
    139e:	02b10793          	addi	a5,sp,43
    13a2:	02a10713          	addi	a4,sp,42
    13a6:	85e2                	mv	a1,s8
    13a8:	855e                	mv	a0,s7
    13aa:	3331                	jal	10b6 <vBarColorMode>
    13ac:	02914683          	lbu	a3,41(sp)
    13b0:	02814603          	lbu	a2,40(sp)
    13b4:	02b14583          	lbu	a1,43(sp)
    13b8:	02a14503          	lbu	a0,42(sp)
    13bc:	768000ef          	jal	ra,1b24 <SetBarState>
    13c0:	0244c783          	lbu	a5,36(s1)
    13c4:	078a                	slli	a5,a5,0x2
    13c6:	97a6                	add	a5,a5,s1
    13c8:	0007ab83          	lw	s7,0(a5)
    13cc:	0ffbf513          	andi	a0,s7,255
    13d0:	9e5ff0ef          	jal	ra,db4 <getODValue>
    13d4:	008bdb93          	srli	s7,s7,0x8
    13d8:	85aa                	mv	a1,a0
    13da:	010b9513          	slli	a0,s7,0x10
    13de:	8141                	srli	a0,a0,0x10
    13e0:	0d3000ef          	jal	ra,1cb2 <SetSEG>
    13e4:	20600513          	li	a0,518
    13e8:	cbcff0ef          	jal	ra,8a4 <getReg16>
    13ec:	0ff57793          	andi	a5,a0,255
    13f0:	4501                	li	a0,0
    13f2:	cb91                	beqz	a5,1406 <vRedrawTask+0x1a6>
    13f4:	fff78513          	addi	a0,a5,-1
    13f8:	0ff57513          	andi	a0,a0,255
    13fc:	06950513          	addi	a0,a0,105
    1400:	0506                	slli	a0,a0,0x1
    1402:	ca2ff0ef          	jal	ra,8a4 <getReg16>
    1406:	171000ef          	jal	ra,1d76 <SetBigSeg>
    140a:	219000ef          	jal	ra,1e22 <vLedProcess>
    140e:	4789                	li	a5,2
    1410:	b551                	j	1294 <vRedrawTask+0x34>
    1412:	5e0a0023          	sb	zero,1504(s4) # 200005e0 <keystate>
    1416:	00091a63          	bnez	s2,142a <vRedrawTask+0x1ca>
    141a:	a7bff0ef          	jal	ra,e94 <IncMenuIndex>
    141e:	bdd9                	j	12f4 <vRedrawTask+0x94>
    1420:	4785                	li	a5,1
    1422:	5efa0023          	sb	a5,1504(s4)
    1426:	36a5                	jal	f8e <vAcceptError>
    1428:	b5f1                	j	12f4 <vRedrawTask+0x94>
    142a:	4901                	li	s2,0
    142c:	b5e1                	j	12f4 <vRedrawTask+0x94>
    142e:	987ff0ef          	jal	ra,db4 <getODValue>
    1432:	01051593          	slli	a1,a0,0x10
    1436:	81c1                	srli	a1,a1,0x10
    1438:	8562                	mv	a0,s8
    143a:	3e7d                	jal	ff8 <vRGBMode>
    143c:	bdd1                	j	1310 <vRedrawTask+0xb0>
    143e:	013df533          	and	a0,s11,s3
    1442:	ce36                	sw	a3,28(sp)
    1444:	cc32                	sw	a2,24(sp)
    1446:	1000a0ef          	jal	ra,b546 <__floatsisf>
    144a:	85ea                	mv	a1,s10
    144c:	367090ef          	jal	ra,afb2 <__divsf3>
    1450:	0a00a0ef          	jal	ra,b4f0 <__fixunssfsi>
    1454:	0ff57813          	andi	a6,a0,255
    1458:	4662                	lw	a2,24(sp)
    145a:	46f2                	lw	a3,28(sp)
    145c:	017c6463          	bltu	s8,s7,1464 <vRedrawTask+0x204>
    1460:	02c6f063          	bgeu	a3,a2,1480 <vRedrawTask+0x220>
    1464:	c042                	sw	a6,0(sp)
    1466:	c266                	sw	s9,4(sp)
    1468:	02910893          	addi	a7,sp,41
    146c:	02810813          	addi	a6,sp,40
    1470:	02b10793          	addi	a5,sp,43
    1474:	02a10713          	addi	a4,sp,42
    1478:	85e2                	mv	a1,s8
    147a:	855e                	mv	a0,s7
    147c:	39f5                	jal	1178 <vBarWindowMode>
    147e:	b73d                	j	13ac <vRedrawTask+0x14c>
    1480:	88e6                	mv	a7,s9
    1482:	02910793          	addi	a5,sp,41
    1486:	02b10713          	addi	a4,sp,43
    148a:	85e2                	mv	a1,s8
    148c:	855e                	mv	a0,s7
    148e:	3391                	jal	11d2 <vBarMode>
    1490:	bf31                	j	13ac <vRedrawTask+0x14c>

00001492 <vInit_DeviceConfig>:
    1492:	88cff2ef          	jal	t0,51e <__riscv_save_0>
    1496:	40011437          	lui	s0,0x40011
    149a:	66a030ef          	jal	ra,4b04 <HAL_InitGpioLib>
    149e:	80040513          	addi	a0,s0,-2048 # 40010800 <__freertos_irq_stack_top+0x2000b800>
    14a2:	10000593          	li	a1,256
    14a6:	7f0030ef          	jal	ra,4c96 <HAL_ResetBit>
    14aa:	c0040513          	addi	a0,s0,-1024
    14ae:	45c1                	li	a1,16
    14b0:	71c030ef          	jal	ra,4bcc <HAL_InitGpioOut>
    14b4:	6485                	lui	s1,0x1
    14b6:	c2048593          	addi	a1,s1,-992 # c20 <DataModel_Init+0x350>
    14ba:	c0040513          	addi	a0,s0,-1024
    14be:	75c030ef          	jal	ra,4c1a <HAL_InitGpioIn>
    14c2:	00180637          	lui	a2,0x180
    14c6:	c0040513          	addi	a0,s0,-1024
    14ca:	46e1                	li	a3,24
    14cc:	10060613          	addi	a2,a2,256 # 180100 <_data_lma+0x172968>
    14d0:	45a1                	li	a1,8
    14d2:	770030ef          	jal	ra,4c42 <HAL_InitGpioAF>
    14d6:	80048593          	addi	a1,s1,-2048
    14da:	80040513          	addi	a0,s0,-2048
    14de:	46e1                	li	a3,24
    14e0:	4601                	li	a2,0
    14e2:	760030ef          	jal	ra,4c42 <HAL_InitGpioAF>
    14e6:	46e1                	li	a3,24
    14e8:	4601                	li	a2,0
    14ea:	c0040513          	addi	a0,s0,-1024
    14ee:	458d                	li	a1,3
    14f0:	752030ef          	jal	ra,4c42 <HAL_InitGpioAF>
    14f4:	80040513          	addi	a0,s0,-2048
    14f8:	04f00593          	li	a1,79
    14fc:	6f8030ef          	jal	ra,4bf4 <HAL_InitGpioAIN>
    1500:	80040513          	addi	a0,s0,-2048
    1504:	46e1                	li	a3,24
    1506:	4601                	li	a2,0
    1508:	0a000593          	li	a1,160
    150c:	736030ef          	jal	ra,4c42 <HAL_InitGpioAF>
    1510:	46e1                	li	a3,24
    1512:	4601                	li	a2,0
    1514:	c0040513          	addi	a0,s0,-1024
    1518:	65a9                	lui	a1,0xa
    151a:	728030ef          	jal	ra,4c42 <HAL_InitGpioAF>
    151e:	80040513          	addi	a0,s0,-2048
    1522:	45c1                	li	a1,16
    1524:	6a8030ef          	jal	ra,4bcc <HAL_InitGpioOut>
    1528:	c0040513          	addi	a0,s0,-1024
    152c:	6585                	lui	a1,0x1
    152e:	69e030ef          	jal	ra,4bcc <HAL_InitGpioOut>
    1532:	c0040513          	addi	a0,s0,-1024
    1536:	04800693          	li	a3,72
    153a:	001d4637          	lui	a2,0x1d4
    153e:	10000593          	li	a1,256
    1542:	700030ef          	jal	ra,4c42 <HAL_InitGpioAF>
    1546:	c0040513          	addi	a0,s0,-1024
    154a:	46e1                	li	a3,24
    154c:	001d4637          	lui	a2,0x1d4
    1550:	20000593          	li	a1,512
    1554:	6ee030ef          	jal	ra,4c42 <HAL_InitGpioAF>
    1558:	46f1                	li	a3,28
    155a:	c0040513          	addi	a0,s0,-1024
    155e:	4601                	li	a2,0
    1560:	0c000593          	li	a1,192
    1564:	6de030ef          	jal	ra,4c42 <HAL_InitGpioAF>
    1568:	4605                	li	a2,1
    156a:	4585                	li	a1,1
    156c:	40013537          	lui	a0,0x40013
    1570:	57f030ef          	jal	ra,52ee <HAL_SPI_InitDMA>
    1574:	40004537          	lui	a0,0x40004
    1578:	4605                	li	a2,1
    157a:	4585                	li	a1,1
    157c:	80050513          	addi	a0,a0,-2048 # 40003800 <__freertos_irq_stack_top+0x1fffe800>
    1580:	56f030ef          	jal	ra,52ee <HAL_SPI_InitDMA>
    1584:	00001537          	lui	a0,0x1
    1588:	4615                	li	a2,5
    158a:	4585                	li	a1,1
    158c:	d1450513          	addi	a0,a0,-748 # d14 <vIncrementSystemCounters>
    1590:	44b030ef          	jal	ra,51da <HAL_RTC_IT_Init>
    1594:	000026b7          	lui	a3,0x2
    1598:	000f45b7          	lui	a1,0xf4
    159c:	478d                	li	a5,3
    159e:	4705                	li	a4,1
    15a0:	e4e68693          	addi	a3,a3,-434 # 1e4e <vRGBProcess>
    15a4:	25800613          	li	a2,600
    15a8:	24058593          	addi	a1,a1,576 # f4240 <_data_lma+0xe6aa8>
    15ac:	450d                	li	a0,3
    15ae:	0dc040ef          	jal	ra,568a <HAL_TIMER_InitIt>
    15b2:	450d                	li	a0,3
    15b4:	006040ef          	jal	ra,55ba <HAL_TiemrEneblae>
    15b8:	65e1                	lui	a1,0x18
    15ba:	46b1                	li	a3,12
    15bc:	3e800613          	li	a2,1000
    15c0:	6a058593          	addi	a1,a1,1696 # 186a0 <_data_lma+0xaf08>
    15c4:	4509                	li	a0,2
    15c6:	168040ef          	jal	ra,572e <HAL_TIMER_PWMTimersInit>
    15ca:	4509                	li	a0,2
    15cc:	7ef030ef          	jal	ra,55ba <HAL_TiemrEneblae>
    15d0:	4595                	li	a1,5
    15d2:	4505                	li	a0,1
    15d4:	125020ef          	jal	ra,3ef8 <vInitEEPROM>
    15d8:	45c1                	li	a1,16
    15da:	c0040513          	addi	a0,s0,-1024
    15de:	6ac030ef          	jal	ra,4c8a <HAL_SetBit>
    15e2:	40006537          	lui	a0,0x40006
    15e6:	40050513          	addi	a0,a0,1024 # 40006400 <__freertos_irq_stack_top+0x20001400>
    15ea:	820ff0ef          	jal	ra,60a <vCanOpenInit>
    15ee:	f55fe06f          	j	542 <__riscv_restore_0>

000015f2 <ADC1_Event>:
    15f2:	f2dfe2ef          	jal	t0,51e <__riscv_save_0>
    15f6:	40012537          	lui	a0,0x40012
    15fa:	4581                	li	a1,0
    15fc:	40050513          	addi	a0,a0,1024 # 40012400 <__freertos_irq_stack_top+0x2000d400>
    1600:	7a3000ef          	jal	ra,25a2 <ADC_Cmd>
    1604:	20000537          	lui	a0,0x20000
    1608:	5f852503          	lw	a0,1528(a0) # 200005f8 <pInputsTaskHandle>
    160c:	200007b7          	lui	a5,0x20000
    1610:	60078413          	addi	s0,a5,1536 # 20000600 <xHigherPriorityTaskWoken.7237>
    1614:	4701                	li	a4,0
    1616:	60078793          	addi	a5,a5,1536
    161a:	468d                	li	a3,3
    161c:	4605                	li	a2,1
    161e:	4589                	li	a1,2
    1620:	00042023          	sw	zero,0(s0)
    1624:	2ee060ef          	jal	ra,7912 <xTaskGenericNotifyFromISR>
    1628:	401c                	lw	a5,0(s0)
    162a:	c791                	beqz	a5,1636 <ADC1_Event+0x44>
    162c:	e000e7b7          	lui	a5,0xe000e
    1630:	6711                	lui	a4,0x4
    1632:	20e7a023          	sw	a4,512(a5) # e000e200 <__freertos_irq_stack_top+0xc0009200>
    1636:	f0dfe06f          	j	542 <__riscv_restore_0>

0000163a <DMA1_Channel7_Callback>:
    163a:	ee5fe2ef          	jal	t0,51e <__riscv_save_0>
    163e:	4505                	li	a0,1
    1640:	722020ef          	jal	ra,3d62 <RMPDataConvert>
    1644:	efffe06f          	j	542 <__riscv_restore_0>

00001648 <DMA1_Channel4_Callback>:
    1648:	ed7fe2ef          	jal	t0,51e <__riscv_save_0>
    164c:	4501                	li	a0,0
    164e:	714020ef          	jal	ra,3d62 <RMPDataConvert>
    1652:	ef1fe06f          	j	542 <__riscv_restore_0>

00001656 <fDinStateCallback>:
    1656:	ec9fe2ef          	jal	t0,51e <__riscv_save_0>
    165a:	4789                	li	a5,2
    165c:	00f50863          	beq	a0,a5,166c <fDinStateCallback+0x16>
    1660:	478d                	li	a5,3
    1662:	00f50e63          	beq	a0,a5,167e <fDinStateCallback+0x28>
    1666:	4501                	li	a0,0
    1668:	edbfe06f          	j	542 <__riscv_restore_0>
    166c:	40000593          	li	a1,1024
    1670:	40011537          	lui	a0,0x40011
    1674:	c0050513          	addi	a0,a0,-1024 # 40010c00 <__freertos_irq_stack_top+0x2000bc00>
    1678:	606030ef          	jal	ra,4c7e <HAL_GetBit>
    167c:	b7f5                	j	1668 <fDinStateCallback+0x12>
    167e:	6585                	lui	a1,0x1
    1680:	80058593          	addi	a1,a1,-2048 # 800 <__stack_size>
    1684:	b7f5                	j	1670 <fDinStateCallback+0x1a>

00001686 <vSetDoutState>:
    1686:	ed89                	bnez	a1,16a0 <vSetDoutState+0x1a>
    1688:	e97fe2ef          	jal	t0,51e <__riscv_save_0>
    168c:	40011537          	lui	a0,0x40011
    1690:	4601                	li	a2,0
    1692:	45c1                	li	a1,16
    1694:	c0050513          	addi	a0,a0,-1024 # 40010c00 <__freertos_irq_stack_top+0x2000bc00>
    1698:	149010ef          	jal	ra,2fe0 <GPIO_WriteBit>
    169c:	ea7fe06f          	j	542 <__riscv_restore_0>
    16a0:	8082                	ret

000016a2 <getInputsTaskHandle>:
    16a2:	20000537          	lui	a0,0x20000
    16a6:	5f850513          	addi	a0,a0,1528 # 200005f8 <pInputsTaskHandle>
    16aa:	8082                	ret

000016ac <InputsNotifyTaskToInit>:
    16ac:	e73fe2ef          	jal	t0,51e <__riscv_save_0>
    16b0:	479050ef          	jal	ra,7328 <xTaskGetCurrentTaskHandle>
    16b4:	200007b7          	lui	a5,0x20000
    16b8:	5ea7ae23          	sw	a0,1532(a5) # 200005fc <pTaskToNotifykHandle>
    16bc:	200007b7          	lui	a5,0x20000
    16c0:	5f87a503          	lw	a0,1528(a5) # 200005f8 <pInputsTaskHandle>
    16c4:	4701                	li	a4,0
    16c6:	468d                	li	a3,3
    16c8:	4611                	li	a2,4
    16ca:	4581                	li	a1,0
    16cc:	096060ef          	jal	ra,7762 <xTaskGenericNotify>
    16d0:	e73fe06f          	j	542 <__riscv_restore_0>

000016d4 <ADC1_Init>:
    16d4:	e4bfe2ef          	jal	t0,51e <__riscv_save_0>
    16d8:	8381a703          	lw	a4,-1992(gp) # 200005b8 <_global_impure_ptr+0x4>
    16dc:	83818793          	addi	a5,gp,-1992 # 200005b8 <_global_impure_ptr+0x4>
    16e0:	23dc                	lbu	a5,4(a5)
    16e2:	1101                	addi	sp,sp,-32
    16e4:	40012437          	lui	s0,0x40012
    16e8:	0830                	addi	a2,sp,24
    16ea:	4595                	li	a1,5
    16ec:	40040513          	addi	a0,s0,1024 # 40012400 <__freertos_irq_stack_top+0x2000d400>
    16f0:	cc3a                	sw	a4,24(sp)
    16f2:	00f10e23          	sb	a5,28(sp)
    16f6:	279020ef          	jal	ra,416e <HAL_ADC_ContiniusScanCinvertionDMA>
    16fa:	558020ef          	jal	ra,3c52 <getADC1Buffer>
    16fe:	000017b7          	lui	a5,0x1
    1702:	872a                	mv	a4,a0
    1704:	5f278793          	addi	a5,a5,1522 # 15f2 <ADC1_Event>
    1708:	40020537          	lui	a0,0x40020
    170c:	c03e                	sw	a5,0(sp)
    170e:	488d                	li	a7,3
    1710:	4805                	li	a6,1
    1712:	4781                	li	a5,0
    1714:	44c40693          	addi	a3,s0,1100
    1718:	4605                	li	a2,1
    171a:	4581                	li	a1,0
    171c:	0521                	addi	a0,a0,8
    171e:	012030ef          	jal	ra,4730 <HAL_DMAInitIT>
    1722:	4fa020ef          	jal	ra,3c1c <vAINInit>
    1726:	6105                	addi	sp,sp,32
    1728:	e1bfe06f          	j	542 <__riscv_restore_0>

0000172c <ADC_FSM>:
    172c:	dcbfe2ef          	jal	t0,4f6 <__riscv_save_10>
    1730:	522020ef          	jal	ra,3c52 <getADC1Buffer>
    1734:	842a                	mv	s0,a0
    1736:	01e50913          	addi	s2,a0,30 # 4002001e <__freertos_irq_stack_top+0x2001b01e>
    173a:	84aa                	mv	s1,a0
    173c:	00049503          	lh	a0,0(s1)
    1740:	0489                	addi	s1,s1,2
    1742:	1f1020ef          	jal	ra,4132 <Get_ConversionVal>
    1746:	fea49f23          	sh	a0,-2(s1)
    174a:	fe9919e3          	bne	s2,s1,173c <ADC_FSM+0x10>
    174e:	0000d7b7          	lui	a5,0xd
    1752:	bd07aa03          	lw	s4,-1072(a5) # cbd0 <CalPoint+0x110>
    1756:	0000d7b7          	lui	a5,0xd
    175a:	bd47aa83          	lw	s5,-1068(a5) # cbd4 <CalPoint+0x114>
    175e:	0000d7b7          	lui	a5,0xd
    1762:	bd87ab03          	lw	s6,-1064(a5) # cbd8 <CalPoint+0x118>
    1766:	b9c18913          	addi	s2,gp,-1124 # 2000091c <ADC_OLD_RAW>
    176a:	4481                	li	s1,0
    176c:	ba818993          	addi	s3,gp,-1112 # 20000928 <OurVData>
    1770:	243e                	lhu	a5,10(s0)
    1772:	284a                	lhu	a0,20(s0)
    1774:	4b8d                	li	s7,3
    1776:	85ca                	mv	a1,s2
    1778:	953e                	add	a0,a0,a5
    177a:	201e                	lhu	a5,0(s0)
    177c:	953e                	add	a0,a0,a5
    177e:	03755533          	divu	a0,a0,s7
    1782:	0542                	slli	a0,a0,0x10
    1784:	8141                	srli	a0,a0,0x10
    1786:	6e8060ef          	jal	ra,7e6e <vRCFilter>
    178a:	01749f63          	bne	s1,s7,17a8 <ADC_FSM+0x7c>
    178e:	67f090ef          	jal	ra,b60c <__floatunsisf>
    1792:	85d2                	mv	a1,s4
    1794:	2cd090ef          	jal	ra,b260 <__mulsf3>
    1798:	85d6                	mv	a1,s5
    179a:	2c7090ef          	jal	ra,b260 <__mulsf3>
    179e:	85da                	mv	a1,s6
    17a0:	4a8090ef          	jal	ra,ac48 <__addsf3>
    17a4:	00a9a623          	sw	a0,12(s3) # 1000c <_data_lma+0x2874>
    17a8:	0485                	addi	s1,s1,1
    17aa:	0ff4f493          	andi	s1,s1,255
    17ae:	4795                	li	a5,5
    17b0:	0409                	addi	s0,s0,2
    17b2:	0909                	addi	s2,s2,2
    17b4:	faf49ee3          	bne	s1,a5,1770 <ADC_FSM+0x44>
    17b8:	d77fe06f          	j	52e <__riscv_restore_10>

000017bc <xGetAin>:
    17bc:	d63fe2ef          	jal	t0,51e <__riscv_save_0>
    17c0:	00251713          	slli	a4,a0,0x2
    17c4:	ba818793          	addi	a5,gp,-1112 # 20000928 <OurVData>
    17c8:	97ba                	add	a5,a5,a4
    17ca:	842a                	mv	s0,a0
    17cc:	4388                	lw	a0,0(a5)
    17ce:	1141                	addi	sp,sp,-16
    17d0:	c62e                	sw	a1,12(sp)
    17d2:	51f090ef          	jal	ra,b4f0 <__fixunssfsi>
    17d6:	bbc18713          	addi	a4,gp,-1092 # 2000093c <ViewData>
    17da:	0406                	slli	s0,s0,0x1
    17dc:	9722                	add	a4,a4,s0
    17de:	2316                	lhu	a3,0(a4)
    17e0:	0542                	slli	a0,a0,0x10
    17e2:	8141                	srli	a0,a0,0x10
    17e4:	bbc18793          	addi	a5,gp,-1092 # 2000093c <ViewData>
    17e8:	45b2                	lw	a1,12(sp)
    17ea:	00a68a63          	beq	a3,a0,17fe <xGetAin+0x42>
    17ee:	a30a                	sh	a0,0(a4)
    17f0:	4505                	li	a0,1
    17f2:	97a2                	add	a5,a5,s0
    17f4:	239e                	lhu	a5,0(a5)
    17f6:	a19e                	sh	a5,0(a1)
    17f8:	0141                	addi	sp,sp,16
    17fa:	d49fe06f          	j	542 <__riscv_restore_0>
    17fe:	4501                	li	a0,0
    1800:	bfcd                	j	17f2 <xGetAin+0x36>

00001802 <GetAIN>:
    1802:	050a                	slli	a0,a0,0x2
    1804:	ba818793          	addi	a5,gp,-1112 # 20000928 <OurVData>
    1808:	97aa                	add	a5,a5,a0
    180a:	4388                	lw	a0,0(a5)
    180c:	8082                	ret

0000180e <vInputsTask>:
    180e:	ce9fe2ef          	jal	t0,4f6 <__riscv_save_10>
    1812:	4785                	li	a5,1
    1814:	715d                	addi	sp,sp,-80
    1816:	d23e                	sw	a5,36(sp)
    1818:	8141a783          	lw	a5,-2028(gp) # 20000594 <OD>
    181c:	4701                	li	a4,0
    181e:	43dc                	lw	a5,4(a5)
    1820:	17478693          	addi	a3,a5,372
    1824:	c691                	beqz	a3,1830 <vInputsTask+0x22>
    1826:	17c7a683          	lw	a3,380(a5)
    182a:	c299                	beqz	a3,1830 <vInputsTask+0x22>
    182c:	00c68713          	addi	a4,a3,12
    1830:	20000937          	lui	s2,0x20000
    1834:	5ee92a23          	sw	a4,1524(s2) # 200005f4 <OD_DIN_flagsPDO>
    1838:	16878693          	addi	a3,a5,360
    183c:	5f490913          	addi	s2,s2,1524
    1840:	4701                	li	a4,0
    1842:	c691                	beqz	a3,184e <vInputsTask+0x40>
    1844:	1707a783          	lw	a5,368(a5)
    1848:	c399                	beqz	a5,184e <vInputsTask+0x40>
    184a:	00c78713          	addi	a4,a5,12
    184e:	200009b7          	lui	s3,0x20000
    1852:	00001a37          	lui	s4,0x1
    1856:	00001ab7          	lui	s5,0x1
    185a:	00001b37          	lui	s6,0x1
    185e:	00001bb7          	lui	s7,0x1
    1862:	5ee9a823          	sw	a4,1520(s3) # 200005f0 <OD_AIN_flagsPDO>
    1866:	656a0a13          	addi	s4,s4,1622 # 1656 <fDinStateCallback>
    186a:	5f098993          	addi	s3,s3,1520
    186e:	686a8a93          	addi	s5,s5,1670 # 1686 <vSetDoutState>
    1872:	648b0b13          	addi	s6,s6,1608 # 1648 <DMA1_Channel4_Callback>
    1876:	63ab8b93          	addi	s7,s7,1594 # 163a <DMA1_Channel7_Callback>
    187a:	5792                	lw	a5,36(sp)
    187c:	4705                	li	a4,1
    187e:	4689                	li	a3,2
    1880:	0ce78b63          	beq	a5,a4,1956 <vInputsTask+0x148>
    1884:	18078263          	beqz	a5,1a08 <vInputsTask+0x1fa>
    1888:	fed79ce3          	bne	a5,a3,1880 <vInputsTask+0x72>
    188c:	4529                	li	a0,10
    188e:	64e050ef          	jal	ra,6edc <vTaskDelay>
    1892:	4701                	li	a4,0
    1894:	1034                	addi	a3,sp,40
    1896:	0ff00613          	li	a2,255
    189a:	4581                	li	a1,0
    189c:	4509                	li	a0,2
    189e:	5df050ef          	jal	ra,767c <xTaskGenericNotifyWait>
    18a2:	8905                	andi	a0,a0,1
    18a4:	4c01                	li	s8,0
    18a6:	c521                	beqz	a0,18ee <vInputsTask+0xe0>
    18a8:	3551                	jal	172c <ADC_FSM>
    18aa:	4401                	li	s0,0
    18ac:	4d05                	li	s10,1
    18ae:	4c91                	li	s9,4
    18b0:	8522                	mv	a0,s0
    18b2:	184c                	addi	a1,sp,52
    18b4:	0405                	addi	s0,s0,1
    18b6:	3719                	jal	17bc <xGetAin>
    18b8:	0ff47413          	andi	s0,s0,255
    18bc:	01a51e63          	bne	a0,s10,18d8 <vInputsTask+0xca>
    18c0:	8141a783          	lw	a5,-2028(gp) # 20000594 <OD>
    18c4:	4705                	li	a4,1
    18c6:	4689                	li	a3,2
    18c8:	43c8                	lw	a0,4(a5)
    18ca:	1850                	addi	a2,sp,52
    18cc:	85a2                	mv	a1,s0
    18ce:	16850513          	addi	a0,a0,360
    18d2:	011070ef          	jal	ra,90e2 <OD_set_value>
    18d6:	4c05                	li	s8,1
    18d8:	fd941ce3          	bne	s0,s9,18b0 <vInputsTask+0xa2>
    18dc:	376020ef          	jal	ra,3c52 <getADC1Buffer>
    18e0:	85aa                	mv	a1,a0
    18e2:	40020537          	lui	a0,0x40020
    18e6:	463d                	li	a2,15
    18e8:	0521                	addi	a0,a0,8
    18ea:	7b9020ef          	jal	ra,48a2 <HAL_ADC_StartDMA>
    18ee:	572020ef          	jal	ra,3e60 <vDinDoutProcess>
    18f2:	184c                	addi	a1,sp,52
    18f4:	4509                	li	a0,2
    18f6:	3d8020ef          	jal	ra,3cce <xGetDIN>
    18fa:	4789                	li	a5,2
    18fc:	4401                	li	s0,0
    18fe:	00f51e63          	bne	a0,a5,191a <vInputsTask+0x10c>
    1902:	8141a783          	lw	a5,-2028(gp) # 20000594 <OD>
    1906:	4705                	li	a4,1
    1908:	4685                	li	a3,1
    190a:	43c8                	lw	a0,4(a5)
    190c:	1050                	addi	a2,sp,36
    190e:	4589                	li	a1,2
    1910:	17450513          	addi	a0,a0,372 # 40020174 <__freertos_irq_stack_top+0x2001b174>
    1914:	7ce070ef          	jal	ra,90e2 <OD_set_value>
    1918:	4405                	li	s0,1
    191a:	450d                	li	a0,3
    191c:	39e020ef          	jal	ra,3cba <uGetDIN>
    1920:	4785                	li	a5,1
    1922:	4585                	li	a1,1
    1924:	00f50563          	beq	a0,a5,192e <vInputsTask+0x120>
    1928:	c00ff0ef          	jal	ra,d28 <vSaveData>
    192c:	4581                	li	a1,0
    192e:	4501                	li	a0,0
    1930:	346020ef          	jal	ra,3c76 <eSetDUT>
    1934:	c419                	beqz	s0,1942 <vInputsTask+0x134>
    1936:	00092783          	lw	a5,0(s2)
    193a:	c781                	beqz	a5,1942 <vInputsTask+0x134>
    193c:	2398                	lbu	a4,0(a5)
    193e:	9b75                	andi	a4,a4,-3
    1940:	a398                	sb	a4,0(a5)
    1942:	f20c0ce3          	beqz	s8,187a <vInputsTask+0x6c>
    1946:	0009a783          	lw	a5,0(s3)
    194a:	f20788e3          	beqz	a5,187a <vInputsTask+0x6c>
    194e:	2398                	lbu	a4,0(a5)
    1950:	9b75                	andi	a4,a4,-3
    1952:	a398                	sb	a4,0(a5)
    1954:	b71d                	j	187a <vInputsTask+0x6c>
    1956:	577d                	li	a4,-1
    1958:	1034                	addi	a3,sp,40
    195a:	0ff00613          	li	a2,255
    195e:	4581                	li	a1,0
    1960:	4501                	li	a0,0
    1962:	51b050ef          	jal	ra,767c <xTaskGenericNotifyWait>
    1966:	57a2                	lw	a5,40(sp)
    1968:	8b91                	andi	a5,a5,4
    196a:	f00788e3          	beqz	a5,187a <vInputsTask+0x6c>
    196e:	339d                	jal	16d4 <ADC1_Init>
    1970:	47a9                	li	a5,10
    1972:	184c                	addi	a1,sp,52
    1974:	4509                	li	a0,2
    1976:	c2be                	sw	a5,68(sp)
    1978:	c0be                	sw	a5,64(sp)
    197a:	dc02                	sw	zero,56(sp)
    197c:	c6d2                	sw	s4,76(sp)
    197e:	30a020ef          	jal	ra,3c88 <eDinConfigWtihStruct>
    1982:	184c                	addi	a1,sp,52
    1984:	450d                	li	a0,3
    1986:	302020ef          	jal	ra,3c88 <eDinConfigWtihStruct>
    198a:	106c                	addi	a1,sp,44
    198c:	4501                	li	a0,0
    198e:	d856                	sw	s5,48(sp)
    1990:	2cc020ef          	jal	ra,3c5c <eDOUTConfigWtihStruct>
    1994:	4581                	li	a1,0
    1996:	4501                	li	a0,0
    1998:	370020ef          	jal	ra,3d08 <eRPMConfig>
    199c:	4585                	li	a1,1
    199e:	4505                	li	a0,1
    19a0:	368020ef          	jal	ra,3d08 <eRPMConfig>
    19a4:	45a1                	li	a1,8
    19a6:	4501                	li	a0,0
    19a8:	42f030ef          	jal	ra,55d6 <HAL_GetTimerCounterRegAdres>
    19ac:	ce2a                	sw	a0,28(sp)
    19ae:	4501                	li	a0,0
    19b0:	342020ef          	jal	ra,3cf2 <uGetRPMBuffer>
    19b4:	46f2                	lw	a3,28(sp)
    19b6:	40020437          	lui	s0,0x40020
    19ba:	872a                	mv	a4,a0
    19bc:	488d                	li	a7,3
    19be:	4805                	li	a6,1
    19c0:	4781                	li	a5,0
    19c2:	4655                	li	a2,21
    19c4:	4581                	li	a1,0
    19c6:	04440513          	addi	a0,s0,68 # 40020044 <__freertos_irq_stack_top+0x2001b044>
    19ca:	c05a                	sw	s6,0(sp)
    19cc:	565020ef          	jal	ra,4730 <HAL_DMAInitIT>
    19d0:	4589                	li	a1,2
    19d2:	4505                	li	a0,1
    19d4:	403030ef          	jal	ra,55d6 <HAL_GetTimerCounterRegAdres>
    19d8:	ce2a                	sw	a0,28(sp)
    19da:	4505                	li	a0,1
    19dc:	316020ef          	jal	ra,3cf2 <uGetRPMBuffer>
    19e0:	46f2                	lw	a3,28(sp)
    19e2:	872a                	mv	a4,a0
    19e4:	488d                	li	a7,3
    19e6:	4805                	li	a6,1
    19e8:	4781                	li	a5,0
    19ea:	4655                	li	a2,21
    19ec:	4581                	li	a1,0
    19ee:	08040513          	addi	a0,s0,128
    19f2:	c05e                	sw	s7,0(sp)
    19f4:	53d020ef          	jal	ra,4730 <HAL_DMAInitIT>
    19f8:	4501                	li	a0,0
    19fa:	3c1030ef          	jal	ra,55ba <HAL_TiemrEneblae>
    19fe:	4505                	li	a0,1
    1a00:	3bb030ef          	jal	ra,55ba <HAL_TiemrEneblae>
    1a04:	d202                	sw	zero,36(sp)
    1a06:	bd95                	j	187a <vInputsTask+0x6c>
    1a08:	4789                	li	a5,2
    1a0a:	d23e                	sw	a5,36(sp)
    1a0c:	200007b7          	lui	a5,0x20000
    1a10:	5fc7a503          	lw	a0,1532(a5) # 200005fc <pTaskToNotifykHandle>
    1a14:	4701                	li	a4,0
    1a16:	4689                	li	a3,2
    1a18:	4601                	li	a2,0
    1a1a:	4581                	li	a1,0
    1a1c:	547050ef          	jal	ra,7762 <xTaskGenericNotify>
    1a20:	232020ef          	jal	ra,3c52 <getADC1Buffer>
    1a24:	85aa                	mv	a1,a0
    1a26:	40020537          	lui	a0,0x40020
    1a2a:	463d                	li	a2,15
    1a2c:	0521                	addi	a0,a0,8
    1a2e:	675020ef          	jal	ra,48a2 <HAL_ADC_StartDMA>
    1a32:	b5a1                	j	187a <vInputsTask+0x6c>

00001a34 <fPortState>:
    1a34:	aebfe2ef          	jal	t0,51e <__riscv_save_0>
    1a38:	6585                	lui	a1,0x1
    1a3a:	40011537          	lui	a0,0x40011
    1a3e:	80058593          	addi	a1,a1,-2048 # 800 <__stack_size>
    1a42:	c0050513          	addi	a0,a0,-1024 # 40010c00 <__freertos_irq_stack_top+0x2000bc00>
    1a46:	238030ef          	jal	ra,4c7e <HAL_GetBit>
    1a4a:	af9fe06f          	j	542 <__riscv_restore_0>

00001a4e <xKeyboardProcessTaskHandle>:
    1a4e:	20000537          	lui	a0,0x20000
    1a52:	60c50513          	addi	a0,a0,1548 # 2000060c <pKeybardTaskHandle>
    1a56:	8082                	ret

00001a58 <vInitKeybord>:
    1a58:	ac7fe2ef          	jal	t0,51e <__riscv_save_0>
    1a5c:	1101                	addi	sp,sp,-32
    1a5e:	4785                	li	a5,1
    1a60:	845c                	sb	a5,8(sp)
    1a62:	200007b7          	lui	a5,0x20000
    1a66:	60478793          	addi	a5,a5,1540 # 20000604 <COUNTERS>
    1a6a:	c83e                	sw	a5,16(sp)
    1a6c:	200007b7          	lui	a5,0x20000
    1a70:	60878793          	addi	a5,a5,1544 # 20000608 <STATUS>
    1a74:	c63e                	sw	a5,12(sp)
    1a76:	020207b7          	lui	a5,0x2020
    1a7a:	07d1                	addi	a5,a5,20
    1a7c:	ca3e                	sw	a5,20(sp)
    1a7e:	4789                	li	a5,2
    1a80:	00f10c23          	sb	a5,24(sp)
    1a84:	000027b7          	lui	a5,0x2
    1a88:	a3478793          	addi	a5,a5,-1484 # 1a34 <fPortState>
    1a8c:	0028                	addi	a0,sp,8
    1a8e:	ce3e                	sw	a5,28(sp)
    1a90:	5cc020ef          	jal	ra,405c <eKeyboardInit>
    1a94:	6105                	addi	sp,sp,32
    1a96:	aadfe06f          	j	542 <__riscv_restore_0>

00001a9a <vKeyboardTask>:
    1a9a:	a85fe2ef          	jal	t0,51e <__riscv_save_0>
    1a9e:	3f6d                	jal	1a58 <vInitKeybord>
    1aa0:	5b2020ef          	jal	ra,4052 <HW_LIB_GetKeyboardPeriod>
    1aa4:	438050ef          	jal	ra,6edc <vTaskDelay>
    1aa8:	604020ef          	jal	ra,40ac <HW_LIB_KeyboradFSM>
    1aac:	bfd5                	j	1aa0 <vKeyboardTask+0x6>

00001aae <SPI1_DMA_Callback>:
    1aae:	a71fe2ef          	jal	t0,51e <__riscv_save_0>
    1ab2:	40020537          	lui	a0,0x40020
    1ab6:	03050513          	addi	a0,a0,48 # 40020030 <__freertos_irq_stack_top+0x2001b030>
    1aba:	459020ef          	jal	ra,4712 <HAL_DMA_Disable>
    1abe:	40013537          	lui	a0,0x40013
    1ac2:	0c3030ef          	jal	ra,5384 <HAL_SPI_RXOveleyClear>
    1ac6:	4405                	li	s0,1
    1ac8:	40013537          	lui	a0,0x40013
    1acc:	0c9030ef          	jal	ra,5394 <HAL_SPI_GetBusy>
    1ad0:	fe850ce3          	beq	a0,s0,1ac8 <SPI1_DMA_Callback+0x1a>
    1ad4:	40011537          	lui	a0,0x40011
    1ad8:	45c1                	li	a1,16
    1ada:	80050513          	addi	a0,a0,-2048 # 40010800 <__freertos_irq_stack_top+0x2000b800>
    1ade:	1ac030ef          	jal	ra,4c8a <HAL_SetBit>
    1ae2:	a61fe06f          	j	542 <__riscv_restore_0>

00001ae6 <SPI2_DMA_Callback>:
    1ae6:	a39fe2ef          	jal	t0,51e <__riscv_save_0>
    1aea:	40020537          	lui	a0,0x40020
    1aee:	05850513          	addi	a0,a0,88 # 40020058 <__freertos_irq_stack_top+0x2001b058>
    1af2:	421020ef          	jal	ra,4712 <HAL_DMA_Disable>
    1af6:	40004437          	lui	s0,0x40004
    1afa:	80040513          	addi	a0,s0,-2048 # 40003800 <__freertos_irq_stack_top+0x1fffe800>
    1afe:	087030ef          	jal	ra,5384 <HAL_SPI_RXOveleyClear>
    1b02:	80040413          	addi	s0,s0,-2048
    1b06:	4485                	li	s1,1
    1b08:	8522                	mv	a0,s0
    1b0a:	08b030ef          	jal	ra,5394 <HAL_SPI_GetBusy>
    1b0e:	fe950de3          	beq	a0,s1,1b08 <SPI2_DMA_Callback+0x22>
    1b12:	40011537          	lui	a0,0x40011
    1b16:	6585                	lui	a1,0x1
    1b18:	c0050513          	addi	a0,a0,-1024 # 40010c00 <__freertos_irq_stack_top+0x2000bc00>
    1b1c:	16e030ef          	jal	ra,4c8a <HAL_SetBit>
    1b20:	a23fe06f          	j	542 <__riscv_restore_0>

00001b24 <SetBarState>:
    1b24:	4785                	li	a5,1
    1b26:	0606                	slli	a2,a2,0x1
    1b28:	00c79633          	sll	a2,a5,a2
    1b2c:	0506                	slli	a0,a0,0x1
    1b2e:	4789                	li	a5,2
    1b30:	00a79533          	sll	a0,a5,a0
    1b34:	4701                	li	a4,0
    1b36:	4781                	li	a5,0
    1b38:	02b71263          	bne	a4,a1,1b5c <SetBarState+0x38>
    1b3c:	01079513          	slli	a0,a5,0x10
    1b40:	8141                	srli	a0,a0,0x10
    1b42:	83c1                	srli	a5,a5,0x10
    1b44:	4581                	li	a1,0
    1b46:	4701                	li	a4,0
    1b48:	02d59063          	bne	a1,a3,1b68 <SetBarState+0x44>
    1b4c:	8d59                	or	a0,a0,a4
    1b4e:	8341                	srli	a4,a4,0x10
    1b50:	bc818693          	addi	a3,gp,-1080 # 20000948 <SPI1_DATA>
    1b54:	8fd9                	or	a5,a5,a4
    1b56:	a2ea                	sh	a0,6(a3)
    1b58:	a69e                	sh	a5,8(a3)
    1b5a:	8082                	ret
    1b5c:	0705                	addi	a4,a4,1
    1b5e:	8fc9                	or	a5,a5,a0
    1b60:	0ff77713          	andi	a4,a4,255
    1b64:	050a                	slli	a0,a0,0x2
    1b66:	bfc9                	j	1b38 <SetBarState+0x14>
    1b68:	0585                	addi	a1,a1,1
    1b6a:	8f51                	or	a4,a4,a2
    1b6c:	0ff5f593          	andi	a1,a1,255
    1b70:	060a                	slli	a2,a2,0x2
    1b72:	bfd9                	j	1b48 <SetBarState+0x24>

00001b74 <vSetInitBrigth>:
    1b74:	8082                	ret

00001b76 <SetRGB>:
    1b76:	46b5                	li	a3,13
    1b78:	4781                	li	a5,0
    1b7a:	4701                	li	a4,0
    1b7c:	00a6ec63          	bltu	a3,a0,1b94 <SetRGB+0x1e>
    1b80:	6735                	lui	a4,0xd
    1b82:	00251793          	slli	a5,a0,0x2
    1b86:	bdc70713          	addi	a4,a4,-1060 # cbdc <CalPoint+0x11c>
    1b8a:	97ba                	add	a5,a5,a4
    1b8c:	439c                	lw	a5,0(a5)
    1b8e:	8782                	jr	a5
    1b90:	4725                	li	a4,9
    1b92:	4789                	li	a5,2
    1b94:	468d                	li	a3,3
    1b96:	4511                	li	a0,4
    1b98:	00d58763          	beq	a1,a3,1ba6 <SetRGB+0x30>
    1b9c:	4689                	li	a3,2
    1b9e:	4509                	li	a0,2
    1ba0:	00d58363          	beq	a1,a3,1ba6 <SetRGB+0x30>
    1ba4:	4505                	li	a0,1
    1ba6:	bc818693          	addi	a3,gp,-1080 # 20000948 <SPI1_DATA>
    1baa:	00e51533          	sll	a0,a0,a4
    1bae:	0786                	slli	a5,a5,0x1
    1bb0:	97b6                	add	a5,a5,a3
    1bb2:	0542                	slli	a0,a0,0x10
    1bb4:	4705                	li	a4,1
    1bb6:	00079683          	lh	a3,0(a5)
    1bba:	8541                	srai	a0,a0,0x10
    1bbc:	04e61963          	bne	a2,a4,1c0e <SetRGB+0x98>
    1bc0:	8d55                	or	a0,a0,a3
    1bc2:	a38a                	sh	a0,0(a5)
    1bc4:	8082                	ret
    1bc6:	478d                	li	a5,3
    1bc8:	02f50533          	mul	a0,a0,a5
    1bcc:	0ff57713          	andi	a4,a0,255
    1bd0:	b7c9                	j	1b92 <SetRGB+0x1c>
    1bd2:	478d                	li	a5,3
    1bd4:	02f50533          	mul	a0,a0,a5
    1bd8:	1569                	addi	a0,a0,-6
    1bda:	0ff57713          	andi	a4,a0,255
    1bde:	4785                	li	a5,1
    1be0:	bf55                	j	1b94 <SetRGB+0x1e>
    1be2:	478d                	li	a5,3
    1be4:	02f50533          	mul	a0,a0,a5
    1be8:	1551                	addi	a0,a0,-12
    1bea:	0ff57713          	andi	a4,a0,255
    1bee:	4781                	li	a5,0
    1bf0:	b755                	j	1b94 <SetRGB+0x1e>
    1bf2:	4719                	li	a4,6
    1bf4:	bf79                	j	1b92 <SetRGB+0x1c>
    1bf6:	4735                	li	a4,13
    1bf8:	b7dd                	j	1bde <SetRGB+0x68>
    1bfa:	4729                	li	a4,10
    1bfc:	b7cd                	j	1bde <SetRGB+0x68>
    1bfe:	4731                	li	a4,12
    1c00:	b7fd                	j	1bee <SetRGB+0x78>
    1c02:	4725                	li	a4,9
    1c04:	b7ed                	j	1bee <SetRGB+0x78>
    1c06:	872a                	mv	a4,a0
    1c08:	b769                	j	1b92 <SetRGB+0x1c>
    1c0a:	4719                	li	a4,6
    1c0c:	b7cd                	j	1bee <SetRGB+0x78>
    1c0e:	fff54513          	not	a0,a0
    1c12:	8d75                	and	a0,a0,a3
    1c14:	b77d                	j	1bc2 <SetRGB+0x4c>

00001c16 <SetSegDirect>:
    1c16:	4799                	li	a5,6
    1c18:	08a7ec63          	bltu	a5,a0,1cb0 <SetSegDirect+0x9a>
    1c1c:	67b5                	lui	a5,0xd
    1c1e:	c1478793          	addi	a5,a5,-1004 # cc14 <CalPoint+0x154>
    1c22:	050a                	slli	a0,a0,0x2
    1c24:	953e                	add	a0,a0,a5
    1c26:	4118                	lw	a4,0(a0)
    1c28:	200007b7          	lui	a5,0x20000
    1c2c:	61078793          	addi	a5,a5,1552 # 20000610 <SPI2_DATA>
    1c30:	8702                	jr	a4
    1c32:	239a                	lhu	a4,0(a5)
    1c34:	0055d693          	srli	a3,a1,0x5
    1c38:	05ae                	slli	a1,a1,0xb
    1c3a:	9b71                	andi	a4,a4,-4
    1c3c:	8f55                	or	a4,a4,a3
    1c3e:	a39a                	sh	a4,0(a5)
    1c40:	23ba                	lhu	a4,2(a5)
    1c42:	7ff77713          	andi	a4,a4,2047
    1c46:	8f4d                	or	a4,a4,a1
    1c48:	a3ba                	sh	a4,2(a5)
    1c4a:	8082                	ret
    1c4c:	23ba                	lhu	a4,2(a5)
    1c4e:	058e                	slli	a1,a1,0x3
    1c50:	c0377713          	andi	a4,a4,-1021
    1c54:	bfcd                	j	1c46 <SetSegDirect+0x30>
    1c56:	23ba                	lhu	a4,2(a5)
    1c58:	0045d693          	srli	a3,a1,0x4
    1c5c:	05b2                	slli	a1,a1,0xc
    1c5e:	9b61                	andi	a4,a4,-8
    1c60:	8f55                	or	a4,a4,a3
    1c62:	a3ba                	sh	a4,2(a5)
    1c64:	23da                	lhu	a4,4(a5)
    1c66:	0752                	slli	a4,a4,0x14
    1c68:	8351                	srli	a4,a4,0x14
    1c6a:	8f4d                	or	a4,a4,a1
    1c6c:	a3da                	sh	a4,4(a5)
    1c6e:	8082                	ret
    1c70:	23da                	lhu	a4,4(a5)
    1c72:	76fd                	lui	a3,0xfffff
    1c74:	06fd                	addi	a3,a3,31
    1c76:	8f75                	and	a4,a4,a3
    1c78:	0596                	slli	a1,a1,0x5
    1c7a:	bfc5                	j	1c6a <SetSegDirect+0x54>
    1c7c:	23da                	lhu	a4,4(a5)
    1c7e:	0025d693          	srli	a3,a1,0x2
    1c82:	8afd                	andi	a3,a3,31
    1c84:	9b01                	andi	a4,a4,-32
    1c86:	8f55                	or	a4,a4,a3
    1c88:	a3da                	sh	a4,4(a5)
    1c8a:	23fa                	lhu	a4,6(a5)
    1c8c:	05ba                	slli	a1,a1,0xe
    1c8e:	3ff77713          	andi	a4,a4,1023
    1c92:	8f4d                	or	a4,a4,a1
    1c94:	a3fa                	sh	a4,6(a5)
    1c96:	8082                	ret
    1c98:	23fa                	lhu	a4,6(a5)
    1c9a:	76f1                	lui	a3,0xffffc
    1c9c:	07f68693          	addi	a3,a3,127 # ffffc07f <__freertos_irq_stack_top+0xdfff707f>
    1ca0:	8f75                	and	a4,a4,a3
    1ca2:	059e                	slli	a1,a1,0x7
    1ca4:	b7fd                	j	1c92 <SetSegDirect+0x7c>
    1ca6:	23fa                	lhu	a4,6(a5)
    1ca8:	f8077713          	andi	a4,a4,-128
    1cac:	8dd9                	or	a1,a1,a4
    1cae:	a3ee                	sh	a1,6(a5)
    1cb0:	8082                	ret

00001cb2 <SetSEG>:
    1cb2:	845fe2ef          	jal	t0,4f6 <__riscv_save_10>
    1cb6:	000f47b7          	lui	a5,0xf4
    1cba:	23f78793          	addi	a5,a5,575 # f423f <_data_lma+0xe6aa7>
    1cbe:	8aaa                	mv	s5,a0
    1cc0:	84ae                	mv	s1,a1
    1cc2:	02b7e863          	bltu	a5,a1,1cf2 <SetSEG+0x40>
    1cc6:	67e1                	lui	a5,0x18
    1cc8:	69f78793          	addi	a5,a5,1695 # 1869f <_data_lma+0xaf07>
    1ccc:	08b7e563          	bltu	a5,a1,1d56 <SetSEG+0xa4>
    1cd0:	6789                	lui	a5,0x2
    1cd2:	70f78793          	addi	a5,a5,1807 # 270f <Get_CalibrationValue+0x1>
    1cd6:	08b7e363          	bltu	a5,a1,1d5c <SetSEG+0xaa>
    1cda:	3e700793          	li	a5,999
    1cde:	08b7e263          	bltu	a5,a1,1d62 <SetSEG+0xb0>
    1ce2:	06300793          	li	a5,99
    1ce6:	4989                	li	s3,2
    1ce8:	4a0d                	li	s4,3
    1cea:	00b7e663          	bltu	a5,a1,1cf6 <SetSEG+0x44>
    1cee:	4a09                	li	s4,2
    1cf0:	a019                	j	1cf6 <SetSEG+0x44>
    1cf2:	4981                	li	s3,0
    1cf4:	4a1d                	li	s4,7
    1cf6:	20000937          	lui	s2,0x20000
    1cfa:	6b35                	lui	s6,0xd
    1cfc:	4401                	li	s0,0
    1cfe:	61090913          	addi	s2,s2,1552 # 20000610 <SPI2_DATA>
    1d02:	c50b0b13          	addi	s6,s6,-944 # cc50 <DigitMask>
    1d06:	4ba9                	li	s7,10
    1d08:	00295783          	lhu	a5,2(s2)
    1d0c:	8522                	mv	a0,s0
    1d0e:	0405                	addi	s0,s0,1
    1d10:	4007e793          	ori	a5,a5,1024
    1d14:	00f91123          	sh	a5,2(s2)
    1d18:	0374f7b3          	remu	a5,s1,s7
    1d1c:	0ff47413          	andi	s0,s0,255
    1d20:	97da                	add	a5,a5,s6
    1d22:	238c                	lbu	a1,0(a5)
    1d24:	3dcd                	jal	1c16 <SetSegDirect>
    1d26:	0374d4b3          	divu	s1,s1,s7
    1d2a:	fc8a1fe3          	bne	s4,s0,1d08 <SetSEG+0x56>
    1d2e:	449d                	li	s1,7
    1d30:	02941c63          	bne	s0,s1,1d68 <SetSEG+0xb6>
    1d34:	4789                	li	a5,2
    1d36:	00f99e63          	bne	s3,a5,1d52 <SetSEG+0xa0>
    1d3a:	00695503          	lhu	a0,6(s2)
    1d3e:	77f1                	lui	a5,0xffffc
    1d40:	008ada93          	srli	s5,s5,0x8
    1d44:	8d7d                	and	a0,a0,a5
    1d46:	07fafa93          	andi	s5,s5,127
    1d4a:	01556533          	or	a0,a0,s5
    1d4e:	00a91323          	sh	a0,6(s2)
    1d52:	fdcfe06f          	j	52e <__riscv_restore_10>
    1d56:	4985                	li	s3,1
    1d58:	4a19                	li	s4,6
    1d5a:	bf71                	j	1cf6 <SetSEG+0x44>
    1d5c:	4989                	li	s3,2
    1d5e:	4a15                	li	s4,5
    1d60:	bf59                	j	1cf6 <SetSEG+0x44>
    1d62:	4989                	li	s3,2
    1d64:	4a11                	li	s4,4
    1d66:	bf41                	j	1cf6 <SetSEG+0x44>
    1d68:	8522                	mv	a0,s0
    1d6a:	4581                	li	a1,0
    1d6c:	0405                	addi	s0,s0,1
    1d6e:	3565                	jal	1c16 <SetSegDirect>
    1d70:	0ff47413          	andi	s0,s0,255
    1d74:	bf75                	j	1d30 <SetSEG+0x7e>

00001d76 <SetBigSeg>:
    1d76:	20000737          	lui	a4,0x20000
    1d7a:	61070713          	addi	a4,a4,1552 # 20000610 <SPI2_DATA>
    1d7e:	231e                	lhu	a5,0(a4)
    1d80:	050a                	slli	a0,a0,0x2
    1d82:	8b8d                	andi	a5,a5,3
    1d84:	8fc9                	or	a5,a5,a0
    1d86:	a31e                	sh	a5,0(a4)
    1d88:	8082                	ret

00001d8a <vSetBrigth>:
    1d8a:	f94fe2ef          	jal	t0,51e <__riscv_save_0>
    1d8e:	872e                	mv	a4,a1
    1d90:	45a1                	li	a1,8
    1d92:	e111                	bnez	a0,1d96 <vSetBrigth+0xc>
    1d94:	4591                	li	a1,4
    1d96:	67b5                	lui	a5,0xd
    1d98:	0706                	slli	a4,a4,0x1
    1d9a:	c3078793          	addi	a5,a5,-976 # cc30 <Brigth>
    1d9e:	97ba                	add	a5,a5,a4
    1da0:	2392                	lhu	a2,0(a5)
    1da2:	4509                	li	a0,2
    1da4:	293030ef          	jal	ra,5836 <HAL_TIMER_SetPWMPulse>
    1da8:	4581                	li	a1,0
    1daa:	4509                	li	a0,2
    1dac:	30b030ef          	jal	ra,58b6 <HAL_TIMER_EnablePWMCH>
    1db0:	f92fe06f          	j	542 <__riscv_restore_0>

00001db4 <vLedDriverStart>:
    1db4:	f6afe2ef          	jal	t0,51e <__riscv_save_0>
    1db8:	000027b7          	lui	a5,0x2
    1dbc:	1141                	addi	sp,sp,-16
    1dbe:	40020437          	lui	s0,0x40020
    1dc2:	ae678793          	addi	a5,a5,-1306 # 1ae6 <SPI2_DMA_Callback>
    1dc6:	20000737          	lui	a4,0x20000
    1dca:	400046b7          	lui	a3,0x40004
    1dce:	c03e                	sw	a5,0(sp)
    1dd0:	05840513          	addi	a0,s0,88 # 40020058 <__freertos_irq_stack_top+0x2001b058>
    1dd4:	4889                	li	a7,2
    1dd6:	4805                	li	a6,1
    1dd8:	4781                	li	a5,0
    1dda:	61070713          	addi	a4,a4,1552 # 20000610 <SPI2_DATA>
    1dde:	80c68693          	addi	a3,a3,-2036 # 4000380c <__freertos_irq_stack_top+0x1fffe80c>
    1de2:	4605                	li	a2,1
    1de4:	4585                	li	a1,1
    1de6:	14b020ef          	jal	ra,4730 <HAL_DMAInitIT>
    1dea:	000027b7          	lui	a5,0x2
    1dee:	aae78793          	addi	a5,a5,-1362 # 1aae <SPI1_DMA_Callback>
    1df2:	400136b7          	lui	a3,0x40013
    1df6:	4889                	li	a7,2
    1df8:	4805                	li	a6,1
    1dfa:	bc818713          	addi	a4,gp,-1080 # 20000948 <SPI1_DATA>
    1dfe:	06b1                	addi	a3,a3,12
    1e00:	4605                	li	a2,1
    1e02:	c03e                	sw	a5,0(sp)
    1e04:	03040513          	addi	a0,s0,48
    1e08:	4781                	li	a5,0
    1e0a:	4585                	li	a1,1
    1e0c:	125020ef          	jal	ra,4730 <HAL_DMAInitIT>
    1e10:	45a9                	li	a1,10
    1e12:	4501                	li	a0,0
    1e14:	3f9d                	jal	1d8a <vSetBrigth>
    1e16:	45b9                	li	a1,14
    1e18:	4505                	li	a0,1
    1e1a:	3f85                	jal	1d8a <vSetBrigth>
    1e1c:	0141                	addi	sp,sp,16
    1e1e:	f24fe06f          	j	542 <__riscv_restore_0>

00001e22 <vLedProcess>:
    1e22:	efcfe2ef          	jal	t0,51e <__riscv_save_0>
    1e26:	40011537          	lui	a0,0x40011
    1e2a:	6585                	lui	a1,0x1
    1e2c:	c0050513          	addi	a0,a0,-1024 # 40010c00 <__freertos_irq_stack_top+0x2000bc00>
    1e30:	667020ef          	jal	ra,4c96 <HAL_ResetBit>
    1e34:	40020437          	lui	s0,0x40020
    1e38:	4591                	li	a1,4
    1e3a:	05840513          	addi	a0,s0,88 # 40020058 <__freertos_irq_stack_top+0x2001b058>
    1e3e:	0e3020ef          	jal	ra,4720 <HAL_DMA_SetCounter>
    1e42:	05840513          	addi	a0,s0,88
    1e46:	0bf020ef          	jal	ra,4704 <HAL_DMA_Enable>
    1e4a:	ef8fe06f          	j	542 <__riscv_restore_0>

00001e4e <vRGBProcess>:
    1e4e:	ed0fe2ef          	jal	t0,51e <__riscv_save_0>
    1e52:	40011537          	lui	a0,0x40011
    1e56:	45c1                	li	a1,16
    1e58:	80050513          	addi	a0,a0,-2048 # 40010800 <__freertos_irq_stack_top+0x2000b800>
    1e5c:	63b020ef          	jal	ra,4c96 <HAL_ResetBit>
    1e60:	40020437          	lui	s0,0x40020
    1e64:	4595                	li	a1,5
    1e66:	03040513          	addi	a0,s0,48 # 40020030 <__freertos_irq_stack_top+0x2001b030>
    1e6a:	0b7020ef          	jal	ra,4720 <HAL_DMA_SetCounter>
    1e6e:	03040513          	addi	a0,s0,48
    1e72:	093020ef          	jal	ra,4704 <HAL_DMA_Enable>
    1e76:	eccfe06f          	j	542 <__riscv_restore_0>

00001e7a <main>:
    1e7a:	ea4fe2ef          	jal	t0,51e <__riscv_save_0>
    1e7e:	4505                	li	a0,1
    1e80:	462010ef          	jal	ra,32e2 <NVIC_PriorityGroupConfig>
    1e84:	2a05                	jal	1fb4 <SystemCoreClockUpdate>
    1e86:	0ba060ef          	jal	ra,7f40 <Delay_Init>
    1e8a:	6571                	lui	a0,0x1c
    1e8c:	20050513          	addi	a0,a0,512 # 1c200 <_data_lma+0xea68>
    1e90:	110060ef          	jal	ra,7fa0 <USART_Printf_Init>
    1e94:	0000d537          	lui	a0,0xd
    1e98:	c5c50513          	addi	a0,a0,-932 # cc5c <DigitMask+0xc>
    1e9c:	471090ef          	jal	ra,bb0c <puts>
    1ea0:	df2ff0ef          	jal	ra,1492 <vInit_DeviceConfig>
    1ea4:	0000d437          	lui	s0,0xd
    1ea8:	2bb9                	jal	2406 <vSYSeventInit>
    1eaa:	2b0d                	jal	23dc <vSYSqueueInit>
    1eac:	26f5                	jal	2298 <vSYStaskInit>
    1eae:	499040ef          	jal	ra,6b46 <vTaskStartScheduler>
    1eb2:	c6440513          	addi	a0,s0,-924 # cc64 <DigitMask+0x14>
    1eb6:	457090ef          	jal	ra,bb0c <puts>
    1eba:	bfe5                	j	1eb2 <main+0x38>

00001ebc <vRestartNode>:
    1ebc:	8082                	ret

00001ebe <Error_Handler>:
    1ebe:	6799                	lui	a5,0x6
    1ec0:	80079073          	csrw	0x800,a5
    1ec4:	a001                	j	1ec4 <Error_Handler+0x6>

00001ec6 <SystemInit>:
    1ec6:	400217b7          	lui	a5,0x40021
    1eca:	4398                	lw	a4,0(a5)
    1ecc:	f8ff06b7          	lui	a3,0xf8ff0
    1ed0:	1141                	addi	sp,sp,-16
    1ed2:	00176713          	ori	a4,a4,1
    1ed6:	c398                	sw	a4,0(a5)
    1ed8:	43d8                	lw	a4,4(a5)
    1eda:	00020637          	lui	a2,0x20
    1ede:	8f75                	and	a4,a4,a3
    1ee0:	c3d8                	sw	a4,4(a5)
    1ee2:	4398                	lw	a4,0(a5)
    1ee4:	fef706b7          	lui	a3,0xfef70
    1ee8:	16fd                	addi	a3,a3,-1
    1eea:	8f75                	and	a4,a4,a3
    1eec:	c398                	sw	a4,0(a5)
    1eee:	4398                	lw	a4,0(a5)
    1ef0:	fffc06b7          	lui	a3,0xfffc0
    1ef4:	16fd                	addi	a3,a3,-1
    1ef6:	8f75                	and	a4,a4,a3
    1ef8:	c398                	sw	a4,0(a5)
    1efa:	43d8                	lw	a4,4(a5)
    1efc:	ff8106b7          	lui	a3,0xff810
    1f00:	16fd                	addi	a3,a3,-1
    1f02:	8f75                	and	a4,a4,a3
    1f04:	c3d8                	sw	a4,4(a5)
    1f06:	009f0737          	lui	a4,0x9f0
    1f0a:	c798                	sw	a4,8(a5)
    1f0c:	c402                	sw	zero,8(sp)
    1f0e:	c602                	sw	zero,12(sp)
    1f10:	4398                	lw	a4,0(a5)
    1f12:	66c1                	lui	a3,0x10
    1f14:	8f55                	or	a4,a4,a3
    1f16:	c398                	sw	a4,0(a5)
    1f18:	400216b7          	lui	a3,0x40021
    1f1c:	6705                	lui	a4,0x1
    1f1e:	429c                	lw	a5,0(a3)
    1f20:	8ff1                	and	a5,a5,a2
    1f22:	c63e                	sw	a5,12(sp)
    1f24:	47a2                	lw	a5,8(sp)
    1f26:	0785                	addi	a5,a5,1
    1f28:	c43e                	sw	a5,8(sp)
    1f2a:	47b2                	lw	a5,12(sp)
    1f2c:	e781                	bnez	a5,1f34 <SystemInit+0x6e>
    1f2e:	47a2                	lw	a5,8(sp)
    1f30:	fee797e3          	bne	a5,a4,1f1e <SystemInit+0x58>
    1f34:	400217b7          	lui	a5,0x40021
    1f38:	439c                	lw	a5,0(a5)
    1f3a:	00e79713          	slli	a4,a5,0xe
    1f3e:	06075963          	bgez	a4,1fb0 <SystemInit+0xea>
    1f42:	4785                	li	a5,1
    1f44:	c63e                	sw	a5,12(sp)
    1f46:	4732                	lw	a4,12(sp)
    1f48:	4785                	li	a5,1
    1f4a:	06f71163          	bne	a4,a5,1fac <SystemInit+0xe6>
    1f4e:	400217b7          	lui	a5,0x40021
    1f52:	43d8                	lw	a4,4(a5)
    1f54:	ffc106b7          	lui	a3,0xffc10
    1f58:	16fd                	addi	a3,a3,-1
    1f5a:	08076713          	ori	a4,a4,128
    1f5e:	c3d8                	sw	a4,4(a5)
    1f60:	43d8                	lw	a4,4(a5)
    1f62:	c3d8                	sw	a4,4(a5)
    1f64:	43d8                	lw	a4,4(a5)
    1f66:	40076713          	ori	a4,a4,1024
    1f6a:	c3d8                	sw	a4,4(a5)
    1f6c:	43d8                	lw	a4,4(a5)
    1f6e:	8f75                	and	a4,a4,a3
    1f70:	c3d8                	sw	a4,4(a5)
    1f72:	43d8                	lw	a4,4(a5)
    1f74:	003d06b7          	lui	a3,0x3d0
    1f78:	8f55                	or	a4,a4,a3
    1f7a:	c3d8                	sw	a4,4(a5)
    1f7c:	4398                	lw	a4,0(a5)
    1f7e:	010006b7          	lui	a3,0x1000
    1f82:	8f55                	or	a4,a4,a3
    1f84:	c398                	sw	a4,0(a5)
    1f86:	4398                	lw	a4,0(a5)
    1f88:	00671693          	slli	a3,a4,0x6
    1f8c:	fe06dde3          	bgez	a3,1f86 <SystemInit+0xc0>
    1f90:	43d8                	lw	a4,4(a5)
    1f92:	400216b7          	lui	a3,0x40021
    1f96:	9b71                	andi	a4,a4,-4
    1f98:	c3d8                	sw	a4,4(a5)
    1f9a:	43d8                	lw	a4,4(a5)
    1f9c:	00276713          	ori	a4,a4,2
    1fa0:	c3d8                	sw	a4,4(a5)
    1fa2:	4721                	li	a4,8
    1fa4:	42dc                	lw	a5,4(a3)
    1fa6:	8bb1                	andi	a5,a5,12
    1fa8:	fee79ee3          	bne	a5,a4,1fa4 <SystemInit+0xde>
    1fac:	0141                	addi	sp,sp,16
    1fae:	8082                	ret
    1fb0:	c602                	sw	zero,12(sp)
    1fb2:	bf51                	j	1f46 <SystemInit+0x80>

00001fb4 <SystemCoreClockUpdate>:
    1fb4:	400216b7          	lui	a3,0x40021
    1fb8:	42dc                	lw	a5,4(a3)
    1fba:	20000737          	lui	a4,0x20000
    1fbe:	4611                	li	a2,4
    1fc0:	8bb1                	andi	a5,a5,12
    1fc2:	58070713          	addi	a4,a4,1408 # 20000580 <SystemCoreClock>
    1fc6:	00c78563          	beq	a5,a2,1fd0 <SystemCoreClockUpdate+0x1c>
    1fca:	4621                	li	a2,8
    1fcc:	02c78863          	beq	a5,a2,1ffc <SystemCoreClockUpdate+0x48>
    1fd0:	007a17b7          	lui	a5,0x7a1
    1fd4:	20078793          	addi	a5,a5,512 # 7a1200 <_data_lma+0x793a68>
    1fd8:	c31c                	sw	a5,0(a4)
    1fda:	400217b7          	lui	a5,0x40021
    1fde:	43dc                	lw	a5,4(a5)
    1fe0:	8391                	srli	a5,a5,0x4
    1fe2:	00f7f693          	andi	a3,a5,15
    1fe6:	200007b7          	lui	a5,0x20000
    1fea:	00078793          	mv	a5,a5
    1fee:	97b6                	add	a5,a5,a3
    1ff0:	2394                	lbu	a3,0(a5)
    1ff2:	431c                	lw	a5,0(a4)
    1ff4:	00d7d7b3          	srl	a5,a5,a3
    1ff8:	c31c                	sw	a5,0(a4)
    1ffa:	8082                	ret
    1ffc:	42dc                	lw	a5,4(a3)
    1ffe:	42d4                	lw	a3,4(a3)
    2000:	6641                	lui	a2,0x10
    2002:	83c9                	srli	a5,a5,0x12
    2004:	8bbd                	andi	a5,a5,15
    2006:	8ef1                	and	a3,a3,a2
    2008:	0789                	addi	a5,a5,2
    200a:	4645                	li	a2,17
    200c:	00c79363          	bne	a5,a2,2012 <SystemCoreClockUpdate+0x5e>
    2010:	47c9                	li	a5,18
    2012:	ee81                	bnez	a3,202a <SystemCoreClockUpdate+0x76>
    2014:	400246b7          	lui	a3,0x40024
    2018:	8006a683          	lw	a3,-2048(a3) # 40023800 <__freertos_irq_stack_top+0x2001e800>
    201c:	8ac1                	andi	a3,a3,16
    201e:	ce89                	beqz	a3,2038 <SystemCoreClockUpdate+0x84>
    2020:	007a16b7          	lui	a3,0x7a1
    2024:	20068693          	addi	a3,a3,512 # 7a1200 <_data_lma+0x793a68>
    2028:	a821                	j	2040 <SystemCoreClockUpdate+0x8c>
    202a:	400216b7          	lui	a3,0x40021
    202e:	42d4                	lw	a3,4(a3)
    2030:	00e69613          	slli	a2,a3,0xe
    2034:	fe0656e3          	bgez	a2,2020 <SystemCoreClockUpdate+0x6c>
    2038:	003d16b7          	lui	a3,0x3d1
    203c:	90068693          	addi	a3,a3,-1792 # 3d0900 <_data_lma+0x3c3168>
    2040:	02d787b3          	mul	a5,a5,a3
    2044:	bf51                	j	1fd8 <SystemCoreClockUpdate+0x24>

00002046 <StartDefaultTask>:
    2046:	cbefe2ef          	jal	t0,504 <__riscv_save_4>
    204a:	1141                	addi	sp,sp,-16
    204c:	6941                	lui	s2,0x10
    204e:	00011523          	sh	zero,10(sp)
    2052:	4401                	li	s0,0
    2054:	200009b7          	lui	s3,0x20000
    2058:	4489                	li	s1,2
    205a:	4a8d                	li	s5,3
    205c:	4b0d                	li	s6,3
    205e:	197d                	addi	s2,s2,-1
    2060:	6189a783          	lw	a5,1560(s3) # 20000618 <DeafaultTaskFSM>
    2064:	61898a13          	addi	s4,s3,1560
    2068:	1a978563          	beq	a5,s1,2212 <StartDefaultTask+0x1cc>
    206c:	17578763          	beq	a5,s5,21da <StartDefaultTask+0x194>
    2070:	ffe5                	bnez	a5,2068 <StartDefaultTask+0x22>
    2072:	85ffe0ef          	jal	ra,8d0 <DataModel_Init>
    2076:	16800593          	li	a1,360
    207a:	453d                	li	a0,15
    207c:	fc4fe0ef          	jal	ra,840 <setReg16>
    2080:	4581                	li	a1,0
    2082:	4545                	li	a0,17
    2084:	fbcfe0ef          	jal	ra,840 <setReg16>
    2088:	09600593          	li	a1,150
    208c:	454d                	li	a0,19
    208e:	fb2fe0ef          	jal	ra,840 <setReg16>
    2092:	0e600593          	li	a1,230
    2096:	4555                	li	a0,21
    2098:	fa8fe0ef          	jal	ra,840 <setReg16>
    209c:	10e00593          	li	a1,270
    20a0:	455d                	li	a0,23
    20a2:	f9efe0ef          	jal	ra,840 <setReg16>
    20a6:	06e00593          	li	a1,110
    20aa:	4565                	li	a0,25
    20ac:	f94fe0ef          	jal	ra,840 <setReg16>
    20b0:	4585                	li	a1,1
    20b2:	4539                	li	a0,14
    20b4:	f9afe0ef          	jal	ra,84e <setReg8>
    20b8:	0be00593          	li	a1,190
    20bc:	04b00513          	li	a0,75
    20c0:	f80fe0ef          	jal	ra,840 <setReg16>
    20c4:	06e00593          	li	a1,110
    20c8:	04d00513          	li	a0,77
    20cc:	f74fe0ef          	jal	ra,840 <setReg16>
    20d0:	06400593          	li	a1,100
    20d4:	04f00513          	li	a0,79
    20d8:	f68fe0ef          	jal	ra,840 <setReg16>
    20dc:	0c800593          	li	a1,200
    20e0:	05100513          	li	a0,81
    20e4:	f5cfe0ef          	jal	ra,840 <setReg16>
    20e8:	4581                	li	a1,0
    20ea:	05300513          	li	a0,83
    20ee:	f52fe0ef          	jal	ra,840 <setReg16>
    20f2:	4581                	li	a1,0
    20f4:	05500513          	li	a0,85
    20f8:	f48fe0ef          	jal	ra,840 <setReg16>
    20fc:	4585                	li	a1,1
    20fe:	0c700513          	li	a0,199
    2102:	f4cfe0ef          	jal	ra,84e <setReg8>
    2106:	0be00593          	li	a1,190
    210a:	07b00513          	li	a0,123
    210e:	f32fe0ef          	jal	ra,840 <setReg16>
    2112:	06e00593          	li	a1,110
    2116:	07d00513          	li	a0,125
    211a:	f26fe0ef          	jal	ra,840 <setReg16>
    211e:	06400593          	li	a1,100
    2122:	07f00513          	li	a0,127
    2126:	f1afe0ef          	jal	ra,840 <setReg16>
    212a:	0c800593          	li	a1,200
    212e:	08100513          	li	a0,129
    2132:	f0efe0ef          	jal	ra,840 <setReg16>
    2136:	4581                	li	a1,0
    2138:	08300513          	li	a0,131
    213c:	f04fe0ef          	jal	ra,840 <setReg16>
    2140:	4581                	li	a1,0
    2142:	08500513          	li	a0,133
    2146:	efafe0ef          	jal	ra,840 <setReg16>
    214a:	4585                	li	a1,1
    214c:	0cb00513          	li	a0,203
    2150:	efefe0ef          	jal	ra,84e <setReg8>
    2154:	0be00593          	li	a1,190
    2158:	0b700513          	li	a0,183
    215c:	ee4fe0ef          	jal	ra,840 <setReg16>
    2160:	06e00593          	li	a1,110
    2164:	0b900513          	li	a0,185
    2168:	ed8fe0ef          	jal	ra,840 <setReg16>
    216c:	06400593          	li	a1,100
    2170:	0bb00513          	li	a0,187
    2174:	eccfe0ef          	jal	ra,840 <setReg16>
    2178:	0c800593          	li	a1,200
    217c:	0bd00513          	li	a0,189
    2180:	ec0fe0ef          	jal	ra,840 <setReg16>
    2184:	4581                	li	a1,0
    2186:	0bf00513          	li	a0,191
    218a:	eb6fe0ef          	jal	ra,840 <setReg16>
    218e:	4581                	li	a1,0
    2190:	0c100513          	li	a0,193
    2194:	eacfe0ef          	jal	ra,840 <setReg16>
    2198:	4585                	li	a1,1
    219a:	0d000513          	li	a0,208
    219e:	eb0fe0ef          	jal	ra,84e <setReg8>
    21a2:	4581                	li	a1,0
    21a4:	0cf00513          	li	a0,207
    21a8:	ea6fe0ef          	jal	ra,84e <setReg8>
    21ac:	003e05b7          	lui	a1,0x3e0
    21b0:	05d5                	addi	a1,a1,21
    21b2:	1e000513          	li	a0,480
    21b6:	e70fe0ef          	jal	ra,826 <setReg32>
    21ba:	007605b7          	lui	a1,0x760
    21be:	05ed                	addi	a1,a1,27
    21c0:	1dc00513          	li	a0,476
    21c4:	e62fe0ef          	jal	ra,826 <setReg32>
    21c8:	bedff0ef          	jal	ra,1db4 <vLedDriverStart>
    21cc:	ce0ff0ef          	jal	ra,16ac <InputsNotifyTaskToInit>
    21d0:	868ff0ef          	jal	ra,1238 <RedrawNotifyTaskToInit>
    21d4:	016a2023          	sw	s6,0(s4)
    21d8:	b561                	j	2060 <StartDefaultTask+0x1a>
    21da:	577d                	li	a4,-1
    21dc:	0074                	addi	a3,sp,12
    21de:	4601                	li	a2,0
    21e0:	4581                	li	a1,0
    21e2:	4501                	li	a0,0
    21e4:	498050ef          	jal	ra,767c <xTaskGenericNotifyWait>
    21e8:	47b2                	lw	a5,12(sp)
    21ea:	e6979be3          	bne	a5,s1,2060 <StartDefaultTask+0x1a>
    21ee:	864a                	mv	a2,s2
    21f0:	4581                	li	a1,0
    21f2:	4501                	li	a0,0
    21f4:	10b050ef          	jal	ra,7afe <ulTaskGenericNotifyValueClear>
    21f8:	bfefe0ef          	jal	ra,5f6 <xCanOpenProcessTaskHandle>
    21fc:	4108                	lw	a0,0(a0)
    21fe:	09f040ef          	jal	ra,6a9c <vTaskResume>
    2202:	bfefe0ef          	jal	ra,600 <xCanOpenPeriodicTaskHandle>
    2206:	4108                	lw	a0,0(a0)
    2208:	095040ef          	jal	ra,6a9c <vTaskResume>
    220c:	009a2023          	sw	s1,0(s4)
    2210:	bd81                	j	2060 <StartDefaultTask+0x1a>
    2212:	4609                	li	a2,2
    2214:	00a10593          	addi	a1,sp,10
    2218:	20600513          	li	a0,518
    221c:	e3cfe0ef          	jal	ra,858 <setReg>
    2220:	0ff47593          	andi	a1,s0,255
    2224:	20800513          	li	a0,520
    2228:	e26fe0ef          	jal	ra,84e <setReg8>
    222c:	1f400513          	li	a0,500
    2230:	4ad040ef          	jal	ra,6edc <vTaskDelay>
    2234:	853c                	lhu	a5,10(sp)
    2236:	4725                	li	a4,9
    2238:	0785                	addi	a5,a5,1
    223a:	07c2                	slli	a5,a5,0x10
    223c:	83c1                	srli	a5,a5,0x10
    223e:	00f76e63          	bltu	a4,a5,225a <StartDefaultTask+0x214>
    2242:	857c                	sh	a5,10(sp)
    2244:	0429                	addi	s0,s0,10
    2246:	0442                	slli	s0,s0,0x10
    2248:	8041                	srli	s0,s0,0x10
    224a:	17100793          	li	a5,369
    224e:	0087f363          	bgeu	a5,s0,2254 <StartDefaultTask+0x20e>
    2252:	4401                	li	s0,0
    2254:	67e030ef          	jal	ra,58d2 <HAL_WDTReset>
    2258:	b521                	j	2060 <StartDefaultTask+0x1a>
    225a:	00011523          	sh	zero,10(sp)
    225e:	b7dd                	j	2244 <StartDefaultTask+0x1fe>

00002260 <vApplicationGetIdleTaskMemory>:
    2260:	200037b7          	lui	a5,0x20003
    2264:	88c78793          	addi	a5,a5,-1908 # 2000288c <xIdleTaskTCB>
    2268:	c11c                	sw	a5,0(a0)
    226a:	200027b7          	lui	a5,0x20002
    226e:	48c78793          	addi	a5,a5,1164 # 2000248c <uxIdleTaskStack>
    2272:	c19c                	sw	a5,0(a1)
    2274:	08000793          	li	a5,128
    2278:	c21c                	sw	a5,0(a2)
    227a:	8082                	ret

0000227c <vApplicationGetTimerTaskMemory>:
    227c:	200037b7          	lui	a5,0x20003
    2280:	93078793          	addi	a5,a5,-1744 # 20002930 <xTimerTaskTCB>
    2284:	c11c                	sw	a5,0(a0)
    2286:	200027b7          	lui	a5,0x20002
    228a:	68c78793          	addi	a5,a5,1676 # 2000268c <uxTimerTaskStack>
    228e:	c19c                	sw	a5,0(a1)
    2290:	08000793          	li	a5,128
    2294:	c21c                	sw	a5,0(a2)
    2296:	8082                	ret

00002298 <vSYStaskInit>:
    2298:	a86fe2ef          	jal	t0,51e <__riscv_save_0>
    229c:	fb2ff0ef          	jal	ra,1a4e <xKeyboardProcessTaskHandle>
    22a0:	842a                	mv	s0,a0
    22a2:	20002837          	lui	a6,0x20002
    22a6:	200027b7          	lui	a5,0x20002
    22aa:	0000d5b7          	lui	a1,0xd
    22ae:	00002537          	lui	a0,0x2
    22b2:	d5880813          	addi	a6,a6,-680 # 20001d58 <KeyboardTaskControlBlock>
    22b6:	b5878793          	addi	a5,a5,-1192 # 20001b58 <KeyboardTaskBuffer>
    22ba:	4715                	li	a4,5
    22bc:	4685                	li	a3,1
    22be:	08000613          	li	a2,128
    22c2:	c7c58593          	addi	a1,a1,-900 # cc7c <DigitMask+0x2c>
    22c6:	a9a50513          	addi	a0,a0,-1382 # 1a9a <vKeyboardTask>
    22ca:	72c040ef          	jal	ra,69f6 <xTaskCreateStatic>
    22ce:	c008                	sw	a0,0(s0)
    22d0:	adbfe0ef          	jal	ra,daa <xProcessTaskHandle>
    22d4:	842a                	mv	s0,a0
    22d6:	20002837          	lui	a6,0x20002
    22da:	200027b7          	lui	a5,0x20002
    22de:	0000d5b7          	lui	a1,0xd
    22e2:	00001537          	lui	a0,0x1
    22e6:	1b480813          	addi	a6,a6,436 # 200021b4 <ProcessTaskControlBlock>
    22ea:	db478793          	addi	a5,a5,-588 # 20001db4 <ProcessTaskBuffer>
    22ee:	4729                	li	a4,10
    22f0:	4685                	li	a3,1
    22f2:	10000613          	li	a2,256
    22f6:	c8c58593          	addi	a1,a1,-884 # cc8c <DigitMask+0x3c>
    22fa:	26050513          	addi	a0,a0,608 # 1260 <vRedrawTask>
    22fe:	6f8040ef          	jal	ra,69f6 <xTaskCreateStatic>
    2302:	c008                	sw	a0,0(s0)
    2304:	afcfe0ef          	jal	ra,600 <xCanOpenPeriodicTaskHandle>
    2308:	842a                	mv	s0,a0
    230a:	0000d5b7          	lui	a1,0xd
    230e:	00000537          	lui	a0,0x0
    2312:	fd418813          	addi	a6,gp,-44 # 20000d54 <CanOpnePeriodicTaskControlBlock>
    2316:	bd418793          	addi	a5,gp,-1068 # 20000954 <CanOpnePeriodicTaskBuffer>
    231a:	4715                	li	a4,5
    231c:	4685                	li	a3,1
    231e:	10000613          	li	a2,256
    2322:	c9858593          	addi	a1,a1,-872 # cc98 <DigitMask+0x48>
    2326:	7a450513          	addi	a0,a0,1956 # 7a4 <vCanOpenPeriodicProcess>
    232a:	6cc040ef          	jal	ra,69f6 <xTaskCreateStatic>
    232e:	c008                	sw	a0,0(s0)
    2330:	ac6fe0ef          	jal	ra,5f6 <xCanOpenProcessTaskHandle>
    2334:	842a                	mv	s0,a0
    2336:	20002837          	lui	a6,0x20002
    233a:	200017b7          	lui	a5,0x20001
    233e:	0000d5b7          	lui	a1,0xd
    2342:	00000537          	lui	a0,0x0
    2346:	8a080813          	addi	a6,a6,-1888 # 200018a0 <CanOpneProccesTaskControlBlock>
    234a:	db078793          	addi	a5,a5,-592 # 20000db0 <CanOpneProccesTaskBuffer>
    234e:	471d                	li	a4,7
    2350:	4685                	li	a3,1
    2352:	2bc00613          	li	a2,700
    2356:	ca858593          	addi	a1,a1,-856 # cca8 <DigitMask+0x58>
    235a:	61450513          	addi	a0,a0,1556 # 614 <vCanOpenProcess>
    235e:	698040ef          	jal	ra,69f6 <xTaskCreateStatic>
    2362:	c008                	sw	a0,0(s0)
    2364:	b3eff0ef          	jal	ra,16a2 <getInputsTaskHandle>
    2368:	842a                	mv	s0,a0
    236a:	20002837          	lui	a6,0x20002
    236e:	200027b7          	lui	a5,0x20002
    2372:	0000d5b7          	lui	a1,0xd
    2376:	00002537          	lui	a0,0x2
    237a:	afc80813          	addi	a6,a6,-1284 # 20001afc <InputsTaskControlBlock>
    237e:	8fc78793          	addi	a5,a5,-1796 # 200018fc <InputsTaskBuffer>
    2382:	470d                	li	a4,3
    2384:	4685                	li	a3,1
    2386:	08000613          	li	a2,128
    238a:	cbc58593          	addi	a1,a1,-836 # ccbc <DigitMask+0x6c>
    238e:	80e50513          	addi	a0,a0,-2034 # 180e <vInputsTask>
    2392:	664040ef          	jal	ra,69f6 <xTaskCreateStatic>
    2396:	c008                	sw	a0,0(s0)
    2398:	20002837          	lui	a6,0x20002
    239c:	200027b7          	lui	a5,0x20002
    23a0:	0000d5b7          	lui	a1,0xd
    23a4:	00002537          	lui	a0,0x2
    23a8:	41080813          	addi	a6,a6,1040 # 20002410 <defaultTaskControlBlock>
    23ac:	21078793          	addi	a5,a5,528 # 20002210 <defaultTaskBuffer>
    23b0:	470d                	li	a4,3
    23b2:	4685                	li	a3,1
    23b4:	08000613          	li	a2,128
    23b8:	cc858593          	addi	a1,a1,-824 # ccc8 <DigitMask+0x78>
    23bc:	04650513          	addi	a0,a0,70 # 2046 <StartDefaultTask>
    23c0:	636040ef          	jal	ra,69f6 <xTaskCreateStatic>
    23c4:	a3cfe0ef          	jal	ra,600 <xCanOpenPeriodicTaskHandle>
    23c8:	4108                	lw	a0,0(a0)
    23ca:	40f040ef          	jal	ra,6fd8 <vTaskSuspend>
    23ce:	a28fe0ef          	jal	ra,5f6 <xCanOpenProcessTaskHandle>
    23d2:	4108                	lw	a0,0(a0)
    23d4:	405040ef          	jal	ra,6fd8 <vTaskSuspend>
    23d8:	96afe06f          	j	542 <__riscv_restore_0>

000023dc <vSYSqueueInit>:
    23dc:	942fe2ef          	jal	t0,51e <__riscv_save_0>
    23e0:	469010ef          	jal	ra,4048 <xKeyboardQueue>
    23e4:	200036b7          	lui	a3,0x20003
    23e8:	20002637          	lui	a2,0x20002
    23ec:	842a                	mv	s0,a0
    23ee:	4701                	li	a4,0
    23f0:	8e868693          	addi	a3,a3,-1816 # 200028e8 <xStaticQueue>
    23f4:	46c60613          	addi	a2,a2,1132 # 2000246c <ucQueueStorageArea>
    23f8:	4589                	li	a1,2
    23fa:	4541                	li	a0,16
    23fc:	37d030ef          	jal	ra,5f78 <xQueueGenericCreateStatic>
    2400:	c008                	sw	a0,0(s0)
    2402:	940fe06f          	j	542 <__riscv_restore_0>

00002406 <vSYSeventInit>:
    2406:	8082                	ret
    2408:	a001                	j	2408 <vSYSeventInit+0x2>
    240a:	a001                	j	240a <vSYSeventInit+0x4>

0000240c <Ecall_M_Mode_Handler>:
    240c:	a001                	j	240c <Ecall_M_Mode_Handler>

0000240e <Ecall_U_Mode_Handler>:
    240e:	a001                	j	240e <Ecall_U_Mode_Handler>

00002410 <Break_Point_Handler>:
    2410:	a001                	j	2410 <Break_Point_Handler>
    2412:	a001                	j	2412 <Break_Point_Handler+0x2>
    2414:	a001                	j	2414 <Break_Point_Handler+0x4>

00002416 <WWDG_IRQHandler>:
    2416:	a001                	j	2416 <WWDG_IRQHandler>

00002418 <PVD_IRQHandler>:
    2418:	a001                	j	2418 <PVD_IRQHandler>

0000241a <TAMPER_IRQHandler>:
    241a:	a001                	j	241a <TAMPER_IRQHandler>
    241c:	a001                	j	241c <TAMPER_IRQHandler+0x2>

0000241e <FLASH_IRQHandler>:
    241e:	a001                	j	241e <FLASH_IRQHandler>

00002420 <RCC_IRQHandler>:
    2420:	a001                	j	2420 <RCC_IRQHandler>

00002422 <EXTI0_IRQHandler>:
    2422:	a001                	j	2422 <EXTI0_IRQHandler>

00002424 <EXTI1_IRQHandler>:
    2424:	a001                	j	2424 <EXTI1_IRQHandler>

00002426 <EXTI2_IRQHandler>:
    2426:	a001                	j	2426 <EXTI2_IRQHandler>

00002428 <EXTI3_IRQHandler>:
    2428:	a001                	j	2428 <EXTI3_IRQHandler>

0000242a <EXTI4_IRQHandler>:
    242a:	a001                	j	242a <EXTI4_IRQHandler>
    242c:	a001                	j	242c <EXTI4_IRQHandler+0x2>

0000242e <DMA1_Channel2_IRQHandler>:
    242e:	a001                	j	242e <DMA1_Channel2_IRQHandler>
    2430:	a001                	j	2430 <DMA1_Channel2_IRQHandler+0x2>
    2432:	a001                	j	2432 <DMA1_Channel2_IRQHandler+0x4>
    2434:	a001                	j	2434 <DMA1_Channel2_IRQHandler+0x6>

00002436 <DMA1_Channel6_IRQHandler>:
    2436:	a001                	j	2436 <DMA1_Channel6_IRQHandler>
    2438:	a001                	j	2438 <DMA1_Channel6_IRQHandler+0x2>
    243a:	a001                	j	243a <DMA1_Channel6_IRQHandler+0x4>
    243c:	a001                	j	243c <DMA1_Channel6_IRQHandler+0x6>
    243e:	a001                	j	243e <DMA1_Channel6_IRQHandler+0x8>
    2440:	a001                	j	2440 <DMA1_Channel6_IRQHandler+0xa>
    2442:	a001                	j	2442 <DMA1_Channel6_IRQHandler+0xc>

00002444 <EXTI9_5_IRQHandler>:
    2444:	a001                	j	2444 <EXTI9_5_IRQHandler>

00002446 <TIM1_BRK_IRQHandler>:
    2446:	a001                	j	2446 <TIM1_BRK_IRQHandler>
    2448:	a001                	j	2448 <TIM1_BRK_IRQHandler+0x2>

0000244a <TIM1_TRG_COM_IRQHandler>:
    244a:	a001                	j	244a <TIM1_TRG_COM_IRQHandler>

0000244c <TIM1_CC_IRQHandler>:
    244c:	a001                	j	244c <TIM1_CC_IRQHandler>
    244e:	a001                	j	244e <TIM1_CC_IRQHandler+0x2>
    2450:	a001                	j	2450 <TIM1_CC_IRQHandler+0x4>
    2452:	a001                	j	2452 <TIM1_CC_IRQHandler+0x6>
    2454:	a001                	j	2454 <TIM1_CC_IRQHandler+0x8>
    2456:	a001                	j	2456 <TIM1_CC_IRQHandler+0xa>
    2458:	a001                	j	2458 <TIM1_CC_IRQHandler+0xc>
    245a:	a001                	j	245a <TIM1_CC_IRQHandler+0xe>

0000245c <SPI1_IRQHandler>:
    245c:	a001                	j	245c <SPI1_IRQHandler>

0000245e <SPI2_IRQHandler>:
    245e:	a001                	j	245e <SPI2_IRQHandler>

00002460 <USART1_IRQHandler>:
    2460:	a001                	j	2460 <USART1_IRQHandler>

00002462 <USART2_IRQHandler>:
    2462:	a001                	j	2462 <USART2_IRQHandler>

00002464 <USART3_IRQHandler>:
    2464:	a001                	j	2464 <USART3_IRQHandler>

00002466 <EXTI15_10_IRQHandler>:
    2466:	a001                	j	2466 <EXTI15_10_IRQHandler>

00002468 <RTCAlarm_IRQHandler>:
    2468:	a001                	j	2468 <RTCAlarm_IRQHandler>

0000246a <USBWakeUp_IRQHandler>:
    246a:	a001                	j	246a <USBWakeUp_IRQHandler>

0000246c <USBHD_IRQHandler>:
    246c:	a001                	j	246c <USBHD_IRQHandler>

0000246e <USBHDWakeUp_IRQHandler>:
    246e:	a001                	j	246e <USBHDWakeUp_IRQHandler>

00002470 <UART4_IRQHandler>:
    2470:	a001                	j	2470 <UART4_IRQHandler>

00002472 <DMA1_Channel8_IRQHandler>:
    2472:	a001                	j	2472 <DMA1_Channel8_IRQHandler>

00002474 <handle_reset>:
    2474:	1ffff197          	auipc	gp,0x1ffff
    2478:	90c18193          	addi	gp,gp,-1780 # 20000d80 <__global_pointer$>
    247c:	20003117          	auipc	sp,0x20003
    2480:	b8410113          	addi	sp,sp,-1148 # 20005000 <__freertos_irq_stack_top>
    2484:	0000b517          	auipc	a0,0xb
    2488:	31450513          	addi	a0,a0,788 # d798 <_data_lma>
    248c:	1fffe597          	auipc	a1,0x1fffe
    2490:	b7458593          	addi	a1,a1,-1164 # 20000000 <_data_vma>
    2494:	84018613          	addi	a2,gp,-1984 # 200005c0 <_edata>
    2498:	00c5fa63          	bgeu	a1,a2,24ac <handle_reset+0x38>
    249c:	00052283          	lw	t0,0(a0)
    24a0:	0055a023          	sw	t0,0(a1)
    24a4:	0511                	addi	a0,a0,4
    24a6:	0591                	addi	a1,a1,4
    24a8:	fec5eae3          	bltu	a1,a2,249c <handle_reset+0x28>
    24ac:	1fffe517          	auipc	a0,0x1fffe
    24b0:	11450513          	addi	a0,a0,276 # 200005c0 <_edata>
    24b4:	20001597          	auipc	a1,0x20001
    24b8:	d4c58593          	addi	a1,a1,-692 # 20003200 <_ebss>
    24bc:	00b57763          	bgeu	a0,a1,24ca <handle_reset+0x56>
    24c0:	00052023          	sw	zero,0(a0)
    24c4:	0511                	addi	a0,a0,4
    24c6:	feb56de3          	bltu	a0,a1,24c0 <handle_reset+0x4c>
    24ca:	42fd                	li	t0,31
    24cc:	bc029073          	csrw	0xbc0,t0
    24d0:	4289                	li	t0,2
    24d2:	80429073          	csrw	0x804,t0
    24d6:	000022b7          	lui	t0,0x2
    24da:	80028293          	addi	t0,t0,-2048 # 1800 <xGetAin+0x44>
    24de:	3002a073          	csrs	mstatus,t0
    24e2:	ffffe297          	auipc	t0,0xffffe
    24e6:	b5628293          	addi	t0,t0,-1194 # 38 <_einit>
    24ea:	0032e293          	ori	t0,t0,3
    24ee:	30529073          	csrw	mtvec,t0
    24f2:	9d5ff0ef          	jal	ra,1ec6 <SystemInit>
    24f6:	00000297          	auipc	t0,0x0
    24fa:	98428293          	addi	t0,t0,-1660 # 1e7a <main>
    24fe:	34129073          	csrw	mepc,t0
    2502:	30200073          	mret

00002506 <ADC_DeInit>:
    2506:	818fe2ef          	jal	t0,51e <__riscv_save_0>
    250a:	400127b7          	lui	a5,0x40012
    250e:	40078793          	addi	a5,a5,1024 # 40012400 <__freertos_irq_stack_top+0x2000d400>
    2512:	00f51e63          	bne	a0,a5,252e <ADC_DeInit+0x28>
    2516:	4585                	li	a1,1
    2518:	20000513          	li	a0,512
    251c:	00e010ef          	jal	ra,352a <RCC_APB2PeriphResetCmd>
    2520:	4581                	li	a1,0
    2522:	20000513          	li	a0,512
    2526:	004010ef          	jal	ra,352a <RCC_APB2PeriphResetCmd>
    252a:	818fe06f          	j	542 <__riscv_restore_0>
    252e:	400137b7          	lui	a5,0x40013
    2532:	80078793          	addi	a5,a5,-2048 # 40012800 <__freertos_irq_stack_top+0x2000d800>
    2536:	fef51ae3          	bne	a0,a5,252a <ADC_DeInit+0x24>
    253a:	4585                	li	a1,1
    253c:	40000513          	li	a0,1024
    2540:	7eb000ef          	jal	ra,352a <RCC_APB2PeriphResetCmd>
    2544:	4581                	li	a1,0
    2546:	40000513          	li	a0,1024
    254a:	bff1                	j	2526 <ADC_DeInit+0x20>

0000254c <ADC_Init>:
    254c:	415c                	lw	a5,4(a0)
    254e:	e0f10737          	lui	a4,0xe0f10
    2552:	eff70713          	addi	a4,a4,-257 # e0f0feff <__freertos_irq_stack_top+0xc0f0aeff>
    2556:	4d94                	lw	a3,24(a1)
    2558:	8f7d                	and	a4,a4,a5
    255a:	419c                	lw	a5,0(a1)
    255c:	8fd5                	or	a5,a5,a3
    255e:	4dd4                	lw	a3,28(a1)
    2560:	8fd5                	or	a5,a5,a3
    2562:	41d4                	lw	a3,4(a1)
    2564:	06a2                	slli	a3,a3,0x8
    2566:	8fd5                	or	a5,a5,a3
    2568:	8fd9                	or	a5,a5,a4
    256a:	c15c                	sw	a5,4(a0)
    256c:	451c                	lw	a5,8(a0)
    256e:	fff1f737          	lui	a4,0xfff1f
    2572:	7fd70713          	addi	a4,a4,2045 # fff1f7fd <__freertos_irq_stack_top+0xdff1a7fd>
    2576:	45d4                	lw	a3,12(a1)
    2578:	8f7d                	and	a4,a4,a5
    257a:	499c                	lw	a5,16(a1)
    257c:	8fd5                	or	a5,a5,a3
    257e:	4594                	lw	a3,8(a1)
    2580:	0686                	slli	a3,a3,0x1
    2582:	8fd5                	or	a5,a5,a3
    2584:	8fd9                	or	a5,a5,a4
    2586:	c51c                	sw	a5,8(a0)
    2588:	555c                	lw	a5,44(a0)
    258a:	ff100737          	lui	a4,0xff100
    258e:	177d                	addi	a4,a4,-1
    2590:	8f7d                	and	a4,a4,a5
    2592:	29dc                	lbu	a5,20(a1)
    2594:	17fd                	addi	a5,a5,-1
    2596:	0ff7f793          	andi	a5,a5,255
    259a:	07d2                	slli	a5,a5,0x14
    259c:	8fd9                	or	a5,a5,a4
    259e:	d55c                	sw	a5,44(a0)
    25a0:	8082                	ret

000025a2 <ADC_Cmd>:
    25a2:	451c                	lw	a5,8(a0)
    25a4:	c589                	beqz	a1,25ae <ADC_Cmd+0xc>
    25a6:	0017e793          	ori	a5,a5,1
    25aa:	c51c                	sw	a5,8(a0)
    25ac:	8082                	ret
    25ae:	9bf9                	andi	a5,a5,-2
    25b0:	bfed                	j	25aa <ADC_Cmd+0x8>

000025b2 <ADC_DMACmd>:
    25b2:	451c                	lw	a5,8(a0)
    25b4:	c589                	beqz	a1,25be <ADC_DMACmd+0xc>
    25b6:	1007e793          	ori	a5,a5,256
    25ba:	c51c                	sw	a5,8(a0)
    25bc:	8082                	ret
    25be:	eff7f793          	andi	a5,a5,-257
    25c2:	bfe5                	j	25ba <ADC_DMACmd+0x8>

000025c4 <ADC_ResetCalibration>:
    25c4:	451c                	lw	a5,8(a0)
    25c6:	0087e793          	ori	a5,a5,8
    25ca:	c51c                	sw	a5,8(a0)
    25cc:	8082                	ret

000025ce <ADC_GetResetCalibrationStatus>:
    25ce:	4508                	lw	a0,8(a0)
    25d0:	810d                	srli	a0,a0,0x3
    25d2:	8905                	andi	a0,a0,1
    25d4:	8082                	ret

000025d6 <ADC_StartCalibration>:
    25d6:	451c                	lw	a5,8(a0)
    25d8:	0047e793          	ori	a5,a5,4
    25dc:	c51c                	sw	a5,8(a0)
    25de:	8082                	ret

000025e0 <ADC_GetCalibrationStatus>:
    25e0:	4508                	lw	a0,8(a0)
    25e2:	8109                	srli	a0,a0,0x2
    25e4:	8905                	andi	a0,a0,1
    25e6:	8082                	ret

000025e8 <ADC_SoftwareStartConvCmd>:
    25e8:	451c                	lw	a5,8(a0)
    25ea:	c591                	beqz	a1,25f6 <ADC_SoftwareStartConvCmd+0xe>
    25ec:	00500737          	lui	a4,0x500
    25f0:	8fd9                	or	a5,a5,a4
    25f2:	c51c                	sw	a5,8(a0)
    25f4:	8082                	ret
    25f6:	ffb00737          	lui	a4,0xffb00
    25fa:	177d                	addi	a4,a4,-1
    25fc:	8ff9                	and	a5,a5,a4
    25fe:	bfd5                	j	25f2 <ADC_SoftwareStartConvCmd+0xa>

00002600 <ADC_RegularChannelConfig>:
    2600:	47a5                	li	a5,9
    2602:	04b7f763          	bgeu	a5,a1,2650 <ADC_RegularChannelConfig+0x50>
    2606:	478d                	li	a5,3
    2608:	ff658713          	addi	a4,a1,-10
    260c:	02f70733          	mul	a4,a4,a5
    2610:	00c52803          	lw	a6,12(a0)
    2614:	479d                	li	a5,7
    2616:	00e797b3          	sll	a5,a5,a4
    261a:	fff7c793          	not	a5,a5
    261e:	0107f7b3          	and	a5,a5,a6
    2622:	00e696b3          	sll	a3,a3,a4
    2626:	8edd                	or	a3,a3,a5
    2628:	c554                	sw	a3,12(a0)
    262a:	4799                	li	a5,6
    262c:	04c7e363          	bltu	a5,a2,2672 <ADC_RegularChannelConfig+0x72>
    2630:	4795                	li	a5,5
    2632:	167d                	addi	a2,a2,-1
    2634:	02f60633          	mul	a2,a2,a5
    2638:	5958                	lw	a4,52(a0)
    263a:	47fd                	li	a5,31
    263c:	00c797b3          	sll	a5,a5,a2
    2640:	fff7c793          	not	a5,a5
    2644:	8ff9                	and	a5,a5,a4
    2646:	00c59633          	sll	a2,a1,a2
    264a:	8e5d                	or	a2,a2,a5
    264c:	d950                	sw	a2,52(a0)
    264e:	8082                	ret
    2650:	470d                	li	a4,3
    2652:	02e58733          	mul	a4,a1,a4
    2656:	01052803          	lw	a6,16(a0)
    265a:	479d                	li	a5,7
    265c:	00e797b3          	sll	a5,a5,a4
    2660:	fff7c793          	not	a5,a5
    2664:	0107f7b3          	and	a5,a5,a6
    2668:	00e696b3          	sll	a3,a3,a4
    266c:	8edd                	or	a3,a3,a5
    266e:	c914                	sw	a3,16(a0)
    2670:	bf6d                	j	262a <ADC_RegularChannelConfig+0x2a>
    2672:	47b1                	li	a5,12
    2674:	02c7e263          	bltu	a5,a2,2698 <ADC_RegularChannelConfig+0x98>
    2678:	4795                	li	a5,5
    267a:	1665                	addi	a2,a2,-7
    267c:	02f60633          	mul	a2,a2,a5
    2680:	5918                	lw	a4,48(a0)
    2682:	47fd                	li	a5,31
    2684:	00c797b3          	sll	a5,a5,a2
    2688:	fff7c793          	not	a5,a5
    268c:	8ff9                	and	a5,a5,a4
    268e:	00c59633          	sll	a2,a1,a2
    2692:	8e5d                	or	a2,a2,a5
    2694:	d910                	sw	a2,48(a0)
    2696:	8082                	ret
    2698:	4795                	li	a5,5
    269a:	164d                	addi	a2,a2,-13
    269c:	02f60633          	mul	a2,a2,a5
    26a0:	5558                	lw	a4,44(a0)
    26a2:	47fd                	li	a5,31
    26a4:	00c797b3          	sll	a5,a5,a2
    26a8:	fff7c793          	not	a5,a5
    26ac:	8ff9                	and	a5,a5,a4
    26ae:	00c595b3          	sll	a1,a1,a2
    26b2:	8ddd                	or	a1,a1,a5
    26b4:	d54c                	sw	a1,44(a0)
    26b6:	8082                	ret

000026b8 <ADC_ExternalTrigConvCmd>:
    26b8:	451c                	lw	a5,8(a0)
    26ba:	c591                	beqz	a1,26c6 <ADC_ExternalTrigConvCmd+0xe>
    26bc:	00100737          	lui	a4,0x100
    26c0:	8fd9                	or	a5,a5,a4
    26c2:	c51c                	sw	a5,8(a0)
    26c4:	8082                	ret
    26c6:	fff00737          	lui	a4,0xfff00
    26ca:	177d                	addi	a4,a4,-1
    26cc:	8ff9                	and	a5,a5,a4
    26ce:	bfd5                	j	26c2 <ADC_ExternalTrigConvCmd+0xa>

000026d0 <ADC_GetITStatus>:
    26d0:	4158                	lw	a4,4(a0)
    26d2:	4114                	lw	a3,0(a0)
    26d4:	0085d793          	srli	a5,a1,0x8
    26d8:	8ff5                	and	a5,a5,a3
    26da:	c799                	beqz	a5,26e8 <ADC_GetITStatus+0x18>
    26dc:	0ff5f513          	andi	a0,a1,255
    26e0:	8d79                	and	a0,a0,a4
    26e2:	00a03533          	snez	a0,a0
    26e6:	8082                	ret
    26e8:	4501                	li	a0,0
    26ea:	8082                	ret

000026ec <ADC_ClearITPendingBit>:
    26ec:	81a1                	srli	a1,a1,0x8
    26ee:	fff5c593          	not	a1,a1
    26f2:	c10c                	sw	a1,0(a0)
    26f4:	8082                	ret

000026f6 <ADC_BufferCmd>:
    26f6:	415c                	lw	a5,4(a0)
    26f8:	c591                	beqz	a1,2704 <ADC_BufferCmd+0xe>
    26fa:	04000737          	lui	a4,0x4000
    26fe:	8fd9                	or	a5,a5,a4
    2700:	c15c                	sw	a5,4(a0)
    2702:	8082                	ret
    2704:	fc000737          	lui	a4,0xfc000
    2708:	177d                	addi	a4,a4,-1
    270a:	8ff9                	and	a5,a5,a4
    270c:	bfd5                	j	2700 <ADC_BufferCmd+0xa>

0000270e <Get_CalibrationValue>:
    270e:	e11fd2ef          	jal	t0,51e <__riscv_save_0>
    2712:	1101                	addi	sp,sp,-32
    2714:	842a                	mv	s0,a0
    2716:	00010323          	sb	zero,6(sp)
    271a:	44a5                	li	s1,9
    271c:	831c                	lbu	a5,6(sp)
    271e:	06f4fa63          	bgeu	s1,a5,2792 <Get_CalibrationValue+0x84>
    2722:	00010323          	sb	zero,6(sp)
    2726:	46a5                	li	a3,9
    2728:	4621                	li	a2,8
    272a:	831c                	lbu	a5,6(sp)
    272c:	0af6f063          	bgeu	a3,a5,27cc <Get_CalibrationValue+0xbe>
    2730:	00011423          	sh	zero,8(sp)
    2734:	00011523          	sh	zero,10(sp)
    2738:	00010323          	sb	zero,6(sp)
    273c:	4695                	li	a3,5
    273e:	60000613          	li	a2,1536
    2742:	831c                	lbu	a5,6(sp)
    2744:	0ef6fe63          	bgeu	a3,a5,2840 <Get_CalibrationValue+0x132>
    2748:	831c                	lbu	a5,6(sp)
    274a:	0ff7f793          	andi	a5,a5,255
    274e:	12078463          	beqz	a5,2876 <Get_CalibrationValue+0x168>
    2752:	8438                	lhu	a4,8(sp)
    2754:	8314                	lbu	a3,6(sp)
    2756:	843c                	lhu	a5,8(sp)
    2758:	830c                	lbu	a1,6(sp)
    275a:	8310                	lbu	a2,6(sp)
    275c:	02d74733          	div	a4,a4,a3
    2760:	02b7e7b3          	rem	a5,a5,a1
    2764:	0786                	slli	a5,a5,0x1
    2766:	02c7c7b3          	div	a5,a5,a2
    276a:	97ba                	add	a5,a5,a4
    276c:	07c2                	slli	a5,a5,0x10
    276e:	83c1                	srli	a5,a5,0x10
    2770:	847c                	sh	a5,8(sp)
    2772:	8318                	lbu	a4,6(sp)
    2774:	4799                	li	a5,6
    2776:	4695                	li	a3,5
    2778:	8f99                	sub	a5,a5,a4
    277a:	0ff7f793          	andi	a5,a5,255
    277e:	83dc                	sb	a5,7(sp)
    2780:	839c                	lbu	a5,7(sp)
    2782:	0ff7f793          	andi	a5,a5,255
    2786:	10079c63          	bnez	a5,289e <Get_CalibrationValue+0x190>
    278a:	6785                	lui	a5,0x1
    278c:	80078793          	addi	a5,a5,-2048 # 800 <__stack_size>
    2790:	aa0d                	j	28c2 <Get_CalibrationValue+0x1b4>
    2792:	441c                	lw	a5,8(s0)
    2794:	0087e793          	ori	a5,a5,8
    2798:	c41c                	sw	a5,8(s0)
    279a:	8522                	mv	a0,s0
    279c:	e33ff0ef          	jal	ra,25ce <ADC_GetResetCalibrationStatus>
    27a0:	fd6d                	bnez	a0,279a <Get_CalibrationValue+0x8c>
    27a2:	441c                	lw	a5,8(s0)
    27a4:	0047e793          	ori	a5,a5,4
    27a8:	c41c                	sw	a5,8(s0)
    27aa:	8522                	mv	a0,s0
    27ac:	e35ff0ef          	jal	ra,25e0 <ADC_GetCalibrationStatus>
    27b0:	fd6d                	bnez	a0,27aa <Get_CalibrationValue+0x9c>
    27b2:	4478                	lw	a4,76(s0)
    27b4:	831c                	lbu	a5,6(sp)
    27b6:	1014                	addi	a3,sp,32
    27b8:	0786                	slli	a5,a5,0x1
    27ba:	97b6                	add	a5,a5,a3
    27bc:	fee79623          	sh	a4,-20(a5)
    27c0:	831c                	lbu	a5,6(sp)
    27c2:	0785                	addi	a5,a5,1
    27c4:	0ff7f793          	andi	a5,a5,255
    27c8:	835c                	sb	a5,6(sp)
    27ca:	bf89                	j	271c <Get_CalibrationValue+0xe>
    27cc:	000103a3          	sb	zero,7(sp)
    27d0:	839c                	lbu	a5,7(sp)
    27d2:	00f67863          	bgeu	a2,a5,27e2 <Get_CalibrationValue+0xd4>
    27d6:	831c                	lbu	a5,6(sp)
    27d8:	0785                	addi	a5,a5,1
    27da:	0ff7f793          	andi	a5,a5,255
    27de:	835c                	sb	a5,6(sp)
    27e0:	b7a9                	j	272a <Get_CalibrationValue+0x1c>
    27e2:	8398                	lbu	a4,7(sp)
    27e4:	839c                	lbu	a5,7(sp)
    27e6:	100c                	addi	a1,sp,32
    27e8:	0706                	slli	a4,a4,0x1
    27ea:	0785                	addi	a5,a5,1
    27ec:	0786                	slli	a5,a5,0x1
    27ee:	972e                	add	a4,a4,a1
    27f0:	97ae                	add	a5,a5,a1
    27f2:	fec75703          	lhu	a4,-20(a4) # fbffffec <__freertos_irq_stack_top+0xdbffafec>
    27f6:	fec7d783          	lhu	a5,-20(a5)
    27fa:	02e7fd63          	bgeu	a5,a4,2834 <Get_CalibrationValue+0x126>
    27fe:	839c                	lbu	a5,7(sp)
    2800:	0786                	slli	a5,a5,0x1
    2802:	97ae                	add	a5,a5,a1
    2804:	fec7d783          	lhu	a5,-20(a5)
    2808:	847c                	sh	a5,8(sp)
    280a:	839c                	lbu	a5,7(sp)
    280c:	8398                	lbu	a4,7(sp)
    280e:	0785                	addi	a5,a5,1
    2810:	0786                	slli	a5,a5,0x1
    2812:	97ae                	add	a5,a5,a1
    2814:	fec7d583          	lhu	a1,-20(a5)
    2818:	00171793          	slli	a5,a4,0x1
    281c:	1018                	addi	a4,sp,32
    281e:	97ba                	add	a5,a5,a4
    2820:	feb79623          	sh	a1,-20(a5)
    2824:	839c                	lbu	a5,7(sp)
    2826:	8438                	lhu	a4,8(sp)
    2828:	100c                	addi	a1,sp,32
    282a:	0785                	addi	a5,a5,1
    282c:	0786                	slli	a5,a5,0x1
    282e:	97ae                	add	a5,a5,a1
    2830:	fee79623          	sh	a4,-20(a5)
    2834:	839c                	lbu	a5,7(sp)
    2836:	0785                	addi	a5,a5,1
    2838:	0ff7f793          	andi	a5,a5,255
    283c:	83dc                	sb	a5,7(sp)
    283e:	bf49                	j	27d0 <Get_CalibrationValue+0xc2>
    2840:	831c                	lbu	a5,6(sp)
    2842:	1018                	addi	a4,sp,32
    2844:	0789                	addi	a5,a5,2
    2846:	0786                	slli	a5,a5,0x1
    2848:	97ba                	add	a5,a5,a4
    284a:	fec7d783          	lhu	a5,-20(a5)
    284e:	eef66de3          	bltu	a2,a5,2748 <Get_CalibrationValue+0x3a>
    2852:	831c                	lbu	a5,6(sp)
    2854:	100c                	addi	a1,sp,32
    2856:	8438                	lhu	a4,8(sp)
    2858:	0789                	addi	a5,a5,2
    285a:	0786                	slli	a5,a5,0x1
    285c:	97ae                	add	a5,a5,a1
    285e:	fec7d783          	lhu	a5,-20(a5)
    2862:	97ba                	add	a5,a5,a4
    2864:	07c2                	slli	a5,a5,0x10
    2866:	83c1                	srli	a5,a5,0x10
    2868:	847c                	sh	a5,8(sp)
    286a:	831c                	lbu	a5,6(sp)
    286c:	0785                	addi	a5,a5,1
    286e:	0ff7f793          	andi	a5,a5,255
    2872:	835c                	sb	a5,6(sp)
    2874:	b5f9                	j	2742 <Get_CalibrationValue+0x34>
    2876:	40000793          	li	a5,1024
    287a:	bddd                	j	2770 <Get_CalibrationValue+0x62>
    287c:	831c                	lbu	a5,6(sp)
    287e:	1010                	addi	a2,sp,32
    2880:	8538                	lhu	a4,10(sp)
    2882:	0789                	addi	a5,a5,2
    2884:	0786                	slli	a5,a5,0x1
    2886:	97b2                	add	a5,a5,a2
    2888:	fec7d783          	lhu	a5,-20(a5)
    288c:	97ba                	add	a5,a5,a4
    288e:	07c2                	slli	a5,a5,0x10
    2890:	83c1                	srli	a5,a5,0x10
    2892:	857c                	sh	a5,10(sp)
    2894:	831c                	lbu	a5,6(sp)
    2896:	0785                	addi	a5,a5,1
    2898:	0ff7f793          	andi	a5,a5,255
    289c:	835c                	sb	a5,6(sp)
    289e:	831c                	lbu	a5,6(sp)
    28a0:	fcf6fee3          	bgeu	a3,a5,287c <Get_CalibrationValue+0x16e>
    28a4:	8538                	lhu	a4,10(sp)
    28a6:	8394                	lbu	a3,7(sp)
    28a8:	853c                	lhu	a5,10(sp)
    28aa:	838c                	lbu	a1,7(sp)
    28ac:	8390                	lbu	a2,7(sp)
    28ae:	02d74733          	div	a4,a4,a3
    28b2:	02b7e7b3          	rem	a5,a5,a1
    28b6:	0786                	slli	a5,a5,0x1
    28b8:	02c7c7b3          	div	a5,a5,a2
    28bc:	97ba                	add	a5,a5,a4
    28be:	07c2                	slli	a5,a5,0x10
    28c0:	83c1                	srli	a5,a5,0x10
    28c2:	857c                	sh	a5,10(sp)
    28c4:	8428                	lhu	a0,8(sp)
    28c6:	8534                	lhu	a3,10(sp)
    28c8:	842c                	lhu	a1,8(sp)
    28ca:	8530                	lhu	a2,10(sp)
    28cc:	6705                	lui	a4,0x1
    28ce:	40000793          	li	a5,1024
    28d2:	80070713          	addi	a4,a4,-2048 # 800 <__stack_size>
    28d6:	40a78533          	sub	a0,a5,a0
    28da:	40d706b3          	sub	a3,a4,a3
    28de:	8f8d                	sub	a5,a5,a1
    28e0:	8f11                	sub	a4,a4,a2
    28e2:	0542                	slli	a0,a0,0x10
    28e4:	06c2                	slli	a3,a3,0x10
    28e6:	07c2                	slli	a5,a5,0x10
    28e8:	0742                	slli	a4,a4,0x10
    28ea:	86c1                	srai	a3,a3,0x10
    28ec:	8741                	srai	a4,a4,0x10
    28ee:	8541                	srai	a0,a0,0x10
    28f0:	87c1                	srai	a5,a5,0x10
    28f2:	9536                	add	a0,a0,a3
    28f4:	97ba                	add	a5,a5,a4
    28f6:	4689                	li	a3,2
    28f8:	02d54533          	div	a0,a0,a3
    28fc:	6105                	addi	sp,sp,32
    28fe:	02d7e7b3          	rem	a5,a5,a3
    2902:	953e                	add	a0,a0,a5
    2904:	0542                	slli	a0,a0,0x10
    2906:	8541                	srai	a0,a0,0x10
    2908:	c3bfd06f          	j	542 <__riscv_restore_0>

0000290c <BKP_DeInit>:
    290c:	c13fd2ef          	jal	t0,51e <__riscv_save_0>
    2910:	4505                	li	a0,1
    2912:	455000ef          	jal	ra,3566 <RCC_BackupResetCmd>
    2916:	4501                	li	a0,0
    2918:	44f000ef          	jal	ra,3566 <RCC_BackupResetCmd>
    291c:	c27fd06f          	j	542 <__riscv_restore_0>

00002920 <CAN_Init>:
    2920:	4118                	lw	a4,0(a0)
    2922:	87aa                	mv	a5,a0
    2924:	9b75                	andi	a4,a4,-3
    2926:	c118                	sw	a4,0(a0)
    2928:	4118                	lw	a4,0(a0)
    292a:	00176713          	ori	a4,a4,1
    292e:	c118                	sw	a4,0(a0)
    2930:	6741                	lui	a4,0x10
    2932:	43d4                	lw	a3,4(a5)
    2934:	8a85                	andi	a3,a3,1
    2936:	e299                	bnez	a3,293c <CAN_Init+0x1c>
    2938:	177d                	addi	a4,a4,-1
    293a:	ff65                	bnez	a4,2932 <CAN_Init+0x12>
    293c:	43d8                	lw	a4,4(a5)
    293e:	4501                	li	a0,0
    2940:	8b05                	andi	a4,a4,1
    2942:	cf49                	beqz	a4,29dc <CAN_Init+0xbc>
    2944:	4594                	lw	a3,8(a1)
    2946:	4705                	li	a4,1
    2948:	08e69b63          	bne	a3,a4,29de <CAN_Init+0xbe>
    294c:	4398                	lw	a4,0(a5)
    294e:	08076713          	ori	a4,a4,128
    2952:	45d4                	lw	a3,12(a1)
    2954:	c398                	sw	a4,0(a5)
    2956:	4705                	li	a4,1
    2958:	08e69763          	bne	a3,a4,29e6 <CAN_Init+0xc6>
    295c:	4398                	lw	a4,0(a5)
    295e:	04076713          	ori	a4,a4,64
    2962:	4994                	lw	a3,16(a1)
    2964:	c398                	sw	a4,0(a5)
    2966:	4705                	li	a4,1
    2968:	08e69363          	bne	a3,a4,29ee <CAN_Init+0xce>
    296c:	4398                	lw	a4,0(a5)
    296e:	02076713          	ori	a4,a4,32
    2972:	49d4                	lw	a3,20(a1)
    2974:	c398                	sw	a4,0(a5)
    2976:	4705                	li	a4,1
    2978:	06e69f63          	bne	a3,a4,29f6 <CAN_Init+0xd6>
    297c:	4398                	lw	a4,0(a5)
    297e:	01076713          	ori	a4,a4,16
    2982:	4d94                	lw	a3,24(a1)
    2984:	c398                	sw	a4,0(a5)
    2986:	4705                	li	a4,1
    2988:	06e69a63          	bne	a3,a4,29fc <CAN_Init+0xdc>
    298c:	4398                	lw	a4,0(a5)
    298e:	00876713          	ori	a4,a4,8
    2992:	4dd4                	lw	a3,28(a1)
    2994:	c398                	sw	a4,0(a5)
    2996:	4705                	li	a4,1
    2998:	06e69563          	bne	a3,a4,2a02 <CAN_Init+0xe2>
    299c:	4398                	lw	a4,0(a5)
    299e:	00476713          	ori	a4,a4,4
    29a2:	c398                	sw	a4,0(a5)
    29a4:	21b8                	lbu	a4,2(a1)
    29a6:	31b4                	lbu	a3,3(a1)
    29a8:	077a                	slli	a4,a4,0x1e
    29aa:	06e2                	slli	a3,a3,0x18
    29ac:	8f55                	or	a4,a4,a3
    29ae:	21d4                	lbu	a3,4(a1)
    29b0:	06c2                	slli	a3,a3,0x10
    29b2:	8f55                	or	a4,a4,a3
    29b4:	31d4                	lbu	a3,5(a1)
    29b6:	06d2                	slli	a3,a3,0x14
    29b8:	8f55                	or	a4,a4,a3
    29ba:	2196                	lhu	a3,0(a1)
    29bc:	16fd                	addi	a3,a3,-1
    29be:	8f55                	or	a4,a4,a3
    29c0:	cfd8                	sw	a4,28(a5)
    29c2:	4398                	lw	a4,0(a5)
    29c4:	9b79                	andi	a4,a4,-2
    29c6:	c398                	sw	a4,0(a5)
    29c8:	6741                	lui	a4,0x10
    29ca:	43d4                	lw	a3,4(a5)
    29cc:	8a85                	andi	a3,a3,1
    29ce:	c299                	beqz	a3,29d4 <CAN_Init+0xb4>
    29d0:	177d                	addi	a4,a4,-1
    29d2:	ff65                	bnez	a4,29ca <CAN_Init+0xaa>
    29d4:	43c8                	lw	a0,4(a5)
    29d6:	fff54513          	not	a0,a0
    29da:	8905                	andi	a0,a0,1
    29dc:	8082                	ret
    29de:	4398                	lw	a4,0(a5)
    29e0:	f7f77713          	andi	a4,a4,-129
    29e4:	b7bd                	j	2952 <CAN_Init+0x32>
    29e6:	4398                	lw	a4,0(a5)
    29e8:	fbf77713          	andi	a4,a4,-65
    29ec:	bf9d                	j	2962 <CAN_Init+0x42>
    29ee:	4398                	lw	a4,0(a5)
    29f0:	fdf77713          	andi	a4,a4,-33
    29f4:	bfbd                	j	2972 <CAN_Init+0x52>
    29f6:	4398                	lw	a4,0(a5)
    29f8:	9b3d                	andi	a4,a4,-17
    29fa:	b761                	j	2982 <CAN_Init+0x62>
    29fc:	4398                	lw	a4,0(a5)
    29fe:	9b5d                	andi	a4,a4,-9
    2a00:	bf49                	j	2992 <CAN_Init+0x72>
    2a02:	4398                	lw	a4,0(a5)
    2a04:	9b6d                	andi	a4,a4,-5
    2a06:	bf71                	j	29a2 <CAN_Init+0x82>

00002a08 <CAN_FilterInit>:
    2a08:	40006737          	lui	a4,0x40006
    2a0c:	40070713          	addi	a4,a4,1024 # 40006400 <__freertos_irq_stack_top+0x20001400>
    2a10:	20072683          	lw	a3,512(a4)
    2a14:	253c                	lbu	a5,10(a0)
    2a16:	4805                	li	a6,1
    2a18:	0016e693          	ori	a3,a3,1
    2a1c:	20d72023          	sw	a3,512(a4)
    2a20:	21c72583          	lw	a1,540(a4)
    2a24:	00f81633          	sll	a2,a6,a5
    2a28:	fff64693          	not	a3,a2
    2a2c:	8df5                	and	a1,a1,a3
    2a2e:	20b72e23          	sw	a1,540(a4)
    2a32:	254c                	lbu	a1,12(a0)
    2a34:	e5c5                	bnez	a1,2adc <CAN_FilterInit+0xd4>
    2a36:	20c72583          	lw	a1,524(a4)
    2a3a:	00255803          	lhu	a6,2(a0)
    2a3e:	078e                	slli	a5,a5,0x3
    2a40:	8df5                	and	a1,a1,a3
    2a42:	20b72623          	sw	a1,524(a4)
    2a46:	216e                	lhu	a1,6(a0)
    2a48:	97ba                	add	a5,a5,a4
    2a4a:	215a                	lhu	a4,4(a0)
    2a4c:	05c2                	slli	a1,a1,0x10
    2a4e:	0105e5b3          	or	a1,a1,a6
    2a52:	24b7a023          	sw	a1,576(a5)
    2a56:	210e                	lhu	a1,0(a0)
    2a58:	0742                	slli	a4,a4,0x10
    2a5a:	8f4d                	or	a4,a4,a1
    2a5c:	24e7a223          	sw	a4,580(a5)
    2a60:	400227b7          	lui	a5,0x40022
    2a64:	5b98                	lw	a4,48(a5)
    2a66:	0f0007b7          	lui	a5,0xf000
    2a6a:	8ff9                	and	a5,a5,a4
    2a6c:	ef99                	bnez	a5,2a8a <CAN_FilterInit+0x82>
    2a6e:	40006737          	lui	a4,0x40006
    2a72:	30070793          	addi	a5,a4,768 # 40006300 <__freertos_irq_stack_top+0x20001300>
    2a76:	40070713          	addi	a4,a4,1024
    2a7a:	238e                	lhu	a1,0(a5)
    2a7c:	0791                	addi	a5,a5,4
    2a7e:	05c2                	slli	a1,a1,0x10
    2a80:	81c1                	srli	a1,a1,0x10
    2a82:	eeb79e23          	sh	a1,-260(a5) # efffefc <_data_lma+0xeff2764>
    2a86:	fee79ae3          	bne	a5,a4,2a7a <CAN_FilterInit+0x72>
    2a8a:	3538                	lbu	a4,11(a0)
    2a8c:	400067b7          	lui	a5,0x40006
    2a90:	40078793          	addi	a5,a5,1024 # 40006400 <__freertos_irq_stack_top+0x20001400>
    2a94:	eb2d                	bnez	a4,2b06 <CAN_FilterInit+0xfe>
    2a96:	2047a703          	lw	a4,516(a5)
    2a9a:	8f75                	and	a4,a4,a3
    2a9c:	20e7a223          	sw	a4,516(a5)
    2aa0:	251a                	lhu	a4,8(a0)
    2aa2:	400067b7          	lui	a5,0x40006
    2aa6:	40078793          	addi	a5,a5,1024 # 40006400 <__freertos_irq_stack_top+0x20001400>
    2aaa:	e335                	bnez	a4,2b0e <CAN_FilterInit+0x106>
    2aac:	2147a703          	lw	a4,532(a5)
    2ab0:	8ef9                	and	a3,a3,a4
    2ab2:	20d7aa23          	sw	a3,532(a5)
    2ab6:	4918                	lw	a4,16(a0)
    2ab8:	4785                	li	a5,1
    2aba:	00f71963          	bne	a4,a5,2acc <CAN_FilterInit+0xc4>
    2abe:	400067b7          	lui	a5,0x40006
    2ac2:	61c7a703          	lw	a4,1564(a5) # 4000661c <__freertos_irq_stack_top+0x2000161c>
    2ac6:	8e59                	or	a2,a2,a4
    2ac8:	60c7ae23          	sw	a2,1564(a5)
    2acc:	400067b7          	lui	a5,0x40006
    2ad0:	6007a703          	lw	a4,1536(a5) # 40006600 <__freertos_irq_stack_top+0x20001600>
    2ad4:	9b79                	andi	a4,a4,-2
    2ad6:	60e7a023          	sw	a4,1536(a5)
    2ada:	8082                	ret
    2adc:	f90592e3          	bne	a1,a6,2a60 <CAN_FilterInit+0x58>
    2ae0:	20c72583          	lw	a1,524(a4)
    2ae4:	00255803          	lhu	a6,2(a0)
    2ae8:	078e                	slli	a5,a5,0x3
    2aea:	8dd1                	or	a1,a1,a2
    2aec:	20b72623          	sw	a1,524(a4)
    2af0:	210e                	lhu	a1,0(a0)
    2af2:	97ba                	add	a5,a5,a4
    2af4:	215a                	lhu	a4,4(a0)
    2af6:	05c2                	slli	a1,a1,0x10
    2af8:	0105e5b3          	or	a1,a1,a6
    2afc:	24b7a023          	sw	a1,576(a5)
    2b00:	0742                	slli	a4,a4,0x10
    2b02:	216e                	lhu	a1,6(a0)
    2b04:	bf99                	j	2a5a <CAN_FilterInit+0x52>
    2b06:	2047a703          	lw	a4,516(a5)
    2b0a:	8f51                	or	a4,a4,a2
    2b0c:	bf41                	j	2a9c <CAN_FilterInit+0x94>
    2b0e:	4685                	li	a3,1
    2b10:	fad713e3          	bne	a4,a3,2ab6 <CAN_FilterInit+0xae>
    2b14:	2147a703          	lw	a4,532(a5)
    2b18:	8f51                	or	a4,a4,a2
    2b1a:	20e7aa23          	sw	a4,532(a5)
    2b1e:	bf61                	j	2ab6 <CAN_FilterInit+0xae>

00002b20 <CAN_Transmit>:
    2b20:	451c                	lw	a5,8(a0)
    2b22:	00579713          	slli	a4,a5,0x5
    2b26:	08074e63          	bltz	a4,2bc2 <CAN_Transmit+0xa2>
    2b2a:	451c                	lw	a5,8(a0)
    2b2c:	00479713          	slli	a4,a5,0x4
    2b30:	08074b63          	bltz	a4,2bc6 <CAN_Transmit+0xa6>
    2b34:	451c                	lw	a5,8(a0)
    2b36:	4691                	li	a3,4
    2b38:	00379713          	slli	a4,a5,0x3
    2b3c:	08075163          	bgez	a4,2bbe <CAN_Transmit+0x9e>
    2b40:	4689                	li	a3,2
    2b42:	00469793          	slli	a5,a3,0x4
    2b46:	97aa                	add	a5,a5,a0
    2b48:	1807a703          	lw	a4,384(a5)
    2b4c:	8b05                	andi	a4,a4,1
    2b4e:	18e7a023          	sw	a4,384(a5)
    2b52:	2590                	lbu	a2,8(a1)
    2b54:	3588                	lbu	a0,9(a1)
    2b56:	ea35                	bnez	a2,2bca <CAN_Transmit+0xaa>
    2b58:	4198                	lw	a4,0(a1)
    2b5a:	1807a603          	lw	a2,384(a5)
    2b5e:	0756                	slli	a4,a4,0x15
    2b60:	8f49                	or	a4,a4,a0
    2b62:	8f51                	or	a4,a4,a2
    2b64:	18e7a023          	sw	a4,384(a5)
    2b68:	25b8                	lbu	a4,10(a1)
    2b6a:	8b3d                	andi	a4,a4,15
    2b6c:	a5b8                	sb	a4,10(a1)
    2b6e:	1847a603          	lw	a2,388(a5)
    2b72:	9a41                	andi	a2,a2,-16
    2b74:	18c7a223          	sw	a2,388(a5)
    2b78:	1847a603          	lw	a2,388(a5)
    2b7c:	8f51                	or	a4,a4,a2
    2b7e:	18e7a223          	sw	a4,388(a5)
    2b82:	25d0                	lbu	a2,12(a1)
    2b84:	35b8                	lbu	a4,11(a1)
    2b86:	0622                	slli	a2,a2,0x8
    2b88:	8e59                	or	a2,a2,a4
    2b8a:	35d8                	lbu	a4,13(a1)
    2b8c:	0742                	slli	a4,a4,0x10
    2b8e:	8e59                	or	a2,a2,a4
    2b90:	25f8                	lbu	a4,14(a1)
    2b92:	0762                	slli	a4,a4,0x18
    2b94:	8f51                	or	a4,a4,a2
    2b96:	18e7a423          	sw	a4,392(a5)
    2b9a:	2990                	lbu	a2,16(a1)
    2b9c:	35f8                	lbu	a4,15(a1)
    2b9e:	0622                	slli	a2,a2,0x8
    2ba0:	8e59                	or	a2,a2,a4
    2ba2:	3998                	lbu	a4,17(a1)
    2ba4:	0742                	slli	a4,a4,0x10
    2ba6:	8e59                	or	a2,a2,a4
    2ba8:	29b8                	lbu	a4,18(a1)
    2baa:	0762                	slli	a4,a4,0x18
    2bac:	8f51                	or	a4,a4,a2
    2bae:	18e7a623          	sw	a4,396(a5)
    2bb2:	1807a703          	lw	a4,384(a5)
    2bb6:	00176713          	ori	a4,a4,1
    2bba:	18e7a023          	sw	a4,384(a5)
    2bbe:	8536                	mv	a0,a3
    2bc0:	8082                	ret
    2bc2:	4681                	li	a3,0
    2bc4:	bfbd                	j	2b42 <CAN_Transmit+0x22>
    2bc6:	4685                	li	a3,1
    2bc8:	bfad                	j	2b42 <CAN_Transmit+0x22>
    2bca:	41d8                	lw	a4,4(a1)
    2bcc:	1807a803          	lw	a6,384(a5)
    2bd0:	070e                	slli	a4,a4,0x3
    2bd2:	8f49                	or	a4,a4,a0
    2bd4:	8f51                	or	a4,a4,a2
    2bd6:	01076733          	or	a4,a4,a6
    2bda:	b769                	j	2b64 <CAN_Transmit+0x44>

00002bdc <CAN_Receive>:
    2bdc:	00459793          	slli	a5,a1,0x4
    2be0:	97aa                	add	a5,a5,a0
    2be2:	1b07a703          	lw	a4,432(a5)
    2be6:	8b11                	andi	a4,a4,4
    2be8:	a618                	sb	a4,8(a2)
    2bea:	e72d                	bnez	a4,2c54 <CAN_Receive+0x78>
    2bec:	1b07a703          	lw	a4,432(a5)
    2bf0:	8355                	srli	a4,a4,0x15
    2bf2:	c218                	sw	a4,0(a2)
    2bf4:	1b07a703          	lw	a4,432(a5)
    2bf8:	8b09                	andi	a4,a4,2
    2bfa:	b618                	sb	a4,9(a2)
    2bfc:	1b47a703          	lw	a4,436(a5)
    2c00:	8b3d                	andi	a4,a4,15
    2c02:	a638                	sb	a4,10(a2)
    2c04:	1b47a703          	lw	a4,436(a5)
    2c08:	8321                	srli	a4,a4,0x8
    2c0a:	ba38                	sb	a4,19(a2)
    2c0c:	1b87a703          	lw	a4,440(a5)
    2c10:	b638                	sb	a4,11(a2)
    2c12:	1b87a703          	lw	a4,440(a5)
    2c16:	8321                	srli	a4,a4,0x8
    2c18:	a658                	sb	a4,12(a2)
    2c1a:	1b87a703          	lw	a4,440(a5)
    2c1e:	8341                	srli	a4,a4,0x10
    2c20:	b658                	sb	a4,13(a2)
    2c22:	1b87a703          	lw	a4,440(a5)
    2c26:	8361                	srli	a4,a4,0x18
    2c28:	a678                	sb	a4,14(a2)
    2c2a:	1bc7a703          	lw	a4,444(a5)
    2c2e:	b678                	sb	a4,15(a2)
    2c30:	1bc7a703          	lw	a4,444(a5)
    2c34:	8321                	srli	a4,a4,0x8
    2c36:	aa18                	sb	a4,16(a2)
    2c38:	1bc7a703          	lw	a4,444(a5)
    2c3c:	8341                	srli	a4,a4,0x10
    2c3e:	ba18                	sb	a4,17(a2)
    2c40:	1bc7a783          	lw	a5,444(a5)
    2c44:	83e1                	srli	a5,a5,0x18
    2c46:	aa3c                	sb	a5,18(a2)
    2c48:	e999                	bnez	a1,2c5e <CAN_Receive+0x82>
    2c4a:	455c                	lw	a5,12(a0)
    2c4c:	0207e793          	ori	a5,a5,32
    2c50:	c55c                	sw	a5,12(a0)
    2c52:	8082                	ret
    2c54:	1b07a703          	lw	a4,432(a5)
    2c58:	830d                	srli	a4,a4,0x3
    2c5a:	c258                	sw	a4,4(a2)
    2c5c:	bf61                	j	2bf4 <CAN_Receive+0x18>
    2c5e:	491c                	lw	a5,16(a0)
    2c60:	0207e793          	ori	a5,a5,32
    2c64:	c91c                	sw	a5,16(a0)
    2c66:	8082                	ret

00002c68 <CAN_OperatingModeRequest>:
    2c68:	e58d                	bnez	a1,2c92 <CAN_OperatingModeRequest+0x2a>
    2c6a:	411c                	lw	a5,0(a0)
    2c6c:	4685                	li	a3,1
    2c6e:	9bf1                	andi	a5,a5,-4
    2c70:	0017e793          	ori	a5,a5,1
    2c74:	c11c                	sw	a5,0(a0)
    2c76:	67c1                	lui	a5,0x10
    2c78:	4158                	lw	a4,4(a0)
    2c7a:	8b0d                	andi	a4,a4,3
    2c7c:	00d70463          	beq	a4,a3,2c84 <CAN_OperatingModeRequest+0x1c>
    2c80:	17fd                	addi	a5,a5,-1
    2c82:	fbfd                	bnez	a5,2c78 <CAN_OperatingModeRequest+0x10>
    2c84:	415c                	lw	a5,4(a0)
    2c86:	8b8d                	andi	a5,a5,3
    2c88:	17fd                	addi	a5,a5,-1
    2c8a:	0017b793          	seqz	a5,a5
    2c8e:	853e                	mv	a0,a5
    2c90:	8082                	ret
    2c92:	4785                	li	a5,1
    2c94:	00f59e63          	bne	a1,a5,2cb0 <CAN_OperatingModeRequest+0x48>
    2c98:	411c                	lw	a5,0(a0)
    2c9a:	9bf1                	andi	a5,a5,-4
    2c9c:	c11c                	sw	a5,0(a0)
    2c9e:	67c1                	lui	a5,0x10
    2ca0:	4158                	lw	a4,4(a0)
    2ca2:	8b0d                	andi	a4,a4,3
    2ca4:	c319                	beqz	a4,2caa <CAN_OperatingModeRequest+0x42>
    2ca6:	17fd                	addi	a5,a5,-1
    2ca8:	ffe5                	bnez	a5,2ca0 <CAN_OperatingModeRequest+0x38>
    2caa:	415c                	lw	a5,4(a0)
    2cac:	8b8d                	andi	a5,a5,3
    2cae:	bff1                	j	2c8a <CAN_OperatingModeRequest+0x22>
    2cb0:	4709                	li	a4,2
    2cb2:	4781                	li	a5,0
    2cb4:	fce59de3          	bne	a1,a4,2c8e <CAN_OperatingModeRequest+0x26>
    2cb8:	411c                	lw	a5,0(a0)
    2cba:	4689                	li	a3,2
    2cbc:	9bf1                	andi	a5,a5,-4
    2cbe:	0027e793          	ori	a5,a5,2
    2cc2:	c11c                	sw	a5,0(a0)
    2cc4:	67c1                	lui	a5,0x10
    2cc6:	4158                	lw	a4,4(a0)
    2cc8:	8b0d                	andi	a4,a4,3
    2cca:	00d70463          	beq	a4,a3,2cd2 <CAN_OperatingModeRequest+0x6a>
    2cce:	17fd                	addi	a5,a5,-1
    2cd0:	fbfd                	bnez	a5,2cc6 <CAN_OperatingModeRequest+0x5e>
    2cd2:	415c                	lw	a5,4(a0)
    2cd4:	8b8d                	andi	a5,a5,3
    2cd6:	17f9                	addi	a5,a5,-2
    2cd8:	bf4d                	j	2c8a <CAN_OperatingModeRequest+0x22>

00002cda <CAN_ITConfig>:
    2cda:	495c                	lw	a5,20(a0)
    2cdc:	c601                	beqz	a2,2ce4 <CAN_ITConfig+0xa>
    2cde:	8ddd                	or	a1,a1,a5
    2ce0:	c94c                	sw	a1,20(a0)
    2ce2:	8082                	ret
    2ce4:	fff5c593          	not	a1,a1
    2ce8:	8dfd                	and	a1,a1,a5
    2cea:	bfdd                	j	2ce0 <CAN_ITConfig+0x6>

00002cec <CAN_GetFlagStatus>:
    2cec:	00f007b7          	lui	a5,0xf00
    2cf0:	8fed                	and	a5,a5,a1
    2cf2:	cb89                	beqz	a5,2d04 <CAN_GetFlagStatus+0x18>
    2cf4:	4d10                	lw	a2,24(a0)
    2cf6:	00b67533          	and	a0,a2,a1
    2cfa:	0532                	slli	a0,a0,0xc
    2cfc:	8131                	srli	a0,a0,0xc
    2cfe:	00a03533          	snez	a0,a0
    2d02:	8082                	ret
    2d04:	00759793          	slli	a5,a1,0x7
    2d08:	0007d663          	bgez	a5,2d14 <CAN_GetFlagStatus+0x28>
    2d0c:	4154                	lw	a3,4(a0)
    2d0e:	00b6f533          	and	a0,a3,a1
    2d12:	b7e5                	j	2cfa <CAN_GetFlagStatus+0xe>
    2d14:	00459793          	slli	a5,a1,0x4
    2d18:	0007d563          	bgez	a5,2d22 <CAN_GetFlagStatus+0x36>
    2d1c:	4508                	lw	a0,8(a0)
    2d1e:	8d6d                	and	a0,a0,a1
    2d20:	bfe9                	j	2cfa <CAN_GetFlagStatus+0xe>
    2d22:	001006b7          	lui	a3,0x100
    2d26:	00659793          	slli	a5,a1,0x6
    2d2a:	16fd                	addi	a3,a3,-1
    2d2c:	0007d763          	bgez	a5,2d3a <CAN_GetFlagStatus+0x4e>
    2d30:	4558                	lw	a4,12(a0)
    2d32:	00b77533          	and	a0,a4,a1
    2d36:	8d75                	and	a0,a0,a3
    2d38:	b7d9                	j	2cfe <CAN_GetFlagStatus+0x12>
    2d3a:	491c                	lw	a5,16(a0)
    2d3c:	00b7f533          	and	a0,a5,a1
    2d40:	bfdd                	j	2d36 <CAN_GetFlagStatus+0x4a>

00002d42 <CAN_ClearFlag>:
    2d42:	30f007b7          	lui	a5,0x30f00
    2d46:	07078793          	addi	a5,a5,112 # 30f00070 <__freertos_irq_stack_top+0x10efb070>
    2d4a:	00f59563          	bne	a1,a5,2d54 <CAN_ClearFlag+0x12>
    2d4e:	00052c23          	sw	zero,24(a0)
    2d52:	8082                	ret
    2d54:	00c59793          	slli	a5,a1,0xc
    2d58:	00659713          	slli	a4,a1,0x6
    2d5c:	83b1                	srli	a5,a5,0xc
    2d5e:	00075463          	bgez	a4,2d66 <CAN_ClearFlag+0x24>
    2d62:	c55c                	sw	a5,12(a0)
    2d64:	8082                	ret
    2d66:	00559713          	slli	a4,a1,0x5
    2d6a:	00075463          	bgez	a4,2d72 <CAN_ClearFlag+0x30>
    2d6e:	c91c                	sw	a5,16(a0)
    2d70:	8082                	ret
    2d72:	00459713          	slli	a4,a1,0x4
    2d76:	00075463          	bgez	a4,2d7e <CAN_ClearFlag+0x3c>
    2d7a:	c51c                	sw	a5,8(a0)
    2d7c:	8082                	ret
    2d7e:	c15c                	sw	a5,4(a0)
    2d80:	8082                	ret

00002d82 <CAN_ClearITPendingBit>:
    2d82:	10000793          	li	a5,256
    2d86:	06f58663          	beq	a1,a5,2df2 <CAN_ClearITPendingBit+0x70>
    2d8a:	02b7e763          	bltu	a5,a1,2db8 <CAN_ClearITPendingBit+0x36>
    2d8e:	47a1                	li	a5,8
    2d90:	06f58863          	beq	a1,a5,2e00 <CAN_ClearITPendingBit+0x7e>
    2d94:	00b7e963          	bltu	a5,a1,2da6 <CAN_ClearITPendingBit+0x24>
    2d98:	4705                	li	a4,1
    2d9a:	04e58e63          	beq	a1,a4,2df6 <CAN_ClearITPendingBit+0x74>
    2d9e:	4711                	li	a4,4
    2da0:	06e58163          	beq	a1,a4,2e02 <CAN_ClearITPendingBit+0x80>
    2da4:	8082                	ret
    2da6:	02000713          	li	a4,32
    2daa:	04e58f63          	beq	a1,a4,2e08 <CAN_ClearITPendingBit+0x86>
    2dae:	04000793          	li	a5,64
    2db2:	04f58a63          	beq	a1,a5,2e06 <CAN_ClearITPendingBit+0x84>
    2db6:	8082                	ret
    2db8:	80058793          	addi	a5,a1,-2048
    2dbc:	cb8d                	beqz	a5,2dee <CAN_ClearITPendingBit+0x6c>
    2dbe:	6785                	lui	a5,0x1
    2dc0:	80078793          	addi	a5,a5,-2048 # 800 <__stack_size>
    2dc4:	00b7eb63          	bltu	a5,a1,2dda <CAN_ClearITPendingBit+0x58>
    2dc8:	20000793          	li	a5,512
    2dcc:	02f58363          	beq	a1,a5,2df2 <CAN_ClearITPendingBit+0x70>
    2dd0:	40000793          	li	a5,1024
    2dd4:	00f58f63          	beq	a1,a5,2df2 <CAN_ClearITPendingBit+0x70>
    2dd8:	8082                	ret
    2dda:	67c1                	lui	a5,0x10
    2ddc:	02f58863          	beq	a1,a5,2e0c <CAN_ClearITPendingBit+0x8a>
    2de0:	000207b7          	lui	a5,0x20
    2de4:	02f58763          	beq	a1,a5,2e12 <CAN_ClearITPendingBit+0x90>
    2de8:	67a1                	lui	a5,0x8
    2dea:	02f59363          	bne	a1,a5,2e10 <CAN_ClearITPendingBit+0x8e>
    2dee:	00052c23          	sw	zero,24(a0)
    2df2:	4791                	li	a5,4
    2df4:	a829                	j	2e0e <CAN_ClearITPendingBit+0x8c>
    2df6:	67c1                	lui	a5,0x10
    2df8:	10178793          	addi	a5,a5,257 # 10101 <_data_lma+0x2969>
    2dfc:	c51c                	sw	a5,8(a0)
    2dfe:	8082                	ret
    2e00:	47c1                	li	a5,16
    2e02:	c55c                	sw	a5,12(a0)
    2e04:	8082                	ret
    2e06:	47c1                	li	a5,16
    2e08:	c91c                	sw	a5,16(a0)
    2e0a:	8082                	ret
    2e0c:	47a1                	li	a5,8
    2e0e:	c15c                	sw	a5,4(a0)
    2e10:	8082                	ret
    2e12:	47c1                	li	a5,16
    2e14:	bfed                	j	2e0e <CAN_ClearITPendingBit+0x8c>

00002e16 <DMA_Init>:
    2e16:	411c                	lw	a5,0(a0)
    2e18:	7761                	lui	a4,0xffff8
    2e1a:	073d                	addi	a4,a4,15
    2e1c:	5194                	lw	a3,32(a1)
    2e1e:	8f7d                	and	a4,a4,a5
    2e20:	459c                	lw	a5,8(a1)
    2e22:	8fd5                	or	a5,a5,a3
    2e24:	4994                	lw	a3,16(a1)
    2e26:	8fd5                	or	a5,a5,a3
    2e28:	49d4                	lw	a3,20(a1)
    2e2a:	8fd5                	or	a5,a5,a3
    2e2c:	4d94                	lw	a3,24(a1)
    2e2e:	8fd5                	or	a5,a5,a3
    2e30:	4dd4                	lw	a3,28(a1)
    2e32:	8fd5                	or	a5,a5,a3
    2e34:	51d4                	lw	a3,36(a1)
    2e36:	8fd5                	or	a5,a5,a3
    2e38:	5594                	lw	a3,40(a1)
    2e3a:	8fd5                	or	a5,a5,a3
    2e3c:	8fd9                	or	a5,a5,a4
    2e3e:	c11c                	sw	a5,0(a0)
    2e40:	45dc                	lw	a5,12(a1)
    2e42:	c15c                	sw	a5,4(a0)
    2e44:	419c                	lw	a5,0(a1)
    2e46:	c51c                	sw	a5,8(a0)
    2e48:	41dc                	lw	a5,4(a1)
    2e4a:	c55c                	sw	a5,12(a0)
    2e4c:	8082                	ret

00002e4e <DMA_Cmd>:
    2e4e:	411c                	lw	a5,0(a0)
    2e50:	c589                	beqz	a1,2e5a <DMA_Cmd+0xc>
    2e52:	0017e793          	ori	a5,a5,1
    2e56:	c11c                	sw	a5,0(a0)
    2e58:	8082                	ret
    2e5a:	6741                	lui	a4,0x10
    2e5c:	1779                	addi	a4,a4,-2
    2e5e:	8ff9                	and	a5,a5,a4
    2e60:	bfdd                	j	2e56 <DMA_Cmd+0x8>

00002e62 <DMA_ITConfig>:
    2e62:	411c                	lw	a5,0(a0)
    2e64:	c601                	beqz	a2,2e6c <DMA_ITConfig+0xa>
    2e66:	8ddd                	or	a1,a1,a5
    2e68:	c10c                	sw	a1,0(a0)
    2e6a:	8082                	ret
    2e6c:	fff5c593          	not	a1,a1
    2e70:	8dfd                	and	a1,a1,a5
    2e72:	bfdd                	j	2e68 <DMA_ITConfig+0x6>

00002e74 <DMA_SetCurrDataCounter>:
    2e74:	c14c                	sw	a1,4(a0)
    2e76:	8082                	ret

00002e78 <DMA_GetFlagStatus>:
    2e78:	400207b7          	lui	a5,0x40020
    2e7c:	439c                	lw	a5,0(a5)
    2e7e:	8d7d                	and	a0,a0,a5
    2e80:	00a03533          	snez	a0,a0
    2e84:	8082                	ret

00002e86 <DMA_GetITStatus>:
    2e86:	e98fd2ef          	jal	t0,51e <__riscv_save_0>
    2e8a:	37fd                	jal	2e78 <DMA_GetFlagStatus>
    2e8c:	eb6fd06f          	j	542 <__riscv_restore_0>

00002e90 <DMA_ClearITPendingBit>:
    2e90:	400207b7          	lui	a5,0x40020
    2e94:	c3c8                	sw	a0,4(a5)
    2e96:	8082                	ret

00002e98 <GPIO_Init>:
    2e98:	459c                	lw	a5,8(a1)
    2e9a:	0107f713          	andi	a4,a5,16
    2e9e:	00f7f813          	andi	a6,a5,15
    2ea2:	c701                	beqz	a4,2eaa <GPIO_Init+0x12>
    2ea4:	41d8                	lw	a4,4(a1)
    2ea6:	00e86833          	or	a6,a6,a4
    2eaa:	40022737          	lui	a4,0x40022
    2eae:	5b14                	lw	a3,48(a4)
    2eb0:	0f000737          	lui	a4,0xf000
    2eb4:	8f75                	and	a4,a4,a3
    2eb6:	eb5d                	bnez	a4,2f6c <GPIO_Init+0xd4>
    2eb8:	20000737          	lui	a4,0x20000
    2ebc:	4685                	li	a3,1
    2ebe:	60d70e23          	sb	a3,1564(a4) # 2000061c <MCU_Version>
    2ec2:	40011737          	lui	a4,0x40011
    2ec6:	00e51563          	bne	a0,a4,2ed0 <GPIO_Init+0x38>
    2eca:	219a                	lhu	a4,0(a1)
    2ecc:	8335                	srli	a4,a4,0xd
    2ece:	a19a                	sh	a4,0(a1)
    2ed0:	218e                	lhu	a1,0(a1)
    2ed2:	0ff5f713          	andi	a4,a1,255
    2ed6:	c339                	beqz	a4,2f1c <GPIO_Init+0x84>
    2ed8:	4118                	lw	a4,0(a0)
    2eda:	4681                	li	a3,0
    2edc:	4e85                	li	t4,1
    2ede:	4f3d                	li	t5,15
    2ee0:	02800f93          	li	t6,40
    2ee4:	04800293          	li	t0,72
    2ee8:	4e21                	li	t3,8
    2eea:	00de9633          	sll	a2,t4,a3
    2eee:	00c5f8b3          	and	a7,a1,a2
    2ef2:	03161163          	bne	a2,a7,2f14 <GPIO_Init+0x7c>
    2ef6:	00269893          	slli	a7,a3,0x2
    2efa:	011f1333          	sll	t1,t5,a7
    2efe:	fff34313          	not	t1,t1
    2f02:	00e37733          	and	a4,t1,a4
    2f06:	011818b3          	sll	a7,a6,a7
    2f0a:	00e8e733          	or	a4,a7,a4
    2f0e:	07f79963          	bne	a5,t6,2f80 <GPIO_Init+0xe8>
    2f12:	c950                	sw	a2,20(a0)
    2f14:	0685                	addi	a3,a3,1
    2f16:	fdc69ae3          	bne	a3,t3,2eea <GPIO_Init+0x52>
    2f1a:	c118                	sw	a4,0(a0)
    2f1c:	0ff00713          	li	a4,255
    2f20:	04b77563          	bgeu	a4,a1,2f6a <GPIO_Init+0xd2>
    2f24:	4154                	lw	a3,4(a0)
    2f26:	4621                	li	a2,8
    2f28:	4e85                	li	t4,1
    2f2a:	4f3d                	li	t5,15
    2f2c:	02800f93          	li	t6,40
    2f30:	04800293          	li	t0,72
    2f34:	4e41                	li	t3,16
    2f36:	00ce98b3          	sll	a7,t4,a2
    2f3a:	0115f733          	and	a4,a1,a7
    2f3e:	02e89263          	bne	a7,a4,2f62 <GPIO_Init+0xca>
    2f42:	00261713          	slli	a4,a2,0x2
    2f46:	1701                	addi	a4,a4,-32
    2f48:	00ef1333          	sll	t1,t5,a4
    2f4c:	fff34313          	not	t1,t1
    2f50:	00d376b3          	and	a3,t1,a3
    2f54:	00e81733          	sll	a4,a6,a4
    2f58:	8ed9                	or	a3,a3,a4
    2f5a:	03f79763          	bne	a5,t6,2f88 <GPIO_Init+0xf0>
    2f5e:	01152a23          	sw	a7,20(a0)
    2f62:	0605                	addi	a2,a2,1
    2f64:	fdc619e3          	bne	a2,t3,2f36 <GPIO_Init+0x9e>
    2f68:	c154                	sw	a3,4(a0)
    2f6a:	8082                	ret
    2f6c:	40011737          	lui	a4,0x40011
    2f70:	f6e510e3          	bne	a0,a4,2ed0 <GPIO_Init+0x38>
    2f74:	20000737          	lui	a4,0x20000
    2f78:	61c74703          	lbu	a4,1564(a4) # 2000061c <MCU_Version>
    2f7c:	db31                	beqz	a4,2ed0 <GPIO_Init+0x38>
    2f7e:	b7b1                	j	2eca <GPIO_Init+0x32>
    2f80:	f8579ae3          	bne	a5,t0,2f14 <GPIO_Init+0x7c>
    2f84:	c910                	sw	a2,16(a0)
    2f86:	b779                	j	2f14 <GPIO_Init+0x7c>
    2f88:	fc579de3          	bne	a5,t0,2f62 <GPIO_Init+0xca>
    2f8c:	01152823          	sw	a7,16(a0)
    2f90:	bfc9                	j	2f62 <GPIO_Init+0xca>

00002f92 <GPIO_ReadInputDataBit>:
    2f92:	400117b7          	lui	a5,0x40011
    2f96:	00f51863          	bne	a0,a5,2fa6 <GPIO_ReadInputDataBit+0x14>
    2f9a:	200007b7          	lui	a5,0x20000
    2f9e:	61c7c783          	lbu	a5,1564(a5) # 2000061c <MCU_Version>
    2fa2:	c391                	beqz	a5,2fa6 <GPIO_ReadInputDataBit+0x14>
    2fa4:	81b5                	srli	a1,a1,0xd
    2fa6:	4508                	lw	a0,8(a0)
    2fa8:	8d6d                	and	a0,a0,a1
    2faa:	00a03533          	snez	a0,a0
    2fae:	8082                	ret

00002fb0 <GPIO_SetBits>:
    2fb0:	400117b7          	lui	a5,0x40011
    2fb4:	00f51863          	bne	a0,a5,2fc4 <GPIO_SetBits+0x14>
    2fb8:	200007b7          	lui	a5,0x20000
    2fbc:	61c7c783          	lbu	a5,1564(a5) # 2000061c <MCU_Version>
    2fc0:	c391                	beqz	a5,2fc4 <GPIO_SetBits+0x14>
    2fc2:	81b5                	srli	a1,a1,0xd
    2fc4:	c90c                	sw	a1,16(a0)
    2fc6:	8082                	ret

00002fc8 <GPIO_ResetBits>:
    2fc8:	400117b7          	lui	a5,0x40011
    2fcc:	00f51863          	bne	a0,a5,2fdc <GPIO_ResetBits+0x14>
    2fd0:	200007b7          	lui	a5,0x20000
    2fd4:	61c7c783          	lbu	a5,1564(a5) # 2000061c <MCU_Version>
    2fd8:	c391                	beqz	a5,2fdc <GPIO_ResetBits+0x14>
    2fda:	81b5                	srli	a1,a1,0xd
    2fdc:	c94c                	sw	a1,20(a0)
    2fde:	8082                	ret

00002fe0 <GPIO_WriteBit>:
    2fe0:	400117b7          	lui	a5,0x40011
    2fe4:	00f51863          	bne	a0,a5,2ff4 <GPIO_WriteBit+0x14>
    2fe8:	200007b7          	lui	a5,0x20000
    2fec:	61c7c783          	lbu	a5,1564(a5) # 2000061c <MCU_Version>
    2ff0:	c391                	beqz	a5,2ff4 <GPIO_WriteBit+0x14>
    2ff2:	81b5                	srli	a1,a1,0xd
    2ff4:	c219                	beqz	a2,2ffa <GPIO_WriteBit+0x1a>
    2ff6:	c90c                	sw	a1,16(a0)
    2ff8:	8082                	ret
    2ffa:	c94c                	sw	a1,20(a0)
    2ffc:	8082                	ret

00002ffe <GPIO_PinRemapConfig>:
    2ffe:	400107b7          	lui	a5,0x40010
    3002:	04055a63          	bgez	a0,3056 <GPIO_PinRemapConfig+0x58>
    3006:	4fdc                	lw	a5,28(a5)
    3008:	01055693          	srli	a3,a0,0x10
    300c:	01051813          	slli	a6,a0,0x10
    3010:	00300737          	lui	a4,0x300
    3014:	00f6f613          	andi	a2,a3,15
    3018:	01085813          	srli	a6,a6,0x10
    301c:	00e576b3          	and	a3,a0,a4
    3020:	06055e63          	bgez	a0,309c <GPIO_PinRemapConfig+0x9e>
    3024:	04e69963          	bne	a3,a4,3076 <GPIO_PinRemapConfig+0x78>
    3028:	01060693          	addi	a3,a2,16
    302c:	460d                	li	a2,3
    302e:	00d616b3          	sll	a3,a2,a3
    3032:	fff6c693          	not	a3,a3
    3036:	8ff5                	and	a5,a5,a3
    3038:	c999                	beqz	a1,304e <GPIO_PinRemapConfig+0x50>
    303a:	01555713          	srli	a4,a0,0x15
    303e:	3ff77713          	andi	a4,a4,1023
    3042:	0712                	slli	a4,a4,0x4
    3044:	00e81733          	sll	a4,a6,a4
    3048:	8fd9                	or	a5,a5,a4
    304a:	06055563          	bgez	a0,30b4 <GPIO_PinRemapConfig+0xb6>
    304e:	40010737          	lui	a4,0x40010
    3052:	cf5c                	sw	a5,28(a4)
    3054:	8082                	ret
    3056:	40022737          	lui	a4,0x40022
    305a:	5b14                	lw	a3,48(a4)
    305c:	43dc                	lw	a5,4(a5)
    305e:	0f000737          	lui	a4,0xf000
    3062:	8f75                	and	a4,a4,a3
    3064:	f355                	bnez	a4,3008 <GPIO_PinRemapConfig+0xa>
    3066:	0017d713          	srli	a4,a5,0x1
    306a:	76f9                	lui	a3,0xffffe
    306c:	07ce                	slli	a5,a5,0x13
    306e:	8f75                	and	a4,a4,a3
    3070:	83cd                	srli	a5,a5,0x13
    3072:	8fd9                	or	a5,a5,a4
    3074:	bf51                	j	3008 <GPIO_PinRemapConfig+0xa>
    3076:	00b51713          	slli	a4,a0,0xb
    307a:	00075663          	bgez	a4,3086 <GPIO_PinRemapConfig+0x88>
    307e:	468d                	li	a3,3
    3080:	00c696b3          	sll	a3,a3,a2
    3084:	b77d                	j	3032 <GPIO_PinRemapConfig+0x34>
    3086:	01555713          	srli	a4,a0,0x15
    308a:	3ff77713          	andi	a4,a4,1023
    308e:	0712                	slli	a4,a4,0x4
    3090:	00e81733          	sll	a4,a6,a4
    3094:	fff74713          	not	a4,a4
    3098:	8ff9                	and	a5,a5,a4
    309a:	bf79                	j	3038 <GPIO_PinRemapConfig+0x3a>
    309c:	02e69063          	bne	a3,a4,30bc <GPIO_PinRemapConfig+0xbe>
    30a0:	40010637          	lui	a2,0x40010
    30a4:	4254                	lw	a3,4(a2)
    30a6:	f1000737          	lui	a4,0xf1000
    30aa:	177d                	addi	a4,a4,-1
    30ac:	8ff9                	and	a5,a5,a4
    30ae:	8f75                	and	a4,a4,a3
    30b0:	c258                	sw	a4,4(a2)
    30b2:	f5c1                	bnez	a1,303a <GPIO_PinRemapConfig+0x3c>
    30b4:	40010737          	lui	a4,0x40010
    30b8:	c35c                	sw	a5,4(a4)
    30ba:	8082                	ret
    30bc:	00b51713          	slli	a4,a0,0xb
    30c0:	00075c63          	bgez	a4,30d8 <GPIO_PinRemapConfig+0xda>
    30c4:	468d                	li	a3,3
    30c6:	00c696b3          	sll	a3,a3,a2
    30ca:	fff6c693          	not	a3,a3
    30ce:	8efd                	and	a3,a3,a5
    30d0:	0f0007b7          	lui	a5,0xf000
    30d4:	8fd5                	or	a5,a5,a3
    30d6:	bff1                	j	30b2 <GPIO_PinRemapConfig+0xb4>
    30d8:	01555713          	srli	a4,a0,0x15
    30dc:	0712                	slli	a4,a4,0x4
    30de:	00e81733          	sll	a4,a6,a4
    30e2:	fff74713          	not	a4,a4
    30e6:	8f7d                	and	a4,a4,a5
    30e8:	0f0007b7          	lui	a5,0xf000
    30ec:	8fd9                	or	a5,a5,a4
    30ee:	b7d1                	j	30b2 <GPIO_PinRemapConfig+0xb4>

000030f0 <I2C_Init>:
    30f0:	c2efd2ef          	jal	t0,51e <__riscv_save_0>
    30f4:	7179                	addi	sp,sp,-48
    30f6:	842a                	mv	s0,a0
    30f8:	2146                	lhu	s1,4(a0)
    30fa:	0868                	addi	a0,sp,28
    30fc:	c62e                	sw	a1,12(sp)
    30fe:	2e11                	jal	3412 <RCC_GetClocksFreq>
    3100:	5792                	lw	a5,36(sp)
    3102:	000f4737          	lui	a4,0xf4
    3106:	24070713          	addi	a4,a4,576 # f4240 <_data_lma+0xe6aa8>
    310a:	02e7d733          	divu	a4,a5,a4
    310e:	04c2                	slli	s1,s1,0x10
    3110:	80c1                	srli	s1,s1,0x10
    3112:	fc04f493          	andi	s1,s1,-64
    3116:	04c2                	slli	s1,s1,0x10
    3118:	80c1                	srli	s1,s1,0x10
    311a:	45b2                	lw	a1,12(sp)
    311c:	6561                	lui	a0,0x18
    311e:	6a050513          	addi	a0,a0,1696 # 186a0 <_data_lma+0xaf08>
    3122:	01071613          	slli	a2,a4,0x10
    3126:	8241                	srli	a2,a2,0x10
    3128:	8cd1                	or	s1,s1,a2
    312a:	a046                	sh	s1,4(s0)
    312c:	2016                	lhu	a3,0(s0)
    312e:	06c2                	slli	a3,a3,0x10
    3130:	82c1                	srli	a3,a3,0x10
    3132:	9af9                	andi	a3,a3,-2
    3134:	06c2                	slli	a3,a3,0x10
    3136:	82c1                	srli	a3,a3,0x10
    3138:	a016                	sh	a3,0(s0)
    313a:	4194                	lw	a3,0(a1)
    313c:	04d56963          	bltu	a0,a3,318e <I2C_Init+0x9e>
    3140:	0686                	slli	a3,a3,0x1
    3142:	02d7d7b3          	divu	a5,a5,a3
    3146:	4691                	li	a3,4
    3148:	01079713          	slli	a4,a5,0x10
    314c:	8341                	srli	a4,a4,0x10
    314e:	87ba                	mv	a5,a4
    3150:	00d77363          	bgeu	a4,a3,3156 <I2C_Init+0x66>
    3154:	4791                	li	a5,4
    3156:	0605                	addi	a2,a2,1
    3158:	0642                	slli	a2,a2,0x10
    315a:	07c2                	slli	a5,a5,0x10
    315c:	8241                	srli	a2,a2,0x10
    315e:	83c1                	srli	a5,a5,0x10
    3160:	b012                	sh	a2,32(s0)
    3162:	ac5e                	sh	a5,28(s0)
    3164:	201e                	lhu	a5,0(s0)
    3166:	21da                	lhu	a4,4(a1)
    3168:	25b6                	lhu	a3,10(a1)
    316a:	0017e793          	ori	a5,a5,1
    316e:	a01e                	sh	a5,0(s0)
    3170:	201e                	lhu	a5,0(s0)
    3172:	8f55                	or	a4,a4,a3
    3174:	07c2                	slli	a5,a5,0x10
    3176:	83c1                	srli	a5,a5,0x10
    3178:	bf57f793          	andi	a5,a5,-1035
    317c:	8fd9                	or	a5,a5,a4
    317e:	a01e                	sh	a5,0(s0)
    3180:	259a                	lhu	a4,8(a1)
    3182:	25de                	lhu	a5,12(a1)
    3184:	8fd9                	or	a5,a5,a4
    3186:	a41e                	sh	a5,8(s0)
    3188:	6145                	addi	sp,sp,48
    318a:	bb8fd06f          	j	542 <__riscv_restore_0>
    318e:	21ea                	lhu	a0,6(a1)
    3190:	6631                	lui	a2,0xc
    3192:	167d                	addi	a2,a2,-1
    3194:	02c51d63          	bne	a0,a2,31ce <I2C_Init+0xde>
    3198:	460d                	li	a2,3
    319a:	02c686b3          	mul	a3,a3,a2
    319e:	02d7d7b3          	divu	a5,a5,a3
    31a2:	07c2                	slli	a5,a5,0x10
    31a4:	83c1                	srli	a5,a5,0x10
    31a6:	01479693          	slli	a3,a5,0x14
    31aa:	e299                	bnez	a3,31b0 <I2C_Init+0xc0>
    31ac:	0017e793          	ori	a5,a5,1
    31b0:	66a1                	lui	a3,0x8
    31b2:	8fd5                	or	a5,a5,a3
    31b4:	12c00693          	li	a3,300
    31b8:	02d70733          	mul	a4,a4,a3
    31bc:	3e800693          	li	a3,1000
    31c0:	02d74733          	div	a4,a4,a3
    31c4:	0705                	addi	a4,a4,1
    31c6:	0742                	slli	a4,a4,0x10
    31c8:	8341                	srli	a4,a4,0x10
    31ca:	b01a                	sh	a4,32(s0)
    31cc:	bf59                	j	3162 <I2C_Init+0x72>
    31ce:	4665                	li	a2,25
    31d0:	02c686b3          	mul	a3,a3,a2
    31d4:	02d7d7b3          	divu	a5,a5,a3
    31d8:	6691                	lui	a3,0x4
    31da:	07c2                	slli	a5,a5,0x10
    31dc:	83c1                	srli	a5,a5,0x10
    31de:	8fd5                	or	a5,a5,a3
    31e0:	b7d9                	j	31a6 <I2C_Init+0xb6>

000031e2 <I2C_Cmd>:
    31e2:	211e                	lhu	a5,0(a0)
    31e4:	c589                	beqz	a1,31ee <I2C_Cmd+0xc>
    31e6:	0017e793          	ori	a5,a5,1
    31ea:	a11e                	sh	a5,0(a0)
    31ec:	8082                	ret
    31ee:	07c2                	slli	a5,a5,0x10
    31f0:	83c1                	srli	a5,a5,0x10
    31f2:	9bf9                	andi	a5,a5,-2
    31f4:	07c2                	slli	a5,a5,0x10
    31f6:	83c1                	srli	a5,a5,0x10
    31f8:	bfcd                	j	31ea <I2C_Cmd+0x8>

000031fa <I2C_GenerateSTART>:
    31fa:	211e                	lhu	a5,0(a0)
    31fc:	c589                	beqz	a1,3206 <I2C_GenerateSTART+0xc>
    31fe:	1007e793          	ori	a5,a5,256
    3202:	a11e                	sh	a5,0(a0)
    3204:	8082                	ret
    3206:	07c2                	slli	a5,a5,0x10
    3208:	83c1                	srli	a5,a5,0x10
    320a:	eff7f793          	andi	a5,a5,-257
    320e:	07c2                	slli	a5,a5,0x10
    3210:	83c1                	srli	a5,a5,0x10
    3212:	bfc5                	j	3202 <I2C_GenerateSTART+0x8>

00003214 <I2C_GenerateSTOP>:
    3214:	211e                	lhu	a5,0(a0)
    3216:	c589                	beqz	a1,3220 <I2C_GenerateSTOP+0xc>
    3218:	2007e793          	ori	a5,a5,512
    321c:	a11e                	sh	a5,0(a0)
    321e:	8082                	ret
    3220:	07c2                	slli	a5,a5,0x10
    3222:	83c1                	srli	a5,a5,0x10
    3224:	dff7f793          	andi	a5,a5,-513
    3228:	07c2                	slli	a5,a5,0x10
    322a:	83c1                	srli	a5,a5,0x10
    322c:	bfc5                	j	321c <I2C_GenerateSTOP+0x8>

0000322e <I2C_AcknowledgeConfig>:
    322e:	211e                	lhu	a5,0(a0)
    3230:	c589                	beqz	a1,323a <I2C_AcknowledgeConfig+0xc>
    3232:	4007e793          	ori	a5,a5,1024
    3236:	a11e                	sh	a5,0(a0)
    3238:	8082                	ret
    323a:	07c2                	slli	a5,a5,0x10
    323c:	83c1                	srli	a5,a5,0x10
    323e:	bff7f793          	andi	a5,a5,-1025
    3242:	07c2                	slli	a5,a5,0x10
    3244:	83c1                	srli	a5,a5,0x10
    3246:	bfc5                	j	3236 <I2C_AcknowledgeConfig+0x8>

00003248 <I2C_DualAddressCmd>:
    3248:	255e                	lhu	a5,12(a0)
    324a:	c589                	beqz	a1,3254 <I2C_DualAddressCmd+0xc>
    324c:	0017e793          	ori	a5,a5,1
    3250:	a55e                	sh	a5,12(a0)
    3252:	8082                	ret
    3254:	07c2                	slli	a5,a5,0x10
    3256:	83c1                	srli	a5,a5,0x10
    3258:	9bf9                	andi	a5,a5,-2
    325a:	07c2                	slli	a5,a5,0x10
    325c:	83c1                	srli	a5,a5,0x10
    325e:	bfcd                	j	3250 <I2C_DualAddressCmd+0x8>

00003260 <I2C_ITConfig>:
    3260:	215e                	lhu	a5,4(a0)
    3262:	c601                	beqz	a2,326a <I2C_ITConfig+0xa>
    3264:	8ddd                	or	a1,a1,a5
    3266:	a14e                	sh	a1,4(a0)
    3268:	8082                	ret
    326a:	fff5c593          	not	a1,a1
    326e:	8dfd                	and	a1,a1,a5
    3270:	bfdd                	j	3266 <I2C_ITConfig+0x6>

00003272 <I2C_SendData>:
    3272:	a90e                	sh	a1,16(a0)
    3274:	8082                	ret

00003276 <I2C_ReceiveData>:
    3276:	290a                	lhu	a0,16(a0)
    3278:	0ff57513          	andi	a0,a0,255
    327c:	8082                	ret

0000327e <I2C_Send7bitAddress>:
    327e:	0fe5f793          	andi	a5,a1,254
    3282:	c219                	beqz	a2,3288 <I2C_Send7bitAddress+0xa>
    3284:	0015e793          	ori	a5,a1,1
    3288:	07c2                	slli	a5,a5,0x10
    328a:	83c1                	srli	a5,a5,0x10
    328c:	a91e                	sh	a5,16(a0)
    328e:	8082                	ret

00003290 <I2C_ReadRegister>:
    3290:	1141                	addi	sp,sp,-16
    3292:	c602                	sw	zero,12(sp)
    3294:	c62a                	sw	a0,12(sp)
    3296:	47b2                	lw	a5,12(sp)
    3298:	95be                	add	a1,a1,a5
    329a:	c62e                	sw	a1,12(sp)
    329c:	47b2                	lw	a5,12(sp)
    329e:	238a                	lhu	a0,0(a5)
    32a0:	0141                	addi	sp,sp,16
    32a2:	8082                	ret

000032a4 <I2C_GetFlagStatus>:
    32a4:	1141                	addi	sp,sp,-16
    32a6:	c402                	sw	zero,8(sp)
    32a8:	c602                	sw	zero,12(sp)
    32aa:	01c5d793          	srli	a5,a1,0x1c
    32ae:	c62a                	sw	a0,12(sp)
    32b0:	c43e                	sw	a5,8(sp)
    32b2:	47a2                	lw	a5,8(sp)
    32b4:	05a2                	slli	a1,a1,0x8
    32b6:	81a1                	srli	a1,a1,0x8
    32b8:	cb99                	beqz	a5,32ce <I2C_GetFlagStatus+0x2a>
    32ba:	47b2                	lw	a5,12(sp)
    32bc:	07d1                	addi	a5,a5,20
    32be:	c63e                	sw	a5,12(sp)
    32c0:	47b2                	lw	a5,12(sp)
    32c2:	4388                	lw	a0,0(a5)
    32c4:	0141                	addi	sp,sp,16
    32c6:	8d6d                	and	a0,a0,a1
    32c8:	00a03533          	snez	a0,a0
    32cc:	8082                	ret
    32ce:	47b2                	lw	a5,12(sp)
    32d0:	81c1                	srli	a1,a1,0x10
    32d2:	07e1                	addi	a5,a5,24
    32d4:	b7ed                	j	32be <I2C_GetFlagStatus+0x1a>

000032d6 <I2C_ClearFlag>:
    32d6:	fff5c593          	not	a1,a1
    32da:	05c2                	slli	a1,a1,0x10
    32dc:	81c1                	srli	a1,a1,0x10
    32de:	a94e                	sh	a1,20(a0)
    32e0:	8082                	ret

000032e2 <NVIC_PriorityGroupConfig>:
    32e2:	200007b7          	lui	a5,0x20000
    32e6:	62a7a023          	sw	a0,1568(a5) # 20000620 <NVIC_Priority_Group>
    32ea:	8082                	ret

000032ec <NVIC_Init>:
    32ec:	200007b7          	lui	a5,0x20000
    32f0:	62078793          	addi	a5,a5,1568 # 20000620 <NVIC_Priority_Group>
    32f4:	4394                	lw	a3,0(a5)
    32f6:	2118                	lbu	a4,0(a0)
    32f8:	e681                	bnez	a3,3300 <NVIC_Init+0x14>
    32fa:	213c                	lbu	a5,2(a0)
    32fc:	0792                	slli	a5,a5,0x4
    32fe:	a821                	j	3316 <NVIC_Init+0x2a>
    3300:	4394                	lw	a3,0(a5)
    3302:	4605                	li	a2,1
    3304:	02c69f63          	bne	a3,a2,3342 <NVIC_Init+0x56>
    3308:	213c                	lbu	a5,2(a0)
    330a:	3110                	lbu	a2,1(a0)
    330c:	0792                	slli	a5,a5,0x4
    330e:	00d61463          	bne	a2,a3,3316 <NVIC_Init+0x2a>
    3312:	f807e793          	ori	a5,a5,-128
    3316:	e000e6b7          	lui	a3,0xe000e
    331a:	0ff7f793          	andi	a5,a5,255
    331e:	96ba                	add	a3,a3,a4
    3320:	40f68023          	sb	a5,1024(a3) # e000e400 <__freertos_irq_stack_top+0xc0009400>
    3324:	4685                	li	a3,1
    3326:	00575793          	srli	a5,a4,0x5
    332a:	00e69733          	sll	a4,a3,a4
    332e:	4154                	lw	a3,4(a0)
    3330:	c2a5                	beqz	a3,3390 <NVIC_Init+0xa4>
    3332:	04078793          	addi	a5,a5,64
    3336:	078a                	slli	a5,a5,0x2
    3338:	e000e6b7          	lui	a3,0xe000e
    333c:	97b6                	add	a5,a5,a3
    333e:	c398                	sw	a4,0(a5)
    3340:	8082                	ret
    3342:	438c                	lw	a1,0(a5)
    3344:	4689                	li	a3,2
    3346:	02d59163          	bne	a1,a3,3368 <NVIC_Init+0x7c>
    334a:	3114                	lbu	a3,1(a0)
    334c:	213c                	lbu	a5,2(a0)
    334e:	00d66563          	bltu	a2,a3,3358 <NVIC_Init+0x6c>
    3352:	068a                	slli	a3,a3,0x2
    3354:	97b6                	add	a5,a5,a3
    3356:	b75d                	j	32fc <NVIC_Init+0x10>
    3358:	03e68693          	addi	a3,a3,62 # e000e03e <__freertos_irq_stack_top+0xc000903e>
    335c:	068a                	slli	a3,a3,0x2
    335e:	97b6                	add	a5,a5,a3
    3360:	0ff7f793          	andi	a5,a5,255
    3364:	0792                	slli	a5,a5,0x4
    3366:	b775                	j	3312 <NVIC_Init+0x26>
    3368:	4390                	lw	a2,0(a5)
    336a:	468d                	li	a3,3
    336c:	00d61c63          	bne	a2,a3,3384 <NVIC_Init+0x98>
    3370:	3114                	lbu	a3,1(a0)
    3372:	213c                	lbu	a5,2(a0)
    3374:	00d66463          	bltu	a2,a3,337c <NVIC_Init+0x90>
    3378:	0686                	slli	a3,a3,0x1
    337a:	bfe9                	j	3354 <NVIC_Init+0x68>
    337c:	07c68693          	addi	a3,a3,124
    3380:	0686                	slli	a3,a3,0x1
    3382:	bff1                	j	335e <NVIC_Init+0x72>
    3384:	4394                	lw	a3,0(a5)
    3386:	4791                	li	a5,4
    3388:	f8f69ee3          	bne	a3,a5,3324 <NVIC_Init+0x38>
    338c:	311c                	lbu	a5,1(a0)
    338e:	b7bd                	j	32fc <NVIC_Init+0x10>
    3390:	06078793          	addi	a5,a5,96
    3394:	b74d                	j	3336 <NVIC_Init+0x4a>

00003396 <PWR_BackupAccessCmd>:
    3396:	40007737          	lui	a4,0x40007
    339a:	431c                	lw	a5,0(a4)
    339c:	c509                	beqz	a0,33a6 <PWR_BackupAccessCmd+0x10>
    339e:	1007e793          	ori	a5,a5,256
    33a2:	c31c                	sw	a5,0(a4)
    33a4:	8082                	ret
    33a6:	eff7f793          	andi	a5,a5,-257
    33aa:	bfe5                	j	33a2 <PWR_BackupAccessCmd+0xc>

000033ac <RCC_ADCCLKConfig>:
    33ac:	400216b7          	lui	a3,0x40021
    33b0:	42dc                	lw	a5,4(a3)
    33b2:	7751                	lui	a4,0xffff4
    33b4:	177d                	addi	a4,a4,-1
    33b6:	8ff9                	and	a5,a5,a4
    33b8:	8d5d                	or	a0,a0,a5
    33ba:	c2c8                	sw	a0,4(a3)
    33bc:	8082                	ret

000033be <RCC_LSEConfig>:
    33be:	400217b7          	lui	a5,0x40021
    33c2:	02078023          	sb	zero,32(a5) # 40021020 <__freertos_irq_stack_top+0x2001c020>
    33c6:	02078023          	sb	zero,32(a5)
    33ca:	4705                	li	a4,1
    33cc:	00e50663          	beq	a0,a4,33d8 <RCC_LSEConfig+0x1a>
    33d0:	4711                	li	a4,4
    33d2:	00e50663          	beq	a0,a4,33de <RCC_LSEConfig+0x20>
    33d6:	8082                	ret
    33d8:	02a78023          	sb	a0,32(a5)
    33dc:	8082                	ret
    33de:	4715                	li	a4,5
    33e0:	02e78023          	sb	a4,32(a5)
    33e4:	8082                	ret

000033e6 <RCC_RTCCLKConfig>:
    33e6:	40021737          	lui	a4,0x40021
    33ea:	531c                	lw	a5,32(a4)
    33ec:	8d5d                	or	a0,a0,a5
    33ee:	d308                	sw	a0,32(a4)
    33f0:	8082                	ret

000033f2 <RCC_RTCCLKCmd>:
    33f2:	c901                	beqz	a0,3402 <RCC_RTCCLKCmd+0x10>
    33f4:	40021737          	lui	a4,0x40021
    33f8:	531c                	lw	a5,32(a4)
    33fa:	66a1                	lui	a3,0x8
    33fc:	8fd5                	or	a5,a5,a3
    33fe:	d31c                	sw	a5,32(a4)
    3400:	8082                	ret
    3402:	400216b7          	lui	a3,0x40021
    3406:	529c                	lw	a5,32(a3)
    3408:	7761                	lui	a4,0xffff8
    340a:	177d                	addi	a4,a4,-1
    340c:	8ff9                	and	a5,a5,a4
    340e:	d29c                	sw	a5,32(a3)
    3410:	8082                	ret

00003412 <RCC_GetClocksFreq>:
    3412:	40021737          	lui	a4,0x40021
    3416:	435c                	lw	a5,4(a4)
    3418:	4691                	li	a3,4
    341a:	8bb1                	andi	a5,a5,12
    341c:	00d78563          	beq	a5,a3,3426 <RCC_GetClocksFreq+0x14>
    3420:	46a1                	li	a3,8
    3422:	06d78263          	beq	a5,a3,3486 <RCC_GetClocksFreq+0x74>
    3426:	007a17b7          	lui	a5,0x7a1
    342a:	20078793          	addi	a5,a5,512 # 7a1200 <_data_lma+0x793a68>
    342e:	c11c                	sw	a5,0(a0)
    3430:	40021637          	lui	a2,0x40021
    3434:	425c                	lw	a5,4(a2)
    3436:	20000737          	lui	a4,0x20000
    343a:	01070713          	addi	a4,a4,16 # 20000010 <APBAHBPrescTable>
    343e:	8391                	srli	a5,a5,0x4
    3440:	8bbd                	andi	a5,a5,15
    3442:	97ba                	add	a5,a5,a4
    3444:	2394                	lbu	a3,0(a5)
    3446:	411c                	lw	a5,0(a0)
    3448:	00d7d7b3          	srl	a5,a5,a3
    344c:	c15c                	sw	a5,4(a0)
    344e:	4254                	lw	a3,4(a2)
    3450:	82a1                	srli	a3,a3,0x8
    3452:	8a9d                	andi	a3,a3,7
    3454:	96ba                	add	a3,a3,a4
    3456:	2294                	lbu	a3,0(a3)
    3458:	00d7d6b3          	srl	a3,a5,a3
    345c:	c514                	sw	a3,8(a0)
    345e:	4254                	lw	a3,4(a2)
    3460:	82ad                	srli	a3,a3,0xb
    3462:	8a9d                	andi	a3,a3,7
    3464:	9736                	add	a4,a4,a3
    3466:	2318                	lbu	a4,0(a4)
    3468:	00e7d7b3          	srl	a5,a5,a4
    346c:	c55c                	sw	a5,12(a0)
    346e:	4258                	lw	a4,4(a2)
    3470:	8339                	srli	a4,a4,0xe
    3472:	00377693          	andi	a3,a4,3
    3476:	80418713          	addi	a4,gp,-2044 # 20000584 <ADCPrescTable>
    347a:	9736                	add	a4,a4,a3
    347c:	2318                	lbu	a4,0(a4)
    347e:	02e7d7b3          	divu	a5,a5,a4
    3482:	c91c                	sw	a5,16(a0)
    3484:	8082                	ret
    3486:	435c                	lw	a5,4(a4)
    3488:	4358                	lw	a4,4(a4)
    348a:	66c1                	lui	a3,0x10
    348c:	83c9                	srli	a5,a5,0x12
    348e:	8bbd                	andi	a5,a5,15
    3490:	8f75                	and	a4,a4,a3
    3492:	0789                	addi	a5,a5,2
    3494:	46c5                	li	a3,17
    3496:	00d79363          	bne	a5,a3,349c <RCC_GetClocksFreq+0x8a>
    349a:	47c9                	li	a5,18
    349c:	ef01                	bnez	a4,34b4 <RCC_GetClocksFreq+0xa2>
    349e:	40024737          	lui	a4,0x40024
    34a2:	80072703          	lw	a4,-2048(a4) # 40023800 <__freertos_irq_stack_top+0x2001e800>
    34a6:	8b41                	andi	a4,a4,16
    34a8:	cf09                	beqz	a4,34c2 <RCC_GetClocksFreq+0xb0>
    34aa:	007a1737          	lui	a4,0x7a1
    34ae:	20070713          	addi	a4,a4,512 # 7a1200 <_data_lma+0x793a68>
    34b2:	a821                	j	34ca <RCC_GetClocksFreq+0xb8>
    34b4:	40021737          	lui	a4,0x40021
    34b8:	4358                	lw	a4,4(a4)
    34ba:	00e71693          	slli	a3,a4,0xe
    34be:	fe06d6e3          	bgez	a3,34aa <RCC_GetClocksFreq+0x98>
    34c2:	003d1737          	lui	a4,0x3d1
    34c6:	90070713          	addi	a4,a4,-1792 # 3d0900 <_data_lma+0x3c3168>
    34ca:	02e787b3          	mul	a5,a5,a4
    34ce:	b785                	j	342e <RCC_GetClocksFreq+0x1c>

000034d0 <RCC_AHBPeriphClockCmd>:
    34d0:	c599                	beqz	a1,34de <RCC_AHBPeriphClockCmd+0xe>
    34d2:	40021737          	lui	a4,0x40021
    34d6:	4b5c                	lw	a5,20(a4)
    34d8:	8d5d                	or	a0,a0,a5
    34da:	cb48                	sw	a0,20(a4)
    34dc:	8082                	ret
    34de:	400217b7          	lui	a5,0x40021
    34e2:	4bd8                	lw	a4,20(a5)
    34e4:	fff54513          	not	a0,a0
    34e8:	8d79                	and	a0,a0,a4
    34ea:	cbc8                	sw	a0,20(a5)
    34ec:	8082                	ret

000034ee <RCC_APB2PeriphClockCmd>:
    34ee:	c599                	beqz	a1,34fc <RCC_APB2PeriphClockCmd+0xe>
    34f0:	40021737          	lui	a4,0x40021
    34f4:	4f1c                	lw	a5,24(a4)
    34f6:	8d5d                	or	a0,a0,a5
    34f8:	cf08                	sw	a0,24(a4)
    34fa:	8082                	ret
    34fc:	400217b7          	lui	a5,0x40021
    3500:	4f98                	lw	a4,24(a5)
    3502:	fff54513          	not	a0,a0
    3506:	8d79                	and	a0,a0,a4
    3508:	cf88                	sw	a0,24(a5)
    350a:	8082                	ret

0000350c <RCC_APB1PeriphClockCmd>:
    350c:	c599                	beqz	a1,351a <RCC_APB1PeriphClockCmd+0xe>
    350e:	40021737          	lui	a4,0x40021
    3512:	4f5c                	lw	a5,28(a4)
    3514:	8d5d                	or	a0,a0,a5
    3516:	cf48                	sw	a0,28(a4)
    3518:	8082                	ret
    351a:	400217b7          	lui	a5,0x40021
    351e:	4fd8                	lw	a4,28(a5)
    3520:	fff54513          	not	a0,a0
    3524:	8d79                	and	a0,a0,a4
    3526:	cfc8                	sw	a0,28(a5)
    3528:	8082                	ret

0000352a <RCC_APB2PeriphResetCmd>:
    352a:	c599                	beqz	a1,3538 <RCC_APB2PeriphResetCmd+0xe>
    352c:	40021737          	lui	a4,0x40021
    3530:	475c                	lw	a5,12(a4)
    3532:	8d5d                	or	a0,a0,a5
    3534:	c748                	sw	a0,12(a4)
    3536:	8082                	ret
    3538:	400217b7          	lui	a5,0x40021
    353c:	47d8                	lw	a4,12(a5)
    353e:	fff54513          	not	a0,a0
    3542:	8d79                	and	a0,a0,a4
    3544:	c7c8                	sw	a0,12(a5)
    3546:	8082                	ret

00003548 <RCC_APB1PeriphResetCmd>:
    3548:	c599                	beqz	a1,3556 <RCC_APB1PeriphResetCmd+0xe>
    354a:	40021737          	lui	a4,0x40021
    354e:	4b1c                	lw	a5,16(a4)
    3550:	8d5d                	or	a0,a0,a5
    3552:	cb08                	sw	a0,16(a4)
    3554:	8082                	ret
    3556:	400217b7          	lui	a5,0x40021
    355a:	4b98                	lw	a4,16(a5)
    355c:	fff54513          	not	a0,a0
    3560:	8d79                	and	a0,a0,a4
    3562:	cb88                	sw	a0,16(a5)
    3564:	8082                	ret

00003566 <RCC_BackupResetCmd>:
    3566:	c901                	beqz	a0,3576 <RCC_BackupResetCmd+0x10>
    3568:	40021737          	lui	a4,0x40021
    356c:	531c                	lw	a5,32(a4)
    356e:	66c1                	lui	a3,0x10
    3570:	8fd5                	or	a5,a5,a3
    3572:	d31c                	sw	a5,32(a4)
    3574:	8082                	ret
    3576:	400216b7          	lui	a3,0x40021
    357a:	529c                	lw	a5,32(a3)
    357c:	7741                	lui	a4,0xffff0
    357e:	177d                	addi	a4,a4,-1
    3580:	8ff9                	and	a5,a5,a4
    3582:	d29c                	sw	a5,32(a3)
    3584:	8082                	ret

00003586 <RCC_GetFlagStatus>:
    3586:	00555793          	srli	a5,a0,0x5
    358a:	4705                	li	a4,1
    358c:	00e79963          	bne	a5,a4,359e <RCC_GetFlagStatus+0x18>
    3590:	400217b7          	lui	a5,0x40021
    3594:	439c                	lw	a5,0(a5)
    3596:	00a7d533          	srl	a0,a5,a0
    359a:	8905                	andi	a0,a0,1
    359c:	8082                	ret
    359e:	4709                	li	a4,2
    35a0:	00e79663          	bne	a5,a4,35ac <RCC_GetFlagStatus+0x26>
    35a4:	400217b7          	lui	a5,0x40021
    35a8:	539c                	lw	a5,32(a5)
    35aa:	b7f5                	j	3596 <RCC_GetFlagStatus+0x10>
    35ac:	400217b7          	lui	a5,0x40021
    35b0:	53dc                	lw	a5,36(a5)
    35b2:	b7d5                	j	3596 <RCC_GetFlagStatus+0x10>

000035b4 <RTC_ITConfig>:
    35b4:	400037b7          	lui	a5,0x40003
    35b8:	8007d703          	lhu	a4,-2048(a5) # 40002800 <__freertos_irq_stack_top+0x1fffd800>
    35bc:	c589                	beqz	a1,35c6 <RTC_ITConfig+0x12>
    35be:	8d59                	or	a0,a0,a4
    35c0:	80a79023          	sh	a0,-2048(a5)
    35c4:	8082                	ret
    35c6:	fff54513          	not	a0,a0
    35ca:	8d79                	and	a0,a0,a4
    35cc:	bfd5                	j	35c0 <RTC_ITConfig+0xc>

000035ce <RTC_EnterConfigMode>:
    35ce:	400037b7          	lui	a5,0x40003
    35d2:	8047d703          	lhu	a4,-2044(a5) # 40002804 <__freertos_irq_stack_top+0x1fffd804>
    35d6:	01076713          	ori	a4,a4,16
    35da:	80e79223          	sh	a4,-2044(a5)
    35de:	8082                	ret

000035e0 <RTC_ExitConfigMode>:
    35e0:	40003737          	lui	a4,0x40003
    35e4:	80475783          	lhu	a5,-2044(a4) # 40002804 <__freertos_irq_stack_top+0x1fffd804>
    35e8:	07c2                	slli	a5,a5,0x10
    35ea:	83c1                	srli	a5,a5,0x10
    35ec:	9bbd                	andi	a5,a5,-17
    35ee:	07c2                	slli	a5,a5,0x10
    35f0:	83c1                	srli	a5,a5,0x10
    35f2:	80f71223          	sh	a5,-2044(a4)
    35f6:	8082                	ret

000035f8 <RTC_SetPrescaler>:
    35f8:	f27fc2ef          	jal	t0,51e <__riscv_save_0>
    35fc:	1141                	addi	sp,sp,-16
    35fe:	c62a                	sw	a0,12(sp)
    3600:	fcfff0ef          	jal	ra,35ce <RTC_EnterConfigMode>
    3604:	4532                	lw	a0,12(sp)
    3606:	400037b7          	lui	a5,0x40003
    360a:	01055713          	srli	a4,a0,0x10
    360e:	8b3d                	andi	a4,a4,15
    3610:	0542                	slli	a0,a0,0x10
    3612:	80e79423          	sh	a4,-2040(a5) # 40002808 <__freertos_irq_stack_top+0x1fffd808>
    3616:	8141                	srli	a0,a0,0x10
    3618:	80a79623          	sh	a0,-2036(a5)
    361c:	fc5ff0ef          	jal	ra,35e0 <RTC_ExitConfigMode>
    3620:	0141                	addi	sp,sp,16
    3622:	f21fc06f          	j	542 <__riscv_restore_0>

00003626 <RTC_WaitForLastTask>:
    3626:	40003737          	lui	a4,0x40003
    362a:	80475783          	lhu	a5,-2044(a4) # 40002804 <__freertos_irq_stack_top+0x1fffd804>
    362e:	0207f793          	andi	a5,a5,32
    3632:	dfe5                	beqz	a5,362a <RTC_WaitForLastTask+0x4>
    3634:	8082                	ret

00003636 <RTC_WaitForSynchro>:
    3636:	40003737          	lui	a4,0x40003
    363a:	80475783          	lhu	a5,-2044(a4) # 40002804 <__freertos_irq_stack_top+0x1fffd804>
    363e:	07c2                	slli	a5,a5,0x10
    3640:	83c1                	srli	a5,a5,0x10
    3642:	9bdd                	andi	a5,a5,-9
    3644:	07c2                	slli	a5,a5,0x10
    3646:	83c1                	srli	a5,a5,0x10
    3648:	80f71223          	sh	a5,-2044(a4)
    364c:	40003737          	lui	a4,0x40003
    3650:	80475783          	lhu	a5,-2044(a4) # 40002804 <__freertos_irq_stack_top+0x1fffd804>
    3654:	8ba1                	andi	a5,a5,8
    3656:	dfed                	beqz	a5,3650 <RTC_WaitForSynchro+0x1a>
    3658:	8082                	ret

0000365a <RTC_ClearFlag>:
    365a:	400037b7          	lui	a5,0x40003
    365e:	8047d703          	lhu	a4,-2044(a5) # 40002804 <__freertos_irq_stack_top+0x1fffd804>
    3662:	fff54513          	not	a0,a0
    3666:	8d79                	and	a0,a0,a4
    3668:	80a79223          	sh	a0,-2044(a5)
    366c:	8082                	ret

0000366e <RTC_GetITStatus>:
    366e:	40003737          	lui	a4,0x40003
    3672:	80475783          	lhu	a5,-2044(a4) # 40002804 <__freertos_irq_stack_top+0x1fffd804>
    3676:	80075703          	lhu	a4,-2048(a4)
    367a:	07c2                	slli	a5,a5,0x10
    367c:	8f69                	and	a4,a4,a0
    367e:	83c1                	srli	a5,a5,0x10
    3680:	c709                	beqz	a4,368a <RTC_GetITStatus+0x1c>
    3682:	8d7d                	and	a0,a0,a5
    3684:	00a03533          	snez	a0,a0
    3688:	8082                	ret
    368a:	4501                	li	a0,0
    368c:	8082                	ret

0000368e <RTC_ClearITPendingBit>:
    368e:	e91fc2ef          	jal	t0,51e <__riscv_save_0>
    3692:	fc9ff0ef          	jal	ra,365a <RTC_ClearFlag>
    3696:	eadfc06f          	j	542 <__riscv_restore_0>

0000369a <SPI_I2S_DeInit>:
    369a:	e85fc2ef          	jal	t0,51e <__riscv_save_0>
    369e:	400137b7          	lui	a5,0x40013
    36a2:	00f51c63          	bne	a0,a5,36ba <SPI_I2S_DeInit+0x20>
    36a6:	4585                	li	a1,1
    36a8:	6505                	lui	a0,0x1
    36aa:	e81ff0ef          	jal	ra,352a <RCC_APB2PeriphResetCmd>
    36ae:	4581                	li	a1,0
    36b0:	6505                	lui	a0,0x1
    36b2:	e79ff0ef          	jal	ra,352a <RCC_APB2PeriphResetCmd>
    36b6:	e8dfc06f          	j	542 <__riscv_restore_0>
    36ba:	400047b7          	lui	a5,0x40004
    36be:	80078793          	addi	a5,a5,-2048 # 40003800 <__freertos_irq_stack_top+0x1fffe800>
    36c2:	fef51ae3          	bne	a0,a5,36b6 <SPI_I2S_DeInit+0x1c>
    36c6:	4585                	li	a1,1
    36c8:	6511                	lui	a0,0x4
    36ca:	e7fff0ef          	jal	ra,3548 <RCC_APB1PeriphResetCmd>
    36ce:	4581                	li	a1,0
    36d0:	6511                	lui	a0,0x4
    36d2:	e77ff0ef          	jal	ra,3548 <RCC_APB1PeriphResetCmd>
    36d6:	b7c5                	j	36b6 <SPI_I2S_DeInit+0x1c>

000036d8 <SPI_Init>:
    36d8:	211a                	lhu	a4,0(a0)
    36da:	678d                	lui	a5,0x3
    36dc:	04078793          	addi	a5,a5,64 # 3040 <GPIO_PinRemapConfig+0x42>
    36e0:	21b6                	lhu	a3,2(a1)
    36e2:	8f7d                	and	a4,a4,a5
    36e4:	219e                	lhu	a5,0(a1)
    36e6:	8fd5                	or	a5,a5,a3
    36e8:	21d6                	lhu	a3,4(a1)
    36ea:	8fd5                	or	a5,a5,a3
    36ec:	21f6                	lhu	a3,6(a1)
    36ee:	8fd5                	or	a5,a5,a3
    36f0:	2596                	lhu	a3,8(a1)
    36f2:	8fd5                	or	a5,a5,a3
    36f4:	25b6                	lhu	a3,10(a1)
    36f6:	8fd5                	or	a5,a5,a3
    36f8:	25d6                	lhu	a3,12(a1)
    36fa:	8fd5                	or	a5,a5,a3
    36fc:	25f6                	lhu	a3,14(a1)
    36fe:	8fd5                	or	a5,a5,a3
    3700:	8fd9                	or	a5,a5,a4
    3702:	a11e                	sh	a5,0(a0)
    3704:	2d5a                	lhu	a4,28(a0)
    3706:	77fd                	lui	a5,0xfffff
    3708:	7ff78793          	addi	a5,a5,2047 # fffff7ff <__freertos_irq_stack_top+0xdfffa7ff>
    370c:	8ff9                	and	a5,a5,a4
    370e:	ad5e                	sh	a5,28(a0)
    3710:	299e                	lhu	a5,16(a1)
    3712:	a91e                	sh	a5,16(a0)
    3714:	8082                	ret

00003716 <SPI_Cmd>:
    3716:	211e                	lhu	a5,0(a0)
    3718:	c589                	beqz	a1,3722 <SPI_Cmd+0xc>
    371a:	0407e793          	ori	a5,a5,64
    371e:	a11e                	sh	a5,0(a0)
    3720:	8082                	ret
    3722:	07c2                	slli	a5,a5,0x10
    3724:	83c1                	srli	a5,a5,0x10
    3726:	fbf7f793          	andi	a5,a5,-65
    372a:	07c2                	slli	a5,a5,0x10
    372c:	83c1                	srli	a5,a5,0x10
    372e:	bfc5                	j	371e <SPI_Cmd+0x8>

00003730 <SPI_I2S_DMACmd>:
    3730:	215e                	lhu	a5,4(a0)
    3732:	c601                	beqz	a2,373a <SPI_I2S_DMACmd+0xa>
    3734:	8ddd                	or	a1,a1,a5
    3736:	a14e                	sh	a1,4(a0)
    3738:	8082                	ret
    373a:	fff5c593          	not	a1,a1
    373e:	8dfd                	and	a1,a1,a5
    3740:	bfdd                	j	3736 <SPI_I2S_DMACmd+0x6>

00003742 <SPI_I2S_GetFlagStatus>:
    3742:	250a                	lhu	a0,8(a0)
    3744:	8d6d                	and	a0,a0,a1
    3746:	00a03533          	snez	a0,a0
    374a:	8082                	ret

0000374c <SPI_I2S_ClearFlag>:
    374c:	fff5c593          	not	a1,a1
    3750:	05c2                	slli	a1,a1,0x10
    3752:	81c1                	srli	a1,a1,0x10
    3754:	a50e                	sh	a1,8(a0)
    3756:	8082                	ret

00003758 <TIM_DeInit>:
    3758:	dc7fc2ef          	jal	t0,51e <__riscv_save_0>
    375c:	400137b7          	lui	a5,0x40013
    3760:	c0078793          	addi	a5,a5,-1024 # 40012c00 <__freertos_irq_stack_top+0x2000dc00>
    3764:	00f51f63          	bne	a0,a5,3782 <TIM_DeInit+0x2a>
    3768:	6405                	lui	s0,0x1
    376a:	4585                	li	a1,1
    376c:	80040513          	addi	a0,s0,-2048 # 800 <__stack_size>
    3770:	dbbff0ef          	jal	ra,352a <RCC_APB2PeriphResetCmd>
    3774:	4581                	li	a1,0
    3776:	80040513          	addi	a0,s0,-2048
    377a:	db1ff0ef          	jal	ra,352a <RCC_APB2PeriphResetCmd>
    377e:	dc5fc06f          	j	542 <__riscv_restore_0>
    3782:	400007b7          	lui	a5,0x40000
    3786:	00f51b63          	bne	a0,a5,379c <TIM_DeInit+0x44>
    378a:	4585                	li	a1,1
    378c:	4505                	li	a0,1
    378e:	dbbff0ef          	jal	ra,3548 <RCC_APB1PeriphResetCmd>
    3792:	4581                	li	a1,0
    3794:	4505                	li	a0,1
    3796:	db3ff0ef          	jal	ra,3548 <RCC_APB1PeriphResetCmd>
    379a:	b7d5                	j	377e <TIM_DeInit+0x26>
    379c:	40078793          	addi	a5,a5,1024 # 40000400 <__freertos_irq_stack_top+0x1fffb400>
    37a0:	00f51963          	bne	a0,a5,37b2 <TIM_DeInit+0x5a>
    37a4:	4585                	li	a1,1
    37a6:	4509                	li	a0,2
    37a8:	da1ff0ef          	jal	ra,3548 <RCC_APB1PeriphResetCmd>
    37ac:	4581                	li	a1,0
    37ae:	4509                	li	a0,2
    37b0:	b7dd                	j	3796 <TIM_DeInit+0x3e>
    37b2:	400017b7          	lui	a5,0x40001
    37b6:	80078713          	addi	a4,a5,-2048 # 40000800 <__freertos_irq_stack_top+0x1fffb800>
    37ba:	00e51963          	bne	a0,a4,37cc <TIM_DeInit+0x74>
    37be:	4585                	li	a1,1
    37c0:	4511                	li	a0,4
    37c2:	d87ff0ef          	jal	ra,3548 <RCC_APB1PeriphResetCmd>
    37c6:	4581                	li	a1,0
    37c8:	4511                	li	a0,4
    37ca:	b7f1                	j	3796 <TIM_DeInit+0x3e>
    37cc:	c0078793          	addi	a5,a5,-1024
    37d0:	faf517e3          	bne	a0,a5,377e <TIM_DeInit+0x26>
    37d4:	4585                	li	a1,1
    37d6:	4521                	li	a0,8
    37d8:	d71ff0ef          	jal	ra,3548 <RCC_APB1PeriphResetCmd>
    37dc:	4581                	li	a1,0
    37de:	4521                	li	a0,8
    37e0:	bf5d                	j	3796 <TIM_DeInit+0x3e>

000037e2 <TIM_TimeBaseInit>:
    37e2:	211e                	lhu	a5,0(a0)
    37e4:	40013737          	lui	a4,0x40013
    37e8:	c0070713          	addi	a4,a4,-1024 # 40012c00 <__freertos_irq_stack_top+0x2000dc00>
    37ec:	07c2                	slli	a5,a5,0x10
    37ee:	83c1                	srli	a5,a5,0x10
    37f0:	02e50463          	beq	a0,a4,3818 <TIM_TimeBaseInit+0x36>
    37f4:	40000737          	lui	a4,0x40000
    37f8:	02e50063          	beq	a0,a4,3818 <TIM_TimeBaseInit+0x36>
    37fc:	40070713          	addi	a4,a4,1024 # 40000400 <__freertos_irq_stack_top+0x1fffb400>
    3800:	00e50c63          	beq	a0,a4,3818 <TIM_TimeBaseInit+0x36>
    3804:	40001737          	lui	a4,0x40001
    3808:	80070693          	addi	a3,a4,-2048 # 40000800 <__freertos_irq_stack_top+0x1fffb800>
    380c:	00d50663          	beq	a0,a3,3818 <TIM_TimeBaseInit+0x36>
    3810:	c0070713          	addi	a4,a4,-1024
    3814:	00e51663          	bne	a0,a4,3820 <TIM_TimeBaseInit+0x3e>
    3818:	21ba                	lhu	a4,2(a1)
    381a:	f8f7f793          	andi	a5,a5,-113
    381e:	8fd9                	or	a5,a5,a4
    3820:	21fa                	lhu	a4,6(a1)
    3822:	cff7f793          	andi	a5,a5,-769
    3826:	07c2                	slli	a5,a5,0x10
    3828:	83c1                	srli	a5,a5,0x10
    382a:	8fd9                	or	a5,a5,a4
    382c:	a11e                	sh	a5,0(a0)
    382e:	21de                	lhu	a5,4(a1)
    3830:	b55e                	sh	a5,44(a0)
    3832:	219e                	lhu	a5,0(a1)
    3834:	b51e                	sh	a5,40(a0)
    3836:	400137b7          	lui	a5,0x40013
    383a:	c0078793          	addi	a5,a5,-1024 # 40012c00 <__freertos_irq_stack_top+0x2000dc00>
    383e:	00f51463          	bne	a0,a5,3846 <TIM_TimeBaseInit+0x64>
    3842:	259c                	lbu	a5,8(a1)
    3844:	b91e                	sh	a5,48(a0)
    3846:	4785                	li	a5,1
    3848:	a95e                	sh	a5,20(a0)
    384a:	8082                	ret

0000384c <TIM_OC1Init>:
    384c:	311e                	lhu	a5,32(a0)
    384e:	2192                	lhu	a2,0(a1)
    3850:	0025d803          	lhu	a6,2(a1)
    3854:	07c2                	slli	a5,a5,0x10
    3856:	83c1                	srli	a5,a5,0x10
    3858:	9bf9                	andi	a5,a5,-2
    385a:	07c2                	slli	a5,a5,0x10
    385c:	83c1                	srli	a5,a5,0x10
    385e:	b11e                	sh	a5,32(a0)
    3860:	311e                	lhu	a5,32(a0)
    3862:	2156                	lhu	a3,4(a0)
    3864:	2d1a                	lhu	a4,24(a0)
    3866:	07c2                	slli	a5,a5,0x10
    3868:	83c1                	srli	a5,a5,0x10
    386a:	0742                	slli	a4,a4,0x10
    386c:	8341                	srli	a4,a4,0x10
    386e:	f8c77713          	andi	a4,a4,-116
    3872:	8f51                	or	a4,a4,a2
    3874:	2592                	lhu	a2,8(a1)
    3876:	9bf5                	andi	a5,a5,-3
    3878:	06c2                	slli	a3,a3,0x10
    387a:	01066633          	or	a2,a2,a6
    387e:	8fd1                	or	a5,a5,a2
    3880:	40013637          	lui	a2,0x40013
    3884:	c0060613          	addi	a2,a2,-1024 # 40012c00 <__freertos_irq_stack_top+0x2000dc00>
    3888:	82c1                	srli	a3,a3,0x10
    388a:	02c51063          	bne	a0,a2,38aa <TIM_OC1Init+0x5e>
    388e:	25b2                	lhu	a2,10(a1)
    3890:	9bdd                	andi	a5,a5,-9
    3892:	00e5d803          	lhu	a6,14(a1)
    3896:	8fd1                	or	a5,a5,a2
    3898:	21d2                	lhu	a2,4(a1)
    389a:	9bed                	andi	a5,a5,-5
    389c:	cff6f693          	andi	a3,a3,-769
    38a0:	8fd1                	or	a5,a5,a2
    38a2:	25d2                	lhu	a2,12(a1)
    38a4:	01066633          	or	a2,a2,a6
    38a8:	8ed1                	or	a3,a3,a2
    38aa:	a156                	sh	a3,4(a0)
    38ac:	ad1a                	sh	a4,24(a0)
    38ae:	21fa                	lhu	a4,6(a1)
    38b0:	b95a                	sh	a4,52(a0)
    38b2:	b11e                	sh	a5,32(a0)
    38b4:	8082                	ret

000038b6 <TIM_OC2Init>:
    38b6:	311e                	lhu	a5,32(a0)
    38b8:	7765                	lui	a4,0xffff9
    38ba:	cff70713          	addi	a4,a4,-769 # ffff8cff <__freertos_irq_stack_top+0xdfff3cff>
    38be:	07c2                	slli	a5,a5,0x10
    38c0:	83c1                	srli	a5,a5,0x10
    38c2:	9bbd                	andi	a5,a5,-17
    38c4:	07c2                	slli	a5,a5,0x10
    38c6:	83c1                	srli	a5,a5,0x10
    38c8:	b11e                	sh	a5,32(a0)
    38ca:	311e                	lhu	a5,32(a0)
    38cc:	2156                	lhu	a3,4(a0)
    38ce:	0085d803          	lhu	a6,8(a1)
    38d2:	07c2                	slli	a5,a5,0x10
    38d4:	01069613          	slli	a2,a3,0x10
    38d8:	2d16                	lhu	a3,24(a0)
    38da:	83c1                	srli	a5,a5,0x10
    38dc:	fdf7f793          	andi	a5,a5,-33
    38e0:	8f75                	and	a4,a4,a3
    38e2:	2196                	lhu	a3,0(a1)
    38e4:	8241                	srli	a2,a2,0x10
    38e6:	06a2                	slli	a3,a3,0x8
    38e8:	8f55                	or	a4,a4,a3
    38ea:	21b6                	lhu	a3,2(a1)
    38ec:	0742                	slli	a4,a4,0x10
    38ee:	8341                	srli	a4,a4,0x10
    38f0:	0106e6b3          	or	a3,a3,a6
    38f4:	0692                	slli	a3,a3,0x4
    38f6:	8fd5                	or	a5,a5,a3
    38f8:	400136b7          	lui	a3,0x40013
    38fc:	07c2                	slli	a5,a5,0x10
    38fe:	c0068693          	addi	a3,a3,-1024 # 40012c00 <__freertos_irq_stack_top+0x2000dc00>
    3902:	83c1                	srli	a5,a5,0x10
    3904:	02d51e63          	bne	a0,a3,3940 <TIM_OC2Init+0x8a>
    3908:	25b6                	lhu	a3,10(a1)
    390a:	f7f7f793          	andi	a5,a5,-129
    390e:	00c5d803          	lhu	a6,12(a1)
    3912:	0692                	slli	a3,a3,0x4
    3914:	8fd5                	or	a5,a5,a3
    3916:	21d6                	lhu	a3,4(a1)
    3918:	07c2                	slli	a5,a5,0x10
    391a:	83c1                	srli	a5,a5,0x10
    391c:	0692                	slli	a3,a3,0x4
    391e:	fbf7f793          	andi	a5,a5,-65
    3922:	8fd5                	or	a5,a5,a3
    3924:	76fd                	lui	a3,0xfffff
    3926:	3ff68693          	addi	a3,a3,1023 # fffff3ff <__freertos_irq_stack_top+0xdfffa3ff>
    392a:	8ef1                	and	a3,a3,a2
    392c:	25f2                	lhu	a2,14(a1)
    392e:	07c2                	slli	a5,a5,0x10
    3930:	83c1                	srli	a5,a5,0x10
    3932:	01066633          	or	a2,a2,a6
    3936:	060a                	slli	a2,a2,0x2
    3938:	8ed1                	or	a3,a3,a2
    393a:	01069613          	slli	a2,a3,0x10
    393e:	8241                	srli	a2,a2,0x10
    3940:	a152                	sh	a2,4(a0)
    3942:	ad1a                	sh	a4,24(a0)
    3944:	21fa                	lhu	a4,6(a1)
    3946:	bd1a                	sh	a4,56(a0)
    3948:	b11e                	sh	a5,32(a0)
    394a:	8082                	ret

0000394c <TIM_OC3Init>:
    394c:	311e                	lhu	a5,32(a0)
    394e:	0085d803          	lhu	a6,8(a1)
    3952:	07c2                	slli	a5,a5,0x10
    3954:	83c1                	srli	a5,a5,0x10
    3956:	eff7f793          	andi	a5,a5,-257
    395a:	07c2                	slli	a5,a5,0x10
    395c:	83c1                	srli	a5,a5,0x10
    395e:	b11e                	sh	a5,32(a0)
    3960:	311e                	lhu	a5,32(a0)
    3962:	2156                	lhu	a3,4(a0)
    3964:	2d5a                	lhu	a4,28(a0)
    3966:	07c2                	slli	a5,a5,0x10
    3968:	01069613          	slli	a2,a3,0x10
    396c:	0742                	slli	a4,a4,0x10
    396e:	2196                	lhu	a3,0(a1)
    3970:	8341                	srli	a4,a4,0x10
    3972:	f8c77713          	andi	a4,a4,-116
    3976:	8f55                	or	a4,a4,a3
    3978:	21b6                	lhu	a3,2(a1)
    397a:	83c1                	srli	a5,a5,0x10
    397c:	dff7f793          	andi	a5,a5,-513
    3980:	0106e6b3          	or	a3,a3,a6
    3984:	06a2                	slli	a3,a3,0x8
    3986:	8fd5                	or	a5,a5,a3
    3988:	400136b7          	lui	a3,0x40013
    398c:	07c2                	slli	a5,a5,0x10
    398e:	c0068693          	addi	a3,a3,-1024 # 40012c00 <__freertos_irq_stack_top+0x2000dc00>
    3992:	8241                	srli	a2,a2,0x10
    3994:	83c1                	srli	a5,a5,0x10
    3996:	02d51f63          	bne	a0,a3,39d4 <TIM_OC3Init+0x88>
    399a:	76fd                	lui	a3,0xfffff
    399c:	7ff68693          	addi	a3,a3,2047 # fffff7ff <__freertos_irq_stack_top+0xdfffa7ff>
    39a0:	8ff5                	and	a5,a5,a3
    39a2:	25b6                	lhu	a3,10(a1)
    39a4:	00c5d803          	lhu	a6,12(a1)
    39a8:	06a2                	slli	a3,a3,0x8
    39aa:	8fd5                	or	a5,a5,a3
    39ac:	21d6                	lhu	a3,4(a1)
    39ae:	07c2                	slli	a5,a5,0x10
    39b0:	83c1                	srli	a5,a5,0x10
    39b2:	06a2                	slli	a3,a3,0x8
    39b4:	bff7f793          	andi	a5,a5,-1025
    39b8:	8fd5                	or	a5,a5,a3
    39ba:	76f5                	lui	a3,0xffffd
    39bc:	16fd                	addi	a3,a3,-1
    39be:	8ef1                	and	a3,a3,a2
    39c0:	25f2                	lhu	a2,14(a1)
    39c2:	07c2                	slli	a5,a5,0x10
    39c4:	83c1                	srli	a5,a5,0x10
    39c6:	01066633          	or	a2,a2,a6
    39ca:	0612                	slli	a2,a2,0x4
    39cc:	8ed1                	or	a3,a3,a2
    39ce:	01069613          	slli	a2,a3,0x10
    39d2:	8241                	srli	a2,a2,0x10
    39d4:	a152                	sh	a2,4(a0)
    39d6:	ad5a                	sh	a4,28(a0)
    39d8:	21fa                	lhu	a4,6(a1)
    39da:	bd5a                	sh	a4,60(a0)
    39dc:	b11e                	sh	a5,32(a0)
    39de:	8082                	ret

000039e0 <TIM_OC4Init>:
    39e0:	311a                	lhu	a4,32(a0)
    39e2:	77fd                	lui	a5,0xfffff
    39e4:	17fd                	addi	a5,a5,-1
    39e6:	8ff9                	and	a5,a5,a4
    39e8:	b11e                	sh	a5,32(a0)
    39ea:	02055803          	lhu	a6,32(a0) # 4020 <vPostState+0x8>
    39ee:	2156                	lhu	a3,4(a0)
    39f0:	2d5e                	lhu	a5,28(a0)
    39f2:	7765                	lui	a4,0xffff9
    39f4:	2192                	lhu	a2,0(a1)
    39f6:	cff70713          	addi	a4,a4,-769 # ffff8cff <__freertos_irq_stack_top+0xdfff3cff>
    39fa:	8f7d                	and	a4,a4,a5
    39fc:	77f9                	lui	a5,0xffffe
    39fe:	0622                	slli	a2,a2,0x8
    3a00:	17fd                	addi	a5,a5,-1
    3a02:	8f51                	or	a4,a4,a2
    3a04:	0107f7b3          	and	a5,a5,a6
    3a08:	21b2                	lhu	a2,2(a1)
    3a0a:	0085d803          	lhu	a6,8(a1)
    3a0e:	06c2                	slli	a3,a3,0x10
    3a10:	0742                	slli	a4,a4,0x10
    3a12:	01066633          	or	a2,a2,a6
    3a16:	0632                	slli	a2,a2,0xc
    3a18:	8fd1                	or	a5,a5,a2
    3a1a:	40013637          	lui	a2,0x40013
    3a1e:	07c2                	slli	a5,a5,0x10
    3a20:	c0060613          	addi	a2,a2,-1024 # 40012c00 <__freertos_irq_stack_top+0x2000dc00>
    3a24:	82c1                	srli	a3,a3,0x10
    3a26:	8341                	srli	a4,a4,0x10
    3a28:	83c1                	srli	a5,a5,0x10
    3a2a:	00c51a63          	bne	a0,a2,3a3e <TIM_OC4Init+0x5e>
    3a2e:	7671                	lui	a2,0xffffc
    3a30:	167d                	addi	a2,a2,-1
    3a32:	8ef1                	and	a3,a3,a2
    3a34:	25d2                	lhu	a2,12(a1)
    3a36:	061a                	slli	a2,a2,0x6
    3a38:	8ed1                	or	a3,a3,a2
    3a3a:	06c2                	slli	a3,a3,0x10
    3a3c:	82c1                	srli	a3,a3,0x10
    3a3e:	a156                	sh	a3,4(a0)
    3a40:	ad5a                	sh	a4,28(a0)
    3a42:	21fa                	lhu	a4,6(a1)
    3a44:	04e51023          	sh	a4,64(a0)
    3a48:	b11e                	sh	a5,32(a0)
    3a4a:	8082                	ret

00003a4c <TIM_TimeBaseStructInit>:
    3a4c:	57fd                	li	a5,-1
    3a4e:	a15e                	sh	a5,4(a0)
    3a50:	00051023          	sh	zero,0(a0)
    3a54:	00051323          	sh	zero,6(a0)
    3a58:	00051123          	sh	zero,2(a0)
    3a5c:	00050423          	sb	zero,8(a0)
    3a60:	8082                	ret

00003a62 <TIM_Cmd>:
    3a62:	211e                	lhu	a5,0(a0)
    3a64:	c589                	beqz	a1,3a6e <TIM_Cmd+0xc>
    3a66:	0017e793          	ori	a5,a5,1
    3a6a:	a11e                	sh	a5,0(a0)
    3a6c:	8082                	ret
    3a6e:	07c2                	slli	a5,a5,0x10
    3a70:	83c1                	srli	a5,a5,0x10
    3a72:	9bf9                	andi	a5,a5,-2
    3a74:	07c2                	slli	a5,a5,0x10
    3a76:	83c1                	srli	a5,a5,0x10
    3a78:	bfcd                	j	3a6a <TIM_Cmd+0x8>

00003a7a <TIM_CtrlPWMOutputs>:
    3a7a:	04455783          	lhu	a5,68(a0)
    3a7e:	c591                	beqz	a1,3a8a <TIM_CtrlPWMOutputs+0x10>
    3a80:	6721                	lui	a4,0x8
    3a82:	8fd9                	or	a5,a5,a4
    3a84:	04f51223          	sh	a5,68(a0)
    3a88:	8082                	ret
    3a8a:	07c6                	slli	a5,a5,0x11
    3a8c:	83c5                	srli	a5,a5,0x11
    3a8e:	bfdd                	j	3a84 <TIM_CtrlPWMOutputs+0xa>

00003a90 <TIM_ITConfig>:
    3a90:	255e                	lhu	a5,12(a0)
    3a92:	c601                	beqz	a2,3a9a <TIM_ITConfig+0xa>
    3a94:	8ddd                	or	a1,a1,a5
    3a96:	a54e                	sh	a1,12(a0)
    3a98:	8082                	ret
    3a9a:	fff5c593          	not	a1,a1
    3a9e:	8dfd                	and	a1,a1,a5
    3aa0:	bfdd                	j	3a96 <TIM_ITConfig+0x6>

00003aa2 <TIM_InternalClockConfig>:
    3aa2:	251e                	lhu	a5,8(a0)
    3aa4:	07c2                	slli	a5,a5,0x10
    3aa6:	83c1                	srli	a5,a5,0x10
    3aa8:	9be1                	andi	a5,a5,-8
    3aaa:	07c2                	slli	a5,a5,0x10
    3aac:	83c1                	srli	a5,a5,0x10
    3aae:	a51e                	sh	a5,8(a0)
    3ab0:	8082                	ret

00003ab2 <TIM_ARRPreloadConfig>:
    3ab2:	211e                	lhu	a5,0(a0)
    3ab4:	c589                	beqz	a1,3abe <TIM_ARRPreloadConfig+0xc>
    3ab6:	0807e793          	ori	a5,a5,128
    3aba:	a11e                	sh	a5,0(a0)
    3abc:	8082                	ret
    3abe:	07c2                	slli	a5,a5,0x10
    3ac0:	83c1                	srli	a5,a5,0x10
    3ac2:	f7f7f793          	andi	a5,a5,-129
    3ac6:	07c2                	slli	a5,a5,0x10
    3ac8:	83c1                	srli	a5,a5,0x10
    3aca:	bfc5                	j	3aba <TIM_ARRPreloadConfig+0x8>

00003acc <TIM_OC1PreloadConfig>:
    3acc:	2d1e                	lhu	a5,24(a0)
    3ace:	07c2                	slli	a5,a5,0x10
    3ad0:	83c1                	srli	a5,a5,0x10
    3ad2:	9bdd                	andi	a5,a5,-9
    3ad4:	8ddd                	or	a1,a1,a5
    3ad6:	ad0e                	sh	a1,24(a0)
    3ad8:	8082                	ret

00003ada <TIM_OC2PreloadConfig>:
    3ada:	2d1a                	lhu	a4,24(a0)
    3adc:	77fd                	lui	a5,0xfffff
    3ade:	7ff78793          	addi	a5,a5,2047 # fffff7ff <__freertos_irq_stack_top+0xdfffa7ff>
    3ae2:	8ff9                	and	a5,a5,a4
    3ae4:	05a2                	slli	a1,a1,0x8
    3ae6:	8fcd                	or	a5,a5,a1
    3ae8:	07c2                	slli	a5,a5,0x10
    3aea:	83c1                	srli	a5,a5,0x10
    3aec:	ad1e                	sh	a5,24(a0)
    3aee:	8082                	ret

00003af0 <TIM_OC3PreloadConfig>:
    3af0:	2d5e                	lhu	a5,28(a0)
    3af2:	07c2                	slli	a5,a5,0x10
    3af4:	83c1                	srli	a5,a5,0x10
    3af6:	9bdd                	andi	a5,a5,-9
    3af8:	8ddd                	or	a1,a1,a5
    3afa:	ad4e                	sh	a1,28(a0)
    3afc:	8082                	ret

00003afe <TIM_OC4PreloadConfig>:
    3afe:	2d5a                	lhu	a4,28(a0)
    3b00:	77fd                	lui	a5,0xfffff
    3b02:	7ff78793          	addi	a5,a5,2047 # fffff7ff <__freertos_irq_stack_top+0xdfffa7ff>
    3b06:	8ff9                	and	a5,a5,a4
    3b08:	05a2                	slli	a1,a1,0x8
    3b0a:	8fcd                	or	a5,a5,a1
    3b0c:	07c2                	slli	a5,a5,0x10
    3b0e:	83c1                	srli	a5,a5,0x10
    3b10:	ad5e                	sh	a5,28(a0)
    3b12:	8082                	ret

00003b14 <TIM_GetITStatus>:
    3b14:	291e                	lhu	a5,16(a0)
    3b16:	254a                	lhu	a0,12(a0)
    3b18:	8fed                	and	a5,a5,a1
    3b1a:	0542                	slli	a0,a0,0x10
    3b1c:	8141                	srli	a0,a0,0x10
    3b1e:	c789                	beqz	a5,3b28 <TIM_GetITStatus+0x14>
    3b20:	8d6d                	and	a0,a0,a1
    3b22:	00a03533          	snez	a0,a0
    3b26:	8082                	ret
    3b28:	4501                	li	a0,0
    3b2a:	8082                	ret

00003b2c <TIM_ClearITPendingBit>:
    3b2c:	fff5c593          	not	a1,a1
    3b30:	05c2                	slli	a1,a1,0x10
    3b32:	81c1                	srli	a1,a1,0x10
    3b34:	a90e                	sh	a1,16(a0)
    3b36:	8082                	ret

00003b38 <USART_Init>:
    3b38:	9e7fc2ef          	jal	t0,51e <__riscv_save_0>
    3b3c:	2916                	lhu	a3,16(a0)
    3b3e:	77f5                	lui	a5,0xffffd
    3b40:	17fd                	addi	a5,a5,-1
    3b42:	8ff5                	and	a5,a5,a3
    3b44:	21f6                	lhu	a3,6(a1)
    3b46:	25da                	lhu	a4,12(a1)
    3b48:	7179                	addi	sp,sp,-48
    3b4a:	8fd5                	or	a5,a5,a3
    3b4c:	a91e                	sh	a5,16(a0)
    3b4e:	2556                	lhu	a3,12(a0)
    3b50:	77fd                	lui	a5,0xfffff
    3b52:	9f378793          	addi	a5,a5,-1549 # ffffe9f3 <__freertos_irq_stack_top+0xdfff99f3>
    3b56:	8ff5                	and	a5,a5,a3
    3b58:	21d6                	lhu	a3,4(a1)
    3b5a:	842a                	mv	s0,a0
    3b5c:	c62e                	sw	a1,12(sp)
    3b5e:	8fd5                	or	a5,a5,a3
    3b60:	2596                	lhu	a3,8(a1)
    3b62:	8fd5                	or	a5,a5,a3
    3b64:	25b6                	lhu	a3,10(a1)
    3b66:	8fd5                	or	a5,a5,a3
    3b68:	a55e                	sh	a5,12(a0)
    3b6a:	295e                	lhu	a5,20(a0)
    3b6c:	07c2                	slli	a5,a5,0x10
    3b6e:	83c1                	srli	a5,a5,0x10
    3b70:	cff7f793          	andi	a5,a5,-769
    3b74:	8fd9                	or	a5,a5,a4
    3b76:	a95e                	sh	a5,20(a0)
    3b78:	0868                	addi	a0,sp,28
    3b7a:	899ff0ef          	jal	ra,3412 <RCC_GetClocksFreq>
    3b7e:	400147b7          	lui	a5,0x40014
    3b82:	80078793          	addi	a5,a5,-2048 # 40013800 <__freertos_irq_stack_top+0x2000e800>
    3b86:	45b2                	lw	a1,12(sp)
    3b88:	04f41a63          	bne	s0,a5,3bdc <USART_Init+0xa4>
    3b8c:	57a2                	lw	a5,40(sp)
    3b8e:	2456                	lhu	a3,12(s0)
    3b90:	4765                	li	a4,25
    3b92:	02e787b3          	mul	a5,a5,a4
    3b96:	06c2                	slli	a3,a3,0x10
    3b98:	86c1                	srai	a3,a3,0x10
    3b9a:	4198                	lw	a4,0(a1)
    3b9c:	0406d263          	bgez	a3,3be0 <USART_Init+0xa8>
    3ba0:	0706                	slli	a4,a4,0x1
    3ba2:	2452                	lhu	a2,12(s0)
    3ba4:	0642                	slli	a2,a2,0x10
    3ba6:	02e7d7b3          	divu	a5,a5,a4
    3baa:	06400713          	li	a4,100
    3bae:	8641                	srai	a2,a2,0x10
    3bb0:	02e7d6b3          	divu	a3,a5,a4
    3bb4:	02e7f7b3          	remu	a5,a5,a4
    3bb8:	0692                	slli	a3,a3,0x4
    3bba:	02065563          	bgez	a2,3be4 <USART_Init+0xac>
    3bbe:	078e                	slli	a5,a5,0x3
    3bc0:	03278793          	addi	a5,a5,50
    3bc4:	02e7d7b3          	divu	a5,a5,a4
    3bc8:	0077f713          	andi	a4,a5,7
    3bcc:	00d767b3          	or	a5,a4,a3
    3bd0:	07c2                	slli	a5,a5,0x10
    3bd2:	83c1                	srli	a5,a5,0x10
    3bd4:	a41e                	sh	a5,8(s0)
    3bd6:	6145                	addi	sp,sp,48
    3bd8:	96bfc06f          	j	542 <__riscv_restore_0>
    3bdc:	5792                	lw	a5,36(sp)
    3bde:	bf45                	j	3b8e <USART_Init+0x56>
    3be0:	070a                	slli	a4,a4,0x2
    3be2:	b7c1                	j	3ba2 <USART_Init+0x6a>
    3be4:	0792                	slli	a5,a5,0x4
    3be6:	03278793          	addi	a5,a5,50
    3bea:	02e7d7b3          	divu	a5,a5,a4
    3bee:	8bbd                	andi	a5,a5,15
    3bf0:	8fd5                	or	a5,a5,a3
    3bf2:	bff9                	j	3bd0 <USART_Init+0x98>

00003bf4 <USART_Cmd>:
    3bf4:	c591                	beqz	a1,3c00 <USART_Cmd+0xc>
    3bf6:	255e                	lhu	a5,12(a0)
    3bf8:	6709                	lui	a4,0x2
    3bfa:	8fd9                	or	a5,a5,a4
    3bfc:	a55e                	sh	a5,12(a0)
    3bfe:	8082                	ret
    3c00:	255a                	lhu	a4,12(a0)
    3c02:	77f9                	lui	a5,0xffffe
    3c04:	17fd                	addi	a5,a5,-1
    3c06:	8ff9                	and	a5,a5,a4
    3c08:	bfd5                	j	3bfc <USART_Cmd+0x8>

00003c0a <USART_SendData>:
    3c0a:	1ff5f593          	andi	a1,a1,511
    3c0e:	a14e                	sh	a1,4(a0)
    3c10:	8082                	ret

00003c12 <USART_GetFlagStatus>:
    3c12:	210a                	lhu	a0,0(a0)
    3c14:	8d6d                	and	a0,a0,a1
    3c16:	00a03533          	snez	a0,a0
    3c1a:	8082                	ret

00003c1c <vAINInit>:
    3c1c:	200037b7          	lui	a5,0x20003
    3c20:	9bc78793          	addi	a5,a5,-1604 # 200029bc <xAinData>
    3c24:	0007a023          	sw	zero,0(a5)
    3c28:	0007a223          	sw	zero,4(a5)
    3c2c:	00079423          	sh	zero,8(a5)
    3c30:	200037b7          	lui	a5,0x20003
    3c34:	9ac78793          	addi	a5,a5,-1620 # 200029ac <muRawVData>
    3c38:	0007a023          	sw	zero,0(a5)
    3c3c:	0007a223          	sw	zero,4(a5)
    3c40:	0007a423          	sw	zero,8(a5)
    3c44:	00079623          	sh	zero,12(a5)
    3c48:	200007b7          	lui	a5,0x20000
    3c4c:	62079223          	sh	zero,1572(a5) # 20000624 <usCurMaxIndex>
    3c50:	8082                	ret

00003c52 <getADC1Buffer>:
    3c52:	20003537          	lui	a0,0x20003
    3c56:	98c50513          	addi	a0,a0,-1652 # 2000298c <ADC1_IN_Buffer>
    3c5a:	8082                	ret

00003c5c <eDOUTConfigWtihStruct>:
    3c5c:	00351793          	slli	a5,a0,0x3
    3c60:	20000537          	lui	a0,0x20000
    3c64:	62850513          	addi	a0,a0,1576 # 20000628 <xDoutConfig>
    3c68:	953e                	add	a0,a0,a5
    3c6a:	41dc                	lw	a5,4(a1)
    3c6c:	00050023          	sb	zero,0(a0)
    3c70:	c15c                	sw	a5,4(a0)
    3c72:	4501                	li	a0,0
    3c74:	8082                	ret

00003c76 <eSetDUT>:
    3c76:	200007b7          	lui	a5,0x20000
    3c7a:	050e                	slli	a0,a0,0x3
    3c7c:	62878793          	addi	a5,a5,1576 # 20000628 <xDoutConfig>
    3c80:	97aa                	add	a5,a5,a0
    3c82:	a38c                	sb	a1,0(a5)
    3c84:	4501                	li	a0,0
    3c86:	8082                	ret

00003c88 <eDinConfigWtihStruct>:
    3c88:	47f1                	li	a5,28
    3c8a:	02f50533          	mul	a0,a0,a5
    3c8e:	200037b7          	lui	a5,0x20003
    3c92:	a7878793          	addi	a5,a5,-1416 # 20002a78 <xDinConfig>
    3c96:	41d8                	lw	a4,4(a1)
    3c98:	953e                	add	a0,a0,a5
    3c9a:	499c                	lw	a5,16(a1)
    3c9c:	c158                	sw	a4,4(a0)
    3c9e:	177d                	addi	a4,a4,-1
    3ca0:	c91c                	sw	a5,16(a0)
    3ca2:	45dc                	lw	a5,12(a1)
    3ca4:	00e03733          	snez	a4,a4
    3ca8:	a958                	sb	a4,20(a0)
    3caa:	c55c                	sw	a5,12(a0)
    3cac:	4d9c                	lw	a5,24(a1)
    3cae:	a978                	sb	a4,22(a0)
    3cb0:	00052423          	sw	zero,8(a0)
    3cb4:	cd1c                	sw	a5,24(a0)
    3cb6:	4501                	li	a0,0
    3cb8:	8082                	ret

00003cba <uGetDIN>:
    3cba:	47f1                	li	a5,28
    3cbc:	02f50533          	mul	a0,a0,a5
    3cc0:	200037b7          	lui	a5,0x20003
    3cc4:	a7878793          	addi	a5,a5,-1416 # 20002a78 <xDinConfig>
    3cc8:	97aa                	add	a5,a5,a0
    3cca:	2bc8                	lbu	a0,20(a5)
    3ccc:	8082                	ret

00003cce <xGetDIN>:
    3cce:	47f1                	li	a5,28
    3cd0:	02f50533          	mul	a0,a0,a5
    3cd4:	200037b7          	lui	a5,0x20003
    3cd8:	a7878793          	addi	a5,a5,-1416 # 20002a78 <xDinConfig>
    3cdc:	953e                	add	a0,a0,a5
    3cde:	295c                	lbu	a5,20(a0)
    3ce0:	3958                	lbu	a4,21(a0)
    3ce2:	00f70663          	beq	a4,a5,3cee <xGetDIN+0x20>
    3ce6:	b95c                	sb	a5,21(a0)
    3ce8:	a19c                	sb	a5,0(a1)
    3cea:	4509                	li	a0,2
    3cec:	8082                	ret
    3cee:	450d                	li	a0,3
    3cf0:	8082                	ret

00003cf2 <uGetRPMBuffer>:
    3cf2:	47f1                	li	a5,28
    3cf4:	02f50533          	mul	a0,a0,a5
    3cf8:	200037b7          	lui	a5,0x20003
    3cfc:	a7878793          	addi	a5,a5,-1416 # 20002a78 <xDinConfig>
    3d00:	97aa                	add	a5,a5,a0
    3d02:	4388                	lw	a0,0(a5)
    3d04:	0509                	addi	a0,a0,2
    3d06:	8082                	ret

00003d08 <eRPMConfig>:
    3d08:	817fc2ef          	jal	t0,51e <__riscv_save_0>
    3d0c:	47f1                	li	a5,28
    3d0e:	02f50533          	mul	a0,a0,a5
    3d12:	200037b7          	lui	a5,0x20003
    3d16:	a7878793          	addi	a5,a5,-1416 # 20002a78 <xDinConfig>
    3d1a:	4709                	li	a4,2
    3d1c:	4655                	li	a2,21
    3d1e:	97aa                	add	a5,a5,a0
    3d20:	03800513          	li	a0,56
    3d24:	02a58533          	mul	a0,a1,a0
    3d28:	c3d8                	sw	a4,4(a5)
    3d2a:	20003737          	lui	a4,0x20003
    3d2e:	9c870713          	addi	a4,a4,-1592 # 200029c8 <RPM>
    3d32:	00079a23          	sh	zero,20(a5)
    3d36:	00078b23          	sb	zero,22(a5)
    3d3a:	4581                	li	a1,0
    3d3c:	00a70433          	add	s0,a4,a0
    3d40:	0509                	addi	a0,a0,2
    3d42:	c380                	sw	s0,0(a5)
    3d44:	02042823          	sw	zero,48(s0)
    3d48:	953a                	add	a0,a0,a4
    3d4a:	805fc0ef          	jal	ra,54e <memset>
    3d4e:	0000d7b7          	lui	a5,0xd
    3d52:	cd47a783          	lw	a5,-812(a5) # ccd4 <DigitMask+0x84>
    3d56:	02042623          	sw	zero,44(s0)
    3d5a:	4505                	li	a0,1
    3d5c:	d85c                	sw	a5,52(s0)
    3d5e:	fe4fc06f          	j	542 <__riscv_restore_0>

00003d62 <RMPDataConvert>:
    3d62:	fa2fc2ef          	jal	t0,504 <__riscv_save_4>
    3d66:	4771                	li	a4,28
    3d68:	02e50733          	mul	a4,a0,a4
    3d6c:	20003437          	lui	s0,0x20003
    3d70:	a7840793          	addi	a5,s0,-1416 # 20002a78 <xDinConfig>
    3d74:	66bd                	lui	a3,0xf
    3d76:	84aa                	mv	s1,a0
    3d78:	a7840413          	addi	s0,s0,-1416
    3d7c:	a6068693          	addi	a3,a3,-1440 # ea60 <_data_lma+0x12c8>
    3d80:	97ba                	add	a5,a5,a4
    3d82:	0007a903          	lw	s2,0(a5)
    3d86:	00290793          	addi	a5,s2,2 # 10002 <_data_lma+0x286a>
    3d8a:	02a90593          	addi	a1,s2,42
    3d8e:	23b2                	lhu	a2,2(a5)
    3d90:	239a                	lhu	a4,0(a5)
    3d92:	40e60533          	sub	a0,a2,a4
    3d96:	00055563          	bgez	a0,3da0 <RMPDataConvert+0x3e>
    3d9a:	40e68533          	sub	a0,a3,a4
    3d9e:	9532                	add	a0,a0,a2
    3da0:	0789                	addi	a5,a5,2
    3da2:	fef596e3          	bne	a1,a5,3d8e <RMPDataConvert+0x2c>
    3da6:	47d5                	li	a5,21
    3da8:	02f55533          	divu	a0,a0,a5
    3dac:	200035b7          	lui	a1,0x20003
    3db0:	00449993          	slli	s3,s1,0x4
    3db4:	a5858593          	addi	a1,a1,-1448 # 20002a58 <RPM_MIDIAN_FILTER_STRUC>
    3db8:	95ce                	add	a1,a1,s3
    3dba:	0506                	slli	a0,a0,0x1
    3dbc:	02a92623          	sw	a0,44(s2)
    3dc0:	10c040ef          	jal	ra,7ecc <MedianFilter>
    3dc4:	47f1                	li	a5,28
    3dc6:	02f484b3          	mul	s1,s1,a5
    3dca:	02a92623          	sw	a0,44(s2)
    3dce:	200035b7          	lui	a1,0x20003
    3dd2:	a3858593          	addi	a1,a1,-1480 # 20002a38 <RPM_AVER_FILTER_STRUC>
    3dd6:	95ce                	add	a1,a1,s3
    3dd8:	9426                	add	s0,s0,s1
    3dda:	4004                	lw	s1,0(s0)
    3ddc:	54c8                	lw	a0,44(s1)
    3dde:	0c0040ef          	jal	ra,7e9e <RunAvrageFilter>
    3de2:	401c                	lw	a5,0(s0)
    3de4:	d4c8                	sw	a0,44(s1)
    3de6:	4705                	li	a4,1
    3de8:	db98                	sw	a4,48(a5)
    3dea:	f4efc06f          	j	538 <__riscv_restore_4>

00003dee <xGetRPM>:
    3dee:	f16fc2ef          	jal	t0,504 <__riscv_save_4>
    3df2:	4471                	li	s0,28
    3df4:	02850533          	mul	a0,a0,s0
    3df8:	20003437          	lui	s0,0x20003
    3dfc:	a7840413          	addi	s0,s0,-1416 # 20002a78 <xDinConfig>
    3e00:	942a                	add	s0,s0,a0
    3e02:	00042983          	lw	s3,0(s0)
    3e06:	481c                	lw	a5,16(s0)
    3e08:	450d                	li	a0,3
    3e0a:	02c9a483          	lw	s1,44(s3)
    3e0e:	04f48763          	beq	s1,a5,3e5c <xGetRPM+0x6e>
    3e12:	8526                	mv	a0,s1
    3e14:	892e                	mv	s2,a1
    3e16:	7f6070ef          	jal	ra,b60c <__floatunsisf>
    3e1a:	0000d7b7          	lui	a5,0xd
    3e1e:	cd07a583          	lw	a1,-816(a5) # ccd0 <DigitMask+0x80>
    3e22:	43e070ef          	jal	ra,b260 <__mulsf3>
    3e26:	0000d7b7          	lui	a5,0xd
    3e2a:	85aa                	mv	a1,a0
    3e2c:	cd47a503          	lw	a0,-812(a5) # ccd4 <DigitMask+0x84>
    3e30:	182070ef          	jal	ra,afb2 <__divsf3>
    3e34:	6bc070ef          	jal	ra,b4f0 <__fixunssfsi>
    3e38:	03c00793          	li	a5,60
    3e3c:	02f50533          	mul	a0,a0,a5
    3e40:	0542                	slli	a0,a0,0x10
    3e42:	8141                	srli	a0,a0,0x10
    3e44:	702070ef          	jal	ra,b546 <__floatsisf>
    3e48:	0349a583          	lw	a1,52(s3)
    3e4c:	414070ef          	jal	ra,b260 <__mulsf3>
    3e50:	6a0070ef          	jal	ra,b4f0 <__fixunssfsi>
    3e54:	00a91023          	sh	a0,0(s2)
    3e58:	c804                	sw	s1,16(s0)
    3e5a:	4509                	li	a0,2
    3e5c:	edcfc06f          	j	538 <__riscv_restore_4>

00003e60 <vDinDoutProcess>:
    3e60:	ea4fc2ef          	jal	t0,504 <__riscv_save_4>
    3e64:	20003437          	lui	s0,0x20003
    3e68:	a7840413          	addi	s0,s0,-1416 # 20002a78 <xDinConfig>
    3e6c:	4481                	li	s1,0
    3e6e:	4989                	li	s3,2
    3e70:	06400a13          	li	s4,100
    3e74:	4a85                	li	s5,1
    3e76:	490d                	li	s2,3
    3e78:	405c                	lw	a5,4(s0)
    3e7a:	05378b63          	beq	a5,s3,3ed0 <vDinDoutProcess+0x70>
    3e7e:	4c1c                	lw	a5,24(s0)
    3e80:	8526                	mv	a0,s1
    3e82:	9782                	jalr	a5
    3e84:	2878                	lbu	a4,22(s0)
    3e86:	04a70263          	beq	a4,a0,3eca <vDinDoutProcess+0x6a>
    3e8a:	441c                	lw	a5,8(s0)
    3e8c:	0785                	addi	a5,a5,1
    3e8e:	c41c                	sw	a5,8(s0)
    3e90:	eb1d                	bnez	a4,3ec6 <vDinDoutProcess+0x66>
    3e92:	4818                	lw	a4,16(s0)
    3e94:	00f77963          	bgeu	a4,a5,3ea6 <vDinDoutProcess+0x46>
    3e98:	405c                	lw	a5,4(s0)
    3e9a:	a868                	sb	a0,22(s0)
    3e9c:	fff7c793          	not	a5,a5
    3ea0:	8b85                	andi	a5,a5,1
    3ea2:	8fa9                	xor	a5,a5,a0
    3ea4:	a85c                	sb	a5,20(s0)
    3ea6:	0485                	addi	s1,s1,1
    3ea8:	0ff4f493          	andi	s1,s1,255
    3eac:	0471                	addi	s0,s0,28
    3eae:	fd2495e3          	bne	s1,s2,3e78 <vDinDoutProcess+0x18>
    3eb2:	200007b7          	lui	a5,0x20000
    3eb6:	62878793          	addi	a5,a5,1576 # 20000628 <xDoutConfig>
    3eba:	43d8                	lw	a4,4(a5)
    3ebc:	238c                	lbu	a1,0(a5)
    3ebe:	4501                	li	a0,0
    3ec0:	9702                	jalr	a4
    3ec2:	e76fc06f          	j	538 <__riscv_restore_4>
    3ec6:	4458                	lw	a4,12(s0)
    3ec8:	b7f1                	j	3e94 <vDinDoutProcess+0x34>
    3eca:	00042423          	sw	zero,8(s0)
    3ece:	bfe1                	j	3ea6 <vDinDoutProcess+0x46>
    3ed0:	285c                	lbu	a5,20(s0)
    3ed2:	0785                	addi	a5,a5,1
    3ed4:	0ff7f793          	andi	a5,a5,255
    3ed8:	01478463          	beq	a5,s4,3ee0 <vDinDoutProcess+0x80>
    3edc:	a85c                	sb	a5,20(s0)
    3ede:	b7e1                	j	3ea6 <vDinDoutProcess+0x46>
    3ee0:	401c                	lw	a5,0(s0)
    3ee2:	00040a23          	sb	zero,20(s0)
    3ee6:	5b98                	lw	a4,48(a5)
    3ee8:	01571563          	bne	a4,s5,3ef2 <vDinDoutProcess+0x92>
    3eec:	0207a823          	sw	zero,48(a5)
    3ef0:	bf5d                	j	3ea6 <vDinDoutProcess+0x46>
    3ef2:	0207a623          	sw	zero,44(a5)
    3ef6:	bf45                	j	3ea6 <vDinDoutProcess+0x46>

00003ef8 <vInitEEPROM>:
    3ef8:	e26fc2ef          	jal	t0,51e <__riscv_save_0>
    3efc:	862e                	mv	a2,a1
    3efe:	85aa                	mv	a1,a0
    3f00:	40005537          	lui	a0,0x40005
    3f04:	40050513          	addi	a0,a0,1024 # 40005400 <__freertos_irq_stack_top+0x20000400>
    3f08:	0a0010ef          	jal	ra,4fa8 <InitI2CDMA>
    3f0c:	e36fc06f          	j	542 <__riscv_restore_0>

00003f10 <xGetEEPROM>:
    3f10:	20003537          	lui	a0,0x20003
    3f14:	acc50513          	addi	a0,a0,-1332 # 20002acc <Dev>
    3f18:	8082                	ret

00003f1a <eEEPROMWr>:
    3f1a:	6785                	lui	a5,0x1
    3f1c:	00c50733          	add	a4,a0,a2
    3f20:	80078793          	addi	a5,a5,-2048 # 800 <__stack_size>
    3f24:	0ae7c163          	blt	a5,a4,3fc6 <eEEPROMWr+0xac>
    3f28:	dcefc2ef          	jal	t0,4f6 <__riscv_save_10>
    3f2c:	8c2a                	mv	s8,a0
    3f2e:	1141                	addi	sp,sp,-16
    3f30:	8432                	mv	s0,a2
    3f32:	4509                	li	a0,2
    3f34:	c61d                	beqz	a2,3f62 <eEEPROMWr+0x48>
    3f36:	20003b37          	lui	s6,0x20003
    3f3a:	4785                	li	a5,1
    3f3c:	89ae                	mv	s3,a1
    3f3e:	8a36                	mv	s4,a3
    3f40:	accb0b13          	addi	s6,s6,-1332 # 20002acc <Dev>
    3f44:	4901                	li	s2,0
    3f46:	4ac1                	li	s5,16
    3f48:	02f61063          	bne	a2,a5,3f68 <eEEPROMWr+0x4e>
    3f4c:	024b2803          	lw	a6,36(s6)
    3f50:	87b6                	mv	a5,a3
    3f52:	862e                	mv	a2,a1
    3f54:	06400713          	li	a4,100
    3f58:	4689                	li	a3,2
    3f5a:	85e2                	mv	a1,s8
    3f5c:	0a000513          	li	a0,160
    3f60:	9802                	jalr	a6
    3f62:	0141                	addi	sp,sp,16
    3f64:	dcafc06f          	j	52e <__riscv_restore_10>
    3f68:	00fc7793          	andi	a5,s8,15
    3f6c:	40fa87b3          	sub	a5,s5,a5
    3f70:	07c2                	slli	a5,a5,0x10
    3f72:	83c1                	srli	a5,a5,0x10
    3f74:	84be                	mv	s1,a5
    3f76:	00f47363          	bgeu	s0,a5,3f7c <eEEPROMWr+0x62>
    3f7a:	84a2                	mv	s1,s0
    3f7c:	04c2                	slli	s1,s1,0x10
    3f7e:	80c1                	srli	s1,s1,0x10
    3f80:	4b99                	li	s7,6
    3f82:	01298cb3          	add	s9,s3,s2
    3f86:	024b2803          	lw	a6,36(s6)
    3f8a:	87d2                	mv	a5,s4
    3f8c:	4729                	li	a4,10
    3f8e:	86a6                	mv	a3,s1
    3f90:	8666                	mv	a2,s9
    3f92:	85e2                	mv	a1,s8
    3f94:	0a000513          	li	a0,160
    3f98:	9802                	jalr	a6
    3f9a:	c901                	beqz	a0,3faa <eEEPROMWr+0x90>
    3f9c:	c62a                	sw	a0,12(sp)
    3f9e:	1bfd                	addi	s7,s7,-1
    3fa0:	133010ef          	jal	ra,58d2 <HAL_WDTReset>
    3fa4:	4532                	lw	a0,12(sp)
    3fa6:	fe0b90e3          	bnez	s7,3f86 <eEEPROMWr+0x6c>
    3faa:	8c05                	sub	s0,s0,s1
    3fac:	9926                	add	s2,s2,s1
    3fae:	0442                	slli	s0,s0,0x10
    3fb0:	94e2                	add	s1,s1,s8
    3fb2:	0942                	slli	s2,s2,0x10
    3fb4:	01049c13          	slli	s8,s1,0x10
    3fb8:	8041                	srli	s0,s0,0x10
    3fba:	01095913          	srli	s2,s2,0x10
    3fbe:	010c5c13          	srli	s8,s8,0x10
    3fc2:	f05d                	bnez	s0,3f68 <eEEPROMWr+0x4e>
    3fc4:	bf79                	j	3f62 <eEEPROMWr+0x48>
    3fc6:	4509                	li	a0,2
    3fc8:	8082                	ret

00003fca <eEEPROMRd>:
    3fca:	6785                	lui	a5,0x1
    3fcc:	00c50733          	add	a4,a0,a2
    3fd0:	80078793          	addi	a5,a5,-2048 # 800 <__stack_size>
    3fd4:	02e7c363          	blt	a5,a4,3ffa <eEEPROMRd+0x30>
    3fd8:	d46fc2ef          	jal	t0,51e <__riscv_save_0>
    3fdc:	20003737          	lui	a4,0x20003
    3fe0:	aec72803          	lw	a6,-1300(a4) # 20002aec <Dev+0x20>
    3fe4:	87b6                	mv	a5,a3
    3fe6:	06400713          	li	a4,100
    3fea:	86b2                	mv	a3,a2
    3fec:	862e                	mv	a2,a1
    3fee:	85aa                	mv	a1,a0
    3ff0:	0a000513          	li	a0,160
    3ff4:	9802                	jalr	a6
    3ff6:	d4cfc06f          	j	542 <__riscv_restore_0>
    3ffa:	4509                	li	a0,2
    3ffc:	8082                	ret

00003ffe <bReadEEPROM>:
    3ffe:	d20fc2ef          	jal	t0,51e <__riscv_save_0>
    4002:	1141                	addi	sp,sp,-16
    4004:	86ae                	mv	a3,a1
    4006:	4605                	li	a2,1
    4008:	00f10593          	addi	a1,sp,15
    400c:	fbfff0ef          	jal	ra,3fca <eEEPROMRd>
    4010:	8788                	lbu	a0,15(sp)
    4012:	0141                	addi	sp,sp,16
    4014:	d2efc06f          	j	542 <__riscv_restore_0>

00004018 <vPostState>:
    4018:	d06fc2ef          	jal	t0,51e <__riscv_save_0>
    401c:	200037b7          	lui	a5,0x20003
    4020:	afc7a783          	lw	a5,-1284(a5) # 20002afc <Keyboard+0x8>
    4024:	1141                	addi	sp,sp,-16
    4026:	8648                	sb	a0,12(sp)
    4028:	86cc                	sb	a1,13(sp)
    402a:	97aa                	add	a5,a5,a0
    402c:	00078023          	sb	zero,0(a5)
    4030:	200007b7          	lui	a5,0x20000
    4034:	6307a503          	lw	a0,1584(a5) # 20000630 <pKeyboardQueue>
    4038:	006c                	addi	a1,sp,12
    403a:	4681                	li	a3,0
    403c:	567d                	li	a2,-1
    403e:	05a020ef          	jal	ra,6098 <xQueueGenericSend>
    4042:	0141                	addi	sp,sp,16
    4044:	cfefc06f          	j	542 <__riscv_restore_0>

00004048 <xKeyboardQueue>:
    4048:	20000537          	lui	a0,0x20000
    404c:	63050513          	addi	a0,a0,1584 # 20000630 <pKeyboardQueue>
    4050:	8082                	ret

00004052 <HW_LIB_GetKeyboardPeriod>:
    4052:	200037b7          	lui	a5,0x20003
    4056:	b007d503          	lhu	a0,-1280(a5) # 20002b00 <Keyboard+0xc>
    405a:	8082                	ret

0000405c <eKeyboardInit>:
    405c:	cc2fc2ef          	jal	t0,51e <__riscv_save_0>
    4060:	495c                	lw	a5,20(a0)
    4062:	20003437          	lui	s0,0x20003
    4066:	af440413          	addi	s0,s0,-1292 # 20002af4 <Keyboard>
    406a:	00054903          	lbu	s2,0(a0)
    406e:	c85c                	sw	a5,20(s0)
    4070:	451c                	lw	a5,8(a0)
    4072:	4554                	lw	a3,12(a0)
    4074:	2918                	lbu	a4,16(a0)
    4076:	84aa                	mv	s1,a0
    4078:	864a                	mv	a2,s2
    407a:	853e                	mv	a0,a5
    407c:	4581                	li	a1,0
    407e:	c41c                	sw	a5,8(s0)
    4080:	c454                	sw	a3,12(s0)
    4082:	a818                	sb	a4,16(s0)
    4084:	01240023          	sb	s2,0(s0)
    4088:	cc6fc0ef          	jal	ra,54e <memset>
    408c:	40d8                	lw	a4,4(s1)
    408e:	864a                	mv	a2,s2
    4090:	4581                	li	a1,0
    4092:	c058                	sw	a4,4(s0)
    4094:	cbafc0ef          	jal	ra,54e <memset>
    4098:	200007b7          	lui	a5,0x20000
    409c:	6307a503          	lw	a0,1584(a5) # 20000630 <pKeyboardQueue>
    40a0:	4581                	li	a1,0
    40a2:	613010ef          	jal	ra,5eb4 <xQueueGenericReset>
    40a6:	4501                	li	a0,0
    40a8:	c9afc06f          	j	542 <__riscv_restore_0>

000040ac <HW_LIB_KeyboradFSM>:
    40ac:	c58fc2ef          	jal	t0,504 <__riscv_save_4>
    40b0:	200034b7          	lui	s1,0x20003
    40b4:	4401                	li	s0,0
    40b6:	af448493          	addi	s1,s1,-1292 # 20002af4 <Keyboard>
    40ba:	4905                	li	s2,1
    40bc:	4989                	li	s3,2
    40be:	4a09                	li	s4,2
    40c0:	209c                	lbu	a5,0(s1)
    40c2:	00f46463          	bltu	s0,a5,40ca <HW_LIB_KeyboradFSM+0x1e>
    40c6:	c72fc06f          	j	538 <__riscv_restore_4>
    40ca:	48dc                	lw	a5,20(s1)
    40cc:	8522                	mv	a0,s0
    40ce:	9782                	jalr	a5
    40d0:	03251163          	bne	a0,s2,40f2 <HW_LIB_KeyboradFSM+0x46>
    40d4:	40dc                	lw	a5,4(s1)
    40d6:	97a2                	add	a5,a5,s0
    40d8:	2398                	lbu	a4,0(a5)
    40da:	cb01                	beqz	a4,40ea <HW_LIB_KeyboradFSM+0x3e>
    40dc:	00078023          	sb	zero,0(a5)
    40e0:	04000593          	li	a1,64
    40e4:	8522                	mv	a0,s0
    40e6:	f33ff0ef          	jal	ra,4018 <vPostState>
    40ea:	0405                	addi	s0,s0,1
    40ec:	0ff47413          	andi	s0,s0,255
    40f0:	bfc1                	j	40c0 <HW_LIB_KeyboradFSM+0x14>
    40f2:	4498                	lw	a4,8(s1)
    40f4:	9722                	add	a4,a4,s0
    40f6:	231c                	lbu	a5,0(a4)
    40f8:	0785                	addi	a5,a5,1
    40fa:	0ff7f793          	andi	a5,a5,255
    40fe:	a31c                	sb	a5,0(a4)
    4100:	40d8                	lw	a4,4(s1)
    4102:	9722                	add	a4,a4,s0
    4104:	2314                	lbu	a3,0(a4)
    4106:	ea89                	bnez	a3,4118 <HW_LIB_KeyboradFSM+0x6c>
    4108:	2894                	lbu	a3,16(s1)
    410a:	fed7e0e3          	bltu	a5,a3,40ea <HW_LIB_KeyboradFSM+0x3e>
    410e:	01270023          	sb	s2,0(a4)
    4112:	08000593          	li	a1,128
    4116:	b7f9                	j	40e4 <HW_LIB_KeyboradFSM+0x38>
    4118:	34f0                	lbu	a2,15(s1)
    411a:	00c7e463          	bltu	a5,a2,4122 <HW_LIB_KeyboradFSM+0x76>
    411e:	01268763          	beq	a3,s2,412c <HW_LIB_KeyboradFSM+0x80>
    4122:	24f0                	lbu	a2,14(s1)
    4124:	fcc7e3e3          	bltu	a5,a2,40ea <HW_LIB_KeyboradFSM+0x3e>
    4128:	fd4691e3          	bne	a3,s4,40ea <HW_LIB_KeyboradFSM+0x3e>
    412c:	01370023          	sb	s3,0(a4)
    4130:	b7cd                	j	4112 <HW_LIB_KeyboradFSM+0x66>

00004132 <Get_ConversionVal>:
    4132:	200007b7          	lui	a5,0x20000
    4136:	63479703          	lh	a4,1588(a5) # 20000634 <Calibrattion_Val>
    413a:	4781                	li	a5,0
    413c:	972a                	add	a4,a4,a0
    413e:	00074f63          	bltz	a4,415c <Get_ConversionVal+0x2a>
    4142:	cd09                	beqz	a0,415c <Get_ConversionVal+0x2a>
    4144:	6605                	lui	a2,0x1
    4146:	fff60693          	addi	a3,a2,-1 # fff <vRGBMode+0x7>
    414a:	87b6                	mv	a5,a3
    414c:	00c75863          	bge	a4,a2,415c <Get_ConversionVal+0x2a>
    4150:	87aa                	mv	a5,a0
    4152:	00d50563          	beq	a0,a3,415c <Get_ConversionVal+0x2a>
    4156:	01071793          	slli	a5,a4,0x10
    415a:	83c1                	srli	a5,a5,0x10
    415c:	853e                	mv	a0,a5
    415e:	8082                	ret

00004160 <HAL_ADC_CommonConfig>:
    4160:	bbefc2ef          	jal	t0,51e <__riscv_save_0>
    4164:	6531                	lui	a0,0xc
    4166:	a46ff0ef          	jal	ra,33ac <RCC_ADCCLKConfig>
    416a:	bd8fc06f          	j	542 <__riscv_restore_0>

0000416e <HAL_ADC_ContiniusScanCinvertionDMA>:
    416e:	b96fc2ef          	jal	t0,504 <__riscv_save_4>
    4172:	400127b7          	lui	a5,0x40012
    4176:	40078793          	addi	a5,a5,1024 # 40012400 <__freertos_irq_stack_top+0x2000d400>
    417a:	89ae                	mv	s3,a1
    417c:	1101                	addi	sp,sp,-32
    417e:	842a                	mv	s0,a0
    4180:	8a32                	mv	s4,a2
    4182:	4585                	li	a1,1
    4184:	0af51163          	bne	a0,a5,4226 <HAL_ADC_ContiniusScanCinvertionDMA+0xb8>
    4188:	20000513          	li	a0,512
    418c:	b62ff0ef          	jal	ra,34ee <RCC_APB2PeriphClockCmd>
    4190:	fd1ff0ef          	jal	ra,4160 <HAL_ADC_CommonConfig>
    4194:	8522                	mv	a0,s0
    4196:	b70fe0ef          	jal	ra,2506 <ADC_DeInit>
    419a:	4785                	li	a5,1
    419c:	c23e                	sw	a5,4(sp)
    419e:	c43e                	sw	a5,8(sp)
    41a0:	000e07b7          	lui	a5,0xe0
    41a4:	c63e                	sw	a5,12(sp)
    41a6:	858a                	mv	a1,sp
    41a8:	4795                	li	a5,5
    41aa:	8522                	mv	a0,s0
    41ac:	00f10a23          	sb	a5,20(sp)
    41b0:	c002                	sw	zero,0(sp)
    41b2:	c802                	sw	zero,16(sp)
    41b4:	cc02                	sw	zero,24(sp)
    41b6:	ce02                	sw	zero,28(sp)
    41b8:	64b5                	lui	s1,0xd
    41ba:	b92fe0ef          	jal	ra,254c <ADC_Init>
    41be:	4781                	li	a5,0
    41c0:	cd848493          	addi	s1,s1,-808 # ccd8 <ADC_chennel_ref>
    41c4:	07379463          	bne	a5,s3,422c <HAL_ADC_ContiniusScanCinvertionDMA+0xbe>
    41c8:	40012537          	lui	a0,0x40012
    41cc:	4585                	li	a1,1
    41ce:	40050513          	addi	a0,a0,1024 # 40012400 <__freertos_irq_stack_top+0x2000d400>
    41d2:	ce6fe0ef          	jal	ra,26b8 <ADC_ExternalTrigConvCmd>
    41d6:	4585                	li	a1,1
    41d8:	8522                	mv	a0,s0
    41da:	bd8fe0ef          	jal	ra,25b2 <ADC_DMACmd>
    41de:	4585                	li	a1,1
    41e0:	8522                	mv	a0,s0
    41e2:	bc0fe0ef          	jal	ra,25a2 <ADC_Cmd>
    41e6:	8522                	mv	a0,s0
    41e8:	4581                	li	a1,0
    41ea:	d0cfe0ef          	jal	ra,26f6 <ADC_BufferCmd>
    41ee:	8522                	mv	a0,s0
    41f0:	bd4fe0ef          	jal	ra,25c4 <ADC_ResetCalibration>
    41f4:	8522                	mv	a0,s0
    41f6:	bd8fe0ef          	jal	ra,25ce <ADC_GetResetCalibrationStatus>
    41fa:	fd6d                	bnez	a0,41f4 <HAL_ADC_ContiniusScanCinvertionDMA+0x86>
    41fc:	8522                	mv	a0,s0
    41fe:	bd8fe0ef          	jal	ra,25d6 <ADC_StartCalibration>
    4202:	8522                	mv	a0,s0
    4204:	bdcfe0ef          	jal	ra,25e0 <ADC_GetCalibrationStatus>
    4208:	fd6d                	bnez	a0,4202 <HAL_ADC_ContiniusScanCinvertionDMA+0x94>
    420a:	8522                	mv	a0,s0
    420c:	d02fe0ef          	jal	ra,270e <Get_CalibrationValue>
    4210:	200007b7          	lui	a5,0x20000
    4214:	62a79a23          	sh	a0,1588(a5) # 20000634 <Calibrattion_Val>
    4218:	4585                	li	a1,1
    421a:	8522                	mv	a0,s0
    421c:	cdafe0ef          	jal	ra,26f6 <ADC_BufferCmd>
    4220:	6105                	addi	sp,sp,32
    4222:	b16fc06f          	j	538 <__riscv_restore_4>
    4226:	40000513          	li	a0,1024
    422a:	b78d                	j	418c <HAL_ADC_ContiniusScanCinvertionDMA+0x1e>
    422c:	00178913          	addi	s2,a5,1
    4230:	97d2                	add	a5,a5,s4
    4232:	239c                	lbu	a5,0(a5)
    4234:	469d                	li	a3,7
    4236:	0ff97613          	andi	a2,s2,255
    423a:	97a6                	add	a5,a5,s1
    423c:	238c                	lbu	a1,0(a5)
    423e:	8522                	mv	a0,s0
    4240:	bc0fe0ef          	jal	ra,2600 <ADC_RegularChannelConfig>
    4244:	87ca                	mv	a5,s2
    4246:	bfbd                	j	41c4 <HAL_ADC_ContiniusScanCinvertionDMA+0x56>

00004248 <ADC1_2_IRQHandler>:
    4248:	715d                	addi	sp,sp,-80
    424a:	de22                	sw	s0,60(sp)
    424c:	40012437          	lui	s0,0x40012
    4250:	dc2a                	sw	a0,56(sp)
    4252:	da2e                	sw	a1,52(sp)
    4254:	40040513          	addi	a0,s0,1024 # 40012400 <__freertos_irq_stack_top+0x2000d400>
    4258:	14000593          	li	a1,320
    425c:	c686                	sw	ra,76(sp)
    425e:	c496                	sw	t0,72(sp)
    4260:	c29a                	sw	t1,68(sp)
    4262:	c09e                	sw	t2,64(sp)
    4264:	d832                	sw	a2,48(sp)
    4266:	d636                	sw	a3,44(sp)
    4268:	d43a                	sw	a4,40(sp)
    426a:	d23e                	sw	a5,36(sp)
    426c:	d042                	sw	a6,32(sp)
    426e:	ce46                	sw	a7,28(sp)
    4270:	cc72                	sw	t3,24(sp)
    4272:	ca76                	sw	t4,20(sp)
    4274:	c87a                	sw	t5,16(sp)
    4276:	c67e                	sw	t6,12(sp)
    4278:	c58fe0ef          	jal	ra,26d0 <ADC_GetITStatus>
    427c:	cd01                	beqz	a0,4294 <ADC1_2_IRQHandler+0x4c>
    427e:	14000593          	li	a1,320
    4282:	40040513          	addi	a0,s0,1024
    4286:	c66fe0ef          	jal	ra,26ec <ADC_ClearITPendingBit>
    428a:	200007b7          	lui	a5,0x20000
    428e:	6387a783          	lw	a5,1592(a5) # 20000638 <adcs>
    4292:	9782                	jalr	a5
    4294:	5472                	lw	s0,60(sp)
    4296:	40b6                	lw	ra,76(sp)
    4298:	42a6                	lw	t0,72(sp)
    429a:	4316                	lw	t1,68(sp)
    429c:	4386                	lw	t2,64(sp)
    429e:	5562                	lw	a0,56(sp)
    42a0:	55d2                	lw	a1,52(sp)
    42a2:	5642                	lw	a2,48(sp)
    42a4:	56b2                	lw	a3,44(sp)
    42a6:	5722                	lw	a4,40(sp)
    42a8:	5792                	lw	a5,36(sp)
    42aa:	5802                	lw	a6,32(sp)
    42ac:	48f2                	lw	a7,28(sp)
    42ae:	4e62                	lw	t3,24(sp)
    42b0:	4ed2                	lw	t4,20(sp)
    42b2:	4f42                	lw	t5,16(sp)
    42b4:	4fb2                	lw	t6,12(sp)
    42b6:	6161                	addi	sp,sp,80
    42b8:	30200073          	mret

000042bc <HAL_CANSetTXCallback>:
    42bc:	200037b7          	lui	a5,0x20003
    42c0:	b0a7a823          	sw	a0,-1264(a5) # 20002b10 <CAN+0x4>
    42c4:	8082                	ret

000042c6 <HAL_CANSetRXCallback>:
    42c6:	200037b7          	lui	a5,0x20003
    42ca:	b0a7a623          	sw	a0,-1268(a5) # 20002b0c <CAN>
    42ce:	8082                	ret

000042d0 <HAL_CANSetERRCallback>:
    42d0:	200037b7          	lui	a5,0x20003
    42d4:	b0a7aa23          	sw	a0,-1260(a5) # 20002b14 <CAN+0x8>
    42d8:	8082                	ret

000042da <HAL_CANIntIT>:
    42da:	a44fc2ef          	jal	t0,51e <__riscv_save_0>
    42de:	7179                	addi	sp,sp,-48
    42e0:	842a                	mv	s0,a0
    42e2:	84ae                	mv	s1,a1
    42e4:	8932                	mv	s2,a2
    42e6:	4581                	li	a1,0
    42e8:	02000613          	li	a2,32
    42ec:	0808                	addi	a0,sp,16
    42ee:	c402                	sw	zero,8(sp)
    42f0:	c602                	sw	zero,12(sp)
    42f2:	a5cfc0ef          	jal	ra,54e <memset>
    42f6:	4585                	li	a1,1
    42f8:	02000537          	lui	a0,0x2000
    42fc:	a10ff0ef          	jal	ra,350c <RCC_APB1PeriphClockCmd>
    4300:	30000793          	li	a5,768
    4304:	81fc                	sh	a5,18(sp)
    4306:	40b00793          	li	a5,1035
    430a:	82fc                	sh	a5,20(sp)
    430c:	4785                	li	a5,1
    430e:	ce3e                	sw	a5,28(sp)
    4310:	d23e                	sw	a5,36(sp)
    4312:	cc02                	sw	zero,24(sp)
    4314:	d002                	sw	zero,32(sp)
    4316:	d402                	sw	zero,40(sp)
    4318:	d602                	sw	zero,44(sp)
    431a:	06400793          	li	a5,100
    431e:	0cf40863          	beq	s0,a5,43ee <HAL_CANIntIT+0x114>
    4322:	0087ef63          	bltu	a5,s0,4340 <HAL_CANIntIT+0x66>
    4326:	47d1                	li	a5,20
    4328:	0cf40863          	beq	s0,a5,43f8 <HAL_CANIntIT+0x11e>
    432c:	03200793          	li	a5,50
    4330:	0cf40163          	beq	s0,a5,43f2 <HAL_CANIntIT+0x118>
    4334:	47a9                	li	a5,10
    4336:	0af41a63          	bne	s0,a5,43ea <HAL_CANIntIT+0x110>
    433a:	25800793          	li	a5,600
    433e:	a005                	j	435e <HAL_CANIntIT+0x84>
    4340:	1f400793          	li	a5,500
    4344:	0af40163          	beq	s0,a5,43e6 <HAL_CANIntIT+0x10c>
    4348:	3e800793          	li	a5,1000
    434c:	00f40863          	beq	s0,a5,435c <HAL_CANIntIT+0x82>
    4350:	0fa00793          	li	a5,250
    4354:	08f41b63          	bne	s0,a5,43ea <HAL_CANIntIT+0x110>
    4358:	47a1                	li	a5,8
    435a:	a011                	j	435e <HAL_CANIntIT+0x84>
    435c:	4789                	li	a5,2
    435e:	40006437          	lui	s0,0x40006
    4362:	080c                	addi	a1,sp,16
    4364:	40040513          	addi	a0,s0,1024 # 40006400 <__freertos_irq_stack_top+0x20001400>
    4368:	80fc                	sh	a5,16(sp)
    436a:	db6fe0ef          	jal	ra,2920 <CAN_Init>
    436e:	40040513          	addi	a0,s0,1024
    4372:	40000593          	li	a1,1024
    4376:	a0dfe0ef          	jal	ra,2d82 <CAN_ClearITPendingBit>
    437a:	40040513          	addi	a0,s0,1024
    437e:	4585                	li	a1,1
    4380:	a03fe0ef          	jal	ra,2d82 <CAN_ClearITPendingBit>
    4384:	40040513          	addi	a0,s0,1024
    4388:	4589                	li	a1,2
    438a:	9f9fe0ef          	jal	ra,2d82 <CAN_ClearITPendingBit>
    438e:	40040513          	addi	a0,s0,1024
    4392:	45c1                	li	a1,16
    4394:	9effe0ef          	jal	ra,2d82 <CAN_ClearITPendingBit>
    4398:	4605                	li	a2,1
    439a:	41300593          	li	a1,1043
    439e:	40040513          	addi	a0,s0,1024
    43a2:	939fe0ef          	jal	ra,2cda <CAN_ITConfig>
    43a6:	02400793          	li	a5,36
    43aa:	845c                	sb	a5,8(sp)
    43ac:	0028                	addi	a0,sp,8
    43ae:	4785                	li	a5,1
    43b0:	c63e                	sw	a5,12(sp)
    43b2:	01210523          	sb	s2,10(sp)
    43b6:	84c4                	sb	s1,9(sp)
    43b8:	f35fe0ef          	jal	ra,32ec <NVIC_Init>
    43bc:	02500793          	li	a5,37
    43c0:	0028                	addi	a0,sp,8
    43c2:	845c                	sb	a5,8(sp)
    43c4:	f29fe0ef          	jal	ra,32ec <NVIC_Init>
    43c8:	02300793          	li	a5,35
    43cc:	0028                	addi	a0,sp,8
    43ce:	845c                	sb	a5,8(sp)
    43d0:	f1dfe0ef          	jal	ra,32ec <NVIC_Init>
    43d4:	02600793          	li	a5,38
    43d8:	0028                	addi	a0,sp,8
    43da:	845c                	sb	a5,8(sp)
    43dc:	f11fe0ef          	jal	ra,32ec <NVIC_Init>
    43e0:	6145                	addi	sp,sp,48
    43e2:	960fc06f          	j	542 <__riscv_restore_0>
    43e6:	4791                	li	a5,4
    43e8:	bf9d                	j	435e <HAL_CANIntIT+0x84>
    43ea:	47c1                	li	a5,16
    43ec:	bf8d                	j	435e <HAL_CANIntIT+0x84>
    43ee:	47d1                	li	a5,20
    43f0:	b7bd                	j	435e <HAL_CANIntIT+0x84>
    43f2:	07800793          	li	a5,120
    43f6:	b7a5                	j	435e <HAL_CANIntIT+0x84>
    43f8:	12c00793          	li	a5,300
    43fc:	b78d                	j	435e <HAL_CANIntIT+0x84>

000043fe <HAL_CANToInitMode>:
    43fe:	920fc2ef          	jal	t0,51e <__riscv_save_0>
    4402:	40006537          	lui	a0,0x40006
    4406:	4581                	li	a1,0
    4408:	40050513          	addi	a0,a0,1024 # 40006400 <__freertos_irq_stack_top+0x20001400>
    440c:	85dfe0ef          	jal	ra,2c68 <CAN_OperatingModeRequest>
    4410:	932fc06f          	j	542 <__riscv_restore_0>

00004414 <HAL_CANToOperatingMode>:
    4414:	90afc2ef          	jal	t0,51e <__riscv_save_0>
    4418:	40006537          	lui	a0,0x40006
    441c:	4585                	li	a1,1
    441e:	40050513          	addi	a0,a0,1024 # 40006400 <__freertos_irq_stack_top+0x20001400>
    4422:	847fe0ef          	jal	ra,2c68 <CAN_OperatingModeRequest>
    4426:	91cfc06f          	j	542 <__riscv_restore_0>

0000442a <HAL_CANSend>:
    442a:	8f4fc2ef          	jal	t0,51e <__riscv_save_0>
    442e:	411c                	lw	a5,0(a0)
    4430:	1101                	addi	sp,sp,-32
    4432:	2154                	lbu	a3,4(a0)
    4434:	00e7d713          	srli	a4,a5,0xe
    4438:	ca02                	sw	zero,20(sp)
    443a:	8b09                	andi	a4,a4,2
    443c:	7ff7f793          	andi	a5,a5,2047
    4440:	00e10aa3          	sb	a4,21(sp)
    4444:	0078                	addi	a4,sp,12
    4446:	c63e                	sw	a5,12(sp)
    4448:	c802                	sw	zero,16(sp)
    444a:	cc02                	sw	zero,24(sp)
    444c:	ce02                	sw	zero,28(sp)
    444e:	00d10b23          	sb	a3,22(sp)
    4452:	4781                	li	a5,0
    4454:	85ba                	mv	a1,a4
    4456:	0705                	addi	a4,a4,1
    4458:	00d7cb63          	blt	a5,a3,446e <HAL_CANSend+0x44>
    445c:	40006537          	lui	a0,0x40006
    4460:	40050513          	addi	a0,a0,1024 # 40006400 <__freertos_irq_stack_top+0x20001400>
    4464:	ebcfe0ef          	jal	ra,2b20 <CAN_Transmit>
    4468:	6105                	addi	sp,sp,32
    446a:	8d8fc06f          	j	542 <__riscv_restore_0>
    446e:	00f50633          	add	a2,a0,a5
    4472:	3250                	lbu	a2,5(a2)
    4474:	0785                	addi	a5,a5,1
    4476:	a730                	sb	a2,10(a4)
    4478:	bff9                	j	4456 <HAL_CANSend+0x2c>

0000447a <HAL_CANSetFiters>:
    447a:	8a4fc2ef          	jal	t0,51e <__riscv_save_0>
    447e:	1101                	addi	sp,sp,-32
    4480:	00f037b3          	snez	a5,a5
    4484:	4805                	li	a6,1
    4486:	0596                	slli	a1,a1,0x5
    4488:	0696                	slli	a3,a3,0x5
    448a:	0616                	slli	a2,a2,0x5
    448c:	0716                	slli	a4,a4,0x5
    448e:	82fc                	sh	a5,20(sp)
    4490:	00a10b23          	sb	a0,22(sp)
    4494:	4785                	li	a5,1
    4496:	0068                	addi	a0,sp,12
    4498:	01010ba3          	sb	a6,23(sp)
    449c:	876c                	sh	a1,14(sp)
    449e:	8674                	sh	a3,12(sp)
    44a0:	81f0                	sh	a2,18(sp)
    44a2:	80f8                	sh	a4,16(sp)
    44a4:	ce3e                	sw	a5,28(sp)
    44a6:	00010c23          	sb	zero,24(sp)
    44aa:	d5efe0ef          	jal	ra,2a08 <CAN_FilterInit>
    44ae:	6105                	addi	sp,sp,32
    44b0:	892fc06f          	j	542 <__riscv_restore_0>

000044b4 <HAL_CANGetRXMessage>:
    44b4:	86afc2ef          	jal	t0,51e <__riscv_save_0>
    44b8:	1101                	addi	sp,sp,-32
    44ba:	842e                	mv	s0,a1
    44bc:	00a035b3          	snez	a1,a0
    44c0:	40006537          	lui	a0,0x40006
    44c4:	0070                	addi	a2,sp,12
    44c6:	40050513          	addi	a0,a0,1024 # 40006400 <__freertos_irq_stack_top+0x20001400>
    44ca:	f12fe0ef          	jal	ra,2bdc <CAN_Receive>
    44ce:	47b2                	lw	a5,12(sp)
    44d0:	01514603          	lbu	a2,21(sp)
    44d4:	4689                	li	a3,2
    44d6:	7ff7f793          	andi	a5,a5,2047
    44da:	4701                	li	a4,0
    44dc:	00d61363          	bne	a2,a3,44e2 <HAL_CANGetRXMessage+0x2e>
    44e0:	6721                	lui	a4,0x8
    44e2:	8fd9                	or	a5,a5,a4
    44e4:	c01c                	sw	a5,0(s0)
    44e6:	01614783          	lbu	a5,22(sp)
    44ea:	01710593          	addi	a1,sp,23
    44ee:	00041723          	sh	zero,14(s0)
    44f2:	a05c                	sb	a5,4(s0)
    44f4:	4621                	li	a2,8
    44f6:	00540513          	addi	a0,s0,5
    44fa:	264070ef          	jal	ra,b75e <memcpy>
    44fe:	4501                	li	a0,0
    4500:	6105                	addi	sp,sp,32
    4502:	840fc06f          	j	542 <__riscv_restore_0>

00004506 <USB_HP_CAN1_TX_IRQHandler>:
    4506:	715d                	addi	sp,sp,-80
    4508:	de22                	sw	s0,60(sp)
    450a:	dc26                	sw	s1,56(sp)
    450c:	40006437          	lui	s0,0x40006
    4510:	380004b7          	lui	s1,0x38000
    4514:	da2a                	sw	a0,52(sp)
    4516:	d82e                	sw	a1,48(sp)
    4518:	40040513          	addi	a0,s0,1024 # 40006400 <__freertos_irq_stack_top+0x20001400>
    451c:	00148593          	addi	a1,s1,1 # 38000001 <__freertos_irq_stack_top+0x17ffb001>
    4520:	d03e                	sw	a5,32(sp)
    4522:	c686                	sw	ra,76(sp)
    4524:	c496                	sw	t0,72(sp)
    4526:	c29a                	sw	t1,68(sp)
    4528:	c09e                	sw	t2,64(sp)
    452a:	d632                	sw	a2,44(sp)
    452c:	d436                	sw	a3,40(sp)
    452e:	d23a                	sw	a4,36(sp)
    4530:	ce42                	sw	a6,28(sp)
    4532:	cc46                	sw	a7,24(sp)
    4534:	ca72                	sw	t3,20(sp)
    4536:	c876                	sw	t4,16(sp)
    4538:	c67a                	sw	t5,12(sp)
    453a:	c47e                	sw	t6,8(sp)
    453c:	fb0fe0ef          	jal	ra,2cec <CAN_GetFlagStatus>
    4540:	4785                	li	a5,1
    4542:	00f51863          	bne	a0,a5,4552 <USB_HP_CAN1_TX_IRQHandler+0x4c>
    4546:	00148593          	addi	a1,s1,1
    454a:	40040513          	addi	a0,s0,1024
    454e:	ff4fe0ef          	jal	ra,2d42 <CAN_ClearFlag>
    4552:	380004b7          	lui	s1,0x38000
    4556:	40006437          	lui	s0,0x40006
    455a:	10048593          	addi	a1,s1,256 # 38000100 <__freertos_irq_stack_top+0x17ffb100>
    455e:	40040513          	addi	a0,s0,1024 # 40006400 <__freertos_irq_stack_top+0x20001400>
    4562:	f8afe0ef          	jal	ra,2cec <CAN_GetFlagStatus>
    4566:	4785                	li	a5,1
    4568:	00f51863          	bne	a0,a5,4578 <USB_HP_CAN1_TX_IRQHandler+0x72>
    456c:	10048593          	addi	a1,s1,256
    4570:	40040513          	addi	a0,s0,1024
    4574:	fcefe0ef          	jal	ra,2d42 <CAN_ClearFlag>
    4578:	40006437          	lui	s0,0x40006
    457c:	380105b7          	lui	a1,0x38010
    4580:	40040513          	addi	a0,s0,1024 # 40006400 <__freertos_irq_stack_top+0x20001400>
    4584:	f68fe0ef          	jal	ra,2cec <CAN_GetFlagStatus>
    4588:	4785                	li	a5,1
    458a:	00f51863          	bne	a0,a5,459a <USB_HP_CAN1_TX_IRQHandler+0x94>
    458e:	380105b7          	lui	a1,0x38010
    4592:	40040513          	addi	a0,s0,1024
    4596:	facfe0ef          	jal	ra,2d42 <CAN_ClearFlag>
    459a:	200037b7          	lui	a5,0x20003
    459e:	b107a783          	lw	a5,-1264(a5) # 20002b10 <CAN+0x4>
    45a2:	9782                	jalr	a5
    45a4:	40006537          	lui	a0,0x40006
    45a8:	4585                	li	a1,1
    45aa:	40050513          	addi	a0,a0,1024 # 40006400 <__freertos_irq_stack_top+0x20001400>
    45ae:	fd4fe0ef          	jal	ra,2d82 <CAN_ClearITPendingBit>
    45b2:	5472                	lw	s0,60(sp)
    45b4:	40b6                	lw	ra,76(sp)
    45b6:	42a6                	lw	t0,72(sp)
    45b8:	4316                	lw	t1,68(sp)
    45ba:	4386                	lw	t2,64(sp)
    45bc:	54e2                	lw	s1,56(sp)
    45be:	5552                	lw	a0,52(sp)
    45c0:	55c2                	lw	a1,48(sp)
    45c2:	5632                	lw	a2,44(sp)
    45c4:	56a2                	lw	a3,40(sp)
    45c6:	5712                	lw	a4,36(sp)
    45c8:	5782                	lw	a5,32(sp)
    45ca:	4872                	lw	a6,28(sp)
    45cc:	48e2                	lw	a7,24(sp)
    45ce:	4e52                	lw	t3,20(sp)
    45d0:	4ec2                	lw	t4,16(sp)
    45d2:	4f32                	lw	t5,12(sp)
    45d4:	4fa2                	lw	t6,8(sp)
    45d6:	6161                	addi	sp,sp,80
    45d8:	30200073          	mret

000045dc <USB_LP_CAN1_RX0_IRQHandler>:
    45dc:	7139                	addi	sp,sp,-64
    45de:	cc3e                	sw	a5,24(sp)
    45e0:	200037b7          	lui	a5,0x20003
    45e4:	b0c7a783          	lw	a5,-1268(a5) # 20002b0c <CAN>
    45e8:	de06                	sw	ra,60(sp)
    45ea:	dc16                	sw	t0,56(sp)
    45ec:	da1a                	sw	t1,52(sp)
    45ee:	d81e                	sw	t2,48(sp)
    45f0:	d62a                	sw	a0,44(sp)
    45f2:	d42e                	sw	a1,40(sp)
    45f4:	d232                	sw	a2,36(sp)
    45f6:	d036                	sw	a3,32(sp)
    45f8:	ce3a                	sw	a4,28(sp)
    45fa:	ca42                	sw	a6,20(sp)
    45fc:	c846                	sw	a7,16(sp)
    45fe:	c672                	sw	t3,12(sp)
    4600:	c476                	sw	t4,8(sp)
    4602:	c27a                	sw	t5,4(sp)
    4604:	c07e                	sw	t6,0(sp)
    4606:	4501                	li	a0,0
    4608:	9782                	jalr	a5
    460a:	40006537          	lui	a0,0x40006
    460e:	4591                	li	a1,4
    4610:	40050513          	addi	a0,a0,1024 # 40006400 <__freertos_irq_stack_top+0x20001400>
    4614:	f6efe0ef          	jal	ra,2d82 <CAN_ClearITPendingBit>
    4618:	50f2                	lw	ra,60(sp)
    461a:	52e2                	lw	t0,56(sp)
    461c:	5352                	lw	t1,52(sp)
    461e:	53c2                	lw	t2,48(sp)
    4620:	5532                	lw	a0,44(sp)
    4622:	55a2                	lw	a1,40(sp)
    4624:	5612                	lw	a2,36(sp)
    4626:	5682                	lw	a3,32(sp)
    4628:	4772                	lw	a4,28(sp)
    462a:	47e2                	lw	a5,24(sp)
    462c:	4852                	lw	a6,20(sp)
    462e:	48c2                	lw	a7,16(sp)
    4630:	4e32                	lw	t3,12(sp)
    4632:	4ea2                	lw	t4,8(sp)
    4634:	4f12                	lw	t5,4(sp)
    4636:	4f82                	lw	t6,0(sp)
    4638:	6121                	addi	sp,sp,64
    463a:	30200073          	mret

0000463e <CAN1_RX1_IRQHandler>:
    463e:	7139                	addi	sp,sp,-64
    4640:	cc3e                	sw	a5,24(sp)
    4642:	200037b7          	lui	a5,0x20003
    4646:	b0c7a783          	lw	a5,-1268(a5) # 20002b0c <CAN>
    464a:	de06                	sw	ra,60(sp)
    464c:	dc16                	sw	t0,56(sp)
    464e:	da1a                	sw	t1,52(sp)
    4650:	d81e                	sw	t2,48(sp)
    4652:	d62a                	sw	a0,44(sp)
    4654:	d42e                	sw	a1,40(sp)
    4656:	d232                	sw	a2,36(sp)
    4658:	d036                	sw	a3,32(sp)
    465a:	ce3a                	sw	a4,28(sp)
    465c:	ca42                	sw	a6,20(sp)
    465e:	c846                	sw	a7,16(sp)
    4660:	c672                	sw	t3,12(sp)
    4662:	c476                	sw	t4,8(sp)
    4664:	c27a                	sw	t5,4(sp)
    4666:	c07e                	sw	t6,0(sp)
    4668:	4505                	li	a0,1
    466a:	9782                	jalr	a5
    466c:	40006537          	lui	a0,0x40006
    4670:	02000593          	li	a1,32
    4674:	40050513          	addi	a0,a0,1024 # 40006400 <__freertos_irq_stack_top+0x20001400>
    4678:	f0afe0ef          	jal	ra,2d82 <CAN_ClearITPendingBit>
    467c:	50f2                	lw	ra,60(sp)
    467e:	52e2                	lw	t0,56(sp)
    4680:	5352                	lw	t1,52(sp)
    4682:	53c2                	lw	t2,48(sp)
    4684:	5532                	lw	a0,44(sp)
    4686:	55a2                	lw	a1,40(sp)
    4688:	5612                	lw	a2,36(sp)
    468a:	5682                	lw	a3,32(sp)
    468c:	4772                	lw	a4,28(sp)
    468e:	47e2                	lw	a5,24(sp)
    4690:	4852                	lw	a6,20(sp)
    4692:	48c2                	lw	a7,16(sp)
    4694:	4e32                	lw	t3,12(sp)
    4696:	4ea2                	lw	t4,8(sp)
    4698:	4f12                	lw	t5,4(sp)
    469a:	4f82                	lw	t6,0(sp)
    469c:	6121                	addi	sp,sp,64
    469e:	30200073          	mret

000046a2 <CAN1_SCE_IRQHandler>:
    46a2:	7139                	addi	sp,sp,-64
    46a4:	d62a                	sw	a0,44(sp)
    46a6:	40006537          	lui	a0,0x40006
    46aa:	d42e                	sw	a1,40(sp)
    46ac:	40050513          	addi	a0,a0,1024 # 40006400 <__freertos_irq_stack_top+0x20001400>
    46b0:	40000593          	li	a1,1024
    46b4:	de06                	sw	ra,60(sp)
    46b6:	dc16                	sw	t0,56(sp)
    46b8:	da1a                	sw	t1,52(sp)
    46ba:	d81e                	sw	t2,48(sp)
    46bc:	d232                	sw	a2,36(sp)
    46be:	d036                	sw	a3,32(sp)
    46c0:	ce3a                	sw	a4,28(sp)
    46c2:	cc3e                	sw	a5,24(sp)
    46c4:	ca42                	sw	a6,20(sp)
    46c6:	c846                	sw	a7,16(sp)
    46c8:	c672                	sw	t3,12(sp)
    46ca:	c476                	sw	t4,8(sp)
    46cc:	c27a                	sw	t5,4(sp)
    46ce:	c07e                	sw	t6,0(sp)
    46d0:	eb2fe0ef          	jal	ra,2d82 <CAN_ClearITPendingBit>
    46d4:	200037b7          	lui	a5,0x20003
    46d8:	b147a783          	lw	a5,-1260(a5) # 20002b14 <CAN+0x8>
    46dc:	9782                	jalr	a5
    46de:	50f2                	lw	ra,60(sp)
    46e0:	52e2                	lw	t0,56(sp)
    46e2:	5352                	lw	t1,52(sp)
    46e4:	53c2                	lw	t2,48(sp)
    46e6:	5532                	lw	a0,44(sp)
    46e8:	55a2                	lw	a1,40(sp)
    46ea:	5612                	lw	a2,36(sp)
    46ec:	5682                	lw	a3,32(sp)
    46ee:	4772                	lw	a4,28(sp)
    46f0:	47e2                	lw	a5,24(sp)
    46f2:	4852                	lw	a6,20(sp)
    46f4:	48c2                	lw	a7,16(sp)
    46f6:	4e32                	lw	t3,12(sp)
    46f8:	4ea2                	lw	t4,8(sp)
    46fa:	4f12                	lw	t5,4(sp)
    46fc:	4f82                	lw	t6,0(sp)
    46fe:	6121                	addi	sp,sp,64
    4700:	30200073          	mret

00004704 <HAL_DMA_Enable>:
    4704:	e1bfb2ef          	jal	t0,51e <__riscv_save_0>
    4708:	4585                	li	a1,1
    470a:	f44fe0ef          	jal	ra,2e4e <DMA_Cmd>
    470e:	e35fb06f          	j	542 <__riscv_restore_0>

00004712 <HAL_DMA_Disable>:
    4712:	e0dfb2ef          	jal	t0,51e <__riscv_save_0>
    4716:	4581                	li	a1,0
    4718:	f36fe0ef          	jal	ra,2e4e <DMA_Cmd>
    471c:	e27fb06f          	j	542 <__riscv_restore_0>

00004720 <HAL_DMA_SetCounter>:
    4720:	dfffb2ef          	jal	t0,51e <__riscv_save_0>
    4724:	05c2                	slli	a1,a1,0x10
    4726:	81c1                	srli	a1,a1,0x10
    4728:	f4cfe0ef          	jal	ra,2e74 <DMA_SetCurrDataCounter>
    472c:	e17fb06f          	j	542 <__riscv_restore_0>

00004730 <HAL_DMAInitIT>:
    4730:	dd5fb2ef          	jal	t0,504 <__riscv_save_4>
    4734:	715d                	addi	sp,sp,-80
    4736:	842a                	mv	s0,a0
    4738:	8a2e                	mv	s4,a1
    473a:	4505                	li	a0,1
    473c:	4585                	li	a1,1
    473e:	c632                	sw	a2,12(sp)
    4740:	c436                	sw	a3,8(sp)
    4742:	c23a                	sw	a4,4(sp)
    4744:	8b42                	mv	s6,a6
    4746:	8ac6                	mv	s5,a7
    4748:	59c6                	lw	s3,112(sp)
    474a:	ce02                	sw	zero,28(sp)
    474c:	d002                	sw	zero,32(sp)
    474e:	d83fe0ef          	jal	ra,34d0 <RCC_AHBPeriphClockCmd>
    4752:	4712                	lw	a4,4(sp)
    4754:	46a2                	lw	a3,8(sp)
    4756:	4632                	lw	a2,12(sp)
    4758:	060a0e63          	beqz	s4,47d4 <HAL_DMAInitIT+0xa4>
    475c:	4785                	li	a5,1
    475e:	00fa1463          	bne	s4,a5,4766 <HAL_DMAInitIT+0x36>
    4762:	47c1                	li	a5,16
    4764:	d63e                	sw	a5,44(sp)
    4766:	4785                	li	a5,1
    4768:	06f60b63          	beq	a2,a5,47de <HAL_DMAInitIT+0xae>
    476c:	c635                	beqz	a2,47d8 <HAL_DMAInitIT+0xa8>
    476e:	4789                	li	a5,2
    4770:	06f60e63          	beq	a2,a5,47ec <HAL_DMAInitIT+0xbc>
    4774:	400207b7          	lui	a5,0x40020
    4778:	00878613          	addi	a2,a5,8 # 40020008 <__freertos_irq_stack_top+0x2001b008>
    477c:	06c41f63          	bne	s0,a2,47fa <HAL_DMAInitIT+0xca>
    4780:	200037b7          	lui	a5,0x20003
    4784:	b137ac23          	sw	s3,-1256(a5) # 20002b18 <DMA_CALLback>
    4788:	44ed                	li	s1,27
    478a:	4905                	li	s2,1
    478c:	08000793          	li	a5,128
    4790:	dc3e                	sw	a5,56(sp)
    4792:	104c                	addi	a1,sp,36
    4794:	6785                	lui	a5,0x1
    4796:	8522                	mv	a0,s0
    4798:	d236                	sw	a3,36(sp)
    479a:	d43a                	sw	a4,40(sp)
    479c:	c4be                	sw	a5,72(sp)
    479e:	da02                	sw	zero,52(sp)
    47a0:	c282                	sw	zero,68(sp)
    47a2:	c682                	sw	zero,76(sp)
    47a4:	e72fe0ef          	jal	ra,2e16 <DMA_Init>
    47a8:	4605                	li	a2,1
    47aa:	4589                	li	a1,2
    47ac:	8522                	mv	a0,s0
    47ae:	eb4fe0ef          	jal	ra,2e62 <DMA_ITConfig>
    47b2:	854a                	mv	a0,s2
    47b4:	edcfe0ef          	jal	ra,2e90 <DMA_ClearITPendingBit>
    47b8:	4785                	li	a5,1
    47ba:	0868                	addi	a0,sp,28
    47bc:	00910e23          	sb	s1,28(sp)
    47c0:	01610ea3          	sb	s6,29(sp)
    47c4:	01510f23          	sb	s5,30(sp)
    47c8:	d03e                	sw	a5,32(sp)
    47ca:	b23fe0ef          	jal	ra,32ec <NVIC_Init>
    47ce:	6161                	addi	sp,sp,80
    47d0:	d69fb06f          	j	538 <__riscv_restore_4>
    47d4:	d602                	sw	zero,44(sp)
    47d6:	bf41                	j	4766 <HAL_DMAInitIT+0x36>
    47d8:	c082                	sw	zero,64(sp)
    47da:	de02                	sw	zero,60(sp)
    47dc:	bf61                	j	4774 <HAL_DMAInitIT+0x44>
    47de:	40000793          	li	a5,1024
    47e2:	c0be                	sw	a5,64(sp)
    47e4:	10000793          	li	a5,256
    47e8:	de3e                	sw	a5,60(sp)
    47ea:	b769                	j	4774 <HAL_DMAInitIT+0x44>
    47ec:	6785                	lui	a5,0x1
    47ee:	80078793          	addi	a5,a5,-2048 # 800 <__stack_size>
    47f2:	c0be                	sw	a5,64(sp)
    47f4:	20000793          	li	a5,512
    47f8:	bfc5                	j	47e8 <HAL_DMAInitIT+0xb8>
    47fa:	01c78613          	addi	a2,a5,28
    47fe:	00c41963          	bne	s0,a2,4810 <HAL_DMAInitIT+0xe0>
    4802:	200037b7          	lui	a5,0x20003
    4806:	b137ae23          	sw	s3,-1252(a5) # 20002b1c <DMA_CALLback+0x4>
    480a:	44f1                	li	s1,28
    480c:	4941                	li	s2,16
    480e:	bfbd                	j	478c <HAL_DMAInitIT+0x5c>
    4810:	03078613          	addi	a2,a5,48
    4814:	00c41a63          	bne	s0,a2,4828 <HAL_DMAInitIT+0xf8>
    4818:	200037b7          	lui	a5,0x20003
    481c:	b337a023          	sw	s3,-1248(a5) # 20002b20 <DMA_CALLback+0x8>
    4820:	44f5                	li	s1,29
    4822:	10000913          	li	s2,256
    4826:	b79d                	j	478c <HAL_DMAInitIT+0x5c>
    4828:	04478613          	addi	a2,a5,68
    482c:	00c41963          	bne	s0,a2,483e <HAL_DMAInitIT+0x10e>
    4830:	200037b7          	lui	a5,0x20003
    4834:	b337a223          	sw	s3,-1244(a5) # 20002b24 <DMA_CALLback+0xc>
    4838:	44f9                	li	s1,30
    483a:	6905                	lui	s2,0x1
    483c:	bf81                	j	478c <HAL_DMAInitIT+0x5c>
    483e:	05878613          	addi	a2,a5,88
    4842:	00c41963          	bne	s0,a2,4854 <HAL_DMAInitIT+0x124>
    4846:	200037b7          	lui	a5,0x20003
    484a:	b337a423          	sw	s3,-1240(a5) # 20002b28 <DMA_CALLback+0x10>
    484e:	44fd                	li	s1,31
    4850:	6941                	lui	s2,0x10
    4852:	bf2d                	j	478c <HAL_DMAInitIT+0x5c>
    4854:	06c78613          	addi	a2,a5,108
    4858:	00c41b63          	bne	s0,a2,486e <HAL_DMAInitIT+0x13e>
    485c:	200037b7          	lui	a5,0x20003
    4860:	b337a623          	sw	s3,-1236(a5) # 20002b2c <DMA_CALLback+0x14>
    4864:	02000493          	li	s1,32
    4868:	00100937          	lui	s2,0x100
    486c:	b705                	j	478c <HAL_DMAInitIT+0x5c>
    486e:	08078613          	addi	a2,a5,128
    4872:	00c41b63          	bne	s0,a2,4888 <HAL_DMAInitIT+0x158>
    4876:	200037b7          	lui	a5,0x20003
    487a:	b337a823          	sw	s3,-1232(a5) # 20002b30 <DMA_CALLback+0x18>
    487e:	02100493          	li	s1,33
    4882:	01000937          	lui	s2,0x1000
    4886:	b719                	j	478c <HAL_DMAInitIT+0x5c>
    4888:	09478793          	addi	a5,a5,148
    488c:	f0f410e3          	bne	s0,a5,478c <HAL_DMAInitIT+0x5c>
    4890:	200037b7          	lui	a5,0x20003
    4894:	b337aa23          	sw	s3,-1228(a5) # 20002b34 <InitPort>
    4898:	03e00493          	li	s1,62
    489c:	10000937          	lui	s2,0x10000
    48a0:	b5f5                	j	478c <HAL_DMAInitIT+0x5c>

000048a2 <HAL_ADC_StartDMA>:
    48a2:	c7dfb2ef          	jal	t0,51e <__riscv_save_0>
    48a6:	1141                	addi	sp,sp,-16
    48a8:	84aa                	mv	s1,a0
    48aa:	4505                	li	a0,1
    48ac:	842e                	mv	s0,a1
    48ae:	c632                	sw	a2,12(sp)
    48b0:	de0fe0ef          	jal	ra,2e90 <DMA_ClearITPendingBit>
    48b4:	4632                	lw	a2,12(sp)
    48b6:	8526                	mv	a0,s1
    48b8:	85b2                	mv	a1,a2
    48ba:	dbafe0ef          	jal	ra,2e74 <DMA_SetCurrDataCounter>
    48be:	c4c0                	sw	s0,12(s1)
    48c0:	40012437          	lui	s0,0x40012
    48c4:	40040513          	addi	a0,s0,1024 # 40012400 <__freertos_irq_stack_top+0x2000d400>
    48c8:	4585                	li	a1,1
    48ca:	ce9fd0ef          	jal	ra,25b2 <ADC_DMACmd>
    48ce:	40040513          	addi	a0,s0,1024
    48d2:	22000593          	li	a1,544
    48d6:	e17fd0ef          	jal	ra,26ec <ADC_ClearITPendingBit>
    48da:	4605                	li	a2,1
    48dc:	8526                	mv	a0,s1
    48de:	4589                	li	a1,2
    48e0:	d82fe0ef          	jal	ra,2e62 <DMA_ITConfig>
    48e4:	8526                	mv	a0,s1
    48e6:	4585                	li	a1,1
    48e8:	d66fe0ef          	jal	ra,2e4e <DMA_Cmd>
    48ec:	40040513          	addi	a0,s0,1024
    48f0:	4585                	li	a1,1
    48f2:	cb1fd0ef          	jal	ra,25a2 <ADC_Cmd>
    48f6:	4585                	li	a1,1
    48f8:	40040513          	addi	a0,s0,1024
    48fc:	cedfd0ef          	jal	ra,25e8 <ADC_SoftwareStartConvCmd>
    4900:	0141                	addi	sp,sp,16
    4902:	c41fb06f          	j	542 <__riscv_restore_0>

00004906 <DMA1_Channel1_IRQHandler>:
    4906:	7139                	addi	sp,sp,-64
    4908:	d62a                	sw	a0,44(sp)
    490a:	4509                	li	a0,2
    490c:	cc3e                	sw	a5,24(sp)
    490e:	de06                	sw	ra,60(sp)
    4910:	dc16                	sw	t0,56(sp)
    4912:	da1a                	sw	t1,52(sp)
    4914:	d81e                	sw	t2,48(sp)
    4916:	d42e                	sw	a1,40(sp)
    4918:	d232                	sw	a2,36(sp)
    491a:	d036                	sw	a3,32(sp)
    491c:	ce3a                	sw	a4,28(sp)
    491e:	ca42                	sw	a6,20(sp)
    4920:	c846                	sw	a7,16(sp)
    4922:	c672                	sw	t3,12(sp)
    4924:	c476                	sw	t4,8(sp)
    4926:	c27a                	sw	t5,4(sp)
    4928:	c07e                	sw	t6,0(sp)
    492a:	d5cfe0ef          	jal	ra,2e86 <DMA_GetITStatus>
    492e:	4785                	li	a5,1
    4930:	00f51a63          	bne	a0,a5,4944 <DMA1_Channel1_IRQHandler+0x3e>
    4934:	200037b7          	lui	a5,0x20003
    4938:	b187a783          	lw	a5,-1256(a5) # 20002b18 <DMA_CALLback>
    493c:	9782                	jalr	a5
    493e:	4505                	li	a0,1
    4940:	d50fe0ef          	jal	ra,2e90 <DMA_ClearITPendingBit>
    4944:	50f2                	lw	ra,60(sp)
    4946:	52e2                	lw	t0,56(sp)
    4948:	5352                	lw	t1,52(sp)
    494a:	53c2                	lw	t2,48(sp)
    494c:	5532                	lw	a0,44(sp)
    494e:	55a2                	lw	a1,40(sp)
    4950:	5612                	lw	a2,36(sp)
    4952:	5682                	lw	a3,32(sp)
    4954:	4772                	lw	a4,28(sp)
    4956:	47e2                	lw	a5,24(sp)
    4958:	4852                	lw	a6,20(sp)
    495a:	48c2                	lw	a7,16(sp)
    495c:	4e32                	lw	t3,12(sp)
    495e:	4ea2                	lw	t4,8(sp)
    4960:	4f12                	lw	t5,4(sp)
    4962:	4f82                	lw	t6,0(sp)
    4964:	6121                	addi	sp,sp,64
    4966:	30200073          	mret

0000496a <DMA1_Channel3_IRQHandler>:
    496a:	7139                	addi	sp,sp,-64
    496c:	d62a                	sw	a0,44(sp)
    496e:	20000513          	li	a0,512
    4972:	cc3e                	sw	a5,24(sp)
    4974:	de06                	sw	ra,60(sp)
    4976:	dc16                	sw	t0,56(sp)
    4978:	da1a                	sw	t1,52(sp)
    497a:	d81e                	sw	t2,48(sp)
    497c:	d42e                	sw	a1,40(sp)
    497e:	d232                	sw	a2,36(sp)
    4980:	d036                	sw	a3,32(sp)
    4982:	ce3a                	sw	a4,28(sp)
    4984:	ca42                	sw	a6,20(sp)
    4986:	c846                	sw	a7,16(sp)
    4988:	c672                	sw	t3,12(sp)
    498a:	c476                	sw	t4,8(sp)
    498c:	c27a                	sw	t5,4(sp)
    498e:	c07e                	sw	t6,0(sp)
    4990:	cf6fe0ef          	jal	ra,2e86 <DMA_GetITStatus>
    4994:	4785                	li	a5,1
    4996:	00f51b63          	bne	a0,a5,49ac <DMA1_Channel3_IRQHandler+0x42>
    499a:	200037b7          	lui	a5,0x20003
    499e:	b207a783          	lw	a5,-1248(a5) # 20002b20 <DMA_CALLback+0x8>
    49a2:	9782                	jalr	a5
    49a4:	10000513          	li	a0,256
    49a8:	ce8fe0ef          	jal	ra,2e90 <DMA_ClearITPendingBit>
    49ac:	50f2                	lw	ra,60(sp)
    49ae:	52e2                	lw	t0,56(sp)
    49b0:	5352                	lw	t1,52(sp)
    49b2:	53c2                	lw	t2,48(sp)
    49b4:	5532                	lw	a0,44(sp)
    49b6:	55a2                	lw	a1,40(sp)
    49b8:	5612                	lw	a2,36(sp)
    49ba:	5682                	lw	a3,32(sp)
    49bc:	4772                	lw	a4,28(sp)
    49be:	47e2                	lw	a5,24(sp)
    49c0:	4852                	lw	a6,20(sp)
    49c2:	48c2                	lw	a7,16(sp)
    49c4:	4e32                	lw	t3,12(sp)
    49c6:	4ea2                	lw	t4,8(sp)
    49c8:	4f12                	lw	t5,4(sp)
    49ca:	4f82                	lw	t6,0(sp)
    49cc:	6121                	addi	sp,sp,64
    49ce:	30200073          	mret

000049d2 <DMA1_Channel5_IRQHandler>:
    49d2:	7139                	addi	sp,sp,-64
    49d4:	d62a                	sw	a0,44(sp)
    49d6:	00020537          	lui	a0,0x20
    49da:	cc3e                	sw	a5,24(sp)
    49dc:	de06                	sw	ra,60(sp)
    49de:	dc16                	sw	t0,56(sp)
    49e0:	da1a                	sw	t1,52(sp)
    49e2:	d81e                	sw	t2,48(sp)
    49e4:	d42e                	sw	a1,40(sp)
    49e6:	d232                	sw	a2,36(sp)
    49e8:	d036                	sw	a3,32(sp)
    49ea:	ce3a                	sw	a4,28(sp)
    49ec:	ca42                	sw	a6,20(sp)
    49ee:	c846                	sw	a7,16(sp)
    49f0:	c672                	sw	t3,12(sp)
    49f2:	c476                	sw	t4,8(sp)
    49f4:	c27a                	sw	t5,4(sp)
    49f6:	c07e                	sw	t6,0(sp)
    49f8:	c8efe0ef          	jal	ra,2e86 <DMA_GetITStatus>
    49fc:	4785                	li	a5,1
    49fe:	00f51a63          	bne	a0,a5,4a12 <DMA1_Channel5_IRQHandler+0x40>
    4a02:	200037b7          	lui	a5,0x20003
    4a06:	b287a783          	lw	a5,-1240(a5) # 20002b28 <DMA_CALLback+0x10>
    4a0a:	9782                	jalr	a5
    4a0c:	6541                	lui	a0,0x10
    4a0e:	c82fe0ef          	jal	ra,2e90 <DMA_ClearITPendingBit>
    4a12:	50f2                	lw	ra,60(sp)
    4a14:	52e2                	lw	t0,56(sp)
    4a16:	5352                	lw	t1,52(sp)
    4a18:	53c2                	lw	t2,48(sp)
    4a1a:	5532                	lw	a0,44(sp)
    4a1c:	55a2                	lw	a1,40(sp)
    4a1e:	5612                	lw	a2,36(sp)
    4a20:	5682                	lw	a3,32(sp)
    4a22:	4772                	lw	a4,28(sp)
    4a24:	47e2                	lw	a5,24(sp)
    4a26:	4852                	lw	a6,20(sp)
    4a28:	48c2                	lw	a7,16(sp)
    4a2a:	4e32                	lw	t3,12(sp)
    4a2c:	4ea2                	lw	t4,8(sp)
    4a2e:	4f12                	lw	t5,4(sp)
    4a30:	4f82                	lw	t6,0(sp)
    4a32:	6121                	addi	sp,sp,64
    4a34:	30200073          	mret

00004a38 <DMA1_Channel4_IRQHandler>:
    4a38:	7139                	addi	sp,sp,-64
    4a3a:	d62a                	sw	a0,44(sp)
    4a3c:	6509                	lui	a0,0x2
    4a3e:	cc3e                	sw	a5,24(sp)
    4a40:	de06                	sw	ra,60(sp)
    4a42:	dc16                	sw	t0,56(sp)
    4a44:	da1a                	sw	t1,52(sp)
    4a46:	d81e                	sw	t2,48(sp)
    4a48:	d42e                	sw	a1,40(sp)
    4a4a:	d232                	sw	a2,36(sp)
    4a4c:	d036                	sw	a3,32(sp)
    4a4e:	ce3a                	sw	a4,28(sp)
    4a50:	ca42                	sw	a6,20(sp)
    4a52:	c846                	sw	a7,16(sp)
    4a54:	c672                	sw	t3,12(sp)
    4a56:	c476                	sw	t4,8(sp)
    4a58:	c27a                	sw	t5,4(sp)
    4a5a:	c07e                	sw	t6,0(sp)
    4a5c:	c2afe0ef          	jal	ra,2e86 <DMA_GetITStatus>
    4a60:	4785                	li	a5,1
    4a62:	00f51a63          	bne	a0,a5,4a76 <DMA1_Channel4_IRQHandler+0x3e>
    4a66:	200037b7          	lui	a5,0x20003
    4a6a:	b247a783          	lw	a5,-1244(a5) # 20002b24 <DMA_CALLback+0xc>
    4a6e:	9782                	jalr	a5
    4a70:	6505                	lui	a0,0x1
    4a72:	c1efe0ef          	jal	ra,2e90 <DMA_ClearITPendingBit>
    4a76:	50f2                	lw	ra,60(sp)
    4a78:	52e2                	lw	t0,56(sp)
    4a7a:	5352                	lw	t1,52(sp)
    4a7c:	53c2                	lw	t2,48(sp)
    4a7e:	5532                	lw	a0,44(sp)
    4a80:	55a2                	lw	a1,40(sp)
    4a82:	5612                	lw	a2,36(sp)
    4a84:	5682                	lw	a3,32(sp)
    4a86:	4772                	lw	a4,28(sp)
    4a88:	47e2                	lw	a5,24(sp)
    4a8a:	4852                	lw	a6,20(sp)
    4a8c:	48c2                	lw	a7,16(sp)
    4a8e:	4e32                	lw	t3,12(sp)
    4a90:	4ea2                	lw	t4,8(sp)
    4a92:	4f12                	lw	t5,4(sp)
    4a94:	4f82                	lw	t6,0(sp)
    4a96:	6121                	addi	sp,sp,64
    4a98:	30200073          	mret

00004a9c <DMA1_Channel7_IRQHandler>:
    4a9c:	7139                	addi	sp,sp,-64
    4a9e:	d62a                	sw	a0,44(sp)
    4aa0:	02000537          	lui	a0,0x2000
    4aa4:	cc3e                	sw	a5,24(sp)
    4aa6:	de06                	sw	ra,60(sp)
    4aa8:	dc16                	sw	t0,56(sp)
    4aaa:	da1a                	sw	t1,52(sp)
    4aac:	d81e                	sw	t2,48(sp)
    4aae:	d42e                	sw	a1,40(sp)
    4ab0:	d232                	sw	a2,36(sp)
    4ab2:	d036                	sw	a3,32(sp)
    4ab4:	ce3a                	sw	a4,28(sp)
    4ab6:	ca42                	sw	a6,20(sp)
    4ab8:	c846                	sw	a7,16(sp)
    4aba:	c672                	sw	t3,12(sp)
    4abc:	c476                	sw	t4,8(sp)
    4abe:	c27a                	sw	t5,4(sp)
    4ac0:	c07e                	sw	t6,0(sp)
    4ac2:	bc4fe0ef          	jal	ra,2e86 <DMA_GetITStatus>
    4ac6:	4785                	li	a5,1
    4ac8:	00f51b63          	bne	a0,a5,4ade <DMA1_Channel7_IRQHandler+0x42>
    4acc:	200037b7          	lui	a5,0x20003
    4ad0:	b307a783          	lw	a5,-1232(a5) # 20002b30 <DMA_CALLback+0x18>
    4ad4:	9782                	jalr	a5
    4ad6:	01000537          	lui	a0,0x1000
    4ada:	bb6fe0ef          	jal	ra,2e90 <DMA_ClearITPendingBit>
    4ade:	50f2                	lw	ra,60(sp)
    4ae0:	52e2                	lw	t0,56(sp)
    4ae2:	5352                	lw	t1,52(sp)
    4ae4:	53c2                	lw	t2,48(sp)
    4ae6:	5532                	lw	a0,44(sp)
    4ae8:	55a2                	lw	a1,40(sp)
    4aea:	5612                	lw	a2,36(sp)
    4aec:	5682                	lw	a3,32(sp)
    4aee:	4772                	lw	a4,28(sp)
    4af0:	47e2                	lw	a5,24(sp)
    4af2:	4852                	lw	a6,20(sp)
    4af4:	48c2                	lw	a7,16(sp)
    4af6:	4e32                	lw	t3,12(sp)
    4af8:	4ea2                	lw	t4,8(sp)
    4afa:	4f12                	lw	t5,4(sp)
    4afc:	4f82                	lw	t6,0(sp)
    4afe:	6121                	addi	sp,sp,64
    4b00:	30200073          	mret

00004b04 <HAL_InitGpioLib>:
    4b04:	200037b7          	lui	a5,0x20003
    4b08:	b3478793          	addi	a5,a5,-1228 # 20002b34 <InitPort>
    4b0c:	0007a023          	sw	zero,0(a5)
    4b10:	0007a223          	sw	zero,4(a5)
    4b14:	8082                	ret

00004b16 <HAL_InitGpioRCC>:
    4b16:	a09fb2ef          	jal	t0,51e <__riscv_save_0>
    4b1a:	40011737          	lui	a4,0x40011
    4b1e:	c0070693          	addi	a3,a4,-1024 # 40010c00 <__freertos_irq_stack_top+0x2000bc00>
    4b22:	4785                	li	a5,1
    4b24:	02d50a63          	beq	a0,a3,4b58 <HAL_InitGpioRCC+0x42>
    4b28:	4789                	li	a5,2
    4b2a:	02e50763          	beq	a0,a4,4b58 <HAL_InitGpioRCC+0x42>
    4b2e:	40070713          	addi	a4,a4,1024
    4b32:	478d                	li	a5,3
    4b34:	02e50263          	beq	a0,a4,4b58 <HAL_InitGpioRCC+0x42>
    4b38:	40012737          	lui	a4,0x40012
    4b3c:	80070693          	addi	a3,a4,-2048 # 40011800 <__freertos_irq_stack_top+0x2000c800>
    4b40:	4791                	li	a5,4
    4b42:	00d50b63          	beq	a0,a3,4b58 <HAL_InitGpioRCC+0x42>
    4b46:	c0070693          	addi	a3,a4,-1024
    4b4a:	4795                	li	a5,5
    4b4c:	00d50663          	beq	a0,a3,4b58 <HAL_InitGpioRCC+0x42>
    4b50:	4781                	li	a5,0
    4b52:	00e51363          	bne	a0,a4,4b58 <HAL_InitGpioRCC+0x42>
    4b56:	4799                	li	a5,6
    4b58:	20003737          	lui	a4,0x20003
    4b5c:	b3470693          	addi	a3,a4,-1228 # 20002b34 <InitPort>
    4b60:	00279413          	slli	s0,a5,0x2
    4b64:	008687b3          	add	a5,a3,s0
    4b68:	439c                	lw	a5,0(a5)
    4b6a:	b3470493          	addi	s1,a4,-1228
    4b6e:	ef99                	bnez	a5,4b8c <HAL_InitGpioRCC+0x76>
    4b70:	400117b7          	lui	a5,0x40011
    4b74:	80078713          	addi	a4,a5,-2048 # 40010800 <__freertos_irq_stack_top+0x2000b800>
    4b78:	00e51c63          	bne	a0,a4,4b90 <HAL_InitGpioRCC+0x7a>
    4b7c:	4585                	li	a1,1
    4b7e:	4511                	li	a0,4
    4b80:	96ffe0ef          	jal	ra,34ee <RCC_APB2PeriphClockCmd>
    4b84:	008487b3          	add	a5,s1,s0
    4b88:	4705                	li	a4,1
    4b8a:	c398                	sw	a4,0(a5)
    4b8c:	9b7fb06f          	j	542 <__riscv_restore_0>
    4b90:	c0078713          	addi	a4,a5,-1024
    4b94:	00e51563          	bne	a0,a4,4b9e <HAL_InitGpioRCC+0x88>
    4b98:	4585                	li	a1,1
    4b9a:	4521                	li	a0,8
    4b9c:	b7d5                	j	4b80 <HAL_InitGpioRCC+0x6a>
    4b9e:	00f51563          	bne	a0,a5,4ba8 <HAL_InitGpioRCC+0x92>
    4ba2:	4585                	li	a1,1
    4ba4:	4541                	li	a0,16
    4ba6:	bfe9                	j	4b80 <HAL_InitGpioRCC+0x6a>
    4ba8:	40078793          	addi	a5,a5,1024
    4bac:	00f51663          	bne	a0,a5,4bb8 <HAL_InitGpioRCC+0xa2>
    4bb0:	4585                	li	a1,1
    4bb2:	02000513          	li	a0,32
    4bb6:	b7e9                	j	4b80 <HAL_InitGpioRCC+0x6a>
    4bb8:	400127b7          	lui	a5,0x40012
    4bbc:	80078793          	addi	a5,a5,-2048 # 40011800 <__freertos_irq_stack_top+0x2000c800>
    4bc0:	fcf512e3          	bne	a0,a5,4b84 <HAL_InitGpioRCC+0x6e>
    4bc4:	4585                	li	a1,1
    4bc6:	04000513          	li	a0,64
    4bca:	bf5d                	j	4b80 <HAL_InitGpioRCC+0x6a>

00004bcc <HAL_InitGpioOut>:
    4bcc:	953fb2ef          	jal	t0,51e <__riscv_save_0>
    4bd0:	1101                	addi	sp,sp,-32
    4bd2:	842a                	mv	s0,a0
    4bd4:	c62e                	sw	a1,12(sp)
    4bd6:	f41ff0ef          	jal	ra,4b16 <HAL_InitGpioRCC>
    4bda:	45b2                	lw	a1,12(sp)
    4bdc:	47c1                	li	a5,16
    4bde:	ce3e                	sw	a5,28(sp)
    4be0:	82ec                	sh	a1,20(sp)
    4be2:	4789                	li	a5,2
    4be4:	084c                	addi	a1,sp,20
    4be6:	8522                	mv	a0,s0
    4be8:	cc3e                	sw	a5,24(sp)
    4bea:	aaefe0ef          	jal	ra,2e98 <GPIO_Init>
    4bee:	6105                	addi	sp,sp,32
    4bf0:	953fb06f          	j	542 <__riscv_restore_0>

00004bf4 <HAL_InitGpioAIN>:
    4bf4:	92bfb2ef          	jal	t0,51e <__riscv_save_0>
    4bf8:	1101                	addi	sp,sp,-32
    4bfa:	842a                	mv	s0,a0
    4bfc:	c62e                	sw	a1,12(sp)
    4bfe:	f19ff0ef          	jal	ra,4b16 <HAL_InitGpioRCC>
    4c02:	45b2                	lw	a1,12(sp)
    4c04:	478d                	li	a5,3
    4c06:	8522                	mv	a0,s0
    4c08:	82ec                	sh	a1,20(sp)
    4c0a:	084c                	addi	a1,sp,20
    4c0c:	cc3e                	sw	a5,24(sp)
    4c0e:	ce02                	sw	zero,28(sp)
    4c10:	a88fe0ef          	jal	ra,2e98 <GPIO_Init>
    4c14:	6105                	addi	sp,sp,32
    4c16:	92dfb06f          	j	542 <__riscv_restore_0>

00004c1a <HAL_InitGpioIn>:
    4c1a:	905fb2ef          	jal	t0,51e <__riscv_save_0>
    4c1e:	1101                	addi	sp,sp,-32
    4c20:	842a                	mv	s0,a0
    4c22:	c62e                	sw	a1,12(sp)
    4c24:	ef3ff0ef          	jal	ra,4b16 <HAL_InitGpioRCC>
    4c28:	45b2                	lw	a1,12(sp)
    4c2a:	4791                	li	a5,4
    4c2c:	ce3e                	sw	a5,28(sp)
    4c2e:	82ec                	sh	a1,20(sp)
    4c30:	478d                	li	a5,3
    4c32:	084c                	addi	a1,sp,20
    4c34:	8522                	mv	a0,s0
    4c36:	cc3e                	sw	a5,24(sp)
    4c38:	a60fe0ef          	jal	ra,2e98 <GPIO_Init>
    4c3c:	6105                	addi	sp,sp,32
    4c3e:	905fb06f          	j	542 <__riscv_restore_0>

00004c42 <HAL_InitGpioAF>:
    4c42:	8c3fb2ef          	jal	t0,504 <__riscv_save_4>
    4c46:	1141                	addi	sp,sp,-16
    4c48:	8432                	mv	s0,a2
    4c4a:	84aa                	mv	s1,a0
    4c4c:	89ae                	mv	s3,a1
    4c4e:	8936                	mv	s2,a3
    4c50:	ec7ff0ef          	jal	ra,4b16 <HAL_InitGpioRCC>
    4c54:	c809                	beqz	s0,4c66 <HAL_InitGpioAF+0x24>
    4c56:	4585                	li	a1,1
    4c58:	4505                	li	a0,1
    4c5a:	895fe0ef          	jal	ra,34ee <RCC_APB2PeriphClockCmd>
    4c5e:	4585                	li	a1,1
    4c60:	8522                	mv	a0,s0
    4c62:	b9cfe0ef          	jal	ra,2ffe <GPIO_PinRemapConfig>
    4c66:	478d                	li	a5,3
    4c68:	004c                	addi	a1,sp,4
    4c6a:	8526                	mv	a0,s1
    4c6c:	01311223          	sh	s3,4(sp)
    4c70:	c64a                	sw	s2,12(sp)
    4c72:	c43e                	sw	a5,8(sp)
    4c74:	a24fe0ef          	jal	ra,2e98 <GPIO_Init>
    4c78:	0141                	addi	sp,sp,16
    4c7a:	8bffb06f          	j	538 <__riscv_restore_4>

00004c7e <HAL_GetBit>:
    4c7e:	8a1fb2ef          	jal	t0,51e <__riscv_save_0>
    4c82:	b10fe0ef          	jal	ra,2f92 <GPIO_ReadInputDataBit>
    4c86:	8bdfb06f          	j	542 <__riscv_restore_0>

00004c8a <HAL_SetBit>:
    4c8a:	895fb2ef          	jal	t0,51e <__riscv_save_0>
    4c8e:	b22fe0ef          	jal	ra,2fb0 <GPIO_SetBits>
    4c92:	8b1fb06f          	j	542 <__riscv_restore_0>

00004c96 <HAL_ResetBit>:
    4c96:	889fb2ef          	jal	t0,51e <__riscv_save_0>
    4c9a:	b2efe0ef          	jal	ra,2fc8 <GPIO_ResetBits>
    4c9e:	8a5fb06f          	j	542 <__riscv_restore_0>

00004ca2 <I2C_Master_TransmitIT>:
    4ca2:	863fb2ef          	jal	t0,504 <__riscv_save_4>
    4ca6:	20000437          	lui	s0,0x20000
    4caa:	63c40913          	addi	s2,s0,1596 # 2000063c <pEEPROM>
    4cae:	00092483          	lw	s1,0(s2) # 10000000 <_data_lma+0xfff2868>
    4cb2:	89ba                	mv	s3,a4
    4cb4:	4705                	li	a4,1
    4cb6:	b098                	sb	a4,1(s1)
    4cb8:	a09c                	sb	a5,0(s1)
    4cba:	a496                	sh	a3,8(s1)
    4cbc:	c4d0                	sw	a2,12(s1)
    4cbe:	a0ee                	sh	a1,6(s1)
    4cc0:	00049523          	sh	zero,10(s1)
    4cc4:	b0c8                	sb	a0,5(s1)
    4cc6:	662020ef          	jal	ra,7328 <xTaskGetCurrentTaskHandle>
    4cca:	00092783          	lw	a5,0(s2)
    4cce:	c8c8                	sw	a0,20(s1)
    4cd0:	471d                	li	a4,7
    4cd2:	4b88                	lw	a0,16(a5)
    4cd4:	cfd8                	sw	a4,28(a5)
    4cd6:	4601                	li	a2,0
    4cd8:	70000593          	li	a1,1792
    4cdc:	d84fe0ef          	jal	ra,3260 <I2C_ITConfig>
    4ce0:	63c40413          	addi	s0,s0,1596
    4ce4:	401c                	lw	a5,0(s0)
    4ce6:	000205b7          	lui	a1,0x20
    4cea:	4b88                	lw	a0,16(a5)
    4cec:	db8fe0ef          	jal	ra,32a4 <I2C_GetFlagStatus>
    4cf0:	f975                	bnez	a0,4ce4 <I2C_Master_TransmitIT+0x42>
    4cf2:	401c                	lw	a5,0(s0)
    4cf4:	4585                	li	a1,1
    4cf6:	4b88                	lw	a0,16(a5)
    4cf8:	d02fe0ef          	jal	ra,31fa <I2C_GenerateSTART>
    4cfc:	401c                	lw	a5,0(s0)
    4cfe:	4605                	li	a2,1
    4d00:	70000593          	li	a1,1792
    4d04:	4b88                	lw	a0,16(a5)
    4d06:	d5afe0ef          	jal	ra,3260 <I2C_ITConfig>
    4d0a:	401c                	lw	a5,0(s0)
    4d0c:	864e                	mv	a2,s3
    4d0e:	55fd                	li	a1,-1
    4d10:	2388                	lbu	a0,0(a5)
    4d12:	0b3020ef          	jal	ra,75c4 <ulTaskGenericNotifyTake>
    4d16:	401c                	lw	a5,0(s0)
    4d18:	84aa                	mv	s1,a0
    4d1a:	4601                	li	a2,0
    4d1c:	4b88                	lw	a0,16(a5)
    4d1e:	70000593          	li	a1,1792
    4d22:	d3efe0ef          	jal	ra,3260 <I2C_ITConfig>
    4d26:	4501                	li	a0,0
    4d28:	e091                	bnez	s1,4d2c <I2C_Master_TransmitIT+0x8a>
    4d2a:	450d                	li	a0,3
    4d2c:	80dfb06f          	j	538 <__riscv_restore_4>

00004d30 <I2C_Master_ReviceIT>:
    4d30:	fd4fb2ef          	jal	t0,504 <__riscv_save_4>
    4d34:	20000437          	lui	s0,0x20000
    4d38:	63c40913          	addi	s2,s0,1596 # 2000063c <pEEPROM>
    4d3c:	00092483          	lw	s1,0(s2)
    4d40:	89ba                	mv	s3,a4
    4d42:	4705                	li	a4,1
    4d44:	b098                	sb	a4,1(s1)
    4d46:	a09c                	sb	a5,0(s1)
    4d48:	a496                	sh	a3,8(s1)
    4d4a:	c4d0                	sw	a2,12(s1)
    4d4c:	a0ee                	sh	a1,6(s1)
    4d4e:	00049523          	sh	zero,10(s1)
    4d52:	b0c8                	sb	a0,5(s1)
    4d54:	5d4020ef          	jal	ra,7328 <xTaskGetCurrentTaskHandle>
    4d58:	00092783          	lw	a5,0(s2)
    4d5c:	c8c8                	sw	a0,20(s1)
    4d5e:	4705                	li	a4,1
    4d60:	4b88                	lw	a0,16(a5)
    4d62:	cfd8                	sw	a4,28(a5)
    4d64:	4601                	li	a2,0
    4d66:	70000593          	li	a1,1792
    4d6a:	cf6fe0ef          	jal	ra,3260 <I2C_ITConfig>
    4d6e:	63c40413          	addi	s0,s0,1596
    4d72:	401c                	lw	a5,0(s0)
    4d74:	000205b7          	lui	a1,0x20
    4d78:	4b88                	lw	a0,16(a5)
    4d7a:	d2afe0ef          	jal	ra,32a4 <I2C_GetFlagStatus>
    4d7e:	f975                	bnez	a0,4d72 <I2C_Master_ReviceIT+0x42>
    4d80:	401c                	lw	a5,0(s0)
    4d82:	4585                	li	a1,1
    4d84:	4b88                	lw	a0,16(a5)
    4d86:	ca8fe0ef          	jal	ra,322e <I2C_AcknowledgeConfig>
    4d8a:	401c                	lw	a5,0(s0)
    4d8c:	4585                	li	a1,1
    4d8e:	4b88                	lw	a0,16(a5)
    4d90:	c6afe0ef          	jal	ra,31fa <I2C_GenerateSTART>
    4d94:	401c                	lw	a5,0(s0)
    4d96:	4605                	li	a2,1
    4d98:	70000593          	li	a1,1792
    4d9c:	4b88                	lw	a0,16(a5)
    4d9e:	cc2fe0ef          	jal	ra,3260 <I2C_ITConfig>
    4da2:	401c                	lw	a5,0(s0)
    4da4:	864e                	mv	a2,s3
    4da6:	55fd                	li	a1,-1
    4da8:	2388                	lbu	a0,0(a5)
    4daa:	01b020ef          	jal	ra,75c4 <ulTaskGenericNotifyTake>
    4dae:	401c                	lw	a5,0(s0)
    4db0:	84aa                	mv	s1,a0
    4db2:	4601                	li	a2,0
    4db4:	4b88                	lw	a0,16(a5)
    4db6:	70000593          	li	a1,1792
    4dba:	ca6fe0ef          	jal	ra,3260 <I2C_ITConfig>
    4dbe:	4785                	li	a5,1
    4dc0:	4501                	li	a0,0
    4dc2:	00f48363          	beq	s1,a5,4dc8 <I2C_Master_ReviceIT+0x98>
    4dc6:	4511                	li	a0,4
    4dc8:	401c                	lw	a5,0(s0)
    4dca:	000780a3          	sb	zero,1(a5)
    4dce:	f6afb06f          	j	538 <__riscv_restore_4>

00004dd2 <I2C_FSM>:
    4dd2:	f4cfb2ef          	jal	t0,51e <__riscv_save_0>
    4dd6:	20000437          	lui	s0,0x20000
    4dda:	63c40493          	addi	s1,s0,1596 # 2000063c <pEEPROM>
    4dde:	409c                	lw	a5,0(s1)
    4de0:	1141                	addi	sp,sp,-16
    4de2:	45d1                	li	a1,20
    4de4:	4b88                	lw	a0,16(a5)
    4de6:	c602                	sw	zero,12(sp)
    4de8:	ca8fe0ef          	jal	ra,3290 <I2C_ReadRegister>
    4dec:	409c                	lw	a5,0(s1)
    4dee:	46ad                	li	a3,11
    4df0:	4fd8                	lw	a4,28(a5)
    4df2:	177d                	addi	a4,a4,-1
    4df4:	02e6e563          	bltu	a3,a4,4e1e <I2C_FSM+0x4c>
    4df8:	66b5                	lui	a3,0xd
    4dfa:	070a                	slli	a4,a4,0x2
    4dfc:	cec68693          	addi	a3,a3,-788 # ccec <ADC_chennel_ref+0x14>
    4e00:	9736                	add	a4,a4,a3
    4e02:	4318                	lw	a4,0(a4)
    4e04:	63c40413          	addi	s0,s0,1596
    4e08:	8702                	jr	a4
    4e0a:	8905                	andi	a0,a0,1
    4e0c:	c909                	beqz	a0,4e1e <I2C_FSM+0x4c>
    4e0e:	33cc                	lbu	a1,5(a5)
    4e10:	4b88                	lw	a0,16(a5)
    4e12:	4601                	li	a2,0
    4e14:	c6afe0ef          	jal	ra,327e <I2C_Send7bitAddress>
    4e18:	401c                	lw	a5,0(s0)
    4e1a:	4709                	li	a4,2
    4e1c:	cfd8                	sw	a4,28(a5)
    4e1e:	0141                	addi	sp,sp,16
    4e20:	f22fb06f          	j	542 <__riscv_restore_0>
    4e24:	8909                	andi	a0,a0,2
    4e26:	dd65                	beqz	a0,4e1e <I2C_FSM+0x4c>
    4e28:	4b88                	lw	a0,16(a5)
    4e2a:	45e1                	li	a1,24
    4e2c:	c64fe0ef          	jal	ra,3290 <I2C_ReadRegister>
    4e30:	401c                	lw	a5,0(s0)
    4e32:	23ee                	lhu	a1,6(a5)
    4e34:	4b88                	lw	a0,16(a5)
    4e36:	81a1                	srli	a1,a1,0x8
    4e38:	89fd                	andi	a1,a1,31
    4e3a:	c38fe0ef          	jal	ra,3272 <I2C_SendData>
    4e3e:	401c                	lw	a5,0(s0)
    4e40:	472d                	li	a4,11
    4e42:	bfe9                	j	4e1c <I2C_FSM+0x4a>
    4e44:	08057513          	andi	a0,a0,128
    4e48:	d979                	beqz	a0,4e1e <I2C_FSM+0x4c>
    4e4a:	23ec                	lbu	a1,6(a5)
    4e4c:	4b88                	lw	a0,16(a5)
    4e4e:	c24fe0ef          	jal	ra,3272 <I2C_SendData>
    4e52:	401c                	lw	a5,0(s0)
    4e54:	470d                	li	a4,3
    4e56:	b7d9                	j	4e1c <I2C_FSM+0x4a>
    4e58:	08057513          	andi	a0,a0,128
    4e5c:	d169                	beqz	a0,4e1e <I2C_FSM+0x4c>
    4e5e:	4b88                	lw	a0,16(a5)
    4e60:	4585                	li	a1,1
    4e62:	b98fe0ef          	jal	ra,31fa <I2C_GenerateSTART>
    4e66:	401c                	lw	a5,0(s0)
    4e68:	4711                	li	a4,4
    4e6a:	bf4d                	j	4e1c <I2C_FSM+0x4a>
    4e6c:	8905                	andi	a0,a0,1
    4e6e:	d945                	beqz	a0,4e1e <I2C_FSM+0x4c>
    4e70:	33cc                	lbu	a1,5(a5)
    4e72:	4b88                	lw	a0,16(a5)
    4e74:	4605                	li	a2,1
    4e76:	c08fe0ef          	jal	ra,327e <I2C_Send7bitAddress>
    4e7a:	401c                	lw	a5,0(s0)
    4e7c:	4715                	li	a4,5
    4e7e:	bf79                	j	4e1c <I2C_FSM+0x4a>
    4e80:	8909                	andi	a0,a0,2
    4e82:	dd51                	beqz	a0,4e1e <I2C_FSM+0x4c>
    4e84:	4b88                	lw	a0,16(a5)
    4e86:	45e1                	li	a1,24
    4e88:	c08fe0ef          	jal	ra,3290 <I2C_ReadRegister>
    4e8c:	401c                	lw	a5,0(s0)
    4e8e:	4719                	li	a4,6
    4e90:	b771                	j	4e1c <I2C_FSM+0x4a>
    4e92:	04057513          	andi	a0,a0,64
    4e96:	d541                	beqz	a0,4e1e <I2C_FSM+0x4c>
    4e98:	2796                	lhu	a3,8(a5)
    4e9a:	27ba                	lhu	a4,10(a5)
    4e9c:	4b88                	lw	a0,16(a5)
    4e9e:	16fd                	addi	a3,a3,-1
    4ea0:	00d75b63          	bge	a4,a3,4eb6 <I2C_FSM+0xe4>
    4ea4:	47c0                	lw	s0,12(a5)
    4ea6:	00170693          	addi	a3,a4,1
    4eaa:	a7b6                	sh	a3,10(a5)
    4eac:	943a                	add	s0,s0,a4
    4eae:	bc8fe0ef          	jal	ra,3276 <I2C_ReceiveData>
    4eb2:	a008                	sb	a0,0(s0)
    4eb4:	b7ad                	j	4e1e <I2C_FSM+0x4c>
    4eb6:	4581                	li	a1,0
    4eb8:	b76fe0ef          	jal	ra,322e <I2C_AcknowledgeConfig>
    4ebc:	401c                	lw	a5,0(s0)
    4ebe:	27ba                	lhu	a4,10(a5)
    4ec0:	47c4                	lw	s1,12(a5)
    4ec2:	4b88                	lw	a0,16(a5)
    4ec4:	00170693          	addi	a3,a4,1
    4ec8:	a7b6                	sh	a3,10(a5)
    4eca:	94ba                	add	s1,s1,a4
    4ecc:	baafe0ef          	jal	ra,3276 <I2C_ReceiveData>
    4ed0:	a088                	sb	a0,0(s1)
    4ed2:	401c                	lw	a5,0(s0)
    4ed4:	4b88                	lw	a0,16(a5)
    4ed6:	4585                	li	a1,1
    4ed8:	b3cfe0ef          	jal	ra,3214 <I2C_GenerateSTOP>
    4edc:	4008                	lw	a0,0(s0)
    4ede:	007c                	addi	a5,sp,12
    4ee0:	4701                	li	a4,0
    4ee2:	210c                	lbu	a1,0(a0)
    4ee4:	4948                	lw	a0,20(a0)
    4ee6:	468d                	li	a3,3
    4ee8:	4605                	li	a2,1
    4eea:	229020ef          	jal	ra,7912 <xTaskGenericNotifyFromISR>
    4eee:	47b2                	lw	a5,12(sp)
    4ef0:	c791                	beqz	a5,4efc <I2C_FSM+0x12a>
    4ef2:	e000e7b7          	lui	a5,0xe000e
    4ef6:	6711                	lui	a4,0x4
    4ef8:	20e7a023          	sw	a4,512(a5) # e000e200 <__freertos_irq_stack_top+0xc0009200>
    4efc:	401c                	lw	a5,0(s0)
    4efe:	0007ae23          	sw	zero,28(a5)
    4f02:	bf31                	j	4e1e <I2C_FSM+0x4c>
    4f04:	8905                	andi	a0,a0,1
    4f06:	f0050ce3          	beqz	a0,4e1e <I2C_FSM+0x4c>
    4f0a:	33cc                	lbu	a1,5(a5)
    4f0c:	4b88                	lw	a0,16(a5)
    4f0e:	4601                	li	a2,0
    4f10:	b6efe0ef          	jal	ra,327e <I2C_Send7bitAddress>
    4f14:	401c                	lw	a5,0(s0)
    4f16:	4721                	li	a4,8
    4f18:	b711                	j	4e1c <I2C_FSM+0x4a>
    4f1a:	40057713          	andi	a4,a0,1024
    4f1e:	c305                	beqz	a4,4f3e <I2C_FSM+0x16c>
    4f20:	4b88                	lw	a0,16(a5)
    4f22:	100005b7          	lui	a1,0x10000
    4f26:	40058593          	addi	a1,a1,1024 # 10000400 <_data_lma+0xfff2c68>
    4f2a:	bacfe0ef          	jal	ra,32d6 <I2C_ClearFlag>
    4f2e:	401c                	lw	a5,0(s0)
    4f30:	4585                	li	a1,1
    4f32:	4b88                	lw	a0,16(a5)
    4f34:	ac6fe0ef          	jal	ra,31fa <I2C_GenerateSTART>
    4f38:	401c                	lw	a5,0(s0)
    4f3a:	471d                	li	a4,7
    4f3c:	b5c5                	j	4e1c <I2C_FSM+0x4a>
    4f3e:	8909                	andi	a0,a0,2
    4f40:	ec050fe3          	beqz	a0,4e1e <I2C_FSM+0x4c>
    4f44:	4b88                	lw	a0,16(a5)
    4f46:	45e1                	li	a1,24
    4f48:	b48fe0ef          	jal	ra,3290 <I2C_ReadRegister>
    4f4c:	401c                	lw	a5,0(s0)
    4f4e:	23ee                	lhu	a1,6(a5)
    4f50:	4b88                	lw	a0,16(a5)
    4f52:	81a1                	srli	a1,a1,0x8
    4f54:	89fd                	andi	a1,a1,31
    4f56:	b1cfe0ef          	jal	ra,3272 <I2C_SendData>
    4f5a:	401c                	lw	a5,0(s0)
    4f5c:	4731                	li	a4,12
    4f5e:	bd7d                	j	4e1c <I2C_FSM+0x4a>
    4f60:	08057513          	andi	a0,a0,128
    4f64:	ea050de3          	beqz	a0,4e1e <I2C_FSM+0x4c>
    4f68:	23ec                	lbu	a1,6(a5)
    4f6a:	4b88                	lw	a0,16(a5)
    4f6c:	b06fe0ef          	jal	ra,3272 <I2C_SendData>
    4f70:	401c                	lw	a5,0(s0)
    4f72:	4725                	li	a4,9
    4f74:	b565                	j	4e1c <I2C_FSM+0x4a>
    4f76:	08057513          	andi	a0,a0,128
    4f7a:	ea0502e3          	beqz	a0,4e1e <I2C_FSM+0x4c>
    4f7e:	27b6                	lhu	a3,10(a5)
    4f80:	279a                	lhu	a4,8(a5)
    4f82:	00e6fd63          	bgeu	a3,a4,4f9c <I2C_FSM+0x1ca>
    4f86:	47d8                	lw	a4,12(a5)
    4f88:	4b88                	lw	a0,16(a5)
    4f8a:	9736                	add	a4,a4,a3
    4f8c:	230c                	lbu	a1,0(a4)
    4f8e:	ae4fe0ef          	jal	ra,3272 <I2C_SendData>
    4f92:	4018                	lw	a4,0(s0)
    4f94:	273e                	lhu	a5,10(a4)
    4f96:	0785                	addi	a5,a5,1
    4f98:	a73e                	sh	a5,10(a4)
    4f9a:	b551                	j	4e1e <I2C_FSM+0x4c>
    4f9c:	4729                	li	a4,10
    4f9e:	bdbd                	j	4e1c <I2C_FSM+0x4a>
    4fa0:	8911                	andi	a0,a0,4
    4fa2:	e6050ee3          	beqz	a0,4e1e <I2C_FSM+0x4c>
    4fa6:	b73d                	j	4ed4 <I2C_FSM+0x102>

00004fa8 <InitI2CDMA>:
    4fa8:	d5cfb2ef          	jal	t0,504 <__riscv_save_4>
    4fac:	1101                	addi	sp,sp,-32
    4fae:	400057b7          	lui	a5,0x40005
    4fb2:	c402                	sw	zero,8(sp)
    4fb4:	c602                	sw	zero,12(sp)
    4fb6:	40078793          	addi	a5,a5,1024 # 40005400 <__freertos_irq_stack_top+0x20000400>
    4fba:	842a                	mv	s0,a0
    4fbc:	89ae                	mv	s3,a1
    4fbe:	8932                	mv	s2,a2
    4fc0:	0af51663          	bne	a0,a5,506c <InitI2CDMA+0xc4>
    4fc4:	4585                	li	a1,1
    4fc6:	00200537          	lui	a0,0x200
    4fca:	d42fe0ef          	jal	ra,350c <RCC_APB1PeriphClockCmd>
    4fce:	67e1                	lui	a5,0x18
    4fd0:	6a078793          	addi	a5,a5,1696 # 186a0 <_data_lma+0xaf08>
    4fd4:	40000713          	li	a4,1024
    4fd8:	ca02                	sw	zero,20(sp)
    4fda:	cc02                	sw	zero,24(sp)
    4fdc:	ce02                	sw	zero,28(sp)
    4fde:	c83e                	sw	a5,16(sp)
    4fe0:	080c                	addi	a1,sp,16
    4fe2:	6791                	lui	a5,0x4
    4fe4:	8522                	mv	a0,s0
    4fe6:	83fc                	sh	a5,22(sp)
    4fe8:	86fc                	sh	a5,28(sp)
    4fea:	85f8                	sh	a4,26(sp)
    4fec:	904fe0ef          	jal	ra,30f0 <I2C_Init>
    4ff0:	4585                	li	a1,1
    4ff2:	8522                	mv	a0,s0
    4ff4:	9eefe0ef          	jal	ra,31e2 <I2C_Cmd>
    4ff8:	f19fe0ef          	jal	ra,3f10 <xGetEEPROM>
    4ffc:	000057b7          	lui	a5,0x5
    5000:	d3078793          	addi	a5,a5,-720 # 4d30 <I2C_Master_ReviceIT>
    5004:	d11c                	sw	a5,32(a0)
    5006:	000057b7          	lui	a5,0x5
    500a:	200004b7          	lui	s1,0x20000
    500e:	ca278793          	addi	a5,a5,-862 # 4ca2 <I2C_Master_TransmitIT>
    5012:	62a4ae23          	sw	a0,1596(s1) # 2000063c <pEEPROM>
    5016:	d15c                	sw	a5,36(a0)
    5018:	400057b7          	lui	a5,0x40005
    501c:	c900                	sw	s0,16(a0)
    501e:	000500a3          	sb	zero,1(a0) # 200001 <_data_lma+0x1f2869>
    5022:	40078793          	addi	a5,a5,1024 # 40005400 <__freertos_irq_stack_top+0x20000400>
    5026:	63c48493          	addi	s1,s1,1596
    502a:	04f41b63          	bne	s0,a5,5080 <InitI2CDMA+0xd8>
    502e:	02f00793          	li	a5,47
    5032:	845c                	sb	a5,8(sp)
    5034:	0028                	addi	a0,sp,8
    5036:	4785                	li	a5,1
    5038:	c63e                	sw	a5,12(sp)
    503a:	013104a3          	sb	s3,9(sp)
    503e:	01210523          	sb	s2,10(sp)
    5042:	aaafe0ef          	jal	ra,32ec <NVIC_Init>
    5046:	03000793          	li	a5,48
    504a:	0028                	addi	a0,sp,8
    504c:	845c                	sb	a5,8(sp)
    504e:	a9efe0ef          	jal	ra,32ec <NVIC_Init>
    5052:	409c                	lw	a5,0(s1)
    5054:	4581                	li	a1,0
    5056:	4b88                	lw	a0,16(a5)
    5058:	9f0fe0ef          	jal	ra,3248 <I2C_DualAddressCmd>
    505c:	409c                	lw	a5,0(s1)
    505e:	4585                	li	a1,1
    5060:	4b88                	lw	a0,16(a5)
    5062:	980fe0ef          	jal	ra,31e2 <I2C_Cmd>
    5066:	6105                	addi	sp,sp,32
    5068:	cd0fb06f          	j	538 <__riscv_restore_4>
    506c:	400067b7          	lui	a5,0x40006
    5070:	80078793          	addi	a5,a5,-2048 # 40005800 <__freertos_irq_stack_top+0x20000800>
    5074:	f4f51de3          	bne	a0,a5,4fce <InitI2CDMA+0x26>
    5078:	4585                	li	a1,1
    507a:	00400537          	lui	a0,0x400
    507e:	b7b1                	j	4fca <InitI2CDMA+0x22>
    5080:	400067b7          	lui	a5,0x40006
    5084:	80078793          	addi	a5,a5,-2048 # 40005800 <__freertos_irq_stack_top+0x20000800>
    5088:	fcf415e3          	bne	s0,a5,5052 <InitI2CDMA+0xaa>
    508c:	03100793          	li	a5,49
    5090:	845c                	sb	a5,8(sp)
    5092:	0028                	addi	a0,sp,8
    5094:	4785                	li	a5,1
    5096:	c63e                	sw	a5,12(sp)
    5098:	013104a3          	sb	s3,9(sp)
    509c:	01210523          	sb	s2,10(sp)
    50a0:	a4cfe0ef          	jal	ra,32ec <NVIC_Init>
    50a4:	03200793          	li	a5,50
    50a8:	b74d                	j	504a <InitI2CDMA+0xa2>

000050aa <I2C1_EV_IRQHandler>:
    50aa:	7139                	addi	sp,sp,-64
    50ac:	de06                	sw	ra,60(sp)
    50ae:	dc16                	sw	t0,56(sp)
    50b0:	da1a                	sw	t1,52(sp)
    50b2:	d81e                	sw	t2,48(sp)
    50b4:	d62a                	sw	a0,44(sp)
    50b6:	d42e                	sw	a1,40(sp)
    50b8:	d232                	sw	a2,36(sp)
    50ba:	d036                	sw	a3,32(sp)
    50bc:	ce3a                	sw	a4,28(sp)
    50be:	cc3e                	sw	a5,24(sp)
    50c0:	ca42                	sw	a6,20(sp)
    50c2:	c846                	sw	a7,16(sp)
    50c4:	c672                	sw	t3,12(sp)
    50c6:	c476                	sw	t4,8(sp)
    50c8:	c27a                	sw	t5,4(sp)
    50ca:	c07e                	sw	t6,0(sp)
    50cc:	d07ff0ef          	jal	ra,4dd2 <I2C_FSM>
    50d0:	50f2                	lw	ra,60(sp)
    50d2:	52e2                	lw	t0,56(sp)
    50d4:	5352                	lw	t1,52(sp)
    50d6:	53c2                	lw	t2,48(sp)
    50d8:	5532                	lw	a0,44(sp)
    50da:	55a2                	lw	a1,40(sp)
    50dc:	5612                	lw	a2,36(sp)
    50de:	5682                	lw	a3,32(sp)
    50e0:	4772                	lw	a4,28(sp)
    50e2:	47e2                	lw	a5,24(sp)
    50e4:	4852                	lw	a6,20(sp)
    50e6:	48c2                	lw	a7,16(sp)
    50e8:	4e32                	lw	t3,12(sp)
    50ea:	4ea2                	lw	t4,8(sp)
    50ec:	4f12                	lw	t5,4(sp)
    50ee:	4f82                	lw	t6,0(sp)
    50f0:	6121                	addi	sp,sp,64
    50f2:	30200073          	mret

000050f6 <I2C1_ER_IRQHandler>:
    50f6:	7139                	addi	sp,sp,-64
    50f8:	de06                	sw	ra,60(sp)
    50fa:	dc16                	sw	t0,56(sp)
    50fc:	da1a                	sw	t1,52(sp)
    50fe:	d81e                	sw	t2,48(sp)
    5100:	d62a                	sw	a0,44(sp)
    5102:	d42e                	sw	a1,40(sp)
    5104:	d232                	sw	a2,36(sp)
    5106:	d036                	sw	a3,32(sp)
    5108:	ce3a                	sw	a4,28(sp)
    510a:	cc3e                	sw	a5,24(sp)
    510c:	ca42                	sw	a6,20(sp)
    510e:	c846                	sw	a7,16(sp)
    5110:	c672                	sw	t3,12(sp)
    5112:	c476                	sw	t4,8(sp)
    5114:	c27a                	sw	t5,4(sp)
    5116:	c07e                	sw	t6,0(sp)
    5118:	cbbff0ef          	jal	ra,4dd2 <I2C_FSM>
    511c:	50f2                	lw	ra,60(sp)
    511e:	52e2                	lw	t0,56(sp)
    5120:	5352                	lw	t1,52(sp)
    5122:	53c2                	lw	t2,48(sp)
    5124:	5532                	lw	a0,44(sp)
    5126:	55a2                	lw	a1,40(sp)
    5128:	5612                	lw	a2,36(sp)
    512a:	5682                	lw	a3,32(sp)
    512c:	4772                	lw	a4,28(sp)
    512e:	47e2                	lw	a5,24(sp)
    5130:	4852                	lw	a6,20(sp)
    5132:	48c2                	lw	a7,16(sp)
    5134:	4e32                	lw	t3,12(sp)
    5136:	4ea2                	lw	t4,8(sp)
    5138:	4f12                	lw	t5,4(sp)
    513a:	4f82                	lw	t6,0(sp)
    513c:	6121                	addi	sp,sp,64
    513e:	30200073          	mret

00005142 <I2C2_EV_IRQHandler>:
    5142:	7139                	addi	sp,sp,-64
    5144:	de06                	sw	ra,60(sp)
    5146:	dc16                	sw	t0,56(sp)
    5148:	da1a                	sw	t1,52(sp)
    514a:	d81e                	sw	t2,48(sp)
    514c:	d62a                	sw	a0,44(sp)
    514e:	d42e                	sw	a1,40(sp)
    5150:	d232                	sw	a2,36(sp)
    5152:	d036                	sw	a3,32(sp)
    5154:	ce3a                	sw	a4,28(sp)
    5156:	cc3e                	sw	a5,24(sp)
    5158:	ca42                	sw	a6,20(sp)
    515a:	c846                	sw	a7,16(sp)
    515c:	c672                	sw	t3,12(sp)
    515e:	c476                	sw	t4,8(sp)
    5160:	c27a                	sw	t5,4(sp)
    5162:	c07e                	sw	t6,0(sp)
    5164:	c6fff0ef          	jal	ra,4dd2 <I2C_FSM>
    5168:	50f2                	lw	ra,60(sp)
    516a:	52e2                	lw	t0,56(sp)
    516c:	5352                	lw	t1,52(sp)
    516e:	53c2                	lw	t2,48(sp)
    5170:	5532                	lw	a0,44(sp)
    5172:	55a2                	lw	a1,40(sp)
    5174:	5612                	lw	a2,36(sp)
    5176:	5682                	lw	a3,32(sp)
    5178:	4772                	lw	a4,28(sp)
    517a:	47e2                	lw	a5,24(sp)
    517c:	4852                	lw	a6,20(sp)
    517e:	48c2                	lw	a7,16(sp)
    5180:	4e32                	lw	t3,12(sp)
    5182:	4ea2                	lw	t4,8(sp)
    5184:	4f12                	lw	t5,4(sp)
    5186:	4f82                	lw	t6,0(sp)
    5188:	6121                	addi	sp,sp,64
    518a:	30200073          	mret

0000518e <I2C2_ER_IRQHandler>:
    518e:	7139                	addi	sp,sp,-64
    5190:	de06                	sw	ra,60(sp)
    5192:	dc16                	sw	t0,56(sp)
    5194:	da1a                	sw	t1,52(sp)
    5196:	d81e                	sw	t2,48(sp)
    5198:	d62a                	sw	a0,44(sp)
    519a:	d42e                	sw	a1,40(sp)
    519c:	d232                	sw	a2,36(sp)
    519e:	d036                	sw	a3,32(sp)
    51a0:	ce3a                	sw	a4,28(sp)
    51a2:	cc3e                	sw	a5,24(sp)
    51a4:	ca42                	sw	a6,20(sp)
    51a6:	c846                	sw	a7,16(sp)
    51a8:	c672                	sw	t3,12(sp)
    51aa:	c476                	sw	t4,8(sp)
    51ac:	c27a                	sw	t5,4(sp)
    51ae:	c07e                	sw	t6,0(sp)
    51b0:	c23ff0ef          	jal	ra,4dd2 <I2C_FSM>
    51b4:	50f2                	lw	ra,60(sp)
    51b6:	52e2                	lw	t0,56(sp)
    51b8:	5352                	lw	t1,52(sp)
    51ba:	53c2                	lw	t2,48(sp)
    51bc:	5532                	lw	a0,44(sp)
    51be:	55a2                	lw	a1,40(sp)
    51c0:	5612                	lw	a2,36(sp)
    51c2:	5682                	lw	a3,32(sp)
    51c4:	4772                	lw	a4,28(sp)
    51c6:	47e2                	lw	a5,24(sp)
    51c8:	4852                	lw	a6,20(sp)
    51ca:	48c2                	lw	a7,16(sp)
    51cc:	4e32                	lw	t3,12(sp)
    51ce:	4ea2                	lw	t4,8(sp)
    51d0:	4f12                	lw	t5,4(sp)
    51d2:	4f82                	lw	t6,0(sp)
    51d4:	6121                	addi	sp,sp,64
    51d6:	30200073          	mret

000051da <HAL_RTC_IT_Init>:
    51da:	b2afb2ef          	jal	t0,504 <__riscv_save_4>
    51de:	1141                	addi	sp,sp,-16
    51e0:	84aa                	mv	s1,a0
    51e2:	89ae                	mv	s3,a1
    51e4:	18000537          	lui	a0,0x18000
    51e8:	4585                	li	a1,1
    51ea:	8932                	mv	s2,a2
    51ec:	c402                	sw	zero,8(sp)
    51ee:	c602                	sw	zero,12(sp)
    51f0:	b1cfe0ef          	jal	ra,350c <RCC_APB1PeriphClockCmd>
    51f4:	4505                	li	a0,1
    51f6:	9a0fe0ef          	jal	ra,3396 <PWR_BackupAccessCmd>
    51fa:	f12fd0ef          	jal	ra,290c <BKP_DeInit>
    51fe:	4505                	li	a0,1
    5200:	9befe0ef          	jal	ra,33be <RCC_LSEConfig>
    5204:	4401                	li	s0,0
    5206:	0fa00a13          	li	s4,250
    520a:	04100513          	li	a0,65
    520e:	b78fe0ef          	jal	ra,3586 <RCC_GetFlagStatus>
    5212:	ed09                	bnez	a0,522c <HAL_RTC_IT_Init+0x52>
    5214:	01441563          	bne	s0,s4,521e <HAL_RTC_IT_Init+0x44>
    5218:	0141                	addi	sp,sp,16
    521a:	b1efb06f          	j	538 <__riscv_restore_4>
    521e:	0405                	addi	s0,s0,1
    5220:	4551                	li	a0,20
    5222:	0ff47413          	andi	s0,s0,255
    5226:	545020ef          	jal	ra,7f6a <Delay_Ms>
    522a:	b7c5                	j	520a <HAL_RTC_IT_Init+0x30>
    522c:	0fa00793          	li	a5,250
    5230:	fef404e3          	beq	s0,a5,5218 <HAL_RTC_IT_Init+0x3e>
    5234:	10000513          	li	a0,256
    5238:	9aefe0ef          	jal	ra,33e6 <RCC_RTCCLKConfig>
    523c:	4505                	li	a0,1
    523e:	9b4fe0ef          	jal	ra,33f2 <RCC_RTCCLKCmd>
    5242:	be4fe0ef          	jal	ra,3626 <RTC_WaitForLastTask>
    5246:	bf0fe0ef          	jal	ra,3636 <RTC_WaitForSynchro>
    524a:	4585                	li	a1,1
    524c:	4505                	li	a0,1
    524e:	b66fe0ef          	jal	ra,35b4 <RTC_ITConfig>
    5252:	bd4fe0ef          	jal	ra,3626 <RTC_WaitForLastTask>
    5256:	b78fe0ef          	jal	ra,35ce <RTC_EnterConfigMode>
    525a:	6521                	lui	a0,0x8
    525c:	157d                	addi	a0,a0,-1
    525e:	b9afe0ef          	jal	ra,35f8 <RTC_SetPrescaler>
    5262:	bc4fe0ef          	jal	ra,3626 <RTC_WaitForLastTask>
    5266:	b7afe0ef          	jal	ra,35e0 <RTC_ExitConfigMode>
    526a:	47cd                	li	a5,19
    526c:	845c                	sb	a5,8(sp)
    526e:	0028                	addi	a0,sp,8
    5270:	4785                	li	a5,1
    5272:	c63e                	sw	a5,12(sp)
    5274:	013104a3          	sb	s3,9(sp)
    5278:	01210523          	sb	s2,10(sp)
    527c:	870fe0ef          	jal	ra,32ec <NVIC_Init>
    5280:	200007b7          	lui	a5,0x20000
    5284:	6497a023          	sw	s1,1600(a5) # 20000640 <func>
    5288:	bf41                	j	5218 <HAL_RTC_IT_Init+0x3e>

0000528a <RTC_IRQHandler>:
    528a:	7139                	addi	sp,sp,-64
    528c:	d62a                	sw	a0,44(sp)
    528e:	4505                	li	a0,1
    5290:	cc3e                	sw	a5,24(sp)
    5292:	de06                	sw	ra,60(sp)
    5294:	dc16                	sw	t0,56(sp)
    5296:	da1a                	sw	t1,52(sp)
    5298:	d81e                	sw	t2,48(sp)
    529a:	d42e                	sw	a1,40(sp)
    529c:	d232                	sw	a2,36(sp)
    529e:	d036                	sw	a3,32(sp)
    52a0:	ce3a                	sw	a4,28(sp)
    52a2:	ca42                	sw	a6,20(sp)
    52a4:	c846                	sw	a7,16(sp)
    52a6:	c672                	sw	t3,12(sp)
    52a8:	c476                	sw	t4,8(sp)
    52aa:	c27a                	sw	t5,4(sp)
    52ac:	c07e                	sw	t6,0(sp)
    52ae:	bc0fe0ef          	jal	ra,366e <RTC_GetITStatus>
    52b2:	4785                	li	a5,1
    52b4:	00f51a63          	bne	a0,a5,52c8 <RTC_IRQHandler+0x3e>
    52b8:	200007b7          	lui	a5,0x20000
    52bc:	6407a783          	lw	a5,1600(a5) # 20000640 <func>
    52c0:	9782                	jalr	a5
    52c2:	4505                	li	a0,1
    52c4:	bcafe0ef          	jal	ra,368e <RTC_ClearITPendingBit>
    52c8:	50f2                	lw	ra,60(sp)
    52ca:	52e2                	lw	t0,56(sp)
    52cc:	5352                	lw	t1,52(sp)
    52ce:	53c2                	lw	t2,48(sp)
    52d0:	5532                	lw	a0,44(sp)
    52d2:	55a2                	lw	a1,40(sp)
    52d4:	5612                	lw	a2,36(sp)
    52d6:	5682                	lw	a3,32(sp)
    52d8:	4772                	lw	a4,28(sp)
    52da:	47e2                	lw	a5,24(sp)
    52dc:	4852                	lw	a6,20(sp)
    52de:	48c2                	lw	a7,16(sp)
    52e0:	4e32                	lw	t3,12(sp)
    52e2:	4ea2                	lw	t4,8(sp)
    52e4:	4f12                	lw	t5,4(sp)
    52e6:	4f82                	lw	t6,0(sp)
    52e8:	6121                	addi	sp,sp,64
    52ea:	30200073          	mret

000052ee <HAL_SPI_InitDMA>:
    52ee:	a30fb2ef          	jal	t0,51e <__riscv_save_0>
    52f2:	1101                	addi	sp,sp,-32
    52f4:	c602                	sw	zero,12(sp)
    52f6:	c802                	sw	zero,16(sp)
    52f8:	ca02                	sw	zero,20(sp)
    52fa:	cc02                	sw	zero,24(sp)
    52fc:	00011e23          	sh	zero,28(sp)
    5300:	400137b7          	lui	a5,0x40013
    5304:	842a                	mv	s0,a0
    5306:	892e                	mv	s2,a1
    5308:	84b2                	mv	s1,a2
    530a:	06f51263          	bne	a0,a5,536e <HAL_SPI_InitDMA+0x80>
    530e:	4585                	li	a1,1
    5310:	6505                	lui	a0,0x1
    5312:	9dcfe0ef          	jal	ra,34ee <RCC_APB2PeriphClockCmd>
    5316:	8522                	mv	a0,s0
    5318:	b82fe0ef          	jal	ra,369a <SPI_I2S_DeInit>
    531c:	0104c7b7          	lui	a5,0x104c
    5320:	c63e                	sw	a5,12(sp)
    5322:	4781                	li	a5,0
    5324:	00090563          	beqz	s2,532e <HAL_SPI_InitDMA+0x40>
    5328:	6785                	lui	a5,0x1
    532a:	80078793          	addi	a5,a5,-2048 # 800 <__stack_size>
    532e:	80fc                	sh	a5,16(sp)
    5330:	00011923          	sh	zero,18(sp)
    5334:	00011a23          	sh	zero,20(sp)
    5338:	4705                	li	a4,1
    533a:	20000793          	li	a5,512
    533e:	00e48363          	beq	s1,a4,5344 <HAL_SPI_InitDMA+0x56>
    5342:	4781                	li	a5,0
    5344:	83fc                	sh	a5,22(sp)
    5346:	006c                	addi	a1,sp,12
    5348:	47a1                	li	a5,8
    534a:	8522                	mv	a0,s0
    534c:	cc3e                	sw	a5,24(sp)
    534e:	00011e23          	sh	zero,28(sp)
    5352:	b86fe0ef          	jal	ra,36d8 <SPI_Init>
    5356:	4605                	li	a2,1
    5358:	8522                	mv	a0,s0
    535a:	4589                	li	a1,2
    535c:	bd4fe0ef          	jal	ra,3730 <SPI_I2S_DMACmd>
    5360:	4585                	li	a1,1
    5362:	8522                	mv	a0,s0
    5364:	bb2fe0ef          	jal	ra,3716 <SPI_Cmd>
    5368:	6105                	addi	sp,sp,32
    536a:	9d8fb06f          	j	542 <__riscv_restore_0>
    536e:	400047b7          	lui	a5,0x40004
    5372:	80078793          	addi	a5,a5,-2048 # 40003800 <__freertos_irq_stack_top+0x1fffe800>
    5376:	faf510e3          	bne	a0,a5,5316 <HAL_SPI_InitDMA+0x28>
    537a:	4585                	li	a1,1
    537c:	6511                	lui	a0,0x4
    537e:	98efe0ef          	jal	ra,350c <RCC_APB1PeriphClockCmd>
    5382:	bf51                	j	5316 <HAL_SPI_InitDMA+0x28>

00005384 <HAL_SPI_RXOveleyClear>:
    5384:	99afb2ef          	jal	t0,51e <__riscv_save_0>
    5388:	04000593          	li	a1,64
    538c:	bc0fe0ef          	jal	ra,374c <SPI_I2S_ClearFlag>
    5390:	9b2fb06f          	j	542 <__riscv_restore_0>

00005394 <HAL_SPI_GetBusy>:
    5394:	98afb2ef          	jal	t0,51e <__riscv_save_0>
    5398:	08000593          	li	a1,128
    539c:	ba6fe0ef          	jal	ra,3742 <SPI_I2S_GetFlagStatus>
    53a0:	157d                	addi	a0,a0,-1
    53a2:	00153513          	seqz	a0,a0
    53a6:	99cfb06f          	j	542 <__riscv_restore_0>

000053aa <vTimerInitRCC>:
    53aa:	4799                	li	a5,6
    53ac:	04a7e263          	bltu	a5,a0,53f0 <vTimerInitRCC+0x46>
    53b0:	96efb2ef          	jal	t0,51e <__riscv_save_0>
    53b4:	67b5                	lui	a5,0xd
    53b6:	d1c78793          	addi	a5,a5,-740 # cd1c <ADC_chennel_ref+0x44>
    53ba:	050a                	slli	a0,a0,0x2
    53bc:	953e                	add	a0,a0,a5
    53be:	411c                	lw	a5,0(a0)
    53c0:	4585                	li	a1,1
    53c2:	8782                	jr	a5
    53c4:	6505                	lui	a0,0x1
    53c6:	80050513          	addi	a0,a0,-2048 # 800 <__stack_size>
    53ca:	924fe0ef          	jal	ra,34ee <RCC_APB2PeriphClockCmd>
    53ce:	974fb06f          	j	542 <__riscv_restore_0>
    53d2:	4505                	li	a0,1
    53d4:	938fe0ef          	jal	ra,350c <RCC_APB1PeriphClockCmd>
    53d8:	bfdd                	j	53ce <vTimerInitRCC+0x24>
    53da:	4509                	li	a0,2
    53dc:	bfe5                	j	53d4 <vTimerInitRCC+0x2a>
    53de:	4511                	li	a0,4
    53e0:	bfd5                	j	53d4 <vTimerInitRCC+0x2a>
    53e2:	4521                	li	a0,8
    53e4:	bfc5                	j	53d4 <vTimerInitRCC+0x2a>
    53e6:	4541                	li	a0,16
    53e8:	b7f5                	j	53d4 <vTimerInitRCC+0x2a>
    53ea:	02000513          	li	a0,32
    53ee:	b7dd                	j	53d4 <vTimerInitRCC+0x2a>
    53f0:	8082                	ret

000053f2 <TIM1_UP_IRQHandler>:
    53f2:	715d                	addi	sp,sp,-80
    53f4:	de22                	sw	s0,60(sp)
    53f6:	40013437          	lui	s0,0x40013
    53fa:	dc2a                	sw	a0,56(sp)
    53fc:	da2e                	sw	a1,52(sp)
    53fe:	c0040513          	addi	a0,s0,-1024 # 40012c00 <__freertos_irq_stack_top+0x2000dc00>
    5402:	4585                	li	a1,1
    5404:	d23e                	sw	a5,36(sp)
    5406:	c686                	sw	ra,76(sp)
    5408:	c496                	sw	t0,72(sp)
    540a:	c29a                	sw	t1,68(sp)
    540c:	c09e                	sw	t2,64(sp)
    540e:	d832                	sw	a2,48(sp)
    5410:	d636                	sw	a3,44(sp)
    5412:	d43a                	sw	a4,40(sp)
    5414:	d042                	sw	a6,32(sp)
    5416:	ce46                	sw	a7,28(sp)
    5418:	cc72                	sw	t3,24(sp)
    541a:	ca76                	sw	t4,20(sp)
    541c:	c87a                	sw	t5,16(sp)
    541e:	c67e                	sw	t6,12(sp)
    5420:	ef4fe0ef          	jal	ra,3b14 <TIM_GetITStatus>
    5424:	4785                	li	a5,1
    5426:	00f51c63          	bne	a0,a5,543e <TIM1_UP_IRQHandler+0x4c>
    542a:	200037b7          	lui	a5,0x20003
    542e:	b5c7a783          	lw	a5,-1188(a5) # 20002b5c <config+0x8>
    5432:	9782                	jalr	a5
    5434:	4585                	li	a1,1
    5436:	c0040513          	addi	a0,s0,-1024
    543a:	ef2fe0ef          	jal	ra,3b2c <TIM_ClearITPendingBit>
    543e:	5472                	lw	s0,60(sp)
    5440:	40b6                	lw	ra,76(sp)
    5442:	42a6                	lw	t0,72(sp)
    5444:	4316                	lw	t1,68(sp)
    5446:	4386                	lw	t2,64(sp)
    5448:	5562                	lw	a0,56(sp)
    544a:	55d2                	lw	a1,52(sp)
    544c:	5642                	lw	a2,48(sp)
    544e:	56b2                	lw	a3,44(sp)
    5450:	5722                	lw	a4,40(sp)
    5452:	5792                	lw	a5,36(sp)
    5454:	5802                	lw	a6,32(sp)
    5456:	48f2                	lw	a7,28(sp)
    5458:	4e62                	lw	t3,24(sp)
    545a:	4ed2                	lw	t4,20(sp)
    545c:	4f42                	lw	t5,16(sp)
    545e:	4fb2                	lw	t6,12(sp)
    5460:	6161                	addi	sp,sp,80
    5462:	30200073          	mret

00005466 <TIM4_IRQHandler>:
    5466:	715d                	addi	sp,sp,-80
    5468:	de22                	sw	s0,60(sp)
    546a:	40001437          	lui	s0,0x40001
    546e:	dc2a                	sw	a0,56(sp)
    5470:	da2e                	sw	a1,52(sp)
    5472:	80040513          	addi	a0,s0,-2048 # 40000800 <__freertos_irq_stack_top+0x1fffb800>
    5476:	4585                	li	a1,1
    5478:	d23e                	sw	a5,36(sp)
    547a:	c686                	sw	ra,76(sp)
    547c:	c496                	sw	t0,72(sp)
    547e:	c29a                	sw	t1,68(sp)
    5480:	c09e                	sw	t2,64(sp)
    5482:	d832                	sw	a2,48(sp)
    5484:	d636                	sw	a3,44(sp)
    5486:	d43a                	sw	a4,40(sp)
    5488:	d042                	sw	a6,32(sp)
    548a:	ce46                	sw	a7,28(sp)
    548c:	cc72                	sw	t3,24(sp)
    548e:	ca76                	sw	t4,20(sp)
    5490:	c87a                	sw	t5,16(sp)
    5492:	c67e                	sw	t6,12(sp)
    5494:	e80fe0ef          	jal	ra,3b14 <TIM_GetITStatus>
    5498:	4785                	li	a5,1
    549a:	00f51c63          	bne	a0,a5,54b2 <TIM4_IRQHandler+0x4c>
    549e:	200037b7          	lui	a5,0x20003
    54a2:	b807a783          	lw	a5,-1152(a5) # 20002b80 <config+0x2c>
    54a6:	9782                	jalr	a5
    54a8:	4585                	li	a1,1
    54aa:	80040513          	addi	a0,s0,-2048
    54ae:	e7efe0ef          	jal	ra,3b2c <TIM_ClearITPendingBit>
    54b2:	5472                	lw	s0,60(sp)
    54b4:	40b6                	lw	ra,76(sp)
    54b6:	42a6                	lw	t0,72(sp)
    54b8:	4316                	lw	t1,68(sp)
    54ba:	4386                	lw	t2,64(sp)
    54bc:	5562                	lw	a0,56(sp)
    54be:	55d2                	lw	a1,52(sp)
    54c0:	5642                	lw	a2,48(sp)
    54c2:	56b2                	lw	a3,44(sp)
    54c4:	5722                	lw	a4,40(sp)
    54c6:	5792                	lw	a5,36(sp)
    54c8:	5802                	lw	a6,32(sp)
    54ca:	48f2                	lw	a7,28(sp)
    54cc:	4e62                	lw	t3,24(sp)
    54ce:	4ed2                	lw	t4,20(sp)
    54d0:	4f42                	lw	t5,16(sp)
    54d2:	4fb2                	lw	t6,12(sp)
    54d4:	6161                	addi	sp,sp,80
    54d6:	30200073          	mret

000054da <TIM3_IRQHandler>:
    54da:	715d                	addi	sp,sp,-80
    54dc:	de22                	sw	s0,60(sp)
    54de:	40000437          	lui	s0,0x40000
    54e2:	dc2a                	sw	a0,56(sp)
    54e4:	da2e                	sw	a1,52(sp)
    54e6:	40040513          	addi	a0,s0,1024 # 40000400 <__freertos_irq_stack_top+0x1fffb400>
    54ea:	4585                	li	a1,1
    54ec:	d23e                	sw	a5,36(sp)
    54ee:	c686                	sw	ra,76(sp)
    54f0:	c496                	sw	t0,72(sp)
    54f2:	c29a                	sw	t1,68(sp)
    54f4:	c09e                	sw	t2,64(sp)
    54f6:	d832                	sw	a2,48(sp)
    54f8:	d636                	sw	a3,44(sp)
    54fa:	d43a                	sw	a4,40(sp)
    54fc:	d042                	sw	a6,32(sp)
    54fe:	ce46                	sw	a7,28(sp)
    5500:	cc72                	sw	t3,24(sp)
    5502:	ca76                	sw	t4,20(sp)
    5504:	c87a                	sw	t5,16(sp)
    5506:	c67e                	sw	t6,12(sp)
    5508:	e0cfe0ef          	jal	ra,3b14 <TIM_GetITStatus>
    550c:	4785                	li	a5,1
    550e:	00f51c63          	bne	a0,a5,5526 <TIM3_IRQHandler+0x4c>
    5512:	200037b7          	lui	a5,0x20003
    5516:	b747a783          	lw	a5,-1164(a5) # 20002b74 <config+0x20>
    551a:	9782                	jalr	a5
    551c:	4585                	li	a1,1
    551e:	40040513          	addi	a0,s0,1024
    5522:	e0afe0ef          	jal	ra,3b2c <TIM_ClearITPendingBit>
    5526:	5472                	lw	s0,60(sp)
    5528:	40b6                	lw	ra,76(sp)
    552a:	42a6                	lw	t0,72(sp)
    552c:	4316                	lw	t1,68(sp)
    552e:	4386                	lw	t2,64(sp)
    5530:	5562                	lw	a0,56(sp)
    5532:	55d2                	lw	a1,52(sp)
    5534:	5642                	lw	a2,48(sp)
    5536:	56b2                	lw	a3,44(sp)
    5538:	5722                	lw	a4,40(sp)
    553a:	5792                	lw	a5,36(sp)
    553c:	5802                	lw	a6,32(sp)
    553e:	48f2                	lw	a7,28(sp)
    5540:	4e62                	lw	t3,24(sp)
    5542:	4ed2                	lw	t4,20(sp)
    5544:	4f42                	lw	t5,16(sp)
    5546:	4fb2                	lw	t6,12(sp)
    5548:	6161                	addi	sp,sp,80
    554a:	30200073          	mret

0000554e <TIM2_IRQHandler>:
    554e:	7139                	addi	sp,sp,-64
    5550:	d62a                	sw	a0,44(sp)
    5552:	d42e                	sw	a1,40(sp)
    5554:	40000537          	lui	a0,0x40000
    5558:	4585                	li	a1,1
    555a:	cc3e                	sw	a5,24(sp)
    555c:	de06                	sw	ra,60(sp)
    555e:	dc16                	sw	t0,56(sp)
    5560:	da1a                	sw	t1,52(sp)
    5562:	d81e                	sw	t2,48(sp)
    5564:	d232                	sw	a2,36(sp)
    5566:	d036                	sw	a3,32(sp)
    5568:	ce3a                	sw	a4,28(sp)
    556a:	ca42                	sw	a6,20(sp)
    556c:	c846                	sw	a7,16(sp)
    556e:	c672                	sw	t3,12(sp)
    5570:	c476                	sw	t4,8(sp)
    5572:	c27a                	sw	t5,4(sp)
    5574:	c07e                	sw	t6,0(sp)
    5576:	d9efe0ef          	jal	ra,3b14 <TIM_GetITStatus>
    557a:	4785                	li	a5,1
    557c:	00f51c63          	bne	a0,a5,5594 <TIM2_IRQHandler+0x46>
    5580:	200037b7          	lui	a5,0x20003
    5584:	b687a783          	lw	a5,-1176(a5) # 20002b68 <config+0x14>
    5588:	9782                	jalr	a5
    558a:	4585                	li	a1,1
    558c:	40000537          	lui	a0,0x40000
    5590:	d9cfe0ef          	jal	ra,3b2c <TIM_ClearITPendingBit>
    5594:	50f2                	lw	ra,60(sp)
    5596:	52e2                	lw	t0,56(sp)
    5598:	5352                	lw	t1,52(sp)
    559a:	53c2                	lw	t2,48(sp)
    559c:	5532                	lw	a0,44(sp)
    559e:	55a2                	lw	a1,40(sp)
    55a0:	5612                	lw	a2,36(sp)
    55a2:	5682                	lw	a3,32(sp)
    55a4:	4772                	lw	a4,28(sp)
    55a6:	47e2                	lw	a5,24(sp)
    55a8:	4852                	lw	a6,20(sp)
    55aa:	48c2                	lw	a7,16(sp)
    55ac:	4e32                	lw	t3,12(sp)
    55ae:	4ea2                	lw	t4,8(sp)
    55b0:	4f12                	lw	t5,4(sp)
    55b2:	4f82                	lw	t6,0(sp)
    55b4:	6121                	addi	sp,sp,64
    55b6:	30200073          	mret

000055ba <HAL_TiemrEneblae>:
    55ba:	f65fa2ef          	jal	t0,51e <__riscv_save_0>
    55be:	00251793          	slli	a5,a0,0x2
    55c2:	6535                	lui	a0,0xd
    55c4:	d3850513          	addi	a0,a0,-712 # cd38 <timers>
    55c8:	953e                	add	a0,a0,a5
    55ca:	4108                	lw	a0,0(a0)
    55cc:	4585                	li	a1,1
    55ce:	c94fe0ef          	jal	ra,3a62 <TIM_Cmd>
    55d2:	f71fa06f          	j	542 <__riscv_restore_0>

000055d6 <HAL_GetTimerCounterRegAdres>:
    55d6:	4789                	li	a5,2
    55d8:	04f58263          	beq	a1,a5,561c <HAL_GetTimerCounterRegAdres+0x46>
    55dc:	00b7e763          	bltu	a5,a1,55ea <HAL_GetTimerCounterRegAdres+0x14>
    55e0:	4785                	li	a5,1
    55e2:	02f58363          	beq	a1,a5,5608 <HAL_GetTimerCounterRegAdres+0x32>
    55e6:	4501                	li	a0,0
    55e8:	8082                	ret
    55ea:	4791                	li	a5,4
    55ec:	04f58063          	beq	a1,a5,562c <HAL_GetTimerCounterRegAdres+0x56>
    55f0:	47a1                	li	a5,8
    55f2:	fef59ae3          	bne	a1,a5,55e6 <HAL_GetTimerCounterRegAdres+0x10>
    55f6:	67b5                	lui	a5,0xd
    55f8:	d3878793          	addi	a5,a5,-712 # cd38 <timers>
    55fc:	050a                	slli	a0,a0,0x2
    55fe:	953e                	add	a0,a0,a5
    5600:	411c                	lw	a5,0(a0)
    5602:	0407d503          	lhu	a0,64(a5)
    5606:	a801                	j	5616 <HAL_GetTimerCounterRegAdres+0x40>
    5608:	67b5                	lui	a5,0xd
    560a:	d3878793          	addi	a5,a5,-712 # cd38 <timers>
    560e:	050a                	slli	a0,a0,0x2
    5610:	953e                	add	a0,a0,a5
    5612:	411c                	lw	a5,0(a0)
    5614:	3bca                	lhu	a0,52(a5)
    5616:	0542                	slli	a0,a0,0x10
    5618:	8141                	srli	a0,a0,0x10
    561a:	8082                	ret
    561c:	67b5                	lui	a5,0xd
    561e:	d3878793          	addi	a5,a5,-712 # cd38 <timers>
    5622:	050a                	slli	a0,a0,0x2
    5624:	953e                	add	a0,a0,a5
    5626:	411c                	lw	a5,0(a0)
    5628:	3f8a                	lhu	a0,56(a5)
    562a:	b7f5                	j	5616 <HAL_GetTimerCounterRegAdres+0x40>
    562c:	67b5                	lui	a5,0xd
    562e:	d3878793          	addi	a5,a5,-712 # cd38 <timers>
    5632:	050a                	slli	a0,a0,0x2
    5634:	953e                	add	a0,a0,a5
    5636:	411c                	lw	a5,0(a0)
    5638:	3fca                	lhu	a0,60(a5)
    563a:	bff1                	j	5616 <HAL_GetTimerCounterRegAdres+0x40>

0000563c <HW_TIMER_BaseTimerInit>:
    563c:	ee3fa2ef          	jal	t0,51e <__riscv_save_0>
    5640:	67b5                	lui	a5,0xd
    5642:	00251713          	slli	a4,a0,0x2
    5646:	d3878793          	addi	a5,a5,-712 # cd38 <timers>
    564a:	97ba                	add	a5,a5,a4
    564c:	4384                	lw	s1,0(a5)
    564e:	1141                	addi	sp,sp,-16
    5650:	842a                	mv	s0,a0
    5652:	8526                	mv	a0,s1
    5654:	904fe0ef          	jal	ra,3758 <TIM_DeInit>
    5658:	8526                	mv	a0,s1
    565a:	c48fe0ef          	jal	ra,3aa2 <TIM_InternalClockConfig>
    565e:	0048                	addi	a0,sp,4
    5660:	becfe0ef          	jal	ra,3a4c <TIM_TimeBaseStructInit>
    5664:	4531                	li	a0,12
    5666:	02a40433          	mul	s0,s0,a0
    566a:	20003537          	lui	a0,0x20003
    566e:	b5450513          	addi	a0,a0,-1196 # 20002b54 <config>
    5672:	004c                	addi	a1,sp,4
    5674:	9522                	add	a0,a0,s0
    5676:	211e                	lhu	a5,0(a0)
    5678:	847c                	sh	a5,8(sp)
    567a:	213e                	lhu	a5,2(a0)
    567c:	8526                	mv	a0,s1
    567e:	827c                	sh	a5,4(sp)
    5680:	962fe0ef          	jal	ra,37e2 <TIM_TimeBaseInit>
    5684:	0141                	addi	sp,sp,16
    5686:	ebdfa06f          	j	542 <__riscv_restore_0>

0000568a <HAL_TIMER_InitIt>:
    568a:	e95fa2ef          	jal	t0,51e <__riscv_save_0>
    568e:	7179                	addi	sp,sp,-48
    5690:	842a                	mv	s0,a0
    5692:	d402                	sw	zero,40(sp)
    5694:	d602                	sw	zero,44(sp)
    5696:	4519                	li	a0,6
    5698:	4901                	li	s2,0
    569a:	4481                	li	s1,0
    569c:	00856663          	bltu	a0,s0,56a8 <HAL_TIMER_InitIt+0x1e>
    56a0:	044aa4b7          	lui	s1,0x44aa
    56a4:	20048493          	addi	s1,s1,512 # 44aa200 <_data_lma+0x449ca68>
    56a8:	8522                	mv	a0,s0
    56aa:	ce3e                	sw	a5,28(sp)
    56ac:	cc3a                	sw	a4,24(sp)
    56ae:	ca36                	sw	a3,20(sp)
    56b0:	c832                	sw	a2,16(sp)
    56b2:	c62e                	sw	a1,12(sp)
    56b4:	cf7ff0ef          	jal	ra,53aa <vTimerInitRCC>
    56b8:	45b2                	lw	a1,12(sp)
    56ba:	4531                	li	a0,12
    56bc:	02a40833          	mul	a6,s0,a0
    56c0:	4642                	lw	a2,16(sp)
    56c2:	46d2                	lw	a3,20(sp)
    56c4:	20003537          	lui	a0,0x20003
    56c8:	b5450513          	addi	a0,a0,-1196 # 20002b54 <config>
    56cc:	02b4d4b3          	divu	s1,s1,a1
    56d0:	9542                	add	a0,a0,a6
    56d2:	a112                	sh	a2,0(a0)
    56d4:	c514                	sw	a3,8(a0)
    56d6:	a126                	sh	s1,2(a0)
    56d8:	8522                	mv	a0,s0
    56da:	f63ff0ef          	jal	ra,563c <HW_TIMER_BaseTimerInit>
    56de:	6635                	lui	a2,0xd
    56e0:	d3860613          	addi	a2,a2,-712 # cd38 <timers>
    56e4:	00241693          	slli	a3,s0,0x2
    56e8:	96b2                	add	a3,a3,a2
    56ea:	4284                	lw	s1,0(a3)
    56ec:	4585                	li	a1,1
    56ee:	8526                	mv	a0,s1
    56f0:	c3cfe0ef          	jal	ra,3b2c <TIM_ClearITPendingBit>
    56f4:	4605                	li	a2,1
    56f6:	4585                	li	a1,1
    56f8:	8526                	mv	a0,s1
    56fa:	b96fe0ef          	jal	ra,3a90 <TIM_ITConfig>
    56fe:	468d                	li	a3,3
    5700:	4762                	lw	a4,24(sp)
    5702:	47f2                	lw	a5,28(sp)
    5704:	0086e763          	bltu	a3,s0,5712 <HAL_TIMER_InitIt+0x88>
    5708:	82c18693          	addi	a3,gp,-2004 # 200005ac <CSWTCH.0>
    570c:	9436                	add	s0,s0,a3
    570e:	00044903          	lbu	s2,0(s0)
    5712:	02f10523          	sb	a5,42(sp)
    5716:	1028                	addi	a0,sp,40
    5718:	4785                	li	a5,1
    571a:	03210423          	sb	s2,40(sp)
    571e:	02e104a3          	sb	a4,41(sp)
    5722:	d63e                	sw	a5,44(sp)
    5724:	bc9fd0ef          	jal	ra,32ec <NVIC_Init>
    5728:	6145                	addi	sp,sp,48
    572a:	e19fa06f          	j	542 <__riscv_restore_0>

0000572e <HAL_TIMER_PWMTimersInit>:
    572e:	dd7fa2ef          	jal	t0,504 <__riscv_save_4>
    5732:	1101                	addi	sp,sp,-32
    5734:	c802                	sw	zero,16(sp)
    5736:	ca02                	sw	zero,20(sp)
    5738:	cc02                	sw	zero,24(sp)
    573a:	ce02                	sw	zero,28(sp)
    573c:	4799                	li	a5,6
    573e:	89aa                	mv	s3,a0
    5740:	8a32                	mv	s4,a2
    5742:	84b6                	mv	s1,a3
    5744:	4901                	li	s2,0
    5746:	00a7e663          	bltu	a5,a0,5752 <HAL_TIMER_PWMTimersInit+0x24>
    574a:	044aa937          	lui	s2,0x44aa
    574e:	20090913          	addi	s2,s2,512 # 44aa200 <_data_lma+0x449ca68>
    5752:	67b5                	lui	a5,0xd
    5754:	00299713          	slli	a4,s3,0x2
    5758:	d3878793          	addi	a5,a5,-712 # cd38 <timers>
    575c:	97ba                	add	a5,a5,a4
    575e:	4380                	lw	s0,0(a5)
    5760:	c62e                	sw	a1,12(sp)
    5762:	0a42                	slli	s4,s4,0x10
    5764:	8522                	mv	a0,s0
    5766:	ff3fd0ef          	jal	ra,3758 <TIM_DeInit>
    576a:	8522                	mv	a0,s0
    576c:	b36fe0ef          	jal	ra,3aa2 <TIM_InternalClockConfig>
    5770:	854e                	mv	a0,s3
    5772:	c39ff0ef          	jal	ra,53aa <vTimerInitRCC>
    5776:	45b2                	lw	a1,12(sp)
    5778:	47b1                	li	a5,12
    577a:	02f98733          	mul	a4,s3,a5
    577e:	200037b7          	lui	a5,0x20003
    5782:	b5478793          	addi	a5,a5,-1196 # 20002b54 <config>
    5786:	010a5a13          	srli	s4,s4,0x10
    578a:	854e                	mv	a0,s3
    578c:	02b95933          	divu	s2,s2,a1
    5790:	97ba                	add	a5,a5,a4
    5792:	01479023          	sh	s4,0(a5)
    5796:	01279123          	sh	s2,2(a5)
    579a:	ea3ff0ef          	jal	ra,563c <HW_TIMER_BaseTimerInit>
    579e:	67c1                	lui	a5,0x10
    57a0:	07078793          	addi	a5,a5,112 # 10070 <_data_lma+0x28d8>
    57a4:	c83e                	sw	a5,16(sp)
    57a6:	01411b23          	sh	s4,22(sp)
    57aa:	00011c23          	sh	zero,24(sp)
    57ae:	0014f793          	andi	a5,s1,1
    57b2:	cb89                	beqz	a5,57c4 <HAL_TIMER_PWMTimersInit+0x96>
    57b4:	080c                	addi	a1,sp,16
    57b6:	8522                	mv	a0,s0
    57b8:	894fe0ef          	jal	ra,384c <TIM_OC1Init>
    57bc:	4581                	li	a1,0
    57be:	8522                	mv	a0,s0
    57c0:	b0cfe0ef          	jal	ra,3acc <TIM_OC1PreloadConfig>
    57c4:	0024f793          	andi	a5,s1,2
    57c8:	cb89                	beqz	a5,57da <HAL_TIMER_PWMTimersInit+0xac>
    57ca:	080c                	addi	a1,sp,16
    57cc:	8522                	mv	a0,s0
    57ce:	8e8fe0ef          	jal	ra,38b6 <TIM_OC2Init>
    57d2:	4581                	li	a1,0
    57d4:	8522                	mv	a0,s0
    57d6:	b04fe0ef          	jal	ra,3ada <TIM_OC2PreloadConfig>
    57da:	0044f793          	andi	a5,s1,4
    57de:	cb89                	beqz	a5,57f0 <HAL_TIMER_PWMTimersInit+0xc2>
    57e0:	080c                	addi	a1,sp,16
    57e2:	8522                	mv	a0,s0
    57e4:	968fe0ef          	jal	ra,394c <TIM_OC3Init>
    57e8:	4581                	li	a1,0
    57ea:	8522                	mv	a0,s0
    57ec:	b04fe0ef          	jal	ra,3af0 <TIM_OC3PreloadConfig>
    57f0:	88a1                	andi	s1,s1,8
    57f2:	c889                	beqz	s1,5804 <HAL_TIMER_PWMTimersInit+0xd6>
    57f4:	080c                	addi	a1,sp,16
    57f6:	8522                	mv	a0,s0
    57f8:	9e8fe0ef          	jal	ra,39e0 <TIM_OC4Init>
    57fc:	4581                	li	a1,0
    57fe:	8522                	mv	a0,s0
    5800:	afefe0ef          	jal	ra,3afe <TIM_OC4PreloadConfig>
    5804:	8522                	mv	a0,s0
    5806:	4585                	li	a1,1
    5808:	aaafe0ef          	jal	ra,3ab2 <TIM_ARRPreloadConfig>
    580c:	4585                	li	a1,1
    580e:	8522                	mv	a0,s0
    5810:	a6afe0ef          	jal	ra,3a7a <TIM_CtrlPWMOutputs>
    5814:	6105                	addi	sp,sp,32
    5816:	d23fa06f          	j	538 <__riscv_restore_4>

0000581a <HAL_TIMER_DisablePWMCH>:
    581a:	d05fa2ef          	jal	t0,51e <__riscv_save_0>
    581e:	00251793          	slli	a5,a0,0x2
    5822:	6535                	lui	a0,0xd
    5824:	d3850513          	addi	a0,a0,-712 # cd38 <timers>
    5828:	953e                	add	a0,a0,a5
    582a:	4108                	lw	a0,0(a0)
    582c:	4581                	li	a1,0
    582e:	a4cfe0ef          	jal	ra,3a7a <TIM_CtrlPWMOutputs>
    5832:	d11fa06f          	j	542 <__riscv_restore_0>

00005836 <HAL_TIMER_SetPWMPulse>:
    5836:	ce9fa2ef          	jal	t0,51e <__riscv_save_0>
    583a:	1101                	addi	sp,sp,-32
    583c:	842a                	mv	s0,a0
    583e:	84ae                	mv	s1,a1
    5840:	c632                	sw	a2,12(sp)
    5842:	fd9ff0ef          	jal	ra,581a <HAL_TIMER_DisablePWMCH>
    5846:	6535                	lui	a0,0xd
    5848:	040a                	slli	s0,s0,0x2
    584a:	d3850513          	addi	a0,a0,-712 # cd38 <timers>
    584e:	9522                	add	a0,a0,s0
    5850:	4100                	lw	s0,0(a0)
    5852:	4581                	li	a1,0
    5854:	c802                	sw	zero,16(sp)
    5856:	8522                	mv	a0,s0
    5858:	ca02                	sw	zero,20(sp)
    585a:	cc02                	sw	zero,24(sp)
    585c:	ce02                	sw	zero,28(sp)
    585e:	a1cfe0ef          	jal	ra,3a7a <TIM_CtrlPWMOutputs>
    5862:	67c1                	lui	a5,0x10
    5864:	4632                	lw	a2,12(sp)
    5866:	06078793          	addi	a5,a5,96 # 10060 <_data_lma+0x28c8>
    586a:	c83e                	sw	a5,16(sp)
    586c:	4789                	li	a5,2
    586e:	84fc                	sh	a5,24(sp)
    5870:	83f0                	sh	a2,22(sp)
    5872:	0014f793          	andi	a5,s1,1
    5876:	c789                	beqz	a5,5880 <HAL_TIMER_SetPWMPulse+0x4a>
    5878:	080c                	addi	a1,sp,16
    587a:	8522                	mv	a0,s0
    587c:	fd1fd0ef          	jal	ra,384c <TIM_OC1Init>
    5880:	0024f793          	andi	a5,s1,2
    5884:	c789                	beqz	a5,588e <HAL_TIMER_SetPWMPulse+0x58>
    5886:	080c                	addi	a1,sp,16
    5888:	8522                	mv	a0,s0
    588a:	82cfe0ef          	jal	ra,38b6 <TIM_OC2Init>
    588e:	0044f793          	andi	a5,s1,4
    5892:	c789                	beqz	a5,589c <HAL_TIMER_SetPWMPulse+0x66>
    5894:	080c                	addi	a1,sp,16
    5896:	8522                	mv	a0,s0
    5898:	8b4fe0ef          	jal	ra,394c <TIM_OC3Init>
    589c:	88a1                	andi	s1,s1,8
    589e:	c489                	beqz	s1,58a8 <HAL_TIMER_SetPWMPulse+0x72>
    58a0:	080c                	addi	a1,sp,16
    58a2:	8522                	mv	a0,s0
    58a4:	93cfe0ef          	jal	ra,39e0 <TIM_OC4Init>
    58a8:	4585                	li	a1,1
    58aa:	8522                	mv	a0,s0
    58ac:	9cefe0ef          	jal	ra,3a7a <TIM_CtrlPWMOutputs>
    58b0:	6105                	addi	sp,sp,32
    58b2:	c91fa06f          	j	542 <__riscv_restore_0>

000058b6 <HAL_TIMER_EnablePWMCH>:
    58b6:	c69fa2ef          	jal	t0,51e <__riscv_save_0>
    58ba:	00251793          	slli	a5,a0,0x2
    58be:	6535                	lui	a0,0xd
    58c0:	d3850513          	addi	a0,a0,-712 # cd38 <timers>
    58c4:	953e                	add	a0,a0,a5
    58c6:	4108                	lw	a0,0(a0)
    58c8:	4585                	li	a1,1
    58ca:	9b0fe0ef          	jal	ra,3a7a <TIM_CtrlPWMOutputs>
    58ce:	c75fa06f          	j	542 <__riscv_restore_0>

000058d2 <HAL_WDTReset>:
    58d2:	8082                	ret

000058d4 <prvInsertBlockIntoFreeList>:
    58d4:	200007b7          	lui	a5,0x20000
    58d8:	65c78793          	addi	a5,a5,1628 # 2000065c <xStart>
    58dc:	4398                	lw	a4,0(a5)
    58de:	02a76f63          	bltu	a4,a0,591c <prvInsertBlockIntoFreeList+0x48>
    58e2:	43d0                	lw	a2,4(a5)
    58e4:	00c786b3          	add	a3,a5,a2
    58e8:	00d51663          	bne	a0,a3,58f4 <prvInsertBlockIntoFreeList+0x20>
    58ec:	4154                	lw	a3,4(a0)
    58ee:	853e                	mv	a0,a5
    58f0:	96b2                	add	a3,a3,a2
    58f2:	c3d4                	sw	a3,4(a5)
    58f4:	4150                	lw	a2,4(a0)
    58f6:	00c506b3          	add	a3,a0,a2
    58fa:	00d71c63          	bne	a4,a3,5912 <prvInsertBlockIntoFreeList+0x3e>
    58fe:	200006b7          	lui	a3,0x20000
    5902:	6446a683          	lw	a3,1604(a3) # 20000644 <pxEnd>
    5906:	00d70663          	beq	a4,a3,5912 <prvInsertBlockIntoFreeList+0x3e>
    590a:	4354                	lw	a3,4(a4)
    590c:	4318                	lw	a4,0(a4)
    590e:	96b2                	add	a3,a3,a2
    5910:	c154                	sw	a3,4(a0)
    5912:	c118                	sw	a4,0(a0)
    5914:	00f50363          	beq	a0,a5,591a <prvInsertBlockIntoFreeList+0x46>
    5918:	c388                	sw	a0,0(a5)
    591a:	8082                	ret
    591c:	87ba                	mv	a5,a4
    591e:	bf7d                	j	58dc <prvInsertBlockIntoFreeList+0x8>

00005920 <pvPortMalloc>:
    5920:	be5fa2ef          	jal	t0,504 <__riscv_save_4>
    5924:	1141                	addi	sp,sp,-16
    5926:	c62a                	sw	a0,12(sp)
    5928:	2ae010ef          	jal	ra,6bd6 <vTaskSuspendAll>
    592c:	200006b7          	lui	a3,0x20000
    5930:	6446a783          	lw	a5,1604(a3) # 20000644 <pxEnd>
    5934:	20000637          	lui	a2,0x20000
    5938:	64468693          	addi	a3,a3,1604
    593c:	64860613          	addi	a2,a2,1608 # 20000648 <xBlockAllocatedBit>
    5940:	4532                	lw	a0,12(sp)
    5942:	ebb9                	bnez	a5,5998 <pvPortMalloc+0x78>
    5944:	20003737          	lui	a4,0x20003
    5948:	b9070793          	addi	a5,a4,-1136 # 20002b90 <ucHeap>
    594c:	00f7f593          	andi	a1,a5,15
    5950:	b9070713          	addi	a4,a4,-1136
    5954:	c581                	beqz	a1,595c <pvPortMalloc+0x3c>
    5956:	00f78713          	addi	a4,a5,15
    595a:	9b41                	andi	a4,a4,-16
    595c:	200005b7          	lui	a1,0x20000
    5960:	65c58593          	addi	a1,a1,1628 # 2000065c <xStart>
    5964:	3f078793          	addi	a5,a5,1008
    5968:	9bc1                	andi	a5,a5,-16
    596a:	0005a223          	sw	zero,4(a1)
    596e:	c198                	sw	a4,0(a1)
    5970:	0007a223          	sw	zero,4(a5)
    5974:	0007a023          	sw	zero,0(a5)
    5978:	40e785b3          	sub	a1,a5,a4
    597c:	c29c                	sw	a5,0(a3)
    597e:	c31c                	sw	a5,0(a4)
    5980:	200007b7          	lui	a5,0x20000
    5984:	64b7a823          	sw	a1,1616(a5) # 20000650 <xMinimumEverFreeBytesRemaining>
    5988:	200007b7          	lui	a5,0x20000
    598c:	64b7a623          	sw	a1,1612(a5) # 2000064c <xFreeBytesRemaining>
    5990:	800007b7          	lui	a5,0x80000
    5994:	c34c                	sw	a1,4(a4)
    5996:	c21c                	sw	a5,0(a2)
    5998:	00062a03          	lw	s4,0(a2)
    599c:	00aa77b3          	and	a5,s4,a0
    59a0:	e385                	bnez	a5,59c0 <pvPortMalloc+0xa0>
    59a2:	fff50793          	addi	a5,a0,-1
    59a6:	5739                	li	a4,-18
    59a8:	00f76c63          	bltu	a4,a5,59c0 <pvPortMalloc+0xa0>
    59ac:	01050793          	addi	a5,a0,16
    59b0:	00f7f713          	andi	a4,a5,15
    59b4:	c349                	beqz	a4,5a36 <pvPortMalloc+0x116>
    59b6:	ff07f713          	andi	a4,a5,-16
    59ba:	0741                	addi	a4,a4,16
    59bc:	06e7ec63          	bltu	a5,a4,5a34 <pvPortMalloc+0x114>
    59c0:	4481                	li	s1,0
    59c2:	a091                	j	5a06 <pvPortMalloc+0xe6>
    59c4:	8722                	mv	a4,s0
    59c6:	842e                	mv	s0,a1
    59c8:	a069                	j	5a52 <pvPortMalloc+0x132>
    59ca:	c158                	sw	a4,4(a0)
    59cc:	c05c                	sw	a5,4(s0)
    59ce:	f07ff0ef          	jal	ra,58d4 <prvInsertBlockIntoFreeList>
    59d2:	4058                	lw	a4,4(s0)
    59d4:	200006b7          	lui	a3,0x20000
    59d8:	65068693          	addi	a3,a3,1616 # 20000650 <xMinimumEverFreeBytesRemaining>
    59dc:	4290                	lw	a2,0(a3)
    59de:	40e907b3          	sub	a5,s2,a4
    59e2:	00f9a023          	sw	a5,0(s3)
    59e6:	00c7f363          	bgeu	a5,a2,59ec <pvPortMalloc+0xcc>
    59ea:	c29c                	sw	a5,0(a3)
    59ec:	200007b7          	lui	a5,0x20000
    59f0:	00ea6733          	or	a4,s4,a4
    59f4:	65478793          	addi	a5,a5,1620 # 20000654 <xNumberOfSuccessfulAllocations>
    59f8:	c058                	sw	a4,4(s0)
    59fa:	4398                	lw	a4,0(a5)
    59fc:	04c1                	addi	s1,s1,16
    59fe:	00042023          	sw	zero,0(s0)
    5a02:	0705                	addi	a4,a4,1
    5a04:	c398                	sw	a4,0(a5)
    5a06:	37e010ef          	jal	ra,6d84 <xTaskResumeAll>
    5a0a:	00f4f793          	andi	a5,s1,15
    5a0e:	cbd1                	beqz	a5,5aa2 <pvPortMalloc+0x182>
    5a10:	6789                	lui	a5,0x2
    5a12:	80078793          	addi	a5,a5,-2048 # 1800 <xGetAin+0x44>
    5a16:	30079073          	csrw	mstatus,a5
    5a1a:	0000d637          	lui	a2,0xd
    5a1e:	0000d537          	lui	a0,0xd
    5a22:	d4c60613          	addi	a2,a2,-692 # cd4c <timers+0x14>
    5a26:	11000593          	li	a1,272
    5a2a:	d7450513          	addi	a0,a0,-652 # cd74 <timers+0x3c>
    5a2e:	7cb050ef          	jal	ra,b9f8 <iprintf>
    5a32:	a001                	j	5a32 <pvPortMalloc+0x112>
    5a34:	87ba                	mv	a5,a4
    5a36:	20000737          	lui	a4,0x20000
    5a3a:	64c72903          	lw	s2,1612(a4) # 2000064c <xFreeBytesRemaining>
    5a3e:	64c70993          	addi	s3,a4,1612
    5a42:	f6f96fe3          	bltu	s2,a5,59c0 <pvPortMalloc+0xa0>
    5a46:	20000737          	lui	a4,0x20000
    5a4a:	65c72403          	lw	s0,1628(a4) # 2000065c <xStart>
    5a4e:	65c70713          	addi	a4,a4,1628
    5a52:	4050                	lw	a2,4(s0)
    5a54:	00f67463          	bgeu	a2,a5,5a5c <pvPortMalloc+0x13c>
    5a58:	400c                	lw	a1,0(s0)
    5a5a:	f5ad                	bnez	a1,59c4 <pvPortMalloc+0xa4>
    5a5c:	4294                	lw	a3,0(a3)
    5a5e:	f68681e3          	beq	a3,s0,59c0 <pvPortMalloc+0xa0>
    5a62:	4014                	lw	a3,0(s0)
    5a64:	4304                	lw	s1,0(a4)
    5a66:	c314                	sw	a3,0(a4)
    5a68:	40f60733          	sub	a4,a2,a5
    5a6c:	02000693          	li	a3,32
    5a70:	f6e6f1e3          	bgeu	a3,a4,59d2 <pvPortMalloc+0xb2>
    5a74:	00f40533          	add	a0,s0,a5
    5a78:	00f57693          	andi	a3,a0,15
    5a7c:	d6b9                	beqz	a3,59ca <pvPortMalloc+0xaa>
    5a7e:	6789                	lui	a5,0x2
    5a80:	80078793          	addi	a5,a5,-2048 # 1800 <xGetAin+0x44>
    5a84:	30079073          	csrw	mstatus,a5
    5a88:	0000d637          	lui	a2,0xd
    5a8c:	0000d537          	lui	a0,0xd
    5a90:	d4c60613          	addi	a2,a2,-692 # cd4c <timers+0x14>
    5a94:	0cf00593          	li	a1,207
    5a98:	d7450513          	addi	a0,a0,-652 # cd74 <timers+0x3c>
    5a9c:	75d050ef          	jal	ra,b9f8 <iprintf>
    5aa0:	a001                	j	5aa0 <pvPortMalloc+0x180>
    5aa2:	8526                	mv	a0,s1
    5aa4:	0141                	addi	sp,sp,16
    5aa6:	a93fa06f          	j	538 <__riscv_restore_4>

00005aaa <vPortFree>:
    5aaa:	c15d                	beqz	a0,5b50 <vPortFree+0xa6>
    5aac:	a73fa2ef          	jal	t0,51e <__riscv_save_0>
    5ab0:	200007b7          	lui	a5,0x20000
    5ab4:	ff452703          	lw	a4,-12(a0)
    5ab8:	6487a783          	lw	a5,1608(a5) # 20000648 <xBlockAllocatedBit>
    5abc:	842a                	mv	s0,a0
    5abe:	00f776b3          	and	a3,a4,a5
    5ac2:	e29d                	bnez	a3,5ae8 <vPortFree+0x3e>
    5ac4:	6789                	lui	a5,0x2
    5ac6:	80078793          	addi	a5,a5,-2048 # 1800 <xGetAin+0x44>
    5aca:	30079073          	csrw	mstatus,a5
    5ace:	0000d637          	lui	a2,0xd
    5ad2:	0000d537          	lui	a0,0xd
    5ad6:	d4c60613          	addi	a2,a2,-692 # cd4c <timers+0x14>
    5ada:	12400593          	li	a1,292
    5ade:	d7450513          	addi	a0,a0,-652 # cd74 <timers+0x3c>
    5ae2:	717050ef          	jal	ra,b9f8 <iprintf>
    5ae6:	a001                	j	5ae6 <vPortFree+0x3c>
    5ae8:	ff052683          	lw	a3,-16(a0)
    5aec:	c29d                	beqz	a3,5b12 <vPortFree+0x68>
    5aee:	6789                	lui	a5,0x2
    5af0:	80078793          	addi	a5,a5,-2048 # 1800 <xGetAin+0x44>
    5af4:	30079073          	csrw	mstatus,a5
    5af8:	0000d637          	lui	a2,0xd
    5afc:	0000d537          	lui	a0,0xd
    5b00:	d4c60613          	addi	a2,a2,-692 # cd4c <timers+0x14>
    5b04:	12500593          	li	a1,293
    5b08:	d7450513          	addi	a0,a0,-652 # cd74 <timers+0x3c>
    5b0c:	6ed050ef          	jal	ra,b9f8 <iprintf>
    5b10:	a001                	j	5b10 <vPortFree+0x66>
    5b12:	fff7c793          	not	a5,a5
    5b16:	8ff9                	and	a5,a5,a4
    5b18:	fef52a23          	sw	a5,-12(a0)
    5b1c:	0ba010ef          	jal	ra,6bd6 <vTaskSuspendAll>
    5b20:	200007b7          	lui	a5,0x20000
    5b24:	64c78793          	addi	a5,a5,1612 # 2000064c <xFreeBytesRemaining>
    5b28:	4394                	lw	a3,0(a5)
    5b2a:	ff442703          	lw	a4,-12(s0)
    5b2e:	ff040513          	addi	a0,s0,-16
    5b32:	9736                	add	a4,a4,a3
    5b34:	c398                	sw	a4,0(a5)
    5b36:	d9fff0ef          	jal	ra,58d4 <prvInsertBlockIntoFreeList>
    5b3a:	200007b7          	lui	a5,0x20000
    5b3e:	65878793          	addi	a5,a5,1624 # 20000658 <xNumberOfSuccessfulFrees>
    5b42:	4398                	lw	a4,0(a5)
    5b44:	0705                	addi	a4,a4,1
    5b46:	c398                	sw	a4,0(a5)
    5b48:	23c010ef          	jal	ra,6d84 <xTaskResumeAll>
    5b4c:	9f7fa06f          	j	542 <__riscv_restore_0>
    5b50:	8082                	ret

00005b52 <vPortSetupTimerInterrupt>:
    5b52:	e000e7b7          	lui	a5,0xe000e
    5b56:	5741                	li	a4,-16
    5b58:	40e78723          	sb	a4,1038(a5) # e000e40e <__freertos_irq_stack_top+0xc000940e>
    5b5c:	40e78623          	sb	a4,1036(a5)
    5b60:	e000f7b7          	lui	a5,0xe000f
    5b64:	0007a023          	sw	zero,0(a5) # e000f000 <__freertos_irq_stack_top+0xc000a000>
    5b68:	0007a223          	sw	zero,4(a5)
    5b6c:	4681                	li	a3,0
    5b6e:	c794                	sw	a3,8(a5)
    5b70:	4701                	li	a4,0
    5b72:	c7d8                	sw	a4,12(a5)
    5b74:	20000737          	lui	a4,0x20000
    5b78:	58072583          	lw	a1,1408(a4) # 20000580 <SystemCoreClock>
    5b7c:	3e800713          	li	a4,1000
    5b80:	4681                	li	a3,0
    5b82:	02e5d633          	divu	a2,a1,a4
    5b86:	473d                	li	a4,15
    5b88:	cb90                	sw	a2,16(a5)
    5b8a:	cbd4                	sw	a3,20(a5)
    5b8c:	c398                	sw	a4,0(a5)
    5b8e:	8082                	ret

00005b90 <xPortStartScheduler>:
    5b90:	98ffa2ef          	jal	t0,51e <__riscv_save_0>
    5b94:	1141                	addi	sp,sp,-16
    5b96:	c602                	sw	zero,12(sp)
    5b98:	305027f3          	csrr	a5,mtvec
    5b9c:	c63e                	sw	a5,12(sp)
    5b9e:	47b2                	lw	a5,12(sp)
    5ba0:	470d                	li	a4,3
    5ba2:	8b8d                	andi	a5,a5,3
    5ba4:	02e78463          	beq	a5,a4,5bcc <xPortStartScheduler+0x3c>
    5ba8:	6789                	lui	a5,0x2
    5baa:	80078793          	addi	a5,a5,-2048 # 1800 <xGetAin+0x44>
    5bae:	30079073          	csrw	mstatus,a5
    5bb2:	0000d637          	lui	a2,0xd
    5bb6:	0000d537          	lui	a0,0xd
    5bba:	d9860613          	addi	a2,a2,-616 # cd98 <timers+0x60>
    5bbe:	0b600593          	li	a1,182
    5bc2:	d7450513          	addi	a0,a0,-652 # cd74 <timers+0x3c>
    5bc6:	633050ef          	jal	ra,b9f8 <iprintf>
    5bca:	a001                	j	5bca <xPortStartScheduler+0x3a>
    5bcc:	200057b7          	lui	a5,0x20005
    5bd0:	00078793          	mv	a5,a5
    5bd4:	8bbd                	andi	a5,a5,15
    5bd6:	c39d                	beqz	a5,5bfc <xPortStartScheduler+0x6c>
    5bd8:	6789                	lui	a5,0x2
    5bda:	80078793          	addi	a5,a5,-2048 # 1800 <xGetAin+0x44>
    5bde:	30079073          	csrw	mstatus,a5
    5be2:	0000d637          	lui	a2,0xd
    5be6:	0000d537          	lui	a0,0xd
    5bea:	d9860613          	addi	a2,a2,-616 # cd98 <timers+0x60>
    5bee:	0bb00593          	li	a1,187
    5bf2:	d7450513          	addi	a0,a0,-652 # cd74 <timers+0x3c>
    5bf6:	603050ef          	jal	ra,b9f8 <iprintf>
    5bfa:	a001                	j	5bfa <xPortStartScheduler+0x6a>
    5bfc:	f57ff0ef          	jal	ra,5b52 <vPortSetupTimerInterrupt>
    5c00:	e000e7b7          	lui	a5,0xe000e
    5c04:	6711                	lui	a4,0x4
    5c06:	10e7a023          	sw	a4,256(a5) # e000e100 <__freertos_irq_stack_top+0xc0009100>
    5c0a:	6705                	lui	a4,0x1
    5c0c:	10e7a023          	sw	a4,256(a5)
    5c10:	8001a423          	sw	zero,-2040(gp) # 20000588 <uxCriticalNesting>
    5c14:	eecfa0ef          	jal	ra,300 <xPortStartFirstTask>
    5c18:	4501                	li	a0,0
    5c1a:	0141                	addi	sp,sp,16
    5c1c:	927fa06f          	j	542 <__riscv_restore_0>

00005c20 <SysTick_Handler>:
    5c20:	7139                	addi	sp,sp,-64
    5c22:	de06                	sw	ra,60(sp)
    5c24:	dc16                	sw	t0,56(sp)
    5c26:	da1a                	sw	t1,52(sp)
    5c28:	d81e                	sw	t2,48(sp)
    5c2a:	d62a                	sw	a0,44(sp)
    5c2c:	d42e                	sw	a1,40(sp)
    5c2e:	d232                	sw	a2,36(sp)
    5c30:	d036                	sw	a3,32(sp)
    5c32:	ce3a                	sw	a4,28(sp)
    5c34:	cc3e                	sw	a5,24(sp)
    5c36:	ca42                	sw	a6,20(sp)
    5c38:	c846                	sw	a7,16(sp)
    5c3a:	c672                	sw	t3,12(sp)
    5c3c:	c476                	sw	t4,8(sp)
    5c3e:	c27a                	sw	t5,4(sp)
    5c40:	c07e                	sw	t6,0(sp)
    5c42:	34011173          	csrrw	sp,mscratch,sp
    5c46:	6789                	lui	a5,0x2
    5c48:	80078793          	addi	a5,a5,-2048 # 1800 <xGetAin+0x44>
    5c4c:	30079073          	csrw	mstatus,a5
    5c50:	e000f7b7          	lui	a5,0xe000f
    5c54:	0007a223          	sw	zero,4(a5) # e000f004 <__freertos_irq_stack_top+0xc000a004>
    5c58:	795000ef          	jal	ra,6bec <xTaskIncrementTick>
    5c5c:	c511                	beqz	a0,5c68 <SysTick_Handler+0x48>
    5c5e:	e000e7b7          	lui	a5,0xe000e
    5c62:	6711                	lui	a4,0x4
    5c64:	20e7a023          	sw	a4,512(a5) # e000e200 <__freertos_irq_stack_top+0xc0009200>
    5c68:	6789                	lui	a5,0x2
    5c6a:	88878793          	addi	a5,a5,-1912 # 1888 <vInputsTask+0x7a>
    5c6e:	30079073          	csrw	mstatus,a5
    5c72:	34011173          	csrrw	sp,mscratch,sp
    5c76:	50f2                	lw	ra,60(sp)
    5c78:	52e2                	lw	t0,56(sp)
    5c7a:	5352                	lw	t1,52(sp)
    5c7c:	53c2                	lw	t2,48(sp)
    5c7e:	5532                	lw	a0,44(sp)
    5c80:	55a2                	lw	a1,40(sp)
    5c82:	5612                	lw	a2,36(sp)
    5c84:	5682                	lw	a3,32(sp)
    5c86:	4772                	lw	a4,28(sp)
    5c88:	47e2                	lw	a5,24(sp)
    5c8a:	4852                	lw	a6,20(sp)
    5c8c:	48c2                	lw	a7,16(sp)
    5c8e:	4e32                	lw	t3,12(sp)
    5c90:	4ea2                	lw	t4,8(sp)
    5c92:	4f12                	lw	t5,4(sp)
    5c94:	4f82                	lw	t6,0(sp)
    5c96:	6121                	addi	sp,sp,64
    5c98:	30200073          	mret

00005c9c <vPortEnterCritical>:
    5c9c:	6789                	lui	a5,0x2
    5c9e:	80078793          	addi	a5,a5,-2048 # 1800 <xGetAin+0x44>
    5ca2:	30079073          	csrw	mstatus,a5
    5ca6:	80818793          	addi	a5,gp,-2040 # 20000588 <uxCriticalNesting>
    5caa:	4398                	lw	a4,0(a5)
    5cac:	0705                	addi	a4,a4,1
    5cae:	c398                	sw	a4,0(a5)
    5cb0:	8082                	ret

00005cb2 <vPortExitCritical>:
    5cb2:	80818713          	addi	a4,gp,-2040 # 20000588 <uxCriticalNesting>
    5cb6:	431c                	lw	a5,0(a4)
    5cb8:	e78d                	bnez	a5,5ce2 <vPortExitCritical+0x30>
    5cba:	865fa2ef          	jal	t0,51e <__riscv_save_0>
    5cbe:	6789                	lui	a5,0x2
    5cc0:	80078793          	addi	a5,a5,-2048 # 1800 <xGetAin+0x44>
    5cc4:	30079073          	csrw	mstatus,a5
    5cc8:	0000d637          	lui	a2,0xd
    5ccc:	0000d537          	lui	a0,0xd
    5cd0:	d9860613          	addi	a2,a2,-616 # cd98 <timers+0x60>
    5cd4:	10300593          	li	a1,259
    5cd8:	d7450513          	addi	a0,a0,-652 # cd74 <timers+0x3c>
    5cdc:	51d050ef          	jal	ra,b9f8 <iprintf>
    5ce0:	a001                	j	5ce0 <vPortExitCritical+0x2e>
    5ce2:	17fd                	addi	a5,a5,-1
    5ce4:	c31c                	sw	a5,0(a4)
    5ce6:	e791                	bnez	a5,5cf2 <vPortExitCritical+0x40>
    5ce8:	6789                	lui	a5,0x2
    5cea:	88878793          	addi	a5,a5,-1912 # 1888 <vInputsTask+0x7a>
    5cee:	30079073          	csrw	mstatus,a5
    5cf2:	8082                	ret

00005cf4 <xPortSetInterruptMask>:
    5cf4:	6509                	lui	a0,0x2
    5cf6:	80050513          	addi	a0,a0,-2048 # 1800 <xGetAin+0x44>
    5cfa:	30051573          	csrrw	a0,mstatus,a0
    5cfe:	8082                	ret

00005d00 <vPortClearInterruptMask>:
    5d00:	30051073          	csrw	mstatus,a0
    5d04:	8082                	ret

00005d06 <vListInitialise>:
    5d06:	00850793          	addi	a5,a0,8
    5d0a:	577d                	li	a4,-1
    5d0c:	c15c                	sw	a5,4(a0)
    5d0e:	c518                	sw	a4,8(a0)
    5d10:	c55c                	sw	a5,12(a0)
    5d12:	c91c                	sw	a5,16(a0)
    5d14:	00052023          	sw	zero,0(a0)
    5d18:	8082                	ret

00005d1a <vListInitialiseItem>:
    5d1a:	00052823          	sw	zero,16(a0)
    5d1e:	8082                	ret

00005d20 <vListInsertEnd>:
    5d20:	415c                	lw	a5,4(a0)
    5d22:	4798                	lw	a4,8(a5)
    5d24:	c1dc                	sw	a5,4(a1)
    5d26:	c598                	sw	a4,8(a1)
    5d28:	4798                	lw	a4,8(a5)
    5d2a:	c34c                	sw	a1,4(a4)
    5d2c:	c78c                	sw	a1,8(a5)
    5d2e:	411c                	lw	a5,0(a0)
    5d30:	c988                	sw	a0,16(a1)
    5d32:	0785                	addi	a5,a5,1
    5d34:	c11c                	sw	a5,0(a0)
    5d36:	8082                	ret

00005d38 <vListInsert>:
    5d38:	4198                	lw	a4,0(a1)
    5d3a:	56fd                	li	a3,-1
    5d3c:	00850793          	addi	a5,a0,8
    5d40:	00d71e63          	bne	a4,a3,5d5c <vListInsert+0x24>
    5d44:	491c                	lw	a5,16(a0)
    5d46:	43d8                	lw	a4,4(a5)
    5d48:	c1d8                	sw	a4,4(a1)
    5d4a:	c70c                	sw	a1,8(a4)
    5d4c:	c59c                	sw	a5,8(a1)
    5d4e:	c3cc                	sw	a1,4(a5)
    5d50:	411c                	lw	a5,0(a0)
    5d52:	c988                	sw	a0,16(a1)
    5d54:	0785                	addi	a5,a5,1
    5d56:	c11c                	sw	a5,0(a0)
    5d58:	8082                	ret
    5d5a:	87b6                	mv	a5,a3
    5d5c:	43d4                	lw	a3,4(a5)
    5d5e:	4290                	lw	a2,0(a3)
    5d60:	fec77de3          	bgeu	a4,a2,5d5a <vListInsert+0x22>
    5d64:	b7cd                	j	5d46 <vListInsert+0xe>

00005d66 <uxListRemove>:
    5d66:	4154                	lw	a3,4(a0)
    5d68:	4518                	lw	a4,8(a0)
    5d6a:	491c                	lw	a5,16(a0)
    5d6c:	c698                	sw	a4,8(a3)
    5d6e:	c354                	sw	a3,4(a4)
    5d70:	43d4                	lw	a3,4(a5)
    5d72:	00a69363          	bne	a3,a0,5d78 <uxListRemove+0x12>
    5d76:	c3d8                	sw	a4,4(a5)
    5d78:	4398                	lw	a4,0(a5)
    5d7a:	00052823          	sw	zero,16(a0)
    5d7e:	177d                	addi	a4,a4,-1
    5d80:	c398                	sw	a4,0(a5)
    5d82:	4388                	lw	a0,0(a5)
    5d84:	8082                	ret

00005d86 <prvIsQueueEmpty>:
    5d86:	f98fa2ef          	jal	t0,51e <__riscv_save_0>
    5d8a:	1141                	addi	sp,sp,-16
    5d8c:	c62a                	sw	a0,12(sp)
    5d8e:	f0fff0ef          	jal	ra,5c9c <vPortEnterCritical>
    5d92:	4532                	lw	a0,12(sp)
    5d94:	5d00                	lw	s0,56(a0)
    5d96:	f1dff0ef          	jal	ra,5cb2 <vPortExitCritical>
    5d9a:	00143513          	seqz	a0,s0
    5d9e:	0141                	addi	sp,sp,16
    5da0:	fa2fa06f          	j	542 <__riscv_restore_0>

00005da4 <prvCopyDataToQueue>:
    5da4:	f7afa2ef          	jal	t0,51e <__riscv_save_0>
    5da8:	8932                	mv	s2,a2
    5daa:	4130                	lw	a2,64(a0)
    5dac:	5d04                	lw	s1,56(a0)
    5dae:	842a                	mv	s0,a0
    5db0:	ee09                	bnez	a2,5dca <prvCopyDataToQueue+0x26>
    5db2:	411c                	lw	a5,0(a0)
    5db4:	4501                	li	a0,0
    5db6:	e791                	bnez	a5,5dc2 <prvCopyDataToQueue+0x1e>
    5db8:	4408                	lw	a0,8(s0)
    5dba:	63e010ef          	jal	ra,73f8 <xTaskPriorityDisinherit>
    5dbe:	00042423          	sw	zero,8(s0)
    5dc2:	0485                	addi	s1,s1,1
    5dc4:	dc04                	sw	s1,56(s0)
    5dc6:	f7cfa06f          	j	542 <__riscv_restore_0>
    5dca:	02091063          	bnez	s2,5dea <prvCopyDataToQueue+0x46>
    5dce:	4148                	lw	a0,4(a0)
    5dd0:	18f050ef          	jal	ra,b75e <memcpy>
    5dd4:	405c                	lw	a5,4(s0)
    5dd6:	4038                	lw	a4,64(s0)
    5dd8:	4501                	li	a0,0
    5dda:	97ba                	add	a5,a5,a4
    5ddc:	4418                	lw	a4,8(s0)
    5dde:	c05c                	sw	a5,4(s0)
    5de0:	fee7e1e3          	bltu	a5,a4,5dc2 <prvCopyDataToQueue+0x1e>
    5de4:	401c                	lw	a5,0(s0)
    5de6:	c05c                	sw	a5,4(s0)
    5de8:	bfe9                	j	5dc2 <prvCopyDataToQueue+0x1e>
    5dea:	4548                	lw	a0,12(a0)
    5dec:	173050ef          	jal	ra,b75e <memcpy>
    5df0:	403c                	lw	a5,64(s0)
    5df2:	4458                	lw	a4,12(s0)
    5df4:	4014                	lw	a3,0(s0)
    5df6:	40f007b3          	neg	a5,a5
    5dfa:	973e                	add	a4,a4,a5
    5dfc:	c458                	sw	a4,12(s0)
    5dfe:	00d77563          	bgeu	a4,a3,5e08 <prvCopyDataToQueue+0x64>
    5e02:	4418                	lw	a4,8(s0)
    5e04:	97ba                	add	a5,a5,a4
    5e06:	c45c                	sw	a5,12(s0)
    5e08:	4789                	li	a5,2
    5e0a:	4501                	li	a0,0
    5e0c:	faf91be3          	bne	s2,a5,5dc2 <prvCopyDataToQueue+0x1e>
    5e10:	d8cd                	beqz	s1,5dc2 <prvCopyDataToQueue+0x1e>
    5e12:	14fd                	addi	s1,s1,-1
    5e14:	b77d                	j	5dc2 <prvCopyDataToQueue+0x1e>

00005e16 <prvCopyDataFromQueue>:
    5e16:	4130                	lw	a2,64(a0)
    5e18:	c215                	beqz	a2,5e3c <prvCopyDataFromQueue+0x26>
    5e1a:	f04fa2ef          	jal	t0,51e <__riscv_save_0>
    5e1e:	4558                	lw	a4,12(a0)
    5e20:	4514                	lw	a3,8(a0)
    5e22:	87aa                	mv	a5,a0
    5e24:	9732                	add	a4,a4,a2
    5e26:	c558                	sw	a4,12(a0)
    5e28:	00d76463          	bltu	a4,a3,5e30 <prvCopyDataFromQueue+0x1a>
    5e2c:	4118                	lw	a4,0(a0)
    5e2e:	c558                	sw	a4,12(a0)
    5e30:	852e                	mv	a0,a1
    5e32:	47cc                	lw	a1,12(a5)
    5e34:	12b050ef          	jal	ra,b75e <memcpy>
    5e38:	f0afa06f          	j	542 <__riscv_restore_0>
    5e3c:	8082                	ret

00005e3e <prvUnlockQueue>:
    5e3e:	ee0fa2ef          	jal	t0,51e <__riscv_save_0>
    5e42:	842a                	mv	s0,a0
    5e44:	e59ff0ef          	jal	ra,5c9c <vPortEnterCritical>
    5e48:	04544483          	lbu	s1,69(s0)
    5e4c:	02440913          	addi	s2,s0,36
    5e50:	04e2                	slli	s1,s1,0x18
    5e52:	84e1                	srai	s1,s1,0x18
    5e54:	02904863          	bgtz	s1,5e84 <prvUnlockQueue+0x46>
    5e58:	57fd                	li	a5,-1
    5e5a:	04f402a3          	sb	a5,69(s0)
    5e5e:	e55ff0ef          	jal	ra,5cb2 <vPortExitCritical>
    5e62:	e3bff0ef          	jal	ra,5c9c <vPortEnterCritical>
    5e66:	04444483          	lbu	s1,68(s0)
    5e6a:	01040913          	addi	s2,s0,16
    5e6e:	04e2                	slli	s1,s1,0x18
    5e70:	84e1                	srai	s1,s1,0x18
    5e72:	02904563          	bgtz	s1,5e9c <prvUnlockQueue+0x5e>
    5e76:	57fd                	li	a5,-1
    5e78:	04f40223          	sb	a5,68(s0)
    5e7c:	e37ff0ef          	jal	ra,5cb2 <vPortExitCritical>
    5e80:	ec2fa06f          	j	542 <__riscv_restore_0>
    5e84:	505c                	lw	a5,36(s0)
    5e86:	dbe9                	beqz	a5,5e58 <prvUnlockQueue+0x1a>
    5e88:	854a                	mv	a0,s2
    5e8a:	2f6010ef          	jal	ra,7180 <xTaskRemoveFromEventList>
    5e8e:	c119                	beqz	a0,5e94 <prvUnlockQueue+0x56>
    5e90:	490010ef          	jal	ra,7320 <vTaskMissedYield>
    5e94:	14fd                	addi	s1,s1,-1
    5e96:	04e2                	slli	s1,s1,0x18
    5e98:	84e1                	srai	s1,s1,0x18
    5e9a:	bf6d                	j	5e54 <prvUnlockQueue+0x16>
    5e9c:	481c                	lw	a5,16(s0)
    5e9e:	dfe1                	beqz	a5,5e76 <prvUnlockQueue+0x38>
    5ea0:	854a                	mv	a0,s2
    5ea2:	2de010ef          	jal	ra,7180 <xTaskRemoveFromEventList>
    5ea6:	c119                	beqz	a0,5eac <prvUnlockQueue+0x6e>
    5ea8:	478010ef          	jal	ra,7320 <vTaskMissedYield>
    5eac:	14fd                	addi	s1,s1,-1
    5eae:	04e2                	slli	s1,s1,0x18
    5eb0:	84e1                	srai	s1,s1,0x18
    5eb2:	b7c1                	j	5e72 <prvUnlockQueue+0x34>

00005eb4 <xQueueGenericReset>:
    5eb4:	e6afa2ef          	jal	t0,51e <__riscv_save_0>
    5eb8:	1141                	addi	sp,sp,-16
    5eba:	e11d                	bnez	a0,5ee0 <xQueueGenericReset+0x2c>
    5ebc:	6789                	lui	a5,0x2
    5ebe:	80078793          	addi	a5,a5,-2048 # 1800 <xGetAin+0x44>
    5ec2:	30079073          	csrw	mstatus,a5
    5ec6:	0000d637          	lui	a2,0xd
    5eca:	0000d537          	lui	a0,0xd
    5ece:	dc060613          	addi	a2,a2,-576 # cdc0 <timers+0x88>
    5ed2:	11000593          	li	a1,272
    5ed6:	d7450513          	addi	a0,a0,-652 # cd74 <timers+0x3c>
    5eda:	31f050ef          	jal	ra,b9f8 <iprintf>
    5ede:	a001                	j	5ede <xQueueGenericReset+0x2a>
    5ee0:	5d5c                	lw	a5,60(a0)
    5ee2:	c62e                	sw	a1,12(sp)
    5ee4:	842a                	mv	s0,a0
    5ee6:	c7bd                	beqz	a5,5f54 <xQueueGenericReset+0xa0>
    5ee8:	4138                	lw	a4,64(a0)
    5eea:	02e7b7b3          	mulhu	a5,a5,a4
    5eee:	e3bd                	bnez	a5,5f54 <xQueueGenericReset+0xa0>
    5ef0:	dadff0ef          	jal	ra,5c9c <vPortEnterCritical>
    5ef4:	4030                	lw	a2,64(s0)
    5ef6:	5c58                	lw	a4,60(s0)
    5ef8:	4014                	lw	a3,0(s0)
    5efa:	02042c23          	sw	zero,56(s0)
    5efe:	02e607b3          	mul	a5,a2,a4
    5f02:	45b2                	lw	a1,12(sp)
    5f04:	c054                	sw	a3,4(s0)
    5f06:	00f68733          	add	a4,a3,a5
    5f0a:	8f91                	sub	a5,a5,a2
    5f0c:	97b6                	add	a5,a5,a3
    5f0e:	c45c                	sw	a5,12(s0)
    5f10:	57fd                	li	a5,-1
    5f12:	04f40223          	sb	a5,68(s0)
    5f16:	c418                	sw	a4,8(s0)
    5f18:	04f402a3          	sb	a5,69(s0)
    5f1c:	e19d                	bnez	a1,5f42 <xQueueGenericReset+0x8e>
    5f1e:	481c                	lw	a5,16(s0)
    5f20:	cb99                	beqz	a5,5f36 <xQueueGenericReset+0x82>
    5f22:	01040513          	addi	a0,s0,16
    5f26:	25a010ef          	jal	ra,7180 <xTaskRemoveFromEventList>
    5f2a:	c511                	beqz	a0,5f36 <xQueueGenericReset+0x82>
    5f2c:	e000e7b7          	lui	a5,0xe000e
    5f30:	6711                	lui	a4,0x4
    5f32:	20e7a023          	sw	a4,512(a5) # e000e200 <__freertos_irq_stack_top+0xc0009200>
    5f36:	d7dff0ef          	jal	ra,5cb2 <vPortExitCritical>
    5f3a:	4505                	li	a0,1
    5f3c:	0141                	addi	sp,sp,16
    5f3e:	e04fa06f          	j	542 <__riscv_restore_0>
    5f42:	01040513          	addi	a0,s0,16
    5f46:	dc1ff0ef          	jal	ra,5d06 <vListInitialise>
    5f4a:	02440513          	addi	a0,s0,36
    5f4e:	db9ff0ef          	jal	ra,5d06 <vListInitialise>
    5f52:	b7d5                	j	5f36 <xQueueGenericReset+0x82>
    5f54:	6789                	lui	a5,0x2
    5f56:	80078793          	addi	a5,a5,-2048 # 1800 <xGetAin+0x44>
    5f5a:	30079073          	csrw	mstatus,a5
    5f5e:	0000d637          	lui	a2,0xd
    5f62:	0000d537          	lui	a0,0xd
    5f66:	dc060613          	addi	a2,a2,-576 # cdc0 <timers+0x88>
    5f6a:	14500593          	li	a1,325
    5f6e:	d7450513          	addi	a0,a0,-652 # cd74 <timers+0x3c>
    5f72:	287050ef          	jal	ra,b9f8 <iprintf>
    5f76:	a001                	j	5f76 <xQueueGenericReset+0xc2>

00005f78 <xQueueGenericCreateStatic>:
    5f78:	da6fa2ef          	jal	t0,51e <__riscv_save_0>
    5f7c:	1101                	addi	sp,sp,-32
    5f7e:	e29d                	bnez	a3,5fa4 <xQueueGenericCreateStatic+0x2c>
    5f80:	6789                	lui	a5,0x2
    5f82:	80078793          	addi	a5,a5,-2048 # 1800 <xGetAin+0x44>
    5f86:	30079073          	csrw	mstatus,a5
    5f8a:	0000d637          	lui	a2,0xd
    5f8e:	0000d537          	lui	a0,0xd
    5f92:	dc060613          	addi	a2,a2,-576 # cdc0 <timers+0x88>
    5f96:	15900593          	li	a1,345
    5f9a:	d7450513          	addi	a0,a0,-652 # cd74 <timers+0x3c>
    5f9e:	25b050ef          	jal	ra,b9f8 <iprintf>
    5fa2:	a001                	j	5fa2 <xQueueGenericCreateStatic+0x2a>
    5fa4:	c119                	beqz	a0,5faa <xQueueGenericCreateStatic+0x32>
    5fa6:	c605                	beqz	a2,5fce <xQueueGenericCreateStatic+0x56>
    5fa8:	e585                	bnez	a1,5fd0 <xQueueGenericCreateStatic+0x58>
    5faa:	6789                	lui	a5,0x2
    5fac:	80078793          	addi	a5,a5,-2048 # 1800 <xGetAin+0x44>
    5fb0:	30079073          	csrw	mstatus,a5
    5fb4:	0000d637          	lui	a2,0xd
    5fb8:	0000d537          	lui	a0,0xd
    5fbc:	dc060613          	addi	a2,a2,-576 # cdc0 <timers+0x88>
    5fc0:	18200593          	li	a1,386
    5fc4:	d7450513          	addi	a0,a0,-652 # cd74 <timers+0x3c>
    5fc8:	231050ef          	jal	ra,b9f8 <iprintf>
    5fcc:	a001                	j	5fcc <xQueueGenericCreateStatic+0x54>
    5fce:	fdf1                	bnez	a1,5faa <xQueueGenericCreateStatic+0x32>
    5fd0:	04800793          	li	a5,72
    5fd4:	ce3e                	sw	a5,28(sp)
    5fd6:	4772                	lw	a4,28(sp)
    5fd8:	02f70463          	beq	a4,a5,6000 <xQueueGenericCreateStatic+0x88>
    5fdc:	6789                	lui	a5,0x2
    5fde:	80078793          	addi	a5,a5,-2048 # 1800 <xGetAin+0x44>
    5fe2:	30079073          	csrw	mstatus,a5
    5fe6:	0000d637          	lui	a2,0xd
    5fea:	0000d537          	lui	a0,0xd
    5fee:	dc060613          	addi	a2,a2,-576 # cdc0 <timers+0x88>
    5ff2:	16b00593          	li	a1,363
    5ff6:	d7450513          	addi	a0,a0,-652 # cd74 <timers+0x3c>
    5ffa:	1ff050ef          	jal	ra,b9f8 <iprintf>
    5ffe:	a001                	j	5ffe <xQueueGenericCreateStatic+0x86>
    6000:	47f2                	lw	a5,28(sp)
    6002:	4785                	li	a5,1
    6004:	04f68323          	sb	a5,70(a3)
    6008:	e191                	bnez	a1,600c <xQueueGenericCreateStatic+0x94>
    600a:	8636                	mv	a2,a3
    600c:	c290                	sw	a2,0(a3)
    600e:	dec8                	sw	a0,60(a3)
    6010:	c2ac                	sw	a1,64(a3)
    6012:	8536                	mv	a0,a3
    6014:	4585                	li	a1,1
    6016:	c636                	sw	a3,12(sp)
    6018:	e9dff0ef          	jal	ra,5eb4 <xQueueGenericReset>
    601c:	46b2                	lw	a3,12(sp)
    601e:	6105                	addi	sp,sp,32
    6020:	8536                	mv	a0,a3
    6022:	d20fa06f          	j	542 <__riscv_restore_0>

00006026 <xQueueGenericCreate>:
    6026:	cf8fa2ef          	jal	t0,51e <__riscv_save_0>
    602a:	1141                	addi	sp,sp,-16
    602c:	c521                	beqz	a0,6074 <xQueueGenericCreate+0x4e>
    602e:	02a5b7b3          	mulhu	a5,a1,a0
    6032:	84aa                	mv	s1,a0
    6034:	e3a1                	bnez	a5,6074 <xQueueGenericCreate+0x4e>
    6036:	02b50533          	mul	a0,a0,a1
    603a:	fb700793          	li	a5,-73
    603e:	02a7eb63          	bltu	a5,a0,6074 <xQueueGenericCreate+0x4e>
    6042:	04850513          	addi	a0,a0,72
    6046:	c62e                	sw	a1,12(sp)
    6048:	8d9ff0ef          	jal	ra,5920 <pvPortMalloc>
    604c:	842a                	mv	s0,a0
    604e:	cd19                	beqz	a0,606c <xQueueGenericCreate+0x46>
    6050:	45b2                	lw	a1,12(sp)
    6052:	04050323          	sb	zero,70(a0)
    6056:	87aa                	mv	a5,a0
    6058:	c199                	beqz	a1,605e <xQueueGenericCreate+0x38>
    605a:	04850793          	addi	a5,a0,72
    605e:	c02c                	sw	a1,64(s0)
    6060:	c01c                	sw	a5,0(s0)
    6062:	dc44                	sw	s1,60(s0)
    6064:	4585                	li	a1,1
    6066:	8522                	mv	a0,s0
    6068:	e4dff0ef          	jal	ra,5eb4 <xQueueGenericReset>
    606c:	8522                	mv	a0,s0
    606e:	0141                	addi	sp,sp,16
    6070:	cd2fa06f          	j	542 <__riscv_restore_0>
    6074:	6789                	lui	a5,0x2
    6076:	80078793          	addi	a5,a5,-2048 # 1800 <xGetAin+0x44>
    607a:	30079073          	csrw	mstatus,a5
    607e:	0000d637          	lui	a2,0xd
    6082:	0000d537          	lui	a0,0xd
    6086:	dc060613          	addi	a2,a2,-576 # cdc0 <timers+0x88>
    608a:	1c600593          	li	a1,454
    608e:	d7450513          	addi	a0,a0,-652 # cd74 <timers+0x3c>
    6092:	167050ef          	jal	ra,b9f8 <iprintf>
    6096:	a001                	j	6096 <xQueueGenericCreate+0x70>

00006098 <xQueueGenericSend>:
    6098:	c5efa2ef          	jal	t0,4f6 <__riscv_save_10>
    609c:	1101                	addi	sp,sp,-32
    609e:	c632                	sw	a2,12(sp)
    60a0:	e11d                	bnez	a0,60c6 <xQueueGenericSend+0x2e>
    60a2:	6789                	lui	a5,0x2
    60a4:	80078793          	addi	a5,a5,-2048 # 1800 <xGetAin+0x44>
    60a8:	30079073          	csrw	mstatus,a5
    60ac:	0000d637          	lui	a2,0xd
    60b0:	0000d537          	lui	a0,0xd
    60b4:	dc060613          	addi	a2,a2,-576 # cdc0 <timers+0x88>
    60b8:	32e00593          	li	a1,814
    60bc:	d7450513          	addi	a0,a0,-652 # cd74 <timers+0x3c>
    60c0:	139050ef          	jal	ra,b9f8 <iprintf>
    60c4:	a001                	j	60c4 <xQueueGenericSend+0x2c>
    60c6:	842a                	mv	s0,a0
    60c8:	892e                	mv	s2,a1
    60ca:	84b6                	mv	s1,a3
    60cc:	e58d                	bnez	a1,60f6 <xQueueGenericSend+0x5e>
    60ce:	413c                	lw	a5,64(a0)
    60d0:	c39d                	beqz	a5,60f6 <xQueueGenericSend+0x5e>
    60d2:	6789                	lui	a5,0x2
    60d4:	80078793          	addi	a5,a5,-2048 # 1800 <xGetAin+0x44>
    60d8:	30079073          	csrw	mstatus,a5
    60dc:	0000d637          	lui	a2,0xd
    60e0:	0000d537          	lui	a0,0xd
    60e4:	dc060613          	addi	a2,a2,-576 # cdc0 <timers+0x88>
    60e8:	32f00593          	li	a1,815
    60ec:	d7450513          	addi	a0,a0,-652 # cd74 <timers+0x3c>
    60f0:	109050ef          	jal	ra,b9f8 <iprintf>
    60f4:	a001                	j	60f4 <xQueueGenericSend+0x5c>
    60f6:	4789                	li	a5,2
    60f8:	02f49863          	bne	s1,a5,6128 <xQueueGenericSend+0x90>
    60fc:	5c58                	lw	a4,60(s0)
    60fe:	4785                	li	a5,1
    6100:	02f70463          	beq	a4,a5,6128 <xQueueGenericSend+0x90>
    6104:	6789                	lui	a5,0x2
    6106:	80078793          	addi	a5,a5,-2048 # 1800 <xGetAin+0x44>
    610a:	30079073          	csrw	mstatus,a5
    610e:	0000d637          	lui	a2,0xd
    6112:	0000d537          	lui	a0,0xd
    6116:	dc060613          	addi	a2,a2,-576 # cdc0 <timers+0x88>
    611a:	33000593          	li	a1,816
    611e:	d7450513          	addi	a0,a0,-652 # cd74 <timers+0x3c>
    6122:	0d7050ef          	jal	ra,b9f8 <iprintf>
    6126:	a001                	j	6126 <xQueueGenericSend+0x8e>
    6128:	20a010ef          	jal	ra,7332 <xTaskGetSchedulerState>
    612c:	e515                	bnez	a0,6158 <xQueueGenericSend+0xc0>
    612e:	47b2                	lw	a5,12(sp)
    6130:	4c01                	li	s8,0
    6132:	c785                	beqz	a5,615a <xQueueGenericSend+0xc2>
    6134:	6789                	lui	a5,0x2
    6136:	80078793          	addi	a5,a5,-2048 # 1800 <xGetAin+0x44>
    613a:	30079073          	csrw	mstatus,a5
    613e:	0000d637          	lui	a2,0xd
    6142:	0000d537          	lui	a0,0xd
    6146:	dc060613          	addi	a2,a2,-576 # cdc0 <timers+0x88>
    614a:	33300593          	li	a1,819
    614e:	d7450513          	addi	a0,a0,-652 # cd74 <timers+0x3c>
    6152:	0a7050ef          	jal	ra,b9f8 <iprintf>
    6156:	a001                	j	6156 <xQueueGenericSend+0xbe>
    6158:	4c01                	li	s8,0
    615a:	4b09                	li	s6,2
    615c:	59fd                	li	s3,-1
    615e:	01040b93          	addi	s7,s0,16
    6162:	e000ea37          	lui	s4,0xe000e
    6166:	6a91                	lui	s5,0x4
    6168:	a8a5                	j	61e0 <xQueueGenericSend+0x148>
    616a:	47b2                	lw	a5,12(sp)
    616c:	e789                	bnez	a5,6176 <xQueueGenericSend+0xde>
    616e:	b45ff0ef          	jal	ra,5cb2 <vPortExitCritical>
    6172:	4501                	li	a0,0
    6174:	a055                	j	6218 <xQueueGenericSend+0x180>
    6176:	000c1563          	bnez	s8,6180 <xQueueGenericSend+0xe8>
    617a:	0828                	addi	a0,sp,24
    617c:	0ec010ef          	jal	ra,7268 <vTaskInternalSetTimeOutState>
    6180:	b33ff0ef          	jal	ra,5cb2 <vPortExitCritical>
    6184:	253000ef          	jal	ra,6bd6 <vTaskSuspendAll>
    6188:	b15ff0ef          	jal	ra,5c9c <vPortEnterCritical>
    618c:	04444783          	lbu	a5,68(s0)
    6190:	07e2                	slli	a5,a5,0x18
    6192:	87e1                	srai	a5,a5,0x18
    6194:	01379463          	bne	a5,s3,619c <xQueueGenericSend+0x104>
    6198:	04040223          	sb	zero,68(s0)
    619c:	04544783          	lbu	a5,69(s0)
    61a0:	07e2                	slli	a5,a5,0x18
    61a2:	87e1                	srai	a5,a5,0x18
    61a4:	01379463          	bne	a5,s3,61ac <xQueueGenericSend+0x114>
    61a8:	040402a3          	sb	zero,69(s0)
    61ac:	b07ff0ef          	jal	ra,5cb2 <vPortExitCritical>
    61b0:	006c                	addi	a1,sp,12
    61b2:	0828                	addi	a0,sp,24
    61b4:	0c2010ef          	jal	ra,7276 <xTaskCheckForTimeOut>
    61b8:	ed35                	bnez	a0,6234 <xQueueGenericSend+0x19c>
    61ba:	ae3ff0ef          	jal	ra,5c9c <vPortEnterCritical>
    61be:	5c18                	lw	a4,56(s0)
    61c0:	5c5c                	lw	a5,60(s0)
    61c2:	04f71e63          	bne	a4,a5,621e <xQueueGenericSend+0x186>
    61c6:	aedff0ef          	jal	ra,5cb2 <vPortExitCritical>
    61ca:	45b2                	lw	a1,12(sp)
    61cc:	855e                	mv	a0,s7
    61ce:	6f5000ef          	jal	ra,70c2 <vTaskPlaceOnEventList>
    61d2:	8522                	mv	a0,s0
    61d4:	c6bff0ef          	jal	ra,5e3e <prvUnlockQueue>
    61d8:	3ad000ef          	jal	ra,6d84 <xTaskResumeAll>
    61dc:	c929                	beqz	a0,622e <xQueueGenericSend+0x196>
    61de:	4c05                	li	s8,1
    61e0:	abdff0ef          	jal	ra,5c9c <vPortEnterCritical>
    61e4:	5c18                	lw	a4,56(s0)
    61e6:	5c5c                	lw	a5,60(s0)
    61e8:	00f76463          	bltu	a4,a5,61f0 <xQueueGenericSend+0x158>
    61ec:	f7649fe3          	bne	s1,s6,616a <xQueueGenericSend+0xd2>
    61f0:	8626                	mv	a2,s1
    61f2:	85ca                	mv	a1,s2
    61f4:	8522                	mv	a0,s0
    61f6:	bafff0ef          	jal	ra,5da4 <prvCopyDataToQueue>
    61fa:	505c                	lw	a5,36(s0)
    61fc:	c789                	beqz	a5,6206 <xQueueGenericSend+0x16e>
    61fe:	02440513          	addi	a0,s0,36
    6202:	77f000ef          	jal	ra,7180 <xTaskRemoveFromEventList>
    6206:	c511                	beqz	a0,6212 <xQueueGenericSend+0x17a>
    6208:	e000e7b7          	lui	a5,0xe000e
    620c:	6711                	lui	a4,0x4
    620e:	20e7a023          	sw	a4,512(a5) # e000e200 <__freertos_irq_stack_top+0xc0009200>
    6212:	aa1ff0ef          	jal	ra,5cb2 <vPortExitCritical>
    6216:	4505                	li	a0,1
    6218:	6105                	addi	sp,sp,32
    621a:	b14fa06f          	j	52e <__riscv_restore_10>
    621e:	a95ff0ef          	jal	ra,5cb2 <vPortExitCritical>
    6222:	8522                	mv	a0,s0
    6224:	c1bff0ef          	jal	ra,5e3e <prvUnlockQueue>
    6228:	35d000ef          	jal	ra,6d84 <xTaskResumeAll>
    622c:	bf4d                	j	61de <xQueueGenericSend+0x146>
    622e:	215a2023          	sw	s5,512(s4) # e000e200 <__freertos_irq_stack_top+0xc0009200>
    6232:	b775                	j	61de <xQueueGenericSend+0x146>
    6234:	8522                	mv	a0,s0
    6236:	c09ff0ef          	jal	ra,5e3e <prvUnlockQueue>
    623a:	34b000ef          	jal	ra,6d84 <xTaskResumeAll>
    623e:	bf15                	j	6172 <xQueueGenericSend+0xda>

00006240 <xQueueGiveMutexRecursive>:
    6240:	adefa2ef          	jal	t0,51e <__riscv_save_0>
    6244:	e11d                	bnez	a0,626a <xQueueGiveMutexRecursive+0x2a>
    6246:	6789                	lui	a5,0x2
    6248:	80078793          	addi	a5,a5,-2048 # 1800 <xGetAin+0x44>
    624c:	30079073          	csrw	mstatus,a5
    6250:	0000d637          	lui	a2,0xd
    6254:	0000d537          	lui	a0,0xd
    6258:	dc060613          	addi	a2,a2,-576 # cdc0 <timers+0x88>
    625c:	28300593          	li	a1,643
    6260:	d7450513          	addi	a0,a0,-652 # cd74 <timers+0x3c>
    6264:	794050ef          	jal	ra,b9f8 <iprintf>
    6268:	a001                	j	6268 <xQueueGiveMutexRecursive+0x28>
    626a:	00852903          	lw	s2,8(a0)
    626e:	842a                	mv	s0,a0
    6270:	0b8010ef          	jal	ra,7328 <xTaskGetCurrentTaskHandle>
    6274:	4481                	li	s1,0
    6276:	00a91d63          	bne	s2,a0,6290 <xQueueGiveMutexRecursive+0x50>
    627a:	445c                	lw	a5,12(s0)
    627c:	4485                	li	s1,1
    627e:	17fd                	addi	a5,a5,-1
    6280:	c45c                	sw	a5,12(s0)
    6282:	e799                	bnez	a5,6290 <xQueueGiveMutexRecursive+0x50>
    6284:	4681                	li	a3,0
    6286:	4601                	li	a2,0
    6288:	4581                	li	a1,0
    628a:	8522                	mv	a0,s0
    628c:	e0dff0ef          	jal	ra,6098 <xQueueGenericSend>
    6290:	8526                	mv	a0,s1
    6292:	ab0fa06f          	j	542 <__riscv_restore_0>

00006296 <xQueueCreateMutex>:
    6296:	a88fa2ef          	jal	t0,51e <__riscv_save_0>
    629a:	862a                	mv	a2,a0
    629c:	4581                	li	a1,0
    629e:	4505                	li	a0,1
    62a0:	d87ff0ef          	jal	ra,6026 <xQueueGenericCreate>
    62a4:	842a                	mv	s0,a0
    62a6:	cd01                	beqz	a0,62be <xQueueCreateMutex+0x28>
    62a8:	00052423          	sw	zero,8(a0)
    62ac:	00052023          	sw	zero,0(a0)
    62b0:	00052623          	sw	zero,12(a0)
    62b4:	4681                	li	a3,0
    62b6:	4601                	li	a2,0
    62b8:	4581                	li	a1,0
    62ba:	ddfff0ef          	jal	ra,6098 <xQueueGenericSend>
    62be:	8522                	mv	a0,s0
    62c0:	a82fa06f          	j	542 <__riscv_restore_0>

000062c4 <xQueueReceive>:
    62c4:	a32fa2ef          	jal	t0,4f6 <__riscv_save_10>
    62c8:	1101                	addi	sp,sp,-32
    62ca:	c632                	sw	a2,12(sp)
    62cc:	e11d                	bnez	a0,62f2 <xQueueReceive+0x2e>
    62ce:	6789                	lui	a5,0x2
    62d0:	80078793          	addi	a5,a5,-2048 # 1800 <xGetAin+0x44>
    62d4:	30079073          	csrw	mstatus,a5
    62d8:	0000d637          	lui	a2,0xd
    62dc:	0000d537          	lui	a0,0xd
    62e0:	dc060613          	addi	a2,a2,-576 # cdc0 <timers+0x88>
    62e4:	55100593          	li	a1,1361
    62e8:	d7450513          	addi	a0,a0,-652 # cd74 <timers+0x3c>
    62ec:	70c050ef          	jal	ra,b9f8 <iprintf>
    62f0:	a001                	j	62f0 <xQueueReceive+0x2c>
    62f2:	842a                	mv	s0,a0
    62f4:	89ae                	mv	s3,a1
    62f6:	e58d                	bnez	a1,6320 <xQueueReceive+0x5c>
    62f8:	413c                	lw	a5,64(a0)
    62fa:	c39d                	beqz	a5,6320 <xQueueReceive+0x5c>
    62fc:	6789                	lui	a5,0x2
    62fe:	80078793          	addi	a5,a5,-2048 # 1800 <xGetAin+0x44>
    6302:	30079073          	csrw	mstatus,a5
    6306:	0000d637          	lui	a2,0xd
    630a:	0000d537          	lui	a0,0xd
    630e:	dc060613          	addi	a2,a2,-576 # cdc0 <timers+0x88>
    6312:	55500593          	li	a1,1365
    6316:	d7450513          	addi	a0,a0,-652 # cd74 <timers+0x3c>
    631a:	6de050ef          	jal	ra,b9f8 <iprintf>
    631e:	a001                	j	631e <xQueueReceive+0x5a>
    6320:	012010ef          	jal	ra,7332 <xTaskGetSchedulerState>
    6324:	e515                	bnez	a0,6350 <xQueueReceive+0x8c>
    6326:	47b2                	lw	a5,12(sp)
    6328:	4901                	li	s2,0
    632a:	c785                	beqz	a5,6352 <xQueueReceive+0x8e>
    632c:	6789                	lui	a5,0x2
    632e:	80078793          	addi	a5,a5,-2048 # 1800 <xGetAin+0x44>
    6332:	30079073          	csrw	mstatus,a5
    6336:	0000d637          	lui	a2,0xd
    633a:	0000d537          	lui	a0,0xd
    633e:	dc060613          	addi	a2,a2,-576 # cdc0 <timers+0x88>
    6342:	55a00593          	li	a1,1370
    6346:	d7450513          	addi	a0,a0,-652 # cd74 <timers+0x3c>
    634a:	6ae050ef          	jal	ra,b9f8 <iprintf>
    634e:	a001                	j	634e <xQueueReceive+0x8a>
    6350:	4901                	li	s2,0
    6352:	5a7d                	li	s4,-1
    6354:	02440a93          	addi	s5,s0,36
    6358:	e000eb37          	lui	s6,0xe000e
    635c:	6b91                	lui	s7,0x4
    635e:	a895                	j	63d2 <xQueueReceive+0x10e>
    6360:	47b2                	lw	a5,12(sp)
    6362:	e789                	bnez	a5,636c <xQueueReceive+0xa8>
    6364:	94fff0ef          	jal	ra,5cb2 <vPortExitCritical>
    6368:	4501                	li	a0,0
    636a:	a869                	j	6404 <xQueueReceive+0x140>
    636c:	00091563          	bnez	s2,6376 <xQueueReceive+0xb2>
    6370:	0828                	addi	a0,sp,24
    6372:	6f7000ef          	jal	ra,7268 <vTaskInternalSetTimeOutState>
    6376:	93dff0ef          	jal	ra,5cb2 <vPortExitCritical>
    637a:	05d000ef          	jal	ra,6bd6 <vTaskSuspendAll>
    637e:	91fff0ef          	jal	ra,5c9c <vPortEnterCritical>
    6382:	04444783          	lbu	a5,68(s0)
    6386:	07e2                	slli	a5,a5,0x18
    6388:	87e1                	srai	a5,a5,0x18
    638a:	01479463          	bne	a5,s4,6392 <xQueueReceive+0xce>
    638e:	04040223          	sb	zero,68(s0)
    6392:	04544783          	lbu	a5,69(s0)
    6396:	07e2                	slli	a5,a5,0x18
    6398:	87e1                	srai	a5,a5,0x18
    639a:	01479463          	bne	a5,s4,63a2 <xQueueReceive+0xde>
    639e:	040402a3          	sb	zero,69(s0)
    63a2:	911ff0ef          	jal	ra,5cb2 <vPortExitCritical>
    63a6:	006c                	addi	a1,sp,12
    63a8:	0828                	addi	a0,sp,24
    63aa:	6cd000ef          	jal	ra,7276 <xTaskCheckForTimeOut>
    63ae:	e525                	bnez	a0,6416 <xQueueReceive+0x152>
    63b0:	8522                	mv	a0,s0
    63b2:	9d5ff0ef          	jal	ra,5d86 <prvIsQueueEmpty>
    63b6:	c931                	beqz	a0,640a <xQueueReceive+0x146>
    63b8:	45b2                	lw	a1,12(sp)
    63ba:	8556                	mv	a0,s5
    63bc:	507000ef          	jal	ra,70c2 <vTaskPlaceOnEventList>
    63c0:	8522                	mv	a0,s0
    63c2:	a7dff0ef          	jal	ra,5e3e <prvUnlockQueue>
    63c6:	1bf000ef          	jal	ra,6d84 <xTaskResumeAll>
    63ca:	e119                	bnez	a0,63d0 <xQueueReceive+0x10c>
    63cc:	217b2023          	sw	s7,512(s6) # e000e200 <__freertos_irq_stack_top+0xc0009200>
    63d0:	4905                	li	s2,1
    63d2:	8cbff0ef          	jal	ra,5c9c <vPortEnterCritical>
    63d6:	5c04                	lw	s1,56(s0)
    63d8:	d4c1                	beqz	s1,6360 <xQueueReceive+0x9c>
    63da:	85ce                	mv	a1,s3
    63dc:	8522                	mv	a0,s0
    63de:	14fd                	addi	s1,s1,-1
    63e0:	a37ff0ef          	jal	ra,5e16 <prvCopyDataFromQueue>
    63e4:	dc04                	sw	s1,56(s0)
    63e6:	481c                	lw	a5,16(s0)
    63e8:	cb99                	beqz	a5,63fe <xQueueReceive+0x13a>
    63ea:	01040513          	addi	a0,s0,16
    63ee:	593000ef          	jal	ra,7180 <xTaskRemoveFromEventList>
    63f2:	c511                	beqz	a0,63fe <xQueueReceive+0x13a>
    63f4:	e000e7b7          	lui	a5,0xe000e
    63f8:	6711                	lui	a4,0x4
    63fa:	20e7a023          	sw	a4,512(a5) # e000e200 <__freertos_irq_stack_top+0xc0009200>
    63fe:	8b5ff0ef          	jal	ra,5cb2 <vPortExitCritical>
    6402:	4505                	li	a0,1
    6404:	6105                	addi	sp,sp,32
    6406:	928fa06f          	j	52e <__riscv_restore_10>
    640a:	8522                	mv	a0,s0
    640c:	a33ff0ef          	jal	ra,5e3e <prvUnlockQueue>
    6410:	175000ef          	jal	ra,6d84 <xTaskResumeAll>
    6414:	bf75                	j	63d0 <xQueueReceive+0x10c>
    6416:	8522                	mv	a0,s0
    6418:	a27ff0ef          	jal	ra,5e3e <prvUnlockQueue>
    641c:	169000ef          	jal	ra,6d84 <xTaskResumeAll>
    6420:	8522                	mv	a0,s0
    6422:	965ff0ef          	jal	ra,5d86 <prvIsQueueEmpty>
    6426:	d54d                	beqz	a0,63d0 <xQueueReceive+0x10c>
    6428:	b781                	j	6368 <xQueueReceive+0xa4>

0000642a <xQueueSemaphoreTake>:
    642a:	8dafa2ef          	jal	t0,504 <__riscv_save_4>
    642e:	1101                	addi	sp,sp,-32
    6430:	c62e                	sw	a1,12(sp)
    6432:	e11d                	bnez	a0,6458 <xQueueSemaphoreTake+0x2e>
    6434:	6789                	lui	a5,0x2
    6436:	80078793          	addi	a5,a5,-2048 # 1800 <xGetAin+0x44>
    643a:	30079073          	csrw	mstatus,a5
    643e:	0000d637          	lui	a2,0xd
    6442:	0000d537          	lui	a0,0xd
    6446:	dc060613          	addi	a2,a2,-576 # cdc0 <timers+0x88>
    644a:	5e300593          	li	a1,1507
    644e:	d7450513          	addi	a0,a0,-652 # cd74 <timers+0x3c>
    6452:	5a6050ef          	jal	ra,b9f8 <iprintf>
    6456:	a001                	j	6456 <xQueueSemaphoreTake+0x2c>
    6458:	413c                	lw	a5,64(a0)
    645a:	842a                	mv	s0,a0
    645c:	c39d                	beqz	a5,6482 <xQueueSemaphoreTake+0x58>
    645e:	6789                	lui	a5,0x2
    6460:	80078793          	addi	a5,a5,-2048 # 1800 <xGetAin+0x44>
    6464:	30079073          	csrw	mstatus,a5
    6468:	0000d637          	lui	a2,0xd
    646c:	0000d537          	lui	a0,0xd
    6470:	dc060613          	addi	a2,a2,-576 # cdc0 <timers+0x88>
    6474:	5e700593          	li	a1,1511
    6478:	d7450513          	addi	a0,a0,-652 # cd74 <timers+0x3c>
    647c:	57c050ef          	jal	ra,b9f8 <iprintf>
    6480:	a001                	j	6480 <xQueueSemaphoreTake+0x56>
    6482:	6b1000ef          	jal	ra,7332 <xTaskGetSchedulerState>
    6486:	e50d                	bnez	a0,64b0 <xQueueSemaphoreTake+0x86>
    6488:	47b2                	lw	a5,12(sp)
    648a:	c39d                	beqz	a5,64b0 <xQueueSemaphoreTake+0x86>
    648c:	6789                	lui	a5,0x2
    648e:	80078793          	addi	a5,a5,-2048 # 1800 <xGetAin+0x44>
    6492:	30079073          	csrw	mstatus,a5
    6496:	0000d637          	lui	a2,0xd
    649a:	0000d537          	lui	a0,0xd
    649e:	dc060613          	addi	a2,a2,-576 # cdc0 <timers+0x88>
    64a2:	5ec00593          	li	a1,1516
    64a6:	d7450513          	addi	a0,a0,-652 # cd74 <timers+0x3c>
    64aa:	54e050ef          	jal	ra,b9f8 <iprintf>
    64ae:	a001                	j	64ae <xQueueSemaphoreTake+0x84>
    64b0:	4481                	li	s1,0
    64b2:	4901                	li	s2,0
    64b4:	59fd                	li	s3,-1
    64b6:	02440a13          	addi	s4,s0,36
    64ba:	e000eab7          	lui	s5,0xe000e
    64be:	6b11                	lui	s6,0x4
    64c0:	a075                	j	656c <xQueueSemaphoreTake+0x142>
    64c2:	47b2                	lw	a5,12(sp)
    64c4:	e79d                	bnez	a5,64f2 <xQueueSemaphoreTake+0xc8>
    64c6:	c09d                	beqz	s1,64ec <xQueueSemaphoreTake+0xc2>
    64c8:	6789                	lui	a5,0x2
    64ca:	80078793          	addi	a5,a5,-2048 # 1800 <xGetAin+0x44>
    64ce:	30079073          	csrw	mstatus,a5
    64d2:	0000d637          	lui	a2,0xd
    64d6:	0000d537          	lui	a0,0xd
    64da:	dc060613          	addi	a2,a2,-576 # cdc0 <timers+0x88>
    64de:	63200593          	li	a1,1586
    64e2:	d7450513          	addi	a0,a0,-652 # cd74 <timers+0x3c>
    64e6:	512050ef          	jal	ra,b9f8 <iprintf>
    64ea:	a001                	j	64ea <xQueueSemaphoreTake+0xc0>
    64ec:	fc6ff0ef          	jal	ra,5cb2 <vPortExitCritical>
    64f0:	a845                	j	65a0 <xQueueSemaphoreTake+0x176>
    64f2:	00091563          	bnez	s2,64fc <xQueueSemaphoreTake+0xd2>
    64f6:	0828                	addi	a0,sp,24
    64f8:	571000ef          	jal	ra,7268 <vTaskInternalSetTimeOutState>
    64fc:	fb6ff0ef          	jal	ra,5cb2 <vPortExitCritical>
    6500:	6d6000ef          	jal	ra,6bd6 <vTaskSuspendAll>
    6504:	f98ff0ef          	jal	ra,5c9c <vPortEnterCritical>
    6508:	04444783          	lbu	a5,68(s0)
    650c:	07e2                	slli	a5,a5,0x18
    650e:	87e1                	srai	a5,a5,0x18
    6510:	01379463          	bne	a5,s3,6518 <xQueueSemaphoreTake+0xee>
    6514:	04040223          	sb	zero,68(s0)
    6518:	04544783          	lbu	a5,69(s0)
    651c:	07e2                	slli	a5,a5,0x18
    651e:	87e1                	srai	a5,a5,0x18
    6520:	01379463          	bne	a5,s3,6528 <xQueueSemaphoreTake+0xfe>
    6524:	040402a3          	sb	zero,69(s0)
    6528:	f8aff0ef          	jal	ra,5cb2 <vPortExitCritical>
    652c:	006c                	addi	a1,sp,12
    652e:	0828                	addi	a0,sp,24
    6530:	547000ef          	jal	ra,7276 <xTaskCheckForTimeOut>
    6534:	e141                	bnez	a0,65b4 <xQueueSemaphoreTake+0x18a>
    6536:	8522                	mv	a0,s0
    6538:	84fff0ef          	jal	ra,5d86 <prvIsQueueEmpty>
    653c:	c535                	beqz	a0,65a8 <xQueueSemaphoreTake+0x17e>
    653e:	401c                	lw	a5,0(s0)
    6540:	eb89                	bnez	a5,6552 <xQueueSemaphoreTake+0x128>
    6542:	f5aff0ef          	jal	ra,5c9c <vPortEnterCritical>
    6546:	4408                	lw	a0,8(s0)
    6548:	603000ef          	jal	ra,734a <xTaskPriorityInherit>
    654c:	84aa                	mv	s1,a0
    654e:	f64ff0ef          	jal	ra,5cb2 <vPortExitCritical>
    6552:	45b2                	lw	a1,12(sp)
    6554:	8552                	mv	a0,s4
    6556:	36d000ef          	jal	ra,70c2 <vTaskPlaceOnEventList>
    655a:	8522                	mv	a0,s0
    655c:	8e3ff0ef          	jal	ra,5e3e <prvUnlockQueue>
    6560:	025000ef          	jal	ra,6d84 <xTaskResumeAll>
    6564:	e119                	bnez	a0,656a <xQueueSemaphoreTake+0x140>
    6566:	216aa023          	sw	s6,512(s5) # e000e200 <__freertos_irq_stack_top+0xc0009200>
    656a:	4905                	li	s2,1
    656c:	f30ff0ef          	jal	ra,5c9c <vPortEnterCritical>
    6570:	5c1c                	lw	a5,56(s0)
    6572:	dba1                	beqz	a5,64c2 <xQueueSemaphoreTake+0x98>
    6574:	17fd                	addi	a5,a5,-1
    6576:	dc1c                	sw	a5,56(s0)
    6578:	401c                	lw	a5,0(s0)
    657a:	e781                	bnez	a5,6582 <xQueueSemaphoreTake+0x158>
    657c:	02c010ef          	jal	ra,75a8 <pvTaskIncrementMutexHeldCount>
    6580:	c408                	sw	a0,8(s0)
    6582:	481c                	lw	a5,16(s0)
    6584:	cb99                	beqz	a5,659a <xQueueSemaphoreTake+0x170>
    6586:	01040513          	addi	a0,s0,16
    658a:	3f7000ef          	jal	ra,7180 <xTaskRemoveFromEventList>
    658e:	c511                	beqz	a0,659a <xQueueSemaphoreTake+0x170>
    6590:	e000e7b7          	lui	a5,0xe000e
    6594:	6711                	lui	a4,0x4
    6596:	20e7a023          	sw	a4,512(a5) # e000e200 <__freertos_irq_stack_top+0xc0009200>
    659a:	f18ff0ef          	jal	ra,5cb2 <vPortExitCritical>
    659e:	4485                	li	s1,1
    65a0:	8526                	mv	a0,s1
    65a2:	6105                	addi	sp,sp,32
    65a4:	f95f906f          	j	538 <__riscv_restore_4>
    65a8:	8522                	mv	a0,s0
    65aa:	895ff0ef          	jal	ra,5e3e <prvUnlockQueue>
    65ae:	7d6000ef          	jal	ra,6d84 <xTaskResumeAll>
    65b2:	bf65                	j	656a <xQueueSemaphoreTake+0x140>
    65b4:	8522                	mv	a0,s0
    65b6:	889ff0ef          	jal	ra,5e3e <prvUnlockQueue>
    65ba:	7ca000ef          	jal	ra,6d84 <xTaskResumeAll>
    65be:	8522                	mv	a0,s0
    65c0:	fc6ff0ef          	jal	ra,5d86 <prvIsQueueEmpty>
    65c4:	d15d                	beqz	a0,656a <xQueueSemaphoreTake+0x140>
    65c6:	dce9                	beqz	s1,65a0 <xQueueSemaphoreTake+0x176>
    65c8:	ed4ff0ef          	jal	ra,5c9c <vPortEnterCritical>
    65cc:	505c                	lw	a5,36(s0)
    65ce:	4581                	li	a1,0
    65d0:	c789                	beqz	a5,65da <xQueueSemaphoreTake+0x1b0>
    65d2:	581c                	lw	a5,48(s0)
    65d4:	45bd                	li	a1,15
    65d6:	439c                	lw	a5,0(a5)
    65d8:	8d9d                	sub	a1,a1,a5
    65da:	4408                	lw	a0,8(s0)
    65dc:	4481                	li	s1,0
    65de:	6e5000ef          	jal	ra,74c2 <vTaskPriorityDisinheritAfterTimeout>
    65e2:	ed0ff0ef          	jal	ra,5cb2 <vPortExitCritical>
    65e6:	bf6d                	j	65a0 <xQueueSemaphoreTake+0x176>

000065e8 <xQueueTakeMutexRecursive>:
    65e8:	f37f92ef          	jal	t0,51e <__riscv_save_0>
    65ec:	1141                	addi	sp,sp,-16
    65ee:	e11d                	bnez	a0,6614 <xQueueTakeMutexRecursive+0x2c>
    65f0:	6789                	lui	a5,0x2
    65f2:	80078793          	addi	a5,a5,-2048 # 1800 <xGetAin+0x44>
    65f6:	30079073          	csrw	mstatus,a5
    65fa:	0000d637          	lui	a2,0xd
    65fe:	0000d537          	lui	a0,0xd
    6602:	dc060613          	addi	a2,a2,-576 # cdc0 <timers+0x88>
    6606:	2bb00593          	li	a1,699
    660a:	d7450513          	addi	a0,a0,-652 # cd74 <timers+0x3c>
    660e:	3ea050ef          	jal	ra,b9f8 <iprintf>
    6612:	a001                	j	6612 <xQueueTakeMutexRecursive+0x2a>
    6614:	4504                	lw	s1,8(a0)
    6616:	c62e                	sw	a1,12(sp)
    6618:	842a                	mv	s0,a0
    661a:	50f000ef          	jal	ra,7328 <xTaskGetCurrentTaskHandle>
    661e:	45b2                	lw	a1,12(sp)
    6620:	00a49963          	bne	s1,a0,6632 <xQueueTakeMutexRecursive+0x4a>
    6624:	445c                	lw	a5,12(s0)
    6626:	4505                	li	a0,1
    6628:	0785                	addi	a5,a5,1
    662a:	c45c                	sw	a5,12(s0)
    662c:	0141                	addi	sp,sp,16
    662e:	f15f906f          	j	542 <__riscv_restore_0>
    6632:	8522                	mv	a0,s0
    6634:	df7ff0ef          	jal	ra,642a <xQueueSemaphoreTake>
    6638:	d975                	beqz	a0,662c <xQueueTakeMutexRecursive+0x44>
    663a:	445c                	lw	a5,12(s0)
    663c:	0785                	addi	a5,a5,1
    663e:	c45c                	sw	a5,12(s0)
    6640:	b7f5                	j	662c <xQueueTakeMutexRecursive+0x44>

00006642 <vQueueAddToRegistry>:
    6642:	e515                	bnez	a0,666e <vQueueAddToRegistry+0x2c>
    6644:	edbf92ef          	jal	t0,51e <__riscv_save_0>
    6648:	6789                	lui	a5,0x2
    664a:	80078793          	addi	a5,a5,-2048 # 1800 <xGetAin+0x44>
    664e:	30079073          	csrw	mstatus,a5
    6652:	0000d637          	lui	a2,0xd
    6656:	6585                	lui	a1,0x1
    6658:	0000d537          	lui	a0,0xd
    665c:	dc060613          	addi	a2,a2,-576 # cdc0 <timers+0x88>
    6660:	ac858593          	addi	a1,a1,-1336 # ac8 <DataModel_Init+0x1f8>
    6664:	d7450513          	addi	a0,a0,-652 # cd74 <timers+0x3c>
    6668:	390050ef          	jal	ra,b9f8 <iprintf>
    666c:	a001                	j	666c <vQueueAddToRegistry+0x2a>
    666e:	cd9d                	beqz	a1,66ac <vQueueAddToRegistry+0x6a>
    6670:	20003637          	lui	a2,0x20003
    6674:	f9060693          	addi	a3,a2,-112 # 20002f90 <xQueueRegistry>
    6678:	4781                	li	a5,0
    667a:	4701                	li	a4,0
    667c:	f9060613          	addi	a2,a2,-112
    6680:	4821                	li	a6,8
    6682:	0046a883          	lw	a7,4(a3)
    6686:	00a89863          	bne	a7,a0,6696 <vQueueAddToRegistry+0x54>
    668a:	00371793          	slli	a5,a4,0x3
    668e:	97b2                	add	a5,a5,a2
    6690:	c38c                	sw	a1,0(a5)
    6692:	c3c8                	sw	a0,4(a5)
    6694:	a821                	j	66ac <vQueueAddToRegistry+0x6a>
    6696:	e791                	bnez	a5,66a2 <vQueueAddToRegistry+0x60>
    6698:	0006a883          	lw	a7,0(a3)
    669c:	00089363          	bnez	a7,66a2 <vQueueAddToRegistry+0x60>
    66a0:	87b6                	mv	a5,a3
    66a2:	0705                	addi	a4,a4,1
    66a4:	06a1                	addi	a3,a3,8
    66a6:	fd071ee3          	bne	a4,a6,6682 <vQueueAddToRegistry+0x40>
    66aa:	f3fd                	bnez	a5,6690 <vQueueAddToRegistry+0x4e>
    66ac:	8082                	ret

000066ae <vQueueWaitForMessageRestricted>:
    66ae:	e71f92ef          	jal	t0,51e <__riscv_save_0>
    66b2:	1141                	addi	sp,sp,-16
    66b4:	842a                	mv	s0,a0
    66b6:	c62e                	sw	a1,12(sp)
    66b8:	c432                	sw	a2,8(sp)
    66ba:	de2ff0ef          	jal	ra,5c9c <vPortEnterCritical>
    66be:	04444783          	lbu	a5,68(s0)
    66c2:	577d                	li	a4,-1
    66c4:	4622                	lw	a2,8(sp)
    66c6:	07e2                	slli	a5,a5,0x18
    66c8:	87e1                	srai	a5,a5,0x18
    66ca:	45b2                	lw	a1,12(sp)
    66cc:	00e79463          	bne	a5,a4,66d4 <vQueueWaitForMessageRestricted+0x26>
    66d0:	04040223          	sb	zero,68(s0)
    66d4:	04544783          	lbu	a5,69(s0)
    66d8:	577d                	li	a4,-1
    66da:	07e2                	slli	a5,a5,0x18
    66dc:	87e1                	srai	a5,a5,0x18
    66de:	00e79463          	bne	a5,a4,66e6 <vQueueWaitForMessageRestricted+0x38>
    66e2:	040402a3          	sb	zero,69(s0)
    66e6:	c632                	sw	a2,12(sp)
    66e8:	c42e                	sw	a1,8(sp)
    66ea:	dc8ff0ef          	jal	ra,5cb2 <vPortExitCritical>
    66ee:	5c1c                	lw	a5,56(s0)
    66f0:	45a2                	lw	a1,8(sp)
    66f2:	4632                	lw	a2,12(sp)
    66f4:	e789                	bnez	a5,66fe <vQueueWaitForMessageRestricted+0x50>
    66f6:	02440513          	addi	a0,s0,36
    66fa:	211000ef          	jal	ra,710a <vTaskPlaceOnEventListRestricted>
    66fe:	8522                	mv	a0,s0
    6700:	f3eff0ef          	jal	ra,5e3e <prvUnlockQueue>
    6704:	0141                	addi	sp,sp,16
    6706:	e3df906f          	j	542 <__riscv_restore_0>

0000670a <prvIdleTask>:
    670a:	a001                	j	670a <prvIdleTask>

0000670c <prvAddNewTaskToReadyList>:
    670c:	df9f92ef          	jal	t0,504 <__riscv_save_4>
    6710:	842a                	mv	s0,a0
    6712:	d8aff0ef          	jal	ra,5c9c <vPortEnterCritical>
    6716:	200007b7          	lui	a5,0x20000
    671a:	67078793          	addi	a5,a5,1648 # 20000670 <uxCurrentNumberOfTasks>
    671e:	4398                	lw	a4,0(a5)
    6720:	200004b7          	lui	s1,0x20000
    6724:	200039b7          	lui	s3,0x20003
    6728:	0705                	addi	a4,a4,1
    672a:	c398                	sw	a4,0(a5)
    672c:	66448713          	addi	a4,s1,1636 # 20000664 <pxCurrentTCB>
    6730:	4318                	lw	a4,0(a4)
    6732:	66448493          	addi	s1,s1,1636
    6736:	fd098913          	addi	s2,s3,-48 # 20002fd0 <pxReadyTasksLists>
    673a:	e771                	bnez	a4,6806 <prvAddNewTaskToReadyList+0xfa>
    673c:	c080                	sw	s0,0(s1)
    673e:	4398                	lw	a4,0(a5)
    6740:	4785                	li	a5,1
    6742:	06f71063          	bne	a4,a5,67a2 <prvAddNewTaskToReadyList+0x96>
    6746:	fd098993          	addi	s3,s3,-48
    674a:	12c90a13          	addi	s4,s2,300
    674e:	854e                	mv	a0,s3
    6750:	09d1                	addi	s3,s3,20
    6752:	db4ff0ef          	jal	ra,5d06 <vListInitialise>
    6756:	ff3a1ce3          	bne	s4,s3,674e <prvAddNewTaskToReadyList+0x42>
    675a:	20003537          	lui	a0,0x20003
    675e:	0fc50a13          	addi	s4,a0,252 # 200030fc <xDelayedTaskList1>
    6762:	0fc50513          	addi	a0,a0,252
    6766:	da0ff0ef          	jal	ra,5d06 <vListInitialise>
    676a:	20003537          	lui	a0,0x20003
    676e:	11050993          	addi	s3,a0,272 # 20003110 <xDelayedTaskList2>
    6772:	11050513          	addi	a0,a0,272
    6776:	d90ff0ef          	jal	ra,5d06 <vListInitialise>
    677a:	20003537          	lui	a0,0x20003
    677e:	12450513          	addi	a0,a0,292 # 20003124 <xPendingReadyList>
    6782:	d84ff0ef          	jal	ra,5d06 <vListInitialise>
    6786:	20003537          	lui	a0,0x20003
    678a:	13850513          	addi	a0,a0,312 # 20003138 <xSuspendedTaskList>
    678e:	d78ff0ef          	jal	ra,5d06 <vListInitialise>
    6792:	200007b7          	lui	a5,0x20000
    6796:	6747a423          	sw	s4,1640(a5) # 20000668 <pxDelayedTaskList>
    679a:	200007b7          	lui	a5,0x20000
    679e:	6737a623          	sw	s3,1644(a5) # 2000066c <pxOverflowDelayedTaskList>
    67a2:	200007b7          	lui	a5,0x20000
    67a6:	67878793          	addi	a5,a5,1656 # 20000678 <uxTaskNumber>
    67aa:	4398                	lw	a4,0(a5)
    67ac:	0705                	addi	a4,a4,1
    67ae:	c398                	sw	a4,0(a5)
    67b0:	20000737          	lui	a4,0x20000
    67b4:	67c70713          	addi	a4,a4,1660 # 2000067c <uxTopReadyPriority>
    67b8:	545c                	lw	a5,44(s0)
    67ba:	4314                	lw	a3,0(a4)
    67bc:	00f6f363          	bgeu	a3,a5,67c2 <prvAddNewTaskToReadyList+0xb6>
    67c0:	c31c                	sw	a5,0(a4)
    67c2:	4751                	li	a4,20
    67c4:	02e787b3          	mul	a5,a5,a4
    67c8:	97ca                	add	a5,a5,s2
    67ca:	43d8                	lw	a4,4(a5)
    67cc:	4714                	lw	a3,8(a4)
    67ce:	c418                	sw	a4,8(s0)
    67d0:	c454                	sw	a3,12(s0)
    67d2:	4710                	lw	a2,8(a4)
    67d4:	00440693          	addi	a3,s0,4
    67d8:	c254                	sw	a3,4(a2)
    67da:	c714                	sw	a3,8(a4)
    67dc:	4398                	lw	a4,0(a5)
    67de:	c85c                	sw	a5,20(s0)
    67e0:	0705                	addi	a4,a4,1
    67e2:	c398                	sw	a4,0(a5)
    67e4:	cceff0ef          	jal	ra,5cb2 <vPortExitCritical>
    67e8:	90c1a783          	lw	a5,-1780(gp) # 2000068c <xSchedulerRunning>
    67ec:	cb99                	beqz	a5,6802 <prvAddNewTaskToReadyList+0xf6>
    67ee:	409c                	lw	a5,0(s1)
    67f0:	57d8                	lw	a4,44(a5)
    67f2:	545c                	lw	a5,44(s0)
    67f4:	00f77763          	bgeu	a4,a5,6802 <prvAddNewTaskToReadyList+0xf6>
    67f8:	e000e7b7          	lui	a5,0xe000e
    67fc:	6711                	lui	a4,0x4
    67fe:	20e7a023          	sw	a4,512(a5) # e000e200 <__freertos_irq_stack_top+0xc0009200>
    6802:	d37f906f          	j	538 <__riscv_restore_4>
    6806:	90c1a783          	lw	a5,-1780(gp) # 2000068c <xSchedulerRunning>
    680a:	ffc1                	bnez	a5,67a2 <prvAddNewTaskToReadyList+0x96>
    680c:	409c                	lw	a5,0(s1)
    680e:	57d8                	lw	a4,44(a5)
    6810:	545c                	lw	a5,44(s0)
    6812:	f8e7e8e3          	bltu	a5,a4,67a2 <prvAddNewTaskToReadyList+0x96>
    6816:	c080                	sw	s0,0(s1)
    6818:	b769                	j	67a2 <prvAddNewTaskToReadyList+0x96>

0000681a <prvResetNextTaskUnblockTime>:
    681a:	20000737          	lui	a4,0x20000
    681e:	66870713          	addi	a4,a4,1640 # 20000668 <pxDelayedTaskList>
    6822:	431c                	lw	a5,0(a4)
    6824:	4394                	lw	a3,0(a5)
    6826:	90018793          	addi	a5,gp,-1792 # 20000680 <xNextTaskUnblockTime>
    682a:	e681                	bnez	a3,6832 <prvResetNextTaskUnblockTime+0x18>
    682c:	577d                	li	a4,-1
    682e:	c398                	sw	a4,0(a5)
    6830:	8082                	ret
    6832:	4318                	lw	a4,0(a4)
    6834:	4758                	lw	a4,12(a4)
    6836:	4318                	lw	a4,0(a4)
    6838:	bfdd                	j	682e <prvResetNextTaskUnblockTime+0x14>

0000683a <prvTaskIsTaskSuspended>:
    683a:	e50d                	bnez	a0,6864 <prvTaskIsTaskSuspended+0x2a>
    683c:	ce3f92ef          	jal	t0,51e <__riscv_save_0>
    6840:	6789                	lui	a5,0x2
    6842:	80078793          	addi	a5,a5,-2048 # 1800 <xGetAin+0x44>
    6846:	30079073          	csrw	mstatus,a5
    684a:	0000d637          	lui	a2,0xd
    684e:	0000d537          	lui	a0,0xd
    6852:	dfc60613          	addi	a2,a2,-516 # cdfc <timers+0xc4>
    6856:	72700593          	li	a1,1831
    685a:	d7450513          	addi	a0,a0,-652 # cd74 <timers+0x3c>
    685e:	19a050ef          	jal	ra,b9f8 <iprintf>
    6862:	a001                	j	6862 <prvTaskIsTaskSuspended+0x28>
    6864:	4954                	lw	a3,20(a0)
    6866:	20003737          	lui	a4,0x20003
    686a:	13870713          	addi	a4,a4,312 # 20003138 <xSuspendedTaskList>
    686e:	87aa                	mv	a5,a0
    6870:	4501                	li	a0,0
    6872:	00e69b63          	bne	a3,a4,6888 <prvTaskIsTaskSuspended+0x4e>
    6876:	5798                	lw	a4,40(a5)
    6878:	200037b7          	lui	a5,0x20003
    687c:	12478793          	addi	a5,a5,292 # 20003124 <xPendingReadyList>
    6880:	00f70463          	beq	a4,a5,6888 <prvTaskIsTaskSuspended+0x4e>
    6884:	00173513          	seqz	a0,a4
    6888:	8082                	ret

0000688a <prvInitialiseNewTask.isra.2>:
    688a:	c7bf92ef          	jal	t0,504 <__riscv_save_4>
    688e:	1141                	addi	sp,sp,-16
    6890:	89aa                	mv	s3,a0
    6892:	84b2                	mv	s1,a2
    6894:	8442                	mv	s0,a6
    6896:	03082903          	lw	s2,48(a6)
    689a:	c5b1                	beqz	a1,68e6 <prvInitialiseNewTask.isra.2+0x5c>
    689c:	4601                	li	a2,0
    689e:	4841                	li	a6,16
    68a0:	00c58533          	add	a0,a1,a2
    68a4:	00050503          	lb	a0,0(a0)
    68a8:	00c408b3          	add	a7,s0,a2
    68ac:	02a88a23          	sb	a0,52(a7)
    68b0:	c501                	beqz	a0,68b8 <prvInitialiseNewTask.isra.2+0x2e>
    68b2:	0605                	addi	a2,a2,1
    68b4:	ff0616e3          	bne	a2,a6,68a0 <prvInitialiseNewTask.isra.2+0x16>
    68b8:	040401a3          	sb	zero,67(s0)
    68bc:	4639                	li	a2,14
    68be:	02e67763          	bgeu	a2,a4,68ec <prvInitialiseNewTask.isra.2+0x62>
    68c2:	6789                	lui	a5,0x2
    68c4:	80078793          	addi	a5,a5,-2048 # 1800 <xGetAin+0x44>
    68c8:	30079073          	csrw	mstatus,a5
    68cc:	0000d637          	lui	a2,0xd
    68d0:	0000d537          	lui	a0,0xd
    68d4:	dfc60613          	addi	a2,a2,-516 # cdfc <timers+0xc4>
    68d8:	39700593          	li	a1,919
    68dc:	d7450513          	addi	a0,a0,-652 # cd74 <timers+0x3c>
    68e0:	118050ef          	jal	ra,b9f8 <iprintf>
    68e4:	a001                	j	68e4 <prvInitialiseNewTask.isra.2+0x5a>
    68e6:	02080a23          	sb	zero,52(a6)
    68ea:	bfc9                	j	68bc <prvInitialiseNewTask.isra.2+0x32>
    68ec:	d458                	sw	a4,44(s0)
    68ee:	c078                	sw	a4,68(s0)
    68f0:	00440513          	addi	a0,s0,4
    68f4:	04042423          	sw	zero,72(s0)
    68f8:	c63e                	sw	a5,12(sp)
    68fa:	c436                	sw	a3,8(sp)
    68fc:	c23a                	sw	a4,4(sp)
    68fe:	c1cff0ef          	jal	ra,5d1a <vListInitialiseItem>
    6902:	01840513          	addi	a0,s0,24
    6906:	c14ff0ef          	jal	ra,5d1a <vListInitialiseItem>
    690a:	4712                	lw	a4,4(sp)
    690c:	463d                	li	a2,15
    690e:	4581                	li	a1,0
    6910:	40e60733          	sub	a4,a2,a4
    6914:	cc18                	sw	a4,24(s0)
    6916:	4631                	li	a2,12
    6918:	c800                	sw	s0,16(s0)
    691a:	d040                	sw	s0,36(s0)
    691c:	04c40513          	addi	a0,s0,76
    6920:	c2ff90ef          	jal	ra,54e <memset>
    6924:	46a2                	lw	a3,8(sp)
    6926:	00249513          	slli	a0,s1,0x2
    692a:	1571                	addi	a0,a0,-4
    692c:	954a                	add	a0,a0,s2
    692e:	04040c23          	sb	zero,88(s0)
    6932:	04040ca3          	sb	zero,89(s0)
    6936:	04040d23          	sb	zero,90(s0)
    693a:	8636                	mv	a2,a3
    693c:	85ce                	mv	a1,s3
    693e:	9941                	andi	a0,a0,-16
    6940:	ac1f90ef          	jal	ra,400 <pxPortInitialiseStack>
    6944:	47b2                	lw	a5,12(sp)
    6946:	c008                	sw	a0,0(s0)
    6948:	c391                	beqz	a5,694c <prvInitialiseNewTask.isra.2+0xc2>
    694a:	c380                	sw	s0,0(a5)
    694c:	0141                	addi	sp,sp,16
    694e:	bebf906f          	j	538 <__riscv_restore_4>

00006952 <prvAddCurrentTaskToDelayedList>:
    6952:	bb3f92ef          	jal	t0,504 <__riscv_save_4>
    6956:	200004b7          	lui	s1,0x20000
    695a:	66448913          	addi	s2,s1,1636 # 20000664 <pxCurrentTCB>
    695e:	9101a983          	lw	s3,-1776(gp) # 20000690 <xTickCount>
    6962:	842a                	mv	s0,a0
    6964:	00092503          	lw	a0,0(s2)
    6968:	1141                	addi	sp,sp,-16
    696a:	c62e                	sw	a1,12(sp)
    696c:	0511                	addi	a0,a0,4
    696e:	bf8ff0ef          	jal	ra,5d66 <uxListRemove>
    6972:	577d                	li	a4,-1
    6974:	66448793          	addi	a5,s1,1636
    6978:	45b2                	lw	a1,12(sp)
    697a:	04e41163          	bne	s0,a4,69bc <prvAddCurrentTaskToDelayedList+0x6a>
    697e:	cd9d                	beqz	a1,69bc <prvAddCurrentTaskToDelayedList+0x6a>
    6980:	200037b7          	lui	a5,0x20003
    6984:	13878793          	addi	a5,a5,312 # 20003138 <xSuspendedTaskList>
    6988:	00092683          	lw	a3,0(s2)
    698c:	43d8                	lw	a4,4(a5)
    698e:	c698                	sw	a4,8(a3)
    6990:	4710                	lw	a2,8(a4)
    6992:	00092683          	lw	a3,0(s2)
    6996:	c6d0                	sw	a2,12(a3)
    6998:	00092683          	lw	a3,0(s2)
    699c:	4710                	lw	a2,8(a4)
    699e:	0691                	addi	a3,a3,4
    69a0:	c254                	sw	a3,4(a2)
    69a2:	00092683          	lw	a3,0(s2)
    69a6:	0691                	addi	a3,a3,4
    69a8:	c714                	sw	a3,8(a4)
    69aa:	00092703          	lw	a4,0(s2)
    69ae:	cb5c                	sw	a5,20(a4)
    69b0:	4398                	lw	a4,0(a5)
    69b2:	0705                	addi	a4,a4,1
    69b4:	c398                	sw	a4,0(a5)
    69b6:	0141                	addi	sp,sp,16
    69b8:	b81f906f          	j	538 <__riscv_restore_4>
    69bc:	4398                	lw	a4,0(a5)
    69be:	944e                	add	s0,s0,s3
    69c0:	c340                	sw	s0,4(a4)
    69c2:	01347b63          	bgeu	s0,s3,69d8 <prvAddCurrentTaskToDelayedList+0x86>
    69c6:	20000737          	lui	a4,0x20000
    69ca:	66c72503          	lw	a0,1644(a4) # 2000066c <pxOverflowDelayedTaskList>
    69ce:	438c                	lw	a1,0(a5)
    69d0:	0591                	addi	a1,a1,4
    69d2:	b66ff0ef          	jal	ra,5d38 <vListInsert>
    69d6:	b7c5                	j	69b6 <prvAddCurrentTaskToDelayedList+0x64>
    69d8:	20000737          	lui	a4,0x20000
    69dc:	66872503          	lw	a0,1640(a4) # 20000668 <pxDelayedTaskList>
    69e0:	438c                	lw	a1,0(a5)
    69e2:	0591                	addi	a1,a1,4
    69e4:	b54ff0ef          	jal	ra,5d38 <vListInsert>
    69e8:	90018793          	addi	a5,gp,-1792 # 20000680 <xNextTaskUnblockTime>
    69ec:	4398                	lw	a4,0(a5)
    69ee:	fce474e3          	bgeu	s0,a4,69b6 <prvAddCurrentTaskToDelayedList+0x64>
    69f2:	c380                	sw	s0,0(a5)
    69f4:	b7c9                	j	69b6 <prvAddCurrentTaskToDelayedList+0x64>

000069f6 <xTaskCreateStatic>:
    69f6:	b29f92ef          	jal	t0,51e <__riscv_save_0>
    69fa:	1141                	addi	sp,sp,-16
    69fc:	e39d                	bnez	a5,6a22 <xTaskCreateStatic+0x2c>
    69fe:	6789                	lui	a5,0x2
    6a00:	80078793          	addi	a5,a5,-2048 # 1800 <xGetAin+0x44>
    6a04:	30079073          	csrw	mstatus,a5
    6a08:	0000d637          	lui	a2,0xd
    6a0c:	0000d537          	lui	a0,0xd
    6a10:	dfc60613          	addi	a2,a2,-516 # cdfc <timers+0xc4>
    6a14:	24a00593          	li	a1,586
    6a18:	d7450513          	addi	a0,a0,-652 # cd74 <timers+0x3c>
    6a1c:	7dd040ef          	jal	ra,b9f8 <iprintf>
    6a20:	a001                	j	6a20 <xTaskCreateStatic+0x2a>
    6a22:	8442                	mv	s0,a6
    6a24:	02081463          	bnez	a6,6a4c <xTaskCreateStatic+0x56>
    6a28:	6789                	lui	a5,0x2
    6a2a:	80078793          	addi	a5,a5,-2048 # 1800 <xGetAin+0x44>
    6a2e:	30079073          	csrw	mstatus,a5
    6a32:	0000d637          	lui	a2,0xd
    6a36:	0000d537          	lui	a0,0xd
    6a3a:	dfc60613          	addi	a2,a2,-516 # cdfc <timers+0xc4>
    6a3e:	24b00593          	li	a1,587
    6a42:	d7450513          	addi	a0,a0,-652 # cd74 <timers+0x3c>
    6a46:	7b3040ef          	jal	ra,b9f8 <iprintf>
    6a4a:	a001                	j	6a4a <xTaskCreateStatic+0x54>
    6a4c:	05c00893          	li	a7,92
    6a50:	c646                	sw	a7,12(sp)
    6a52:	4332                	lw	t1,12(sp)
    6a54:	03130463          	beq	t1,a7,6a7c <xTaskCreateStatic+0x86>
    6a58:	6789                	lui	a5,0x2
    6a5a:	80078793          	addi	a5,a5,-2048 # 1800 <xGetAin+0x44>
    6a5e:	30079073          	csrw	mstatus,a5
    6a62:	0000d637          	lui	a2,0xd
    6a66:	0000d537          	lui	a0,0xd
    6a6a:	dfc60613          	addi	a2,a2,-516 # cdfc <timers+0xc4>
    6a6e:	25300593          	li	a1,595
    6a72:	d7450513          	addi	a0,a0,-652 # cd74 <timers+0x3c>
    6a76:	783040ef          	jal	ra,b9f8 <iprintf>
    6a7a:	a001                	j	6a7a <xTaskCreateStatic+0x84>
    6a7c:	48b2                	lw	a7,12(sp)
    6a7e:	02f82823          	sw	a5,48(a6)
    6a82:	4789                	li	a5,2
    6a84:	04f80da3          	sb	a5,91(a6)
    6a88:	003c                	addi	a5,sp,8
    6a8a:	e01ff0ef          	jal	ra,688a <prvInitialiseNewTask.isra.2>
    6a8e:	8522                	mv	a0,s0
    6a90:	c7dff0ef          	jal	ra,670c <prvAddNewTaskToReadyList>
    6a94:	4522                	lw	a0,8(sp)
    6a96:	0141                	addi	sp,sp,16
    6a98:	aabf906f          	j	542 <__riscv_restore_0>

00006a9c <vTaskResume>:
    6a9c:	a83f92ef          	jal	t0,51e <__riscv_save_0>
    6aa0:	e11d                	bnez	a0,6ac6 <vTaskResume+0x2a>
    6aa2:	6789                	lui	a5,0x2
    6aa4:	80078793          	addi	a5,a5,-2048 # 1800 <xGetAin+0x44>
    6aa8:	30079073          	csrw	mstatus,a5
    6aac:	0000d637          	lui	a2,0xd
    6ab0:	0000d537          	lui	a0,0xd
    6ab4:	dfc60613          	addi	a2,a2,-516 # cdfc <timers+0xc4>
    6ab8:	75100593          	li	a1,1873
    6abc:	d7450513          	addi	a0,a0,-652 # cd74 <timers+0x3c>
    6ac0:	739040ef          	jal	ra,b9f8 <iprintf>
    6ac4:	a001                	j	6ac4 <vTaskResume+0x28>
    6ac6:	200004b7          	lui	s1,0x20000
    6aca:	66448793          	addi	a5,s1,1636 # 20000664 <pxCurrentTCB>
    6ace:	439c                	lw	a5,0(a5)
    6ad0:	842a                	mv	s0,a0
    6ad2:	66448493          	addi	s1,s1,1636
    6ad6:	06a78663          	beq	a5,a0,6b42 <vTaskResume+0xa6>
    6ada:	9c2ff0ef          	jal	ra,5c9c <vPortEnterCritical>
    6ade:	8522                	mv	a0,s0
    6ae0:	d5bff0ef          	jal	ra,683a <prvTaskIsTaskSuspended>
    6ae4:	cd29                	beqz	a0,6b3e <vTaskResume+0xa2>
    6ae6:	00440913          	addi	s2,s0,4
    6aea:	854a                	mv	a0,s2
    6aec:	a7aff0ef          	jal	ra,5d66 <uxListRemove>
    6af0:	200007b7          	lui	a5,0x20000
    6af4:	67c78793          	addi	a5,a5,1660 # 2000067c <uxTopReadyPriority>
    6af8:	5458                	lw	a4,44(s0)
    6afa:	4394                	lw	a3,0(a5)
    6afc:	00e6f363          	bgeu	a3,a4,6b02 <vTaskResume+0x66>
    6b00:	c398                	sw	a4,0(a5)
    6b02:	47d1                	li	a5,20
    6b04:	02f706b3          	mul	a3,a4,a5
    6b08:	200037b7          	lui	a5,0x20003
    6b0c:	fd078793          	addi	a5,a5,-48 # 20002fd0 <pxReadyTasksLists>
    6b10:	97b6                	add	a5,a5,a3
    6b12:	43d4                	lw	a3,4(a5)
    6b14:	4690                	lw	a2,8(a3)
    6b16:	c414                	sw	a3,8(s0)
    6b18:	c450                	sw	a2,12(s0)
    6b1a:	4690                	lw	a2,8(a3)
    6b1c:	01262223          	sw	s2,4(a2)
    6b20:	0126a423          	sw	s2,8(a3)
    6b24:	4394                	lw	a3,0(a5)
    6b26:	c85c                	sw	a5,20(s0)
    6b28:	0685                	addi	a3,a3,1
    6b2a:	c394                	sw	a3,0(a5)
    6b2c:	409c                	lw	a5,0(s1)
    6b2e:	57dc                	lw	a5,44(a5)
    6b30:	00f76763          	bltu	a4,a5,6b3e <vTaskResume+0xa2>
    6b34:	e000e7b7          	lui	a5,0xe000e
    6b38:	6711                	lui	a4,0x4
    6b3a:	20e7a023          	sw	a4,512(a5) # e000e200 <__freertos_irq_stack_top+0xc0009200>
    6b3e:	974ff0ef          	jal	ra,5cb2 <vPortExitCritical>
    6b42:	a01f906f          	j	542 <__riscv_restore_0>

00006b46 <vTaskStartScheduler>:
    6b46:	9d9f92ef          	jal	t0,51e <__riscv_save_0>
    6b4a:	1141                	addi	sp,sp,-16
    6b4c:	0070                	addi	a2,sp,12
    6b4e:	002c                	addi	a1,sp,8
    6b50:	0048                	addi	a0,sp,4
    6b52:	c202                	sw	zero,4(sp)
    6b54:	c402                	sw	zero,8(sp)
    6b56:	f0afb0ef          	jal	ra,2260 <vApplicationGetIdleTaskMemory>
    6b5a:	4812                	lw	a6,4(sp)
    6b5c:	47a2                	lw	a5,8(sp)
    6b5e:	4632                	lw	a2,12(sp)
    6b60:	0000d5b7          	lui	a1,0xd
    6b64:	00006537          	lui	a0,0x6
    6b68:	4701                	li	a4,0
    6b6a:	4681                	li	a3,0
    6b6c:	e1058593          	addi	a1,a1,-496 # ce10 <timers+0xd8>
    6b70:	70a50513          	addi	a0,a0,1802 # 670a <prvIdleTask>
    6b74:	e83ff0ef          	jal	ra,69f6 <xTaskCreateStatic>
    6b78:	c505                	beqz	a0,6ba0 <vTaskStartScheduler+0x5a>
    6b7a:	286010ef          	jal	ra,7e00 <xTimerCreateTimerTask>
    6b7e:	4785                	li	a5,1
    6b80:	02f51563          	bne	a0,a5,6baa <vTaskStartScheduler+0x64>
    6b84:	6789                	lui	a5,0x2
    6b86:	80078793          	addi	a5,a5,-2048 # 1800 <xGetAin+0x44>
    6b8a:	30079073          	csrw	mstatus,a5
    6b8e:	577d                	li	a4,-1
    6b90:	90e1a023          	sw	a4,-1792(gp) # 20000680 <xNextTaskUnblockTime>
    6b94:	90a1a623          	sw	a0,-1780(gp) # 2000068c <xSchedulerRunning>
    6b98:	9001a823          	sw	zero,-1776(gp) # 20000690 <xTickCount>
    6b9c:	ff5fe0ef          	jal	ra,5b90 <xPortStartScheduler>
    6ba0:	80c1a783          	lw	a5,-2036(gp) # 2000058c <uxTopUsedPriority>
    6ba4:	0141                	addi	sp,sp,16
    6ba6:	99df906f          	j	542 <__riscv_restore_0>
    6baa:	57fd                	li	a5,-1
    6bac:	fef51ae3          	bne	a0,a5,6ba0 <vTaskStartScheduler+0x5a>
    6bb0:	6789                	lui	a5,0x2
    6bb2:	80078793          	addi	a5,a5,-2048 # 1800 <xGetAin+0x44>
    6bb6:	30079073          	csrw	mstatus,a5
    6bba:	0000d637          	lui	a2,0xd
    6bbe:	6585                	lui	a1,0x1
    6bc0:	0000d537          	lui	a0,0xd
    6bc4:	dfc60613          	addi	a2,a2,-516 # cdfc <timers+0xc4>
    6bc8:	84058593          	addi	a1,a1,-1984 # 840 <setReg16>
    6bcc:	d7450513          	addi	a0,a0,-652 # cd74 <timers+0x3c>
    6bd0:	629040ef          	jal	ra,b9f8 <iprintf>
    6bd4:	a001                	j	6bd4 <vTaskStartScheduler+0x8e>

00006bd6 <vTaskSuspendAll>:
    6bd6:	200007b7          	lui	a5,0x20000
    6bda:	67478793          	addi	a5,a5,1652 # 20000674 <uxSchedulerSuspended>
    6bde:	4398                	lw	a4,0(a5)
    6be0:	0705                	addi	a4,a4,1
    6be2:	c398                	sw	a4,0(a5)
    6be4:	8082                	ret

00006be6 <xTaskGetTickCount>:
    6be6:	9101a503          	lw	a0,-1776(gp) # 20000690 <xTickCount>
    6bea:	8082                	ret

00006bec <xTaskIncrementTick>:
    6bec:	200007b7          	lui	a5,0x20000
    6bf0:	6747a783          	lw	a5,1652(a5) # 20000674 <uxSchedulerSuspended>
    6bf4:	18079163          	bnez	a5,6d76 <xTaskIncrementTick+0x18a>
    6bf8:	927f92ef          	jal	t0,51e <__riscv_save_0>
    6bfc:	91018793          	addi	a5,gp,-1776 # 20000690 <xTickCount>
    6c00:	4380                	lw	s0,0(a5)
    6c02:	0405                	addi	s0,s0,1
    6c04:	c380                	sw	s0,0(a5)
    6c06:	e831                	bnez	s0,6c5a <xTaskIncrementTick+0x6e>
    6c08:	200007b7          	lui	a5,0x20000
    6c0c:	66878793          	addi	a5,a5,1640 # 20000668 <pxDelayedTaskList>
    6c10:	4398                	lw	a4,0(a5)
    6c12:	4318                	lw	a4,0(a4)
    6c14:	c705                	beqz	a4,6c3c <xTaskIncrementTick+0x50>
    6c16:	6789                	lui	a5,0x2
    6c18:	80078793          	addi	a5,a5,-2048 # 1800 <xGetAin+0x44>
    6c1c:	30079073          	csrw	mstatus,a5
    6c20:	0000d637          	lui	a2,0xd
    6c24:	6585                	lui	a1,0x1
    6c26:	0000d537          	lui	a0,0xd
    6c2a:	dfc60613          	addi	a2,a2,-516 # cdfc <timers+0xc4>
    6c2e:	ac758593          	addi	a1,a1,-1337 # ac7 <DataModel_Init+0x1f7>
    6c32:	d7450513          	addi	a0,a0,-652 # cd74 <timers+0x3c>
    6c36:	5c3040ef          	jal	ra,b9f8 <iprintf>
    6c3a:	a001                	j	6c3a <xTaskIncrementTick+0x4e>
    6c3c:	20000737          	lui	a4,0x20000
    6c40:	66c70713          	addi	a4,a4,1644 # 2000066c <pxOverflowDelayedTaskList>
    6c44:	4394                	lw	a3,0(a5)
    6c46:	4310                	lw	a2,0(a4)
    6c48:	c390                	sw	a2,0(a5)
    6c4a:	c314                	sw	a3,0(a4)
    6c4c:	90418793          	addi	a5,gp,-1788 # 20000684 <xNumOfOverflows>
    6c50:	4398                	lw	a4,0(a5)
    6c52:	0705                	addi	a4,a4,1
    6c54:	c398                	sw	a4,0(a5)
    6c56:	bc5ff0ef          	jal	ra,681a <prvResetNextTaskUnblockTime>
    6c5a:	90018793          	addi	a5,gp,-1792 # 20000680 <xNextTaskUnblockTime>
    6c5e:	439c                	lw	a5,0(a5)
    6c60:	20003737          	lui	a4,0x20003
    6c64:	200005b7          	lui	a1,0x20000
    6c68:	90018613          	addi	a2,gp,-1792 # 20000680 <xNextTaskUnblockTime>
    6c6c:	fd070713          	addi	a4,a4,-48 # 20002fd0 <pxReadyTasksLists>
    6c70:	66458593          	addi	a1,a1,1636 # 20000664 <pxCurrentTCB>
    6c74:	4501                	li	a0,0
    6c76:	02f47363          	bgeu	s0,a5,6c9c <xTaskIncrementTick+0xb0>
    6c7a:	419c                	lw	a5,0(a1)
    6c7c:	46d1                	li	a3,20
    6c7e:	57dc                	lw	a5,44(a5)
    6c80:	02d787b3          	mul	a5,a5,a3
    6c84:	973e                	add	a4,a4,a5
    6c86:	4318                	lw	a4,0(a4)
    6c88:	4785                	li	a5,1
    6c8a:	00e7f363          	bgeu	a5,a4,6c90 <xTaskIncrementTick+0xa4>
    6c8e:	4505                	li	a0,1
    6c90:	9141a783          	lw	a5,-1772(gp) # 20000694 <xYieldPending>
    6c94:	c391                	beqz	a5,6c98 <xTaskIncrementTick+0xac>
    6c96:	4505                	li	a0,1
    6c98:	8abf906f          	j	542 <__riscv_restore_0>
    6c9c:	20000e37          	lui	t3,0x20000
    6ca0:	20000eb7          	lui	t4,0x20000
    6ca4:	4f51                	li	t5,20
    6ca6:	668e0793          	addi	a5,t3,1640 # 20000668 <pxDelayedTaskList>
    6caa:	4394                	lw	a3,0(a5)
    6cac:	4294                	lw	a3,0(a3)
    6cae:	e681                	bnez	a3,6cb6 <xTaskIncrementTick+0xca>
    6cb0:	57fd                	li	a5,-1
    6cb2:	c21c                	sw	a5,0(a2)
    6cb4:	b7d9                	j	6c7a <xTaskIncrementTick+0x8e>
    6cb6:	439c                	lw	a5,0(a5)
    6cb8:	47dc                	lw	a5,12(a5)
    6cba:	47dc                	lw	a5,12(a5)
    6cbc:	43d4                	lw	a3,4(a5)
    6cbe:	00d47463          	bgeu	s0,a3,6cc6 <xTaskIncrementTick+0xda>
    6cc2:	c214                	sw	a3,0(a2)
    6cc4:	bf5d                	j	6c7a <xTaskIncrementTick+0x8e>
    6cc6:	0087a883          	lw	a7,8(a5)
    6cca:	00c7a803          	lw	a6,12(a5)
    6cce:	4bd4                	lw	a3,20(a5)
    6cd0:	00478313          	addi	t1,a5,4
    6cd4:	0108a423          	sw	a6,8(a7)
    6cd8:	01182223          	sw	a7,4(a6)
    6cdc:	0046a883          	lw	a7,4(a3)
    6ce0:	00689463          	bne	a7,t1,6ce8 <xTaskIncrementTick+0xfc>
    6ce4:	0106a223          	sw	a6,4(a3)
    6ce8:	0006a803          	lw	a6,0(a3)
    6cec:	0007aa23          	sw	zero,20(a5)
    6cf0:	187d                	addi	a6,a6,-1
    6cf2:	0106a023          	sw	a6,0(a3)
    6cf6:	5794                	lw	a3,40(a5)
    6cf8:	ca95                	beqz	a3,6d2c <xTaskIncrementTick+0x140>
    6cfa:	01c7a803          	lw	a6,28(a5)
    6cfe:	0207a883          	lw	a7,32(a5)
    6d02:	0046af83          	lw	t6,4(a3)
    6d06:	01182423          	sw	a7,8(a6)
    6d0a:	0207a883          	lw	a7,32(a5)
    6d0e:	0108a223          	sw	a6,4(a7)
    6d12:	01878813          	addi	a6,a5,24
    6d16:	010f9463          	bne	t6,a6,6d1e <xTaskIncrementTick+0x132>
    6d1a:	0116a223          	sw	a7,4(a3)
    6d1e:	0006a803          	lw	a6,0(a3)
    6d22:	0207a423          	sw	zero,40(a5)
    6d26:	187d                	addi	a6,a6,-1
    6d28:	0106a023          	sw	a6,0(a3)
    6d2c:	67ce8693          	addi	a3,t4,1660 # 2000067c <uxTopReadyPriority>
    6d30:	02c7a803          	lw	a6,44(a5)
    6d34:	0006a883          	lw	a7,0(a3)
    6d38:	0108f463          	bgeu	a7,a6,6d40 <xTaskIncrementTick+0x154>
    6d3c:	0106a023          	sw	a6,0(a3)
    6d40:	03e806b3          	mul	a3,a6,t5
    6d44:	96ba                	add	a3,a3,a4
    6d46:	0046a883          	lw	a7,4(a3)
    6d4a:	0088af83          	lw	t6,8(a7)
    6d4e:	0117a423          	sw	a7,8(a5)
    6d52:	01f7a623          	sw	t6,12(a5)
    6d56:	0088af83          	lw	t6,8(a7)
    6d5a:	006fa223          	sw	t1,4(t6)
    6d5e:	0068a423          	sw	t1,8(a7)
    6d62:	cbd4                	sw	a3,20(a5)
    6d64:	429c                	lw	a5,0(a3)
    6d66:	0785                	addi	a5,a5,1
    6d68:	c29c                	sw	a5,0(a3)
    6d6a:	419c                	lw	a5,0(a1)
    6d6c:	57dc                	lw	a5,44(a5)
    6d6e:	f2f86ce3          	bltu	a6,a5,6ca6 <xTaskIncrementTick+0xba>
    6d72:	4505                	li	a0,1
    6d74:	bf0d                	j	6ca6 <xTaskIncrementTick+0xba>
    6d76:	90818793          	addi	a5,gp,-1784 # 20000688 <xPendedTicks>
    6d7a:	4398                	lw	a4,0(a5)
    6d7c:	4501                	li	a0,0
    6d7e:	0705                	addi	a4,a4,1
    6d80:	c398                	sw	a4,0(a5)
    6d82:	8082                	ret

00006d84 <xTaskResumeAll>:
    6d84:	f80f92ef          	jal	t0,504 <__riscv_save_4>
    6d88:	20000437          	lui	s0,0x20000
    6d8c:	67440413          	addi	s0,s0,1652 # 20000674 <uxSchedulerSuspended>
    6d90:	401c                	lw	a5,0(s0)
    6d92:	1141                	addi	sp,sp,-16
    6d94:	e785                	bnez	a5,6dbc <xTaskResumeAll+0x38>
    6d96:	6789                	lui	a5,0x2
    6d98:	80078793          	addi	a5,a5,-2048 # 1800 <xGetAin+0x44>
    6d9c:	30079073          	csrw	mstatus,a5
    6da0:	0000d637          	lui	a2,0xd
    6da4:	6585                	lui	a1,0x1
    6da6:	0000d537          	lui	a0,0xd
    6daa:	dfc60613          	addi	a2,a2,-516 # cdfc <timers+0xc4>
    6dae:	8b358593          	addi	a1,a1,-1869 # 8b3 <getReg16+0xf>
    6db2:	d7450513          	addi	a0,a0,-652 # cd74 <timers+0x3c>
    6db6:	443040ef          	jal	ra,b9f8 <iprintf>
    6dba:	a001                	j	6dba <xTaskResumeAll+0x36>
    6dbc:	ee1fe0ef          	jal	ra,5c9c <vPortEnterCritical>
    6dc0:	401c                	lw	a5,0(s0)
    6dc2:	17fd                	addi	a5,a5,-1
    6dc4:	c01c                	sw	a5,0(s0)
    6dc6:	401c                	lw	a5,0(s0)
    6dc8:	cb89                	beqz	a5,6dda <xTaskResumeAll+0x56>
    6dca:	4501                	li	a0,0
    6dcc:	c62a                	sw	a0,12(sp)
    6dce:	ee5fe0ef          	jal	ra,5cb2 <vPortExitCritical>
    6dd2:	4532                	lw	a0,12(sp)
    6dd4:	0141                	addi	sp,sp,16
    6dd6:	f62f906f          	j	538 <__riscv_restore_4>
    6dda:	200007b7          	lui	a5,0x20000
    6dde:	6707a783          	lw	a5,1648(a5) # 20000670 <uxCurrentNumberOfTasks>
    6de2:	d7e5                	beqz	a5,6dca <xTaskResumeAll+0x46>
    6de4:	200036b7          	lui	a3,0x20003
    6de8:	20003537          	lui	a0,0x20003
    6dec:	4781                	li	a5,0
    6dee:	12468693          	addi	a3,a3,292 # 20003124 <xPendingReadyList>
    6df2:	20000f37          	lui	t5,0x20000
    6df6:	fd050513          	addi	a0,a0,-48 # 20002fd0 <pxReadyTasksLists>
    6dfa:	48d1                	li	a7,20
    6dfc:	20000337          	lui	t1,0x20000
    6e00:	4e85                	li	t4,1
    6e02:	a859                	j	6e98 <xTaskResumeAll+0x114>
    6e04:	46dc                	lw	a5,12(a3)
    6e06:	47dc                	lw	a5,12(a5)
    6e08:	4fcc                	lw	a1,28(a5)
    6e0a:	5390                	lw	a2,32(a5)
    6e0c:	5798                	lw	a4,40(a5)
    6e0e:	c590                	sw	a2,8(a1)
    6e10:	0207a803          	lw	a6,32(a5)
    6e14:	00b82223          	sw	a1,4(a6)
    6e18:	00472803          	lw	a6,4(a4)
    6e1c:	01878593          	addi	a1,a5,24
    6e20:	00b81363          	bne	a6,a1,6e26 <xTaskResumeAll+0xa2>
    6e24:	c350                	sw	a2,4(a4)
    6e26:	4310                	lw	a2,0(a4)
    6e28:	0207a423          	sw	zero,40(a5)
    6e2c:	167d                	addi	a2,a2,-1
    6e2e:	c310                	sw	a2,0(a4)
    6e30:	478c                	lw	a1,8(a5)
    6e32:	47d0                	lw	a2,12(a5)
    6e34:	4bd8                	lw	a4,20(a5)
    6e36:	00478813          	addi	a6,a5,4
    6e3a:	c590                	sw	a2,8(a1)
    6e3c:	c24c                	sw	a1,4(a2)
    6e3e:	434c                	lw	a1,4(a4)
    6e40:	01059363          	bne	a1,a6,6e46 <xTaskResumeAll+0xc2>
    6e44:	c350                	sw	a2,4(a4)
    6e46:	4310                	lw	a2,0(a4)
    6e48:	0007aa23          	sw	zero,20(a5)
    6e4c:	167d                	addi	a2,a2,-1
    6e4e:	c310                	sw	a2,0(a4)
    6e50:	67cf0713          	addi	a4,t5,1660 # 2000067c <uxTopReadyPriority>
    6e54:	57d0                	lw	a2,44(a5)
    6e56:	430c                	lw	a1,0(a4)
    6e58:	00c5f363          	bgeu	a1,a2,6e5e <xTaskResumeAll+0xda>
    6e5c:	c310                	sw	a2,0(a4)
    6e5e:	03160733          	mul	a4,a2,a7
    6e62:	972a                	add	a4,a4,a0
    6e64:	434c                	lw	a1,4(a4)
    6e66:	0085af83          	lw	t6,8(a1)
    6e6a:	c78c                	sw	a1,8(a5)
    6e6c:	01f7a623          	sw	t6,12(a5)
    6e70:	0085af83          	lw	t6,8(a1)
    6e74:	010fa223          	sw	a6,4(t6)
    6e78:	0105a423          	sw	a6,8(a1)
    6e7c:	430c                	lw	a1,0(a4)
    6e7e:	cbd8                	sw	a4,20(a5)
    6e80:	0585                	addi	a1,a1,1
    6e82:	c30c                	sw	a1,0(a4)
    6e84:	66430713          	addi	a4,t1,1636 # 20000664 <pxCurrentTCB>
    6e88:	4318                	lw	a4,0(a4)
    6e8a:	5758                	lw	a4,44(a4)
    6e8c:	00e66663          	bltu	a2,a4,6e98 <xTaskResumeAll+0x114>
    6e90:	91418713          	addi	a4,gp,-1772 # 20000694 <xYieldPending>
    6e94:	01d72023          	sw	t4,0(a4)
    6e98:	4298                	lw	a4,0(a3)
    6e9a:	f72d                	bnez	a4,6e04 <xTaskResumeAll+0x80>
    6e9c:	c399                	beqz	a5,6ea2 <xTaskResumeAll+0x11e>
    6e9e:	97dff0ef          	jal	ra,681a <prvResetNextTaskUnblockTime>
    6ea2:	90818713          	addi	a4,gp,-1784 # 20000688 <xPendedTicks>
    6ea6:	4304                	lw	s1,0(a4)
    6ea8:	90818413          	addi	s0,gp,-1784 # 20000688 <xPendedTicks>
    6eac:	cc89                	beqz	s1,6ec6 <xTaskResumeAll+0x142>
    6eae:	4985                	li	s3,1
    6eb0:	d3dff0ef          	jal	ra,6bec <xTaskIncrementTick>
    6eb4:	c509                	beqz	a0,6ebe <xTaskResumeAll+0x13a>
    6eb6:	91418793          	addi	a5,gp,-1772 # 20000694 <xYieldPending>
    6eba:	0137a023          	sw	s3,0(a5)
    6ebe:	14fd                	addi	s1,s1,-1
    6ec0:	f8e5                	bnez	s1,6eb0 <xTaskResumeAll+0x12c>
    6ec2:	00042023          	sw	zero,0(s0)
    6ec6:	9141a783          	lw	a5,-1772(gp) # 20000694 <xYieldPending>
    6eca:	f00780e3          	beqz	a5,6dca <xTaskResumeAll+0x46>
    6ece:	e000e7b7          	lui	a5,0xe000e
    6ed2:	6711                	lui	a4,0x4
    6ed4:	20e7a023          	sw	a4,512(a5) # e000e200 <__freertos_irq_stack_top+0xc0009200>
    6ed8:	4505                	li	a0,1
    6eda:	bdcd                	j	6dcc <xTaskResumeAll+0x48>

00006edc <vTaskDelay>:
    6edc:	e519                	bnez	a0,6eea <vTaskDelay+0xe>
    6ede:	e000e7b7          	lui	a5,0xe000e
    6ee2:	6711                	lui	a4,0x4
    6ee4:	20e7a023          	sw	a4,512(a5) # e000e200 <__freertos_irq_stack_top+0xc0009200>
    6ee8:	8082                	ret
    6eea:	e34f92ef          	jal	t0,51e <__riscv_save_0>
    6eee:	200007b7          	lui	a5,0x20000
    6ef2:	6747a783          	lw	a5,1652(a5) # 20000674 <uxSchedulerSuspended>
    6ef6:	1141                	addi	sp,sp,-16
    6ef8:	c39d                	beqz	a5,6f1e <vTaskDelay+0x42>
    6efa:	6789                	lui	a5,0x2
    6efc:	80078793          	addi	a5,a5,-2048 # 1800 <xGetAin+0x44>
    6f00:	30079073          	csrw	mstatus,a5
    6f04:	0000d637          	lui	a2,0xd
    6f08:	0000d537          	lui	a0,0xd
    6f0c:	dfc60613          	addi	a2,a2,-516 # cdfc <timers+0xc4>
    6f10:	54900593          	li	a1,1353
    6f14:	d7450513          	addi	a0,a0,-652 # cd74 <timers+0x3c>
    6f18:	2e1040ef          	jal	ra,b9f8 <iprintf>
    6f1c:	a001                	j	6f1c <vTaskDelay+0x40>
    6f1e:	c62a                	sw	a0,12(sp)
    6f20:	cb7ff0ef          	jal	ra,6bd6 <vTaskSuspendAll>
    6f24:	4532                	lw	a0,12(sp)
    6f26:	4581                	li	a1,0
    6f28:	a2bff0ef          	jal	ra,6952 <prvAddCurrentTaskToDelayedList>
    6f2c:	e59ff0ef          	jal	ra,6d84 <xTaskResumeAll>
    6f30:	e511                	bnez	a0,6f3c <vTaskDelay+0x60>
    6f32:	e000e7b7          	lui	a5,0xe000e
    6f36:	6711                	lui	a4,0x4
    6f38:	20e7a023          	sw	a4,512(a5) # e000e200 <__freertos_irq_stack_top+0xc0009200>
    6f3c:	0141                	addi	sp,sp,16
    6f3e:	e04f906f          	j	542 <__riscv_restore_0>

00006f42 <vTaskSwitchContext>:
    6f42:	200007b7          	lui	a5,0x20000
    6f46:	6747a703          	lw	a4,1652(a5) # 20000674 <uxSchedulerSuspended>
    6f4a:	91418793          	addi	a5,gp,-1772 # 20000694 <xYieldPending>
    6f4e:	c701                	beqz	a4,6f56 <vTaskSwitchContext+0x14>
    6f50:	4705                	li	a4,1
    6f52:	c398                	sw	a4,0(a5)
    6f54:	8082                	ret
    6f56:	0007a023          	sw	zero,0(a5)
    6f5a:	200007b7          	lui	a5,0x20000
    6f5e:	67c78713          	addi	a4,a5,1660 # 2000067c <uxTopReadyPriority>
    6f62:	4318                	lw	a4,0(a4)
    6f64:	67c78613          	addi	a2,a5,1660
    6f68:	200037b7          	lui	a5,0x20003
    6f6c:	fd078793          	addi	a5,a5,-48 # 20002fd0 <pxReadyTasksLists>
    6f70:	4851                	li	a6,20
    6f72:	030706b3          	mul	a3,a4,a6
    6f76:	00d785b3          	add	a1,a5,a3
    6f7a:	4188                	lw	a0,0(a1)
    6f7c:	c515                	beqz	a0,6fa8 <vTaskSwitchContext+0x66>
    6f7e:	41c8                	lw	a0,4(a1)
    6f80:	06a1                	addi	a3,a3,8
    6f82:	96be                	add	a3,a3,a5
    6f84:	4148                	lw	a0,4(a0)
    6f86:	c1c8                	sw	a0,4(a1)
    6f88:	00d51463          	bne	a0,a3,6f90 <vTaskSwitchContext+0x4e>
    6f8c:	4154                	lw	a3,4(a0)
    6f8e:	c1d4                	sw	a3,4(a1)
    6f90:	46d1                	li	a3,20
    6f92:	02d706b3          	mul	a3,a4,a3
    6f96:	97b6                	add	a5,a5,a3
    6f98:	43dc                	lw	a5,4(a5)
    6f9a:	47d4                	lw	a3,12(a5)
    6f9c:	200007b7          	lui	a5,0x20000
    6fa0:	66d7a223          	sw	a3,1636(a5) # 20000664 <pxCurrentTCB>
    6fa4:	c218                	sw	a4,0(a2)
    6fa6:	8082                	ret
    6fa8:	e715                	bnez	a4,6fd4 <vTaskSwitchContext+0x92>
    6faa:	d74f92ef          	jal	t0,51e <__riscv_save_0>
    6fae:	6789                	lui	a5,0x2
    6fb0:	80078793          	addi	a5,a5,-2048 # 1800 <xGetAin+0x44>
    6fb4:	30079073          	csrw	mstatus,a5
    6fb8:	0000d637          	lui	a2,0xd
    6fbc:	6585                	lui	a1,0x1
    6fbe:	0000d537          	lui	a0,0xd
    6fc2:	dfc60613          	addi	a2,a2,-516 # cdfc <timers+0xc4>
    6fc6:	c0258593          	addi	a1,a1,-1022 # c02 <DataModel_Init+0x332>
    6fca:	d7450513          	addi	a0,a0,-652 # cd74 <timers+0x3c>
    6fce:	22b040ef          	jal	ra,b9f8 <iprintf>
    6fd2:	a001                	j	6fd2 <vTaskSwitchContext+0x90>
    6fd4:	177d                	addi	a4,a4,-1
    6fd6:	bf71                	j	6f72 <vTaskSwitchContext+0x30>

00006fd8 <vTaskSuspend>:
    6fd8:	d2cf92ef          	jal	t0,504 <__riscv_save_4>
    6fdc:	842a                	mv	s0,a0
    6fde:	200009b7          	lui	s3,0x20000
    6fe2:	cbbfe0ef          	jal	ra,5c9c <vPortEnterCritical>
    6fe6:	66498993          	addi	s3,s3,1636 # 20000664 <pxCurrentTCB>
    6fea:	e019                	bnez	s0,6ff0 <vTaskSuspend+0x18>
    6fec:	0009a403          	lw	s0,0(s3)
    6ff0:	00440913          	addi	s2,s0,4
    6ff4:	854a                	mv	a0,s2
    6ff6:	d71fe0ef          	jal	ra,5d66 <uxListRemove>
    6ffa:	541c                	lw	a5,40(s0)
    6ffc:	c789                	beqz	a5,7006 <vTaskSuspend+0x2e>
    6ffe:	01840513          	addi	a0,s0,24
    7002:	d65fe0ef          	jal	ra,5d66 <uxListRemove>
    7006:	200034b7          	lui	s1,0x20003
    700a:	85ca                	mv	a1,s2
    700c:	13848513          	addi	a0,s1,312 # 20003138 <xSuspendedTaskList>
    7010:	d11fe0ef          	jal	ra,5d20 <vListInsertEnd>
    7014:	05844783          	lbu	a5,88(s0)
    7018:	4705                	li	a4,1
    701a:	8926                	mv	s2,s1
    701c:	00f71463          	bne	a4,a5,7024 <vTaskSuspend+0x4c>
    7020:	04040c23          	sb	zero,88(s0)
    7024:	05944783          	lbu	a5,89(s0)
    7028:	4705                	li	a4,1
    702a:	00f71463          	bne	a4,a5,7032 <vTaskSuspend+0x5a>
    702e:	04040ca3          	sb	zero,89(s0)
    7032:	05a44783          	lbu	a5,90(s0)
    7036:	4705                	li	a4,1
    7038:	00f71463          	bne	a4,a5,7040 <vTaskSuspend+0x68>
    703c:	04040d23          	sb	zero,90(s0)
    7040:	c73fe0ef          	jal	ra,5cb2 <vPortExitCritical>
    7044:	90c18713          	addi	a4,gp,-1780 # 2000068c <xSchedulerRunning>
    7048:	4318                	lw	a4,0(a4)
    704a:	90c18493          	addi	s1,gp,-1780 # 2000068c <xSchedulerRunning>
    704e:	c719                	beqz	a4,705c <vTaskSuspend+0x84>
    7050:	c4dfe0ef          	jal	ra,5c9c <vPortEnterCritical>
    7054:	fc6ff0ef          	jal	ra,681a <prvResetNextTaskUnblockTime>
    7058:	c5bfe0ef          	jal	ra,5cb2 <vPortExitCritical>
    705c:	0009a783          	lw	a5,0(s3)
    7060:	04879063          	bne	a5,s0,70a0 <vTaskSuspend+0xc8>
    7064:	409c                	lw	a5,0(s1)
    7066:	cf9d                	beqz	a5,70a4 <vTaskSuspend+0xcc>
    7068:	200007b7          	lui	a5,0x20000
    706c:	6747a783          	lw	a5,1652(a5) # 20000674 <uxSchedulerSuspended>
    7070:	c39d                	beqz	a5,7096 <vTaskSuspend+0xbe>
    7072:	6789                	lui	a5,0x2
    7074:	80078793          	addi	a5,a5,-2048 # 1800 <xGetAin+0x44>
    7078:	30079073          	csrw	mstatus,a5
    707c:	0000d637          	lui	a2,0xd
    7080:	0000d537          	lui	a0,0xd
    7084:	dfc60613          	addi	a2,a2,-516 # cdfc <timers+0xc4>
    7088:	6fd00593          	li	a1,1789
    708c:	d7450513          	addi	a0,a0,-652 # cd74 <timers+0x3c>
    7090:	169040ef          	jal	ra,b9f8 <iprintf>
    7094:	a001                	j	7094 <vTaskSuspend+0xbc>
    7096:	e000e7b7          	lui	a5,0xe000e
    709a:	6711                	lui	a4,0x4
    709c:	20e7a023          	sw	a4,512(a5) # e000e200 <__freertos_irq_stack_top+0xc0009200>
    70a0:	c98f906f          	j	538 <__riscv_restore_4>
    70a4:	13890793          	addi	a5,s2,312
    70a8:	4398                	lw	a4,0(a5)
    70aa:	200007b7          	lui	a5,0x20000
    70ae:	6707a783          	lw	a5,1648(a5) # 20000670 <uxCurrentNumberOfTasks>
    70b2:	00f71563          	bne	a4,a5,70bc <vTaskSuspend+0xe4>
    70b6:	0009a023          	sw	zero,0(s3)
    70ba:	b7dd                	j	70a0 <vTaskSuspend+0xc8>
    70bc:	e87ff0ef          	jal	ra,6f42 <vTaskSwitchContext>
    70c0:	b7c5                	j	70a0 <vTaskSuspend+0xc8>

000070c2 <vTaskPlaceOnEventList>:
    70c2:	c5cf92ef          	jal	t0,51e <__riscv_save_0>
    70c6:	e505                	bnez	a0,70ee <vTaskPlaceOnEventList+0x2c>
    70c8:	6789                	lui	a5,0x2
    70ca:	80078793          	addi	a5,a5,-2048 # 1800 <xGetAin+0x44>
    70ce:	30079073          	csrw	mstatus,a5
    70d2:	0000d637          	lui	a2,0xd
    70d6:	6585                	lui	a1,0x1
    70d8:	0000d537          	lui	a0,0xd
    70dc:	dfc60613          	addi	a2,a2,-516 # cdfc <timers+0xc4>
    70e0:	c1c58593          	addi	a1,a1,-996 # c1c <DataModel_Init+0x34c>
    70e4:	d7450513          	addi	a0,a0,-652 # cd74 <timers+0x3c>
    70e8:	111040ef          	jal	ra,b9f8 <iprintf>
    70ec:	a001                	j	70ec <vTaskPlaceOnEventList+0x2a>
    70ee:	200007b7          	lui	a5,0x20000
    70f2:	842e                	mv	s0,a1
    70f4:	6647a583          	lw	a1,1636(a5) # 20000664 <pxCurrentTCB>
    70f8:	05e1                	addi	a1,a1,24
    70fa:	c3ffe0ef          	jal	ra,5d38 <vListInsert>
    70fe:	4585                	li	a1,1
    7100:	8522                	mv	a0,s0
    7102:	851ff0ef          	jal	ra,6952 <prvAddCurrentTaskToDelayedList>
    7106:	c3cf906f          	j	542 <__riscv_restore_0>

0000710a <vTaskPlaceOnEventListRestricted>:
    710a:	c14f92ef          	jal	t0,51e <__riscv_save_0>
    710e:	872a                	mv	a4,a0
    7110:	e505                	bnez	a0,7138 <vTaskPlaceOnEventListRestricted+0x2e>
    7112:	6789                	lui	a5,0x2
    7114:	80078793          	addi	a5,a5,-2048 # 1800 <xGetAin+0x44>
    7118:	30079073          	csrw	mstatus,a5
    711c:	0000d637          	lui	a2,0xd
    7120:	6585                	lui	a1,0x1
    7122:	0000d537          	lui	a0,0xd
    7126:	dfc60613          	addi	a2,a2,-516 # cdfc <timers+0xc4>
    712a:	c5258593          	addi	a1,a1,-942 # c52 <DataModel_Init+0x382>
    712e:	d7450513          	addi	a0,a0,-652 # cd74 <timers+0x3c>
    7132:	0c7040ef          	jal	ra,b9f8 <iprintf>
    7136:	a001                	j	7136 <vTaskPlaceOnEventListRestricted+0x2c>
    7138:	200007b7          	lui	a5,0x20000
    713c:	66478793          	addi	a5,a5,1636 # 20000664 <pxCurrentTCB>
    7140:	4354                	lw	a3,4(a4)
    7142:	852e                	mv	a0,a1
    7144:	438c                	lw	a1,0(a5)
    7146:	0086a803          	lw	a6,8(a3)
    714a:	cdd4                	sw	a3,28(a1)
    714c:	438c                	lw	a1,0(a5)
    714e:	0305a023          	sw	a6,32(a1)
    7152:	0007a803          	lw	a6,0(a5)
    7156:	468c                	lw	a1,8(a3)
    7158:	0861                	addi	a6,a6,24
    715a:	0105a223          	sw	a6,4(a1)
    715e:	0007a803          	lw	a6,0(a5)
    7162:	439c                	lw	a5,0(a5)
    7164:	0861                	addi	a6,a6,24
    7166:	0106a423          	sw	a6,8(a3)
    716a:	d798                	sw	a4,40(a5)
    716c:	431c                	lw	a5,0(a4)
    716e:	0785                	addi	a5,a5,1
    7170:	c31c                	sw	a5,0(a4)
    7172:	c211                	beqz	a2,7176 <vTaskPlaceOnEventListRestricted+0x6c>
    7174:	557d                	li	a0,-1
    7176:	85b2                	mv	a1,a2
    7178:	fdaff0ef          	jal	ra,6952 <prvAddCurrentTaskToDelayedList>
    717c:	bc6f906f          	j	542 <__riscv_restore_0>

00007180 <xTaskRemoveFromEventList>:
    7180:	455c                	lw	a5,12(a0)
    7182:	47dc                	lw	a5,12(a5)
    7184:	e795                	bnez	a5,71b0 <xTaskRemoveFromEventList+0x30>
    7186:	b98f92ef          	jal	t0,51e <__riscv_save_0>
    718a:	6789                	lui	a5,0x2
    718c:	80078793          	addi	a5,a5,-2048 # 1800 <xGetAin+0x44>
    7190:	30079073          	csrw	mstatus,a5
    7194:	0000d637          	lui	a2,0xd
    7198:	6585                	lui	a1,0x1
    719a:	0000d537          	lui	a0,0xd
    719e:	dfc60613          	addi	a2,a2,-516 # cdfc <timers+0xc4>
    71a2:	c8258593          	addi	a1,a1,-894 # c82 <DataModel_Init+0x3b2>
    71a6:	d7450513          	addi	a0,a0,-652 # cd74 <timers+0x3c>
    71aa:	04f040ef          	jal	ra,b9f8 <iprintf>
    71ae:	a001                	j	71ae <xTaskRemoveFromEventList+0x2e>
    71b0:	4fd0                	lw	a2,28(a5)
    71b2:	5394                	lw	a3,32(a5)
    71b4:	5798                	lw	a4,40(a5)
    71b6:	01878593          	addi	a1,a5,24
    71ba:	c614                	sw	a3,8(a2)
    71bc:	c2d0                	sw	a2,4(a3)
    71be:	4350                	lw	a2,4(a4)
    71c0:	00b61363          	bne	a2,a1,71c6 <xTaskRemoveFromEventList+0x46>
    71c4:	c354                	sw	a3,4(a4)
    71c6:	4314                	lw	a3,0(a4)
    71c8:	0207a423          	sw	zero,40(a5)
    71cc:	16fd                	addi	a3,a3,-1
    71ce:	c314                	sw	a3,0(a4)
    71d0:	20000737          	lui	a4,0x20000
    71d4:	67472703          	lw	a4,1652(a4) # 20000674 <uxSchedulerSuspended>
    71d8:	57d4                	lw	a3,44(a5)
    71da:	eb35                	bnez	a4,724e <xTaskRemoveFromEventList+0xce>
    71dc:	478c                	lw	a1,8(a5)
    71de:	47d0                	lw	a2,12(a5)
    71e0:	4bd8                	lw	a4,20(a5)
    71e2:	c590                	sw	a2,8(a1)
    71e4:	47d0                	lw	a2,12(a5)
    71e6:	4348                	lw	a0,4(a4)
    71e8:	c24c                	sw	a1,4(a2)
    71ea:	00478593          	addi	a1,a5,4
    71ee:	00b51363          	bne	a0,a1,71f4 <xTaskRemoveFromEventList+0x74>
    71f2:	c350                	sw	a2,4(a4)
    71f4:	4310                	lw	a2,0(a4)
    71f6:	0007aa23          	sw	zero,20(a5)
    71fa:	167d                	addi	a2,a2,-1
    71fc:	c310                	sw	a2,0(a4)
    71fe:	20000737          	lui	a4,0x20000
    7202:	67c70713          	addi	a4,a4,1660 # 2000067c <uxTopReadyPriority>
    7206:	4310                	lw	a2,0(a4)
    7208:	00d67363          	bgeu	a2,a3,720e <xTaskRemoveFromEventList+0x8e>
    720c:	c314                	sw	a3,0(a4)
    720e:	4751                	li	a4,20
    7210:	02e68633          	mul	a2,a3,a4
    7214:	20003737          	lui	a4,0x20003
    7218:	fd070713          	addi	a4,a4,-48 # 20002fd0 <pxReadyTasksLists>
    721c:	9732                	add	a4,a4,a2
    721e:	4350                	lw	a2,4(a4)
    7220:	4608                	lw	a0,8(a2)
    7222:	c790                	sw	a2,8(a5)
    7224:	c7c8                	sw	a0,12(a5)
    7226:	4608                	lw	a0,8(a2)
    7228:	c14c                	sw	a1,4(a0)
    722a:	c60c                	sw	a1,8(a2)
    722c:	cbd8                	sw	a4,20(a5)
    722e:	431c                	lw	a5,0(a4)
    7230:	4501                	li	a0,0
    7232:	0785                	addi	a5,a5,1
    7234:	c31c                	sw	a5,0(a4)
    7236:	200007b7          	lui	a5,0x20000
    723a:	6647a783          	lw	a5,1636(a5) # 20000664 <pxCurrentTCB>
    723e:	57dc                	lw	a5,44(a5)
    7240:	00d7f663          	bgeu	a5,a3,724c <xTaskRemoveFromEventList+0xcc>
    7244:	4705                	li	a4,1
    7246:	90e1aa23          	sw	a4,-1772(gp) # 20000694 <xYieldPending>
    724a:	4505                	li	a0,1
    724c:	8082                	ret
    724e:	20003737          	lui	a4,0x20003
    7252:	12470713          	addi	a4,a4,292 # 20003124 <xPendingReadyList>
    7256:	4350                	lw	a2,4(a4)
    7258:	4608                	lw	a0,8(a2)
    725a:	cfd0                	sw	a2,28(a5)
    725c:	d388                	sw	a0,32(a5)
    725e:	4608                	lw	a0,8(a2)
    7260:	c14c                	sw	a1,4(a0)
    7262:	c60c                	sw	a1,8(a2)
    7264:	d798                	sw	a4,40(a5)
    7266:	b7e1                	j	722e <xTaskRemoveFromEventList+0xae>

00007268 <vTaskInternalSetTimeOutState>:
    7268:	9041a783          	lw	a5,-1788(gp) # 20000684 <xNumOfOverflows>
    726c:	c11c                	sw	a5,0(a0)
    726e:	9101a783          	lw	a5,-1776(gp) # 20000690 <xTickCount>
    7272:	c15c                	sw	a5,4(a0)
    7274:	8082                	ret

00007276 <xTaskCheckForTimeOut>:
    7276:	aa8f92ef          	jal	t0,51e <__riscv_save_0>
    727a:	1141                	addi	sp,sp,-16
    727c:	e505                	bnez	a0,72a4 <xTaskCheckForTimeOut+0x2e>
    727e:	6789                	lui	a5,0x2
    7280:	80078793          	addi	a5,a5,-2048 # 1800 <xGetAin+0x44>
    7284:	30079073          	csrw	mstatus,a5
    7288:	0000d637          	lui	a2,0xd
    728c:	6585                	lui	a1,0x1
    728e:	0000d537          	lui	a0,0xd
    7292:	dfc60613          	addi	a2,a2,-516 # cdfc <timers+0xc4>
    7296:	cfd58593          	addi	a1,a1,-771 # cfd <vGetBitrate+0x1f>
    729a:	d7450513          	addi	a0,a0,-652 # cd74 <timers+0x3c>
    729e:	75a040ef          	jal	ra,b9f8 <iprintf>
    72a2:	a001                	j	72a2 <xTaskCheckForTimeOut+0x2c>
    72a4:	e585                	bnez	a1,72cc <xTaskCheckForTimeOut+0x56>
    72a6:	6789                	lui	a5,0x2
    72a8:	80078793          	addi	a5,a5,-2048 # 1800 <xGetAin+0x44>
    72ac:	30079073          	csrw	mstatus,a5
    72b0:	0000d637          	lui	a2,0xd
    72b4:	6585                	lui	a1,0x1
    72b6:	0000d537          	lui	a0,0xd
    72ba:	dfc60613          	addi	a2,a2,-516 # cdfc <timers+0xc4>
    72be:	cfe58593          	addi	a1,a1,-770 # cfe <vGetBitrate+0x20>
    72c2:	d7450513          	addi	a0,a0,-652 # cd74 <timers+0x3c>
    72c6:	732040ef          	jal	ra,b9f8 <iprintf>
    72ca:	a001                	j	72ca <xTaskCheckForTimeOut+0x54>
    72cc:	c62e                	sw	a1,12(sp)
    72ce:	c42a                	sw	a0,8(sp)
    72d0:	9cdfe0ef          	jal	ra,5c9c <vPortEnterCritical>
    72d4:	45b2                	lw	a1,12(sp)
    72d6:	9101a683          	lw	a3,-1776(gp) # 20000690 <xTickCount>
    72da:	419c                	lw	a5,0(a1)
    72dc:	577d                	li	a4,-1
    72de:	4401                	li	s0,0
    72e0:	00e78f63          	beq	a5,a4,72fe <xTaskCheckForTimeOut+0x88>
    72e4:	4522                	lw	a0,8(sp)
    72e6:	9041a603          	lw	a2,-1788(gp) # 20000684 <xNumOfOverflows>
    72ea:	00052803          	lw	a6,0(a0)
    72ee:	4158                	lw	a4,4(a0)
    72f0:	00c80d63          	beq	a6,a2,730a <xTaskCheckForTimeOut+0x94>
    72f4:	00e6eb63          	bltu	a3,a4,730a <xTaskCheckForTimeOut+0x94>
    72f8:	0005a023          	sw	zero,0(a1)
    72fc:	4405                	li	s0,1
    72fe:	9b5fe0ef          	jal	ra,5cb2 <vPortExitCritical>
    7302:	8522                	mv	a0,s0
    7304:	0141                	addi	sp,sp,16
    7306:	a3cf906f          	j	542 <__riscv_restore_0>
    730a:	40e68633          	sub	a2,a3,a4
    730e:	fef675e3          	bgeu	a2,a5,72f8 <xTaskCheckForTimeOut+0x82>
    7312:	8f95                	sub	a5,a5,a3
    7314:	97ba                	add	a5,a5,a4
    7316:	c19c                	sw	a5,0(a1)
    7318:	f51ff0ef          	jal	ra,7268 <vTaskInternalSetTimeOutState>
    731c:	4401                	li	s0,0
    731e:	b7c5                	j	72fe <xTaskCheckForTimeOut+0x88>

00007320 <vTaskMissedYield>:
    7320:	4705                	li	a4,1
    7322:	90e1aa23          	sw	a4,-1772(gp) # 20000694 <xYieldPending>
    7326:	8082                	ret

00007328 <xTaskGetCurrentTaskHandle>:
    7328:	200007b7          	lui	a5,0x20000
    732c:	6647a503          	lw	a0,1636(a5) # 20000664 <pxCurrentTCB>
    7330:	8082                	ret

00007332 <xTaskGetSchedulerState>:
    7332:	90c1a783          	lw	a5,-1780(gp) # 2000068c <xSchedulerRunning>
    7336:	4505                	li	a0,1
    7338:	cb81                	beqz	a5,7348 <xTaskGetSchedulerState+0x16>
    733a:	200007b7          	lui	a5,0x20000
    733e:	6747a503          	lw	a0,1652(a5) # 20000674 <uxSchedulerSuspended>
    7342:	00153513          	seqz	a0,a0
    7346:	0506                	slli	a0,a0,0x1
    7348:	8082                	ret

0000734a <xTaskPriorityInherit>:
    734a:	c54d                	beqz	a0,73f4 <xTaskPriorityInherit+0xaa>
    734c:	9b8f92ef          	jal	t0,504 <__riscv_save_4>
    7350:	20000937          	lui	s2,0x20000
    7354:	66490793          	addi	a5,s2,1636 # 20000664 <pxCurrentTCB>
    7358:	4394                	lw	a3,0(a5)
    735a:	5558                	lw	a4,44(a0)
    735c:	66490913          	addi	s2,s2,1636
    7360:	56d4                	lw	a3,44(a3)
    7362:	08d77363          	bgeu	a4,a3,73e8 <xTaskPriorityInherit+0x9e>
    7366:	4d1c                	lw	a5,24(a0)
    7368:	0007c863          	bltz	a5,7378 <xTaskPriorityInherit+0x2e>
    736c:	00092783          	lw	a5,0(s2)
    7370:	57d4                	lw	a3,44(a5)
    7372:	47bd                	li	a5,15
    7374:	8f95                	sub	a5,a5,a3
    7376:	cd1c                	sw	a5,24(a0)
    7378:	4651                	li	a2,20
    737a:	02c70733          	mul	a4,a4,a2
    737e:	200037b7          	lui	a5,0x20003
    7382:	fd078693          	addi	a3,a5,-48 # 20002fd0 <pxReadyTasksLists>
    7386:	fd078493          	addi	s1,a5,-48
    738a:	9736                	add	a4,a4,a3
    738c:	4954                	lw	a3,20(a0)
    738e:	04e69863          	bne	a3,a4,73de <xTaskPriorityInherit+0x94>
    7392:	00450993          	addi	s3,a0,4
    7396:	842a                	mv	s0,a0
    7398:	854e                	mv	a0,s3
    739a:	9cdfe0ef          	jal	ra,5d66 <uxListRemove>
    739e:	00092783          	lw	a5,0(s2)
    73a2:	20000737          	lui	a4,0x20000
    73a6:	67c70713          	addi	a4,a4,1660 # 2000067c <uxTopReadyPriority>
    73aa:	57dc                	lw	a5,44(a5)
    73ac:	4314                	lw	a3,0(a4)
    73ae:	d45c                	sw	a5,44(s0)
    73b0:	00f6f363          	bgeu	a3,a5,73b6 <xTaskPriorityInherit+0x6c>
    73b4:	c31c                	sw	a5,0(a4)
    73b6:	4751                	li	a4,20
    73b8:	02e787b3          	mul	a5,a5,a4
    73bc:	97a6                	add	a5,a5,s1
    73be:	43d8                	lw	a4,4(a5)
    73c0:	4714                	lw	a3,8(a4)
    73c2:	c418                	sw	a4,8(s0)
    73c4:	c454                	sw	a3,12(s0)
    73c6:	4714                	lw	a3,8(a4)
    73c8:	0136a223          	sw	s3,4(a3)
    73cc:	01372423          	sw	s3,8(a4)
    73d0:	4398                	lw	a4,0(a5)
    73d2:	c85c                	sw	a5,20(s0)
    73d4:	0705                	addi	a4,a4,1
    73d6:	c398                	sw	a4,0(a5)
    73d8:	4505                	li	a0,1
    73da:	95ef906f          	j	538 <__riscv_restore_4>
    73de:	00092783          	lw	a5,0(s2)
    73e2:	57dc                	lw	a5,44(a5)
    73e4:	d55c                	sw	a5,44(a0)
    73e6:	bfcd                	j	73d8 <xTaskPriorityInherit+0x8e>
    73e8:	439c                	lw	a5,0(a5)
    73ea:	4168                	lw	a0,68(a0)
    73ec:	57dc                	lw	a5,44(a5)
    73ee:	00f53533          	sltu	a0,a0,a5
    73f2:	b7e5                	j	73da <xTaskPriorityInherit+0x90>
    73f4:	4501                	li	a0,0
    73f6:	8082                	ret

000073f8 <xTaskPriorityDisinherit>:
    73f8:	e511                	bnez	a0,7404 <xTaskPriorityDisinherit+0xc>
    73fa:	4501                	li	a0,0
    73fc:	8082                	ret
    73fe:	4501                	li	a0,0
    7400:	942f906f          	j	542 <__riscv_restore_0>
    7404:	91af92ef          	jal	t0,51e <__riscv_save_0>
    7408:	200007b7          	lui	a5,0x20000
    740c:	6647a783          	lw	a5,1636(a5) # 20000664 <pxCurrentTCB>
    7410:	842a                	mv	s0,a0
    7412:	02a78563          	beq	a5,a0,743c <xTaskPriorityDisinherit+0x44>
    7416:	6789                	lui	a5,0x2
    7418:	80078793          	addi	a5,a5,-2048 # 1800 <xGetAin+0x44>
    741c:	30079073          	csrw	mstatus,a5
    7420:	0000d637          	lui	a2,0xd
    7424:	6585                	lui	a1,0x1
    7426:	0000d537          	lui	a0,0xd
    742a:	dfc60613          	addi	a2,a2,-516 # cdfc <timers+0xc4>
    742e:	04f58593          	addi	a1,a1,79 # 104f <vRGBMode+0x57>
    7432:	d7450513          	addi	a0,a0,-652 # cd74 <timers+0x3c>
    7436:	5c2040ef          	jal	ra,b9f8 <iprintf>
    743a:	a001                	j	743a <xTaskPriorityDisinherit+0x42>
    743c:	47bc                	lw	a5,72(a5)
    743e:	e785                	bnez	a5,7466 <xTaskPriorityDisinherit+0x6e>
    7440:	6789                	lui	a5,0x2
    7442:	80078793          	addi	a5,a5,-2048 # 1800 <xGetAin+0x44>
    7446:	30079073          	csrw	mstatus,a5
    744a:	0000d637          	lui	a2,0xd
    744e:	6585                	lui	a1,0x1
    7450:	0000d537          	lui	a0,0xd
    7454:	dfc60613          	addi	a2,a2,-516 # cdfc <timers+0xc4>
    7458:	05058593          	addi	a1,a1,80 # 1050 <vRGBMode+0x58>
    745c:	d7450513          	addi	a0,a0,-652 # cd74 <timers+0x3c>
    7460:	598040ef          	jal	ra,b9f8 <iprintf>
    7464:	a001                	j	7464 <xTaskPriorityDisinherit+0x6c>
    7466:	5554                	lw	a3,44(a0)
    7468:	4178                	lw	a4,68(a0)
    746a:	17fd                	addi	a5,a5,-1
    746c:	c53c                	sw	a5,72(a0)
    746e:	f8e688e3          	beq	a3,a4,73fe <xTaskPriorityDisinherit+0x6>
    7472:	f7d1                	bnez	a5,73fe <xTaskPriorityDisinherit+0x6>
    7474:	00450493          	addi	s1,a0,4
    7478:	8526                	mv	a0,s1
    747a:	8edfe0ef          	jal	ra,5d66 <uxListRemove>
    747e:	407c                	lw	a5,68(s0)
    7480:	473d                	li	a4,15
    7482:	8f1d                	sub	a4,a4,a5
    7484:	cc18                	sw	a4,24(s0)
    7486:	20000737          	lui	a4,0x20000
    748a:	67c70713          	addi	a4,a4,1660 # 2000067c <uxTopReadyPriority>
    748e:	4314                	lw	a3,0(a4)
    7490:	d45c                	sw	a5,44(s0)
    7492:	00f6f363          	bgeu	a3,a5,7498 <xTaskPriorityDisinherit+0xa0>
    7496:	c31c                	sw	a5,0(a4)
    7498:	4751                	li	a4,20
    749a:	02e78733          	mul	a4,a5,a4
    749e:	200037b7          	lui	a5,0x20003
    74a2:	fd078793          	addi	a5,a5,-48 # 20002fd0 <pxReadyTasksLists>
    74a6:	4505                	li	a0,1
    74a8:	97ba                	add	a5,a5,a4
    74aa:	43d8                	lw	a4,4(a5)
    74ac:	4714                	lw	a3,8(a4)
    74ae:	c418                	sw	a4,8(s0)
    74b0:	c454                	sw	a3,12(s0)
    74b2:	4714                	lw	a3,8(a4)
    74b4:	c2c4                	sw	s1,4(a3)
    74b6:	c704                	sw	s1,8(a4)
    74b8:	4398                	lw	a4,0(a5)
    74ba:	c85c                	sw	a5,20(s0)
    74bc:	0705                	addi	a4,a4,1
    74be:	c398                	sw	a4,0(a5)
    74c0:	b781                	j	7400 <xTaskPriorityDisinherit+0x8>

000074c2 <vTaskPriorityDisinheritAfterTimeout>:
    74c2:	c175                	beqz	a0,75a6 <vTaskPriorityDisinheritAfterTimeout+0xe4>
    74c4:	85af92ef          	jal	t0,51e <__riscv_save_0>
    74c8:	4534                	lw	a3,72(a0)
    74ca:	842a                	mv	s0,a0
    74cc:	e685                	bnez	a3,74f4 <vTaskPriorityDisinheritAfterTimeout+0x32>
    74ce:	6789                	lui	a5,0x2
    74d0:	80078793          	addi	a5,a5,-2048 # 1800 <xGetAin+0x44>
    74d4:	30079073          	csrw	mstatus,a5
    74d8:	0000d637          	lui	a2,0xd
    74dc:	6585                	lui	a1,0x1
    74de:	0000d537          	lui	a0,0xd
    74e2:	dfc60613          	addi	a2,a2,-516 # cdfc <timers+0xc4>
    74e6:	09f58593          	addi	a1,a1,159 # 109f <vRGBMode+0xa7>
    74ea:	d7450513          	addi	a0,a0,-652 # cd74 <timers+0x3c>
    74ee:	50a040ef          	jal	ra,b9f8 <iprintf>
    74f2:	a001                	j	74f2 <vTaskPriorityDisinheritAfterTimeout+0x30>
    74f4:	417c                	lw	a5,68(a0)
    74f6:	00b7f363          	bgeu	a5,a1,74fc <vTaskPriorityDisinheritAfterTimeout+0x3a>
    74fa:	87ae                	mv	a5,a1
    74fc:	5458                	lw	a4,44(s0)
    74fe:	0af70263          	beq	a4,a5,75a2 <vTaskPriorityDisinheritAfterTimeout+0xe0>
    7502:	4605                	li	a2,1
    7504:	08c69f63          	bne	a3,a2,75a2 <vTaskPriorityDisinheritAfterTimeout+0xe0>
    7508:	200006b7          	lui	a3,0x20000
    750c:	6646a683          	lw	a3,1636(a3) # 20000664 <pxCurrentTCB>
    7510:	02869563          	bne	a3,s0,753a <vTaskPriorityDisinheritAfterTimeout+0x78>
    7514:	6789                	lui	a5,0x2
    7516:	80078793          	addi	a5,a5,-2048 # 1800 <xGetAin+0x44>
    751a:	30079073          	csrw	mstatus,a5
    751e:	0000d637          	lui	a2,0xd
    7522:	6585                	lui	a1,0x1
    7524:	0000d537          	lui	a0,0xd
    7528:	dfc60613          	addi	a2,a2,-516 # cdfc <timers+0xc4>
    752c:	0ba58593          	addi	a1,a1,186 # 10ba <vBarColorMode+0x4>
    7530:	d7450513          	addi	a0,a0,-652 # cd74 <timers+0x3c>
    7534:	4c4040ef          	jal	ra,b9f8 <iprintf>
    7538:	a001                	j	7538 <vTaskPriorityDisinheritAfterTimeout+0x76>
    753a:	4c14                	lw	a3,24(s0)
    753c:	d45c                	sw	a5,44(s0)
    753e:	0006c663          	bltz	a3,754a <vTaskPriorityDisinheritAfterTimeout+0x88>
    7542:	46bd                	li	a3,15
    7544:	40f687b3          	sub	a5,a3,a5
    7548:	cc1c                	sw	a5,24(s0)
    754a:	4651                	li	a2,20
    754c:	02c70733          	mul	a4,a4,a2
    7550:	200037b7          	lui	a5,0x20003
    7554:	fd078693          	addi	a3,a5,-48 # 20002fd0 <pxReadyTasksLists>
    7558:	fd078493          	addi	s1,a5,-48
    755c:	9736                	add	a4,a4,a3
    755e:	4854                	lw	a3,20(s0)
    7560:	04e69163          	bne	a3,a4,75a2 <vTaskPriorityDisinheritAfterTimeout+0xe0>
    7564:	00440913          	addi	s2,s0,4
    7568:	854a                	mv	a0,s2
    756a:	ffcfe0ef          	jal	ra,5d66 <uxListRemove>
    756e:	20000737          	lui	a4,0x20000
    7572:	67c70713          	addi	a4,a4,1660 # 2000067c <uxTopReadyPriority>
    7576:	545c                	lw	a5,44(s0)
    7578:	4314                	lw	a3,0(a4)
    757a:	00f6f363          	bgeu	a3,a5,7580 <vTaskPriorityDisinheritAfterTimeout+0xbe>
    757e:	c31c                	sw	a5,0(a4)
    7580:	4751                	li	a4,20
    7582:	02e787b3          	mul	a5,a5,a4
    7586:	97a6                	add	a5,a5,s1
    7588:	43d8                	lw	a4,4(a5)
    758a:	4714                	lw	a3,8(a4)
    758c:	c418                	sw	a4,8(s0)
    758e:	c454                	sw	a3,12(s0)
    7590:	4714                	lw	a3,8(a4)
    7592:	0126a223          	sw	s2,4(a3)
    7596:	01272423          	sw	s2,8(a4)
    759a:	4398                	lw	a4,0(a5)
    759c:	c85c                	sw	a5,20(s0)
    759e:	0705                	addi	a4,a4,1
    75a0:	c398                	sw	a4,0(a5)
    75a2:	fa1f806f          	j	542 <__riscv_restore_0>
    75a6:	8082                	ret

000075a8 <pvTaskIncrementMutexHeldCount>:
    75a8:	200007b7          	lui	a5,0x20000
    75ac:	66478713          	addi	a4,a5,1636 # 20000664 <pxCurrentTCB>
    75b0:	4318                	lw	a4,0(a4)
    75b2:	66478793          	addi	a5,a5,1636
    75b6:	c709                	beqz	a4,75c0 <pvTaskIncrementMutexHeldCount+0x18>
    75b8:	4394                	lw	a3,0(a5)
    75ba:	46b8                	lw	a4,72(a3)
    75bc:	0705                	addi	a4,a4,1
    75be:	c6b8                	sw	a4,72(a3)
    75c0:	4388                	lw	a0,0(a5)
    75c2:	8082                	ret

000075c4 <ulTaskGenericNotifyTake>:
    75c4:	f41f82ef          	jal	t0,504 <__riscv_save_4>
    75c8:	4789                	li	a5,2
    75ca:	1141                	addi	sp,sp,-16
    75cc:	02a7f563          	bgeu	a5,a0,75f6 <ulTaskGenericNotifyTake+0x32>
    75d0:	6789                	lui	a5,0x2
    75d2:	80078793          	addi	a5,a5,-2048 # 1800 <xGetAin+0x44>
    75d6:	30079073          	csrw	mstatus,a5
    75da:	0000d637          	lui	a2,0xd
    75de:	6585                	lui	a1,0x1
    75e0:	0000d537          	lui	a0,0xd
    75e4:	dfc60613          	addi	a2,a2,-516 # cdfc <timers+0xc4>
    75e8:	26658593          	addi	a1,a1,614 # 1266 <vRedrawTask+0x6>
    75ec:	d7450513          	addi	a0,a0,-652 # cd74 <timers+0x3c>
    75f0:	408040ef          	jal	ra,b9f8 <iprintf>
    75f4:	a001                	j	75f4 <ulTaskGenericNotifyTake+0x30>
    75f6:	892a                	mv	s2,a0
    75f8:	20000437          	lui	s0,0x20000
    75fc:	89ae                	mv	s3,a1
    75fe:	c632                	sw	a2,12(sp)
    7600:	e9cfe0ef          	jal	ra,5c9c <vPortEnterCritical>
    7604:	66440793          	addi	a5,s0,1636 # 20000664 <pxCurrentTCB>
    7608:	439c                	lw	a5,0(a5)
    760a:	01090493          	addi	s1,s2,16
    760e:	00249713          	slli	a4,s1,0x2
    7612:	97ba                	add	a5,a5,a4
    7614:	47dc                	lw	a5,12(a5)
    7616:	66440413          	addi	s0,s0,1636
    761a:	e38d                	bnez	a5,763c <ulTaskGenericNotifyTake+0x78>
    761c:	401c                	lw	a5,0(s0)
    761e:	4632                	lw	a2,12(sp)
    7620:	4705                	li	a4,1
    7622:	97ca                	add	a5,a5,s2
    7624:	04e78c23          	sb	a4,88(a5)
    7628:	ca11                	beqz	a2,763c <ulTaskGenericNotifyTake+0x78>
    762a:	4585                	li	a1,1
    762c:	8532                	mv	a0,a2
    762e:	b24ff0ef          	jal	ra,6952 <prvAddCurrentTaskToDelayedList>
    7632:	e000e7b7          	lui	a5,0xe000e
    7636:	6711                	lui	a4,0x4
    7638:	20e7a023          	sw	a4,512(a5) # e000e200 <__freertos_irq_stack_top+0xc0009200>
    763c:	e76fe0ef          	jal	ra,5cb2 <vPortExitCritical>
    7640:	e5cfe0ef          	jal	ra,5c9c <vPortEnterCritical>
    7644:	4018                	lw	a4,0(s0)
    7646:	00249793          	slli	a5,s1,0x2
    764a:	973e                	add	a4,a4,a5
    764c:	4748                	lw	a0,12(a4)
    764e:	c519                	beqz	a0,765c <ulTaskGenericNotifyTake+0x98>
    7650:	4018                	lw	a4,0(s0)
    7652:	02098063          	beqz	s3,7672 <ulTaskGenericNotifyTake+0xae>
    7656:	97ba                	add	a5,a5,a4
    7658:	0007a623          	sw	zero,12(a5)
    765c:	401c                	lw	a5,0(s0)
    765e:	c62a                	sw	a0,12(sp)
    7660:	993e                	add	s2,s2,a5
    7662:	04090c23          	sb	zero,88(s2)
    7666:	e4cfe0ef          	jal	ra,5cb2 <vPortExitCritical>
    766a:	4532                	lw	a0,12(sp)
    766c:	0141                	addi	sp,sp,16
    766e:	ecbf806f          	j	538 <__riscv_restore_4>
    7672:	fff50693          	addi	a3,a0,-1
    7676:	97ba                	add	a5,a5,a4
    7678:	c7d4                	sw	a3,12(a5)
    767a:	b7cd                	j	765c <ulTaskGenericNotifyTake+0x98>

0000767c <xTaskGenericNotifyWait>:
    767c:	e89f82ef          	jal	t0,504 <__riscv_save_4>
    7680:	4a09                	li	s4,2
    7682:	1141                	addi	sp,sp,-16
    7684:	02aa7563          	bgeu	s4,a0,76ae <xTaskGenericNotifyWait+0x32>
    7688:	6789                	lui	a5,0x2
    768a:	80078793          	addi	a5,a5,-2048 # 1800 <xGetAin+0x44>
    768e:	30079073          	csrw	mstatus,a5
    7692:	0000d637          	lui	a2,0xd
    7696:	6585                	lui	a1,0x1
    7698:	0000d537          	lui	a0,0xd
    769c:	dfc60613          	addi	a2,a2,-516 # cdfc <timers+0xc4>
    76a0:	2b058593          	addi	a1,a1,688 # 12b0 <vRedrawTask+0x50>
    76a4:	d7450513          	addi	a0,a0,-652 # cd74 <timers+0x3c>
    76a8:	350040ef          	jal	ra,b9f8 <iprintf>
    76ac:	a001                	j	76ac <xTaskGenericNotifyWait+0x30>
    76ae:	84aa                	mv	s1,a0
    76b0:	20000437          	lui	s0,0x20000
    76b4:	8932                	mv	s2,a2
    76b6:	89b6                	mv	s3,a3
    76b8:	c63a                	sw	a4,12(sp)
    76ba:	c42e                	sw	a1,8(sp)
    76bc:	de0fe0ef          	jal	ra,5c9c <vPortEnterCritical>
    76c0:	66440793          	addi	a5,s0,1636 # 20000664 <pxCurrentTCB>
    76c4:	439c                	lw	a5,0(a5)
    76c6:	66440413          	addi	s0,s0,1636
    76ca:	97a6                	add	a5,a5,s1
    76cc:	0587c783          	lbu	a5,88(a5)
    76d0:	02fa0c63          	beq	s4,a5,7708 <xTaskGenericNotifyWait+0x8c>
    76d4:	401c                	lw	a5,0(s0)
    76d6:	00249693          	slli	a3,s1,0x2
    76da:	45a2                	lw	a1,8(sp)
    76dc:	97b6                	add	a5,a5,a3
    76de:	47f4                	lw	a3,76(a5)
    76e0:	fff5c593          	not	a1,a1
    76e4:	4732                	lw	a4,12(sp)
    76e6:	8df5                	and	a1,a1,a3
    76e8:	c7ec                	sw	a1,76(a5)
    76ea:	401c                	lw	a5,0(s0)
    76ec:	4685                	li	a3,1
    76ee:	97a6                	add	a5,a5,s1
    76f0:	04d78c23          	sb	a3,88(a5)
    76f4:	cb11                	beqz	a4,7708 <xTaskGenericNotifyWait+0x8c>
    76f6:	853a                	mv	a0,a4
    76f8:	4585                	li	a1,1
    76fa:	a58ff0ef          	jal	ra,6952 <prvAddCurrentTaskToDelayedList>
    76fe:	e000e7b7          	lui	a5,0xe000e
    7702:	6711                	lui	a4,0x4
    7704:	20e7a023          	sw	a4,512(a5) # e000e200 <__freertos_irq_stack_top+0xc0009200>
    7708:	daafe0ef          	jal	ra,5cb2 <vPortExitCritical>
    770c:	d90fe0ef          	jal	ra,5c9c <vPortEnterCritical>
    7710:	00098a63          	beqz	s3,7724 <xTaskGenericNotifyWait+0xa8>
    7714:	401c                	lw	a5,0(s0)
    7716:	01048713          	addi	a4,s1,16
    771a:	070a                	slli	a4,a4,0x2
    771c:	97ba                	add	a5,a5,a4
    771e:	47dc                	lw	a5,12(a5)
    7720:	00f9a023          	sw	a5,0(s3)
    7724:	401c                	lw	a5,0(s0)
    7726:	4709                	li	a4,2
    7728:	4501                	li	a0,0
    772a:	97a6                	add	a5,a5,s1
    772c:	0587c783          	lbu	a5,88(a5)
    7730:	00f71e63          	bne	a4,a5,774c <xTaskGenericNotifyWait+0xd0>
    7734:	401c                	lw	a5,0(s0)
    7736:	00249713          	slli	a4,s1,0x2
    773a:	fff94913          	not	s2,s2
    773e:	97ba                	add	a5,a5,a4
    7740:	47f8                	lw	a4,76(a5)
    7742:	4505                	li	a0,1
    7744:	00e97933          	and	s2,s2,a4
    7748:	0527a623          	sw	s2,76(a5)
    774c:	401c                	lw	a5,0(s0)
    774e:	c42a                	sw	a0,8(sp)
    7750:	94be                	add	s1,s1,a5
    7752:	04048c23          	sb	zero,88(s1)
    7756:	d5cfe0ef          	jal	ra,5cb2 <vPortExitCritical>
    775a:	4522                	lw	a0,8(sp)
    775c:	0141                	addi	sp,sp,16
    775e:	ddbf806f          	j	538 <__riscv_restore_4>

00007762 <xTaskGenericNotify>:
    7762:	dbdf82ef          	jal	t0,51e <__riscv_save_0>
    7766:	4789                	li	a5,2
    7768:	1101                	addi	sp,sp,-32
    776a:	02b7f563          	bgeu	a5,a1,7794 <xTaskGenericNotify+0x32>
    776e:	6789                	lui	a5,0x2
    7770:	80078793          	addi	a5,a5,-2048 # 1800 <xGetAin+0x44>
    7774:	30079073          	csrw	mstatus,a5
    7778:	0000d637          	lui	a2,0xd
    777c:	6585                	lui	a1,0x1
    777e:	0000d537          	lui	a0,0xd
    7782:	dfc60613          	addi	a2,a2,-516 # cdfc <timers+0xc4>
    7786:	30858593          	addi	a1,a1,776 # 1308 <vRedrawTask+0xa8>
    778a:	d7450513          	addi	a0,a0,-652 # cd74 <timers+0x3c>
    778e:	26a040ef          	jal	ra,b9f8 <iprintf>
    7792:	a001                	j	7792 <xTaskGenericNotify+0x30>
    7794:	e505                	bnez	a0,77bc <xTaskGenericNotify+0x5a>
    7796:	6789                	lui	a5,0x2
    7798:	80078793          	addi	a5,a5,-2048 # 1800 <xGetAin+0x44>
    779c:	30079073          	csrw	mstatus,a5
    77a0:	0000d637          	lui	a2,0xd
    77a4:	6585                	lui	a1,0x1
    77a6:	0000d537          	lui	a0,0xd
    77aa:	dfc60613          	addi	a2,a2,-516 # cdfc <timers+0xc4>
    77ae:	30958593          	addi	a1,a1,777 # 1309 <vRedrawTask+0xa9>
    77b2:	d7450513          	addi	a0,a0,-652 # cd74 <timers+0x3c>
    77b6:	242040ef          	jal	ra,b9f8 <iprintf>
    77ba:	a001                	j	77ba <xTaskGenericNotify+0x58>
    77bc:	ce3a                	sw	a4,28(sp)
    77be:	cc36                	sw	a3,24(sp)
    77c0:	ca32                	sw	a2,20(sp)
    77c2:	c82e                	sw	a1,16(sp)
    77c4:	c62a                	sw	a0,12(sp)
    77c6:	cd6fe0ef          	jal	ra,5c9c <vPortEnterCritical>
    77ca:	4772                	lw	a4,28(sp)
    77cc:	4532                	lw	a0,12(sp)
    77ce:	45c2                	lw	a1,16(sp)
    77d0:	4652                	lw	a2,20(sp)
    77d2:	46e2                	lw	a3,24(sp)
    77d4:	c719                	beqz	a4,77e2 <xTaskGenericNotify+0x80>
    77d6:	01058793          	addi	a5,a1,16
    77da:	078a                	slli	a5,a5,0x2
    77dc:	97aa                	add	a5,a5,a0
    77de:	47dc                	lw	a5,12(a5)
    77e0:	c31c                	sw	a5,0(a4)
    77e2:	00b50733          	add	a4,a0,a1
    77e6:	05874783          	lbu	a5,88(a4) # 4058 <HW_LIB_GetKeyboardPeriod+0x6>
    77ea:	4809                	li	a6,2
    77ec:	05070c23          	sb	a6,88(a4)
    77f0:	4711                	li	a4,4
    77f2:	0ff7f793          	andi	a5,a5,255
    77f6:	04d76763          	bltu	a4,a3,7844 <xTaskGenericNotify+0xe2>
    77fa:	6735                	lui	a4,0xd
    77fc:	dd470713          	addi	a4,a4,-556 # cdd4 <timers+0x9c>
    7800:	068a                	slli	a3,a3,0x2
    7802:	96ba                	add	a3,a3,a4
    7804:	4298                	lw	a4,0(a3)
    7806:	8702                	jr	a4
    7808:	058a                	slli	a1,a1,0x2
    780a:	95aa                	add	a1,a1,a0
    780c:	45f8                	lw	a4,76(a1)
    780e:	8e59                	or	a2,a2,a4
    7810:	c5f0                	sw	a2,76(a1)
    7812:	4705                	li	a4,1
    7814:	04e78e63          	beq	a5,a4,7870 <xTaskGenericNotify+0x10e>
    7818:	4505                	li	a0,1
    781a:	c62a                	sw	a0,12(sp)
    781c:	c96fe0ef          	jal	ra,5cb2 <vPortExitCritical>
    7820:	4532                	lw	a0,12(sp)
    7822:	6105                	addi	sp,sp,32
    7824:	d1ff806f          	j	542 <__riscv_restore_0>
    7828:	058a                	slli	a1,a1,0x2
    782a:	95aa                	add	a1,a1,a0
    782c:	45f8                	lw	a4,76(a1)
    782e:	0705                	addi	a4,a4,1
    7830:	c5f8                	sw	a4,76(a1)
    7832:	b7c5                	j	7812 <xTaskGenericNotify+0xb0>
    7834:	4709                	li	a4,2
    7836:	0ce78c63          	beq	a5,a4,790e <xTaskGenericNotify+0x1ac>
    783a:	05c1                	addi	a1,a1,16
    783c:	058a                	slli	a1,a1,0x2
    783e:	95aa                	add	a1,a1,a0
    7840:	c5d0                	sw	a2,12(a1)
    7842:	bfc1                	j	7812 <xTaskGenericNotify+0xb0>
    7844:	9101a703          	lw	a4,-1776(gp) # 20000690 <xTickCount>
    7848:	d769                	beqz	a4,7812 <xTaskGenericNotify+0xb0>
    784a:	6789                	lui	a5,0x2
    784c:	80078793          	addi	a5,a5,-2048 # 1800 <xGetAin+0x44>
    7850:	30079073          	csrw	mstatus,a5
    7854:	0000d637          	lui	a2,0xd
    7858:	6585                	lui	a1,0x1
    785a:	0000d537          	lui	a0,0xd
    785e:	dfc60613          	addi	a2,a2,-516 # cdfc <timers+0xc4>
    7862:	33e58593          	addi	a1,a1,830 # 133e <vRedrawTask+0xde>
    7866:	d7450513          	addi	a0,a0,-652 # cd74 <timers+0x3c>
    786a:	18e040ef          	jal	ra,b9f8 <iprintf>
    786e:	a001                	j	786e <xTaskGenericNotify+0x10c>
    7870:	4514                	lw	a3,8(a0)
    7872:	4558                	lw	a4,12(a0)
    7874:	495c                	lw	a5,20(a0)
    7876:	00450613          	addi	a2,a0,4
    787a:	c698                	sw	a4,8(a3)
    787c:	4558                	lw	a4,12(a0)
    787e:	c354                	sw	a3,4(a4)
    7880:	43d4                	lw	a3,4(a5)
    7882:	00c69363          	bne	a3,a2,7888 <xTaskGenericNotify+0x126>
    7886:	c3d8                	sw	a4,4(a5)
    7888:	4398                	lw	a4,0(a5)
    788a:	00052a23          	sw	zero,20(a0)
    788e:	177d                	addi	a4,a4,-1
    7890:	c398                	sw	a4,0(a5)
    7892:	200007b7          	lui	a5,0x20000
    7896:	67c78793          	addi	a5,a5,1660 # 2000067c <uxTopReadyPriority>
    789a:	5558                	lw	a4,44(a0)
    789c:	4394                	lw	a3,0(a5)
    789e:	00e6f363          	bgeu	a3,a4,78a4 <xTaskGenericNotify+0x142>
    78a2:	c398                	sw	a4,0(a5)
    78a4:	47d1                	li	a5,20
    78a6:	02f706b3          	mul	a3,a4,a5
    78aa:	200037b7          	lui	a5,0x20003
    78ae:	fd078793          	addi	a5,a5,-48 # 20002fd0 <pxReadyTasksLists>
    78b2:	97b6                	add	a5,a5,a3
    78b4:	43d4                	lw	a3,4(a5)
    78b6:	468c                	lw	a1,8(a3)
    78b8:	c514                	sw	a3,8(a0)
    78ba:	c54c                	sw	a1,12(a0)
    78bc:	468c                	lw	a1,8(a3)
    78be:	c1d0                	sw	a2,4(a1)
    78c0:	c690                	sw	a2,8(a3)
    78c2:	4394                	lw	a3,0(a5)
    78c4:	c95c                	sw	a5,20(a0)
    78c6:	0685                	addi	a3,a3,1
    78c8:	c394                	sw	a3,0(a5)
    78ca:	551c                	lw	a5,40(a0)
    78cc:	c785                	beqz	a5,78f4 <xTaskGenericNotify+0x192>
    78ce:	6789                	lui	a5,0x2
    78d0:	80078793          	addi	a5,a5,-2048 # 1800 <xGetAin+0x44>
    78d4:	30079073          	csrw	mstatus,a5
    78d8:	0000d637          	lui	a2,0xd
    78dc:	6585                	lui	a1,0x1
    78de:	0000d537          	lui	a0,0xd
    78e2:	dfc60613          	addi	a2,a2,-516 # cdfc <timers+0xc4>
    78e6:	34d58593          	addi	a1,a1,845 # 134d <vRedrawTask+0xed>
    78ea:	d7450513          	addi	a0,a0,-652 # cd74 <timers+0x3c>
    78ee:	10a040ef          	jal	ra,b9f8 <iprintf>
    78f2:	a001                	j	78f2 <xTaskGenericNotify+0x190>
    78f4:	200007b7          	lui	a5,0x20000
    78f8:	6647a783          	lw	a5,1636(a5) # 20000664 <pxCurrentTCB>
    78fc:	57dc                	lw	a5,44(a5)
    78fe:	f0e7fde3          	bgeu	a5,a4,7818 <xTaskGenericNotify+0xb6>
    7902:	e000e7b7          	lui	a5,0xe000e
    7906:	6711                	lui	a4,0x4
    7908:	20e7a023          	sw	a4,512(a5) # e000e200 <__freertos_irq_stack_top+0xc0009200>
    790c:	b731                	j	7818 <xTaskGenericNotify+0xb6>
    790e:	4501                	li	a0,0
    7910:	b729                	j	781a <xTaskGenericNotify+0xb8>

00007912 <xTaskGenericNotifyFromISR>:
    7912:	c0df82ef          	jal	t0,51e <__riscv_save_0>
    7916:	1101                	addi	sp,sp,-32
    7918:	e505                	bnez	a0,7940 <xTaskGenericNotifyFromISR+0x2e>
    791a:	6789                	lui	a5,0x2
    791c:	80078793          	addi	a5,a5,-2048 # 1800 <xGetAin+0x44>
    7920:	30079073          	csrw	mstatus,a5
    7924:	0000d637          	lui	a2,0xd
    7928:	6585                	lui	a1,0x1
    792a:	0000d537          	lui	a0,0xd
    792e:	dfc60613          	addi	a2,a2,-516 # cdfc <timers+0xc4>
    7932:	38558593          	addi	a1,a1,901 # 1385 <vRedrawTask+0x125>
    7936:	d7450513          	addi	a0,a0,-652 # cd74 <timers+0x3c>
    793a:	0be040ef          	jal	ra,b9f8 <iprintf>
    793e:	a001                	j	793e <xTaskGenericNotifyFromISR+0x2c>
    7940:	842a                	mv	s0,a0
    7942:	4509                	li	a0,2
    7944:	02b57563          	bgeu	a0,a1,796e <xTaskGenericNotifyFromISR+0x5c>
    7948:	6789                	lui	a5,0x2
    794a:	80078793          	addi	a5,a5,-2048 # 1800 <xGetAin+0x44>
    794e:	30079073          	csrw	mstatus,a5
    7952:	0000d637          	lui	a2,0xd
    7956:	6585                	lui	a1,0x1
    7958:	0000d537          	lui	a0,0xd
    795c:	dfc60613          	addi	a2,a2,-516 # cdfc <timers+0xc4>
    7960:	38658593          	addi	a1,a1,902 # 1386 <vRedrawTask+0x126>
    7964:	d7450513          	addi	a0,a0,-652 # cd74 <timers+0x3c>
    7968:	090040ef          	jal	ra,b9f8 <iprintf>
    796c:	a001                	j	796c <xTaskGenericNotifyFromISR+0x5a>
    796e:	ce3e                	sw	a5,28(sp)
    7970:	cc3a                	sw	a4,24(sp)
    7972:	ca36                	sw	a3,20(sp)
    7974:	c832                	sw	a2,16(sp)
    7976:	c62e                	sw	a1,12(sp)
    7978:	b7cfe0ef          	jal	ra,5cf4 <xPortSetInterruptMask>
    797c:	4762                	lw	a4,24(sp)
    797e:	45b2                	lw	a1,12(sp)
    7980:	4642                	lw	a2,16(sp)
    7982:	46d2                	lw	a3,20(sp)
    7984:	47f2                	lw	a5,28(sp)
    7986:	cb09                	beqz	a4,7998 <xTaskGenericNotifyFromISR+0x86>
    7988:	01058813          	addi	a6,a1,16
    798c:	080a                	slli	a6,a6,0x2
    798e:	9822                	add	a6,a6,s0
    7990:	00c82803          	lw	a6,12(a6)
    7994:	01072023          	sw	a6,0(a4) # 4000 <bReadEEPROM+0x2>
    7998:	00b40833          	add	a6,s0,a1
    799c:	05884703          	lbu	a4,88(a6)
    79a0:	4889                	li	a7,2
    79a2:	05180c23          	sb	a7,88(a6)
    79a6:	4811                	li	a6,4
    79a8:	0ff77713          	andi	a4,a4,255
    79ac:	04d86663          	bltu	a6,a3,79f8 <xTaskGenericNotifyFromISR+0xe6>
    79b0:	6835                	lui	a6,0xd
    79b2:	068a                	slli	a3,a3,0x2
    79b4:	de880813          	addi	a6,a6,-536 # cde8 <timers+0xb0>
    79b8:	96c2                	add	a3,a3,a6
    79ba:	4294                	lw	a3,0(a3)
    79bc:	8682                	jr	a3
    79be:	058a                	slli	a1,a1,0x2
    79c0:	95a2                	add	a1,a1,s0
    79c2:	45f4                	lw	a3,76(a1)
    79c4:	8e55                	or	a2,a2,a3
    79c6:	c5f0                	sw	a2,76(a1)
    79c8:	4685                	li	a3,1
    79ca:	04d70d63          	beq	a4,a3,7a24 <xTaskGenericNotifyFromISR+0x112>
    79ce:	4405                	li	s0,1
    79d0:	b30fe0ef          	jal	ra,5d00 <vPortClearInterruptMask>
    79d4:	8522                	mv	a0,s0
    79d6:	6105                	addi	sp,sp,32
    79d8:	b6bf806f          	j	542 <__riscv_restore_0>
    79dc:	058a                	slli	a1,a1,0x2
    79de:	95a2                	add	a1,a1,s0
    79e0:	45f4                	lw	a3,76(a1)
    79e2:	0685                	addi	a3,a3,1
    79e4:	c5f4                	sw	a3,76(a1)
    79e6:	b7cd                	j	79c8 <xTaskGenericNotifyFromISR+0xb6>
    79e8:	4689                	li	a3,2
    79ea:	10d70863          	beq	a4,a3,7afa <xTaskGenericNotifyFromISR+0x1e8>
    79ee:	05c1                	addi	a1,a1,16
    79f0:	058a                	slli	a1,a1,0x2
    79f2:	95a2                	add	a1,a1,s0
    79f4:	c5d0                	sw	a2,12(a1)
    79f6:	bfc9                	j	79c8 <xTaskGenericNotifyFromISR+0xb6>
    79f8:	9101a683          	lw	a3,-1776(gp) # 20000690 <xTickCount>
    79fc:	d6f1                	beqz	a3,79c8 <xTaskGenericNotifyFromISR+0xb6>
    79fe:	6789                	lui	a5,0x2
    7a00:	80078793          	addi	a5,a5,-2048 # 1800 <xGetAin+0x44>
    7a04:	30079073          	csrw	mstatus,a5
    7a08:	0000d637          	lui	a2,0xd
    7a0c:	6585                	lui	a1,0x1
    7a0e:	0000d537          	lui	a0,0xd
    7a12:	dfc60613          	addi	a2,a2,-516 # cdfc <timers+0xc4>
    7a16:	3cd58593          	addi	a1,a1,973 # 13cd <vRedrawTask+0x16d>
    7a1a:	d7450513          	addi	a0,a0,-652 # cd74 <timers+0x3c>
    7a1e:	7db030ef          	jal	ra,b9f8 <iprintf>
    7a22:	a001                	j	7a22 <xTaskGenericNotifyFromISR+0x110>
    7a24:	5418                	lw	a4,40(s0)
    7a26:	c705                	beqz	a4,7a4e <xTaskGenericNotifyFromISR+0x13c>
    7a28:	6789                	lui	a5,0x2
    7a2a:	80078793          	addi	a5,a5,-2048 # 1800 <xGetAin+0x44>
    7a2e:	30079073          	csrw	mstatus,a5
    7a32:	0000d637          	lui	a2,0xd
    7a36:	6585                	lui	a1,0x1
    7a38:	0000d537          	lui	a0,0xd
    7a3c:	dfc60613          	addi	a2,a2,-516 # cdfc <timers+0xc4>
    7a40:	3d858593          	addi	a1,a1,984 # 13d8 <vRedrawTask+0x178>
    7a44:	d7450513          	addi	a0,a0,-652 # cd74 <timers+0x3c>
    7a48:	7b1030ef          	jal	ra,b9f8 <iprintf>
    7a4c:	a001                	j	7a4c <xTaskGenericNotifyFromISR+0x13a>
    7a4e:	20000737          	lui	a4,0x20000
    7a52:	67472703          	lw	a4,1652(a4) # 20000674 <uxSchedulerSuspended>
    7a56:	5450                	lw	a2,44(s0)
    7a58:	e341                	bnez	a4,7ad8 <xTaskGenericNotifyFromISR+0x1c6>
    7a5a:	440c                	lw	a1,8(s0)
    7a5c:	4454                	lw	a3,12(s0)
    7a5e:	4858                	lw	a4,20(s0)
    7a60:	c594                	sw	a3,8(a1)
    7a62:	4454                	lw	a3,12(s0)
    7a64:	00472803          	lw	a6,4(a4)
    7a68:	c2cc                	sw	a1,4(a3)
    7a6a:	00440593          	addi	a1,s0,4
    7a6e:	00b81363          	bne	a6,a1,7a74 <xTaskGenericNotifyFromISR+0x162>
    7a72:	c354                	sw	a3,4(a4)
    7a74:	4314                	lw	a3,0(a4)
    7a76:	00042a23          	sw	zero,20(s0)
    7a7a:	16fd                	addi	a3,a3,-1
    7a7c:	c314                	sw	a3,0(a4)
    7a7e:	20000737          	lui	a4,0x20000
    7a82:	67c70713          	addi	a4,a4,1660 # 2000067c <uxTopReadyPriority>
    7a86:	4314                	lw	a3,0(a4)
    7a88:	00c6f363          	bgeu	a3,a2,7a8e <xTaskGenericNotifyFromISR+0x17c>
    7a8c:	c310                	sw	a2,0(a4)
    7a8e:	4751                	li	a4,20
    7a90:	02e606b3          	mul	a3,a2,a4
    7a94:	20003737          	lui	a4,0x20003
    7a98:	fd070713          	addi	a4,a4,-48 # 20002fd0 <pxReadyTasksLists>
    7a9c:	9736                	add	a4,a4,a3
    7a9e:	4354                	lw	a3,4(a4)
    7aa0:	0086a803          	lw	a6,8(a3)
    7aa4:	c414                	sw	a3,8(s0)
    7aa6:	01042623          	sw	a6,12(s0)
    7aaa:	0086a803          	lw	a6,8(a3)
    7aae:	00b82223          	sw	a1,4(a6)
    7ab2:	c68c                	sw	a1,8(a3)
    7ab4:	c858                	sw	a4,20(s0)
    7ab6:	4314                	lw	a3,0(a4)
    7ab8:	0685                	addi	a3,a3,1
    7aba:	c314                	sw	a3,0(a4)
    7abc:	20000737          	lui	a4,0x20000
    7ac0:	66472703          	lw	a4,1636(a4) # 20000664 <pxCurrentTCB>
    7ac4:	5758                	lw	a4,44(a4)
    7ac6:	f0c774e3          	bgeu	a4,a2,79ce <xTaskGenericNotifyFromISR+0xbc>
    7aca:	c399                	beqz	a5,7ad0 <xTaskGenericNotifyFromISR+0x1be>
    7acc:	4705                	li	a4,1
    7ace:	c398                	sw	a4,0(a5)
    7ad0:	4705                	li	a4,1
    7ad2:	90e1aa23          	sw	a4,-1772(gp) # 20000694 <xYieldPending>
    7ad6:	bde5                	j	79ce <xTaskGenericNotifyFromISR+0xbc>
    7ad8:	20003737          	lui	a4,0x20003
    7adc:	12470713          	addi	a4,a4,292 # 20003124 <xPendingReadyList>
    7ae0:	4354                	lw	a3,4(a4)
    7ae2:	468c                	lw	a1,8(a3)
    7ae4:	cc54                	sw	a3,28(s0)
    7ae6:	d00c                	sw	a1,32(s0)
    7ae8:	0086a803          	lw	a6,8(a3)
    7aec:	01840593          	addi	a1,s0,24
    7af0:	00b82223          	sw	a1,4(a6)
    7af4:	c68c                	sw	a1,8(a3)
    7af6:	d418                	sw	a4,40(s0)
    7af8:	bf7d                	j	7ab6 <xTaskGenericNotifyFromISR+0x1a4>
    7afa:	4401                	li	s0,0
    7afc:	bdd1                	j	79d0 <xTaskGenericNotifyFromISR+0xbe>

00007afe <ulTaskGenericNotifyValueClear>:
    7afe:	a21f82ef          	jal	t0,51e <__riscv_save_0>
    7b02:	1141                	addi	sp,sp,-16
    7b04:	e509                	bnez	a0,7b0e <ulTaskGenericNotifyValueClear+0x10>
    7b06:	200007b7          	lui	a5,0x20000
    7b0a:	6647a503          	lw	a0,1636(a5) # 20000664 <pxCurrentTCB>
    7b0e:	c632                	sw	a2,12(sp)
    7b10:	c42e                	sw	a1,8(sp)
    7b12:	c22a                	sw	a0,4(sp)
    7b14:	988fe0ef          	jal	ra,5c9c <vPortEnterCritical>
    7b18:	45a2                	lw	a1,8(sp)
    7b1a:	4512                	lw	a0,4(sp)
    7b1c:	4632                	lw	a2,12(sp)
    7b1e:	058a                	slli	a1,a1,0x2
    7b20:	95aa                	add	a1,a1,a0
    7b22:	45e8                	lw	a0,76(a1)
    7b24:	45fc                	lw	a5,76(a1)
    7b26:	fff64613          	not	a2,a2
    7b2a:	c22a                	sw	a0,4(sp)
    7b2c:	8e7d                	and	a2,a2,a5
    7b2e:	c5f0                	sw	a2,76(a1)
    7b30:	982fe0ef          	jal	ra,5cb2 <vPortExitCritical>
    7b34:	4512                	lw	a0,4(sp)
    7b36:	0141                	addi	sp,sp,16
    7b38:	a0bf806f          	j	542 <__riscv_restore_0>

00007b3c <prvCheckForValidListAndQueue>:
    7b3c:	9e3f82ef          	jal	t0,51e <__riscv_save_0>
    7b40:	95cfe0ef          	jal	ra,5c9c <vPortEnterCritical>
    7b44:	92418413          	addi	s0,gp,-1756 # 200006a4 <xTimerQueue>
    7b48:	401c                	lw	a5,0(s0)
    7b4a:	ebb1                	bnez	a5,7b9e <prvCheckForValidListAndQueue+0x62>
    7b4c:	20003537          	lui	a0,0x20003
    7b50:	18c50913          	addi	s2,a0,396 # 2000318c <xActiveTimerList1>
    7b54:	18c50513          	addi	a0,a0,396
    7b58:	9aefe0ef          	jal	ra,5d06 <vListInitialise>
    7b5c:	20003537          	lui	a0,0x20003
    7b60:	1a050493          	addi	s1,a0,416 # 200031a0 <xActiveTimerList2>
    7b64:	1a050513          	addi	a0,a0,416
    7b68:	99efe0ef          	jal	ra,5d06 <vListInitialise>
    7b6c:	200036b7          	lui	a3,0x20003
    7b70:	20003637          	lui	a2,0x20003
    7b74:	9121ac23          	sw	s2,-1768(gp) # 20000698 <pxCurrentTimerList>
    7b78:	4701                	li	a4,0
    7b7a:	1b468693          	addi	a3,a3,436 # 200031b4 <xStaticTimerQueue.5817>
    7b7e:	14c60613          	addi	a2,a2,332 # 2000314c <ucStaticTimerQueueStorage.5818>
    7b82:	45c1                	li	a1,16
    7b84:	4511                	li	a0,4
    7b86:	9091ae23          	sw	s1,-1764(gp) # 2000069c <pxOverflowTimerList>
    7b8a:	beefe0ef          	jal	ra,5f78 <xQueueGenericCreateStatic>
    7b8e:	c008                	sw	a0,0(s0)
    7b90:	c519                	beqz	a0,7b9e <prvCheckForValidListAndQueue+0x62>
    7b92:	0000d5b7          	lui	a1,0xd
    7b96:	e3c58593          	addi	a1,a1,-452 # ce3c <timers+0x104>
    7b9a:	aa9fe0ef          	jal	ra,6642 <vQueueAddToRegistry>
    7b9e:	914fe0ef          	jal	ra,5cb2 <vPortExitCritical>
    7ba2:	9a1f806f          	j	542 <__riscv_restore_0>

00007ba6 <prvInsertTimerInActiveList>:
    7ba6:	979f82ef          	jal	t0,51e <__riscv_save_0>
    7baa:	c14c                	sw	a1,4(a0)
    7bac:	c908                	sw	a0,16(a0)
    7bae:	87aa                	mv	a5,a0
    7bb0:	02b66063          	bltu	a2,a1,7bd0 <prvInsertTimerInActiveList+0x2a>
    7bb4:	4d18                	lw	a4,24(a0)
    7bb6:	8e15                	sub	a2,a2,a3
    7bb8:	4505                	li	a0,1
    7bba:	00e67963          	bgeu	a2,a4,7bcc <prvInsertTimerInActiveList+0x26>
    7bbe:	00478593          	addi	a1,a5,4
    7bc2:	91c1a503          	lw	a0,-1764(gp) # 2000069c <pxOverflowTimerList>
    7bc6:	972fe0ef          	jal	ra,5d38 <vListInsert>
    7bca:	4501                	li	a0,0
    7bcc:	977f806f          	j	542 <__riscv_restore_0>
    7bd0:	00d67563          	bgeu	a2,a3,7bda <prvInsertTimerInActiveList+0x34>
    7bd4:	4505                	li	a0,1
    7bd6:	fed5fbe3          	bgeu	a1,a3,7bcc <prvInsertTimerInActiveList+0x26>
    7bda:	00478593          	addi	a1,a5,4
    7bde:	9181a503          	lw	a0,-1768(gp) # 20000698 <pxCurrentTimerList>
    7be2:	b7d5                	j	7bc6 <prvInsertTimerInActiveList+0x20>

00007be4 <prvReloadTimer>:
    7be4:	93bf82ef          	jal	t0,51e <__riscv_save_0>
    7be8:	842a                	mv	s0,a0
    7bea:	84ae                	mv	s1,a1
    7bec:	8932                	mv	s2,a2
    7bee:	4c0c                	lw	a1,24(s0)
    7bf0:	86a6                	mv	a3,s1
    7bf2:	864a                	mv	a2,s2
    7bf4:	95a6                	add	a1,a1,s1
    7bf6:	8522                	mv	a0,s0
    7bf8:	fafff0ef          	jal	ra,7ba6 <prvInsertTimerInActiveList>
    7bfc:	e119                	bnez	a0,7c02 <prvReloadTimer+0x1e>
    7bfe:	945f806f          	j	542 <__riscv_restore_0>
    7c02:	4c1c                	lw	a5,24(s0)
    7c04:	8522                	mv	a0,s0
    7c06:	94be                	add	s1,s1,a5
    7c08:	501c                	lw	a5,32(s0)
    7c0a:	9782                	jalr	a5
    7c0c:	b7cd                	j	7bee <prvReloadTimer+0xa>

00007c0e <prvProcessExpiredTimer>:
    7c0e:	911f82ef          	jal	t0,51e <__riscv_save_0>
    7c12:	9181a783          	lw	a5,-1768(gp) # 20000698 <pxCurrentTimerList>
    7c16:	1141                	addi	sp,sp,-16
    7c18:	84aa                	mv	s1,a0
    7c1a:	47dc                	lw	a5,12(a5)
    7c1c:	c62e                	sw	a1,12(sp)
    7c1e:	47c0                	lw	s0,12(a5)
    7c20:	00440513          	addi	a0,s0,4
    7c24:	942fe0ef          	jal	ra,5d66 <uxListRemove>
    7c28:	02444783          	lbu	a5,36(s0)
    7c2c:	4632                	lw	a2,12(sp)
    7c2e:	0047f713          	andi	a4,a5,4
    7c32:	cb19                	beqz	a4,7c48 <prvProcessExpiredTimer+0x3a>
    7c34:	85a6                	mv	a1,s1
    7c36:	8522                	mv	a0,s0
    7c38:	fadff0ef          	jal	ra,7be4 <prvReloadTimer>
    7c3c:	501c                	lw	a5,32(s0)
    7c3e:	8522                	mv	a0,s0
    7c40:	9782                	jalr	a5
    7c42:	0141                	addi	sp,sp,16
    7c44:	8fff806f          	j	542 <__riscv_restore_0>
    7c48:	9bf9                	andi	a5,a5,-2
    7c4a:	02f40223          	sb	a5,36(s0)
    7c4e:	b7fd                	j	7c3c <prvProcessExpiredTimer+0x2e>

00007c50 <prvSwitchTimerLists>:
    7c50:	8cff82ef          	jal	t0,51e <__riscv_save_0>
    7c54:	91818693          	addi	a3,gp,-1768 # 20000698 <pxCurrentTimerList>
    7c58:	4298                	lw	a4,0(a3)
    7c5a:	431c                	lw	a5,0(a4)
    7c5c:	eb81                	bnez	a5,7c6c <prvSwitchTimerLists+0x1c>
    7c5e:	91c18793          	addi	a5,gp,-1764 # 2000069c <pxOverflowTimerList>
    7c62:	4390                	lw	a2,0(a5)
    7c64:	c398                	sw	a4,0(a5)
    7c66:	c290                	sw	a2,0(a3)
    7c68:	8dbf806f          	j	542 <__riscv_restore_0>
    7c6c:	475c                	lw	a5,12(a4)
    7c6e:	55fd                	li	a1,-1
    7c70:	4388                	lw	a0,0(a5)
    7c72:	f9dff0ef          	jal	ra,7c0e <prvProcessExpiredTimer>
    7c76:	bff9                	j	7c54 <prvSwitchTimerLists+0x4>

00007c78 <prvTimerTask>:
    7c78:	87ff82ef          	jal	t0,4f6 <__riscv_save_10>
    7c7c:	6935                	lui	s2,0xd
    7c7e:	1141                	addi	sp,sp,-16
    7c80:	e1890913          	addi	s2,s2,-488 # ce18 <timers+0xe0>
    7c84:	9181a783          	lw	a5,-1768(gp) # 20000698 <pxCurrentTimerList>
    7c88:	4398                	lw	a4,0(a5)
    7c8a:	cb29                	beqz	a4,7cdc <prvTimerTask+0x64>
    7c8c:	47dc                	lw	a5,12(a5)
    7c8e:	4c81                	li	s9,0
    7c90:	0007ac03          	lw	s8,0(a5)
    7c94:	f43fe0ef          	jal	ra,6bd6 <vTaskSuspendAll>
    7c98:	f4ffe0ef          	jal	ra,6be6 <xTaskGetTickCount>
    7c9c:	9201a783          	lw	a5,-1760(gp) # 200006a0 <xLastTime.5774>
    7ca0:	842a                	mv	s0,a0
    7ca2:	92018493          	addi	s1,gp,-1760 # 200006a0 <xLastTime.5774>
    7ca6:	92418a13          	addi	s4,gp,-1756 # 200006a4 <xTimerQueue>
    7caa:	02f56c63          	bltu	a0,a5,7ce2 <prvTimerTask+0x6a>
    7cae:	c088                	sw	a0,0(s1)
    7cb0:	040c8063          	beqz	s9,7cf0 <prvTimerTask+0x78>
    7cb4:	91c1a783          	lw	a5,-1764(gp) # 2000069c <pxOverflowTimerList>
    7cb8:	4390                	lw	a2,0(a5)
    7cba:	00163613          	seqz	a2,a2
    7cbe:	000a2503          	lw	a0,0(s4)
    7cc2:	408c05b3          	sub	a1,s8,s0
    7cc6:	9e9fe0ef          	jal	ra,66ae <vQueueWaitForMessageRestricted>
    7cca:	8baff0ef          	jal	ra,6d84 <xTaskResumeAll>
    7cce:	ed19                	bnez	a0,7cec <prvTimerTask+0x74>
    7cd0:	e000e7b7          	lui	a5,0xe000e
    7cd4:	6711                	lui	a4,0x4
    7cd6:	20e7a023          	sw	a4,512(a5) # e000e200 <__freertos_irq_stack_top+0xc0009200>
    7cda:	a809                	j	7cec <prvTimerTask+0x74>
    7cdc:	4c85                	li	s9,1
    7cde:	4c01                	li	s8,0
    7ce0:	bf55                	j	7c94 <prvTimerTask+0x1c>
    7ce2:	f6fff0ef          	jal	ra,7c50 <prvSwitchTimerLists>
    7ce6:	c080                	sw	s0,0(s1)
    7ce8:	89cff0ef          	jal	ra,6d84 <xTaskResumeAll>
    7cec:	4c21                	li	s8,8
    7cee:	a00d                	j	7d10 <prvTimerTask+0x98>
    7cf0:	4601                	li	a2,0
    7cf2:	fd8566e3          	bltu	a0,s8,7cbe <prvTimerTask+0x46>
    7cf6:	88eff0ef          	jal	ra,6d84 <xTaskResumeAll>
    7cfa:	85a2                	mv	a1,s0
    7cfc:	8562                	mv	a0,s8
    7cfe:	f11ff0ef          	jal	ra,7c0e <prvProcessExpiredTimer>
    7d02:	b7ed                	j	7cec <prvTimerTask+0x74>
    7d04:	4792                	lw	a5,4(sp)
    7d06:	45b2                	lw	a1,12(sp)
    7d08:	9782                	jalr	a5
    7d0a:	4782                	lw	a5,0(sp)
    7d0c:	0007dd63          	bgez	a5,7d26 <prvTimerTask+0xae>
    7d10:	000a2503          	lw	a0,0(s4)
    7d14:	4601                	li	a2,0
    7d16:	858a                	mv	a1,sp
    7d18:	dacfe0ef          	jal	ra,62c4 <xQueueReceive>
    7d1c:	d525                	beqz	a0,7c84 <prvTimerTask+0xc>
    7d1e:	4782                	lw	a5,0(sp)
    7d20:	4522                	lw	a0,8(sp)
    7d22:	fe07c1e3          	bltz	a5,7d04 <prvTimerTask+0x8c>
    7d26:	4422                	lw	s0,8(sp)
    7d28:	485c                	lw	a5,20(s0)
    7d2a:	e39d                	bnez	a5,7d50 <prvTimerTask+0xd8>
    7d2c:	ebbfe0ef          	jal	ra,6be6 <xTaskGetTickCount>
    7d30:	409c                	lw	a5,0(s1)
    7d32:	8caa                	mv	s9,a0
    7d34:	00f57463          	bgeu	a0,a5,7d3c <prvTimerTask+0xc4>
    7d38:	f19ff0ef          	jal	ra,7c50 <prvSwitchTimerLists>
    7d3c:	4782                	lw	a5,0(sp)
    7d3e:	0194a023          	sw	s9,0(s1)
    7d42:	17fd                	addi	a5,a5,-1
    7d44:	fcfc66e3          	bltu	s8,a5,7d10 <prvTimerTask+0x98>
    7d48:	078a                	slli	a5,a5,0x2
    7d4a:	97ca                	add	a5,a5,s2
    7d4c:	439c                	lw	a5,0(a5)
    7d4e:	8782                	jr	a5
    7d50:	00440513          	addi	a0,s0,4
    7d54:	812fe0ef          	jal	ra,5d66 <uxListRemove>
    7d58:	bfd1                	j	7d2c <prvTimerTask+0xb4>
    7d5a:	02444783          	lbu	a5,36(s0)
    7d5e:	4c0c                	lw	a1,24(s0)
    7d60:	4692                	lw	a3,4(sp)
    7d62:	0017e793          	ori	a5,a5,1
    7d66:	02f40223          	sb	a5,36(s0)
    7d6a:	8666                	mv	a2,s9
    7d6c:	95b6                	add	a1,a1,a3
    7d6e:	8522                	mv	a0,s0
    7d70:	e37ff0ef          	jal	ra,7ba6 <prvInsertTimerInActiveList>
    7d74:	dd51                	beqz	a0,7d10 <prvTimerTask+0x98>
    7d76:	02444783          	lbu	a5,36(s0)
    7d7a:	0047f713          	andi	a4,a5,4
    7d7e:	cf01                	beqz	a4,7d96 <prvTimerTask+0x11e>
    7d80:	4c1c                	lw	a5,24(s0)
    7d82:	4592                	lw	a1,4(sp)
    7d84:	8666                	mv	a2,s9
    7d86:	8522                	mv	a0,s0
    7d88:	95be                	add	a1,a1,a5
    7d8a:	e5bff0ef          	jal	ra,7be4 <prvReloadTimer>
    7d8e:	501c                	lw	a5,32(s0)
    7d90:	8522                	mv	a0,s0
    7d92:	9782                	jalr	a5
    7d94:	bfb5                	j	7d10 <prvTimerTask+0x98>
    7d96:	9bf9                	andi	a5,a5,-2
    7d98:	02f40223          	sb	a5,36(s0)
    7d9c:	bfcd                	j	7d8e <prvTimerTask+0x116>
    7d9e:	02444783          	lbu	a5,36(s0)
    7da2:	9bf9                	andi	a5,a5,-2
    7da4:	02f40223          	sb	a5,36(s0)
    7da8:	b7a5                	j	7d10 <prvTimerTask+0x98>
    7daa:	02444783          	lbu	a5,36(s0)
    7dae:	4592                	lw	a1,4(sp)
    7db0:	0017e793          	ori	a5,a5,1
    7db4:	02f40223          	sb	a5,36(s0)
    7db8:	cc0c                	sw	a1,24(s0)
    7dba:	e19d                	bnez	a1,7de0 <prvTimerTask+0x168>
    7dbc:	6789                	lui	a5,0x2
    7dbe:	80078793          	addi	a5,a5,-2048 # 1800 <xGetAin+0x44>
    7dc2:	30079073          	csrw	mstatus,a5
    7dc6:	0000d637          	lui	a2,0xd
    7dca:	0000d537          	lui	a0,0xd
    7dce:	e4460613          	addi	a2,a2,-444 # ce44 <timers+0x10c>
    7dd2:	35900593          	li	a1,857
    7dd6:	d7450513          	addi	a0,a0,-652 # cd74 <timers+0x3c>
    7dda:	41f030ef          	jal	ra,b9f8 <iprintf>
    7dde:	a001                	j	7dde <prvTimerTask+0x166>
    7de0:	86e6                	mv	a3,s9
    7de2:	8666                	mv	a2,s9
    7de4:	95e6                	add	a1,a1,s9
    7de6:	8522                	mv	a0,s0
    7de8:	dbfff0ef          	jal	ra,7ba6 <prvInsertTimerInActiveList>
    7dec:	b715                	j	7d10 <prvTimerTask+0x98>
    7dee:	02444783          	lbu	a5,36(s0)
    7df2:	0027f713          	andi	a4,a5,2
    7df6:	f755                	bnez	a4,7da2 <prvTimerTask+0x12a>
    7df8:	8522                	mv	a0,s0
    7dfa:	cb1fd0ef          	jal	ra,5aaa <vPortFree>
    7dfe:	bf09                	j	7d10 <prvTimerTask+0x98>

00007e00 <xTimerCreateTimerTask>:
    7e00:	f1ef82ef          	jal	t0,51e <__riscv_save_0>
    7e04:	1141                	addi	sp,sp,-16
    7e06:	d37ff0ef          	jal	ra,7b3c <prvCheckForValidListAndQueue>
    7e0a:	9241a783          	lw	a5,-1756(gp) # 200006a4 <xTimerQueue>
    7e0e:	cb95                	beqz	a5,7e42 <xTimerCreateTimerTask+0x42>
    7e10:	0070                	addi	a2,sp,12
    7e12:	002c                	addi	a1,sp,8
    7e14:	0048                	addi	a0,sp,4
    7e16:	c202                	sw	zero,4(sp)
    7e18:	c402                	sw	zero,8(sp)
    7e1a:	c62fa0ef          	jal	ra,227c <vApplicationGetTimerTaskMemory>
    7e1e:	47a2                	lw	a5,8(sp)
    7e20:	4812                	lw	a6,4(sp)
    7e22:	4632                	lw	a2,12(sp)
    7e24:	0000d5b7          	lui	a1,0xd
    7e28:	00008537          	lui	a0,0x8
    7e2c:	4739                	li	a4,14
    7e2e:	4681                	li	a3,0
    7e30:	e5c58593          	addi	a1,a1,-420 # ce5c <timers+0x124>
    7e34:	c7850513          	addi	a0,a0,-904 # 7c78 <prvTimerTask>
    7e38:	bbffe0ef          	jal	ra,69f6 <xTaskCreateStatic>
    7e3c:	92a1a423          	sw	a0,-1752(gp) # 200006a8 <xTimerTaskHandle>
    7e40:	e11d                	bnez	a0,7e66 <xTimerCreateTimerTask+0x66>
    7e42:	6789                	lui	a5,0x2
    7e44:	80078793          	addi	a5,a5,-2048 # 1800 <xGetAin+0x44>
    7e48:	30079073          	csrw	mstatus,a5
    7e4c:	0000d637          	lui	a2,0xd
    7e50:	0000d537          	lui	a0,0xd
    7e54:	e4460613          	addi	a2,a2,-444 # ce44 <timers+0x10c>
    7e58:	11900593          	li	a1,281
    7e5c:	d7450513          	addi	a0,a0,-652 # cd74 <timers+0x3c>
    7e60:	399030ef          	jal	ra,b9f8 <iprintf>
    7e64:	a001                	j	7e64 <xTimerCreateTimerTask+0x64>
    7e66:	4505                	li	a0,1
    7e68:	0141                	addi	sp,sp,16
    7e6a:	ed8f806f          	j	542 <__riscv_restore_0>

00007e6e <vRCFilter>:
    7e6e:	219e                	lhu	a5,0(a1)
    7e70:	1141                	addi	sp,sp,-16
    7e72:	c42a                	sw	a0,8(sp)
    7e74:	c63e                	sw	a5,12(sp)
    7e76:	47b2                	lw	a5,12(sp)
    7e78:	4722                	lw	a4,8(sp)
    7e7a:	0c800693          	li	a3,200
    7e7e:	02d787b3          	mul	a5,a5,a3
    7e82:	03800693          	li	a3,56
    7e86:	02d70733          	mul	a4,a4,a3
    7e8a:	97ba                	add	a5,a5,a4
    7e8c:	83a1                	srli	a5,a5,0x8
    7e8e:	07c2                	slli	a5,a5,0x10
    7e90:	83c1                	srli	a5,a5,0x10
    7e92:	837c                	sh	a5,6(sp)
    7e94:	833c                	lhu	a5,6(sp)
    7e96:	8328                	lhu	a0,6(sp)
    7e98:	a19e                	sh	a5,0(a1)
    7e9a:	0141                	addi	sp,sp,16
    7e9c:	8082                	ret

00007e9e <RunAvrageFilter>:
    7e9e:	e80f82ef          	jal	t0,51e <__riscv_save_0>
    7ea2:	4184                	lw	s1,0(a1)
    7ea4:	842e                	mv	s0,a1
    7ea6:	8d05                	sub	a0,a0,s1
    7ea8:	69e030ef          	jal	ra,b546 <__floatsisf>
    7eac:	444c                	lw	a1,12(s0)
    7eae:	3b2030ef          	jal	ra,b260 <__mulsf3>
    7eb2:	892a                	mv	s2,a0
    7eb4:	8526                	mv	a0,s1
    7eb6:	756030ef          	jal	ra,b60c <__floatunsisf>
    7eba:	85aa                	mv	a1,a0
    7ebc:	854a                	mv	a0,s2
    7ebe:	58b020ef          	jal	ra,ac48 <__addsf3>
    7ec2:	62e030ef          	jal	ra,b4f0 <__fixunssfsi>
    7ec6:	c008                	sw	a0,0(s0)
    7ec8:	e7af806f          	j	542 <__riscv_restore_0>

00007ecc <MedianFilter>:
    7ecc:	219c                	lbu	a5,0(a1)
    7ece:	1141                	addi	sp,sp,-16
    7ed0:	00279713          	slli	a4,a5,0x2
    7ed4:	972e                	add	a4,a4,a1
    7ed6:	0785                	addi	a5,a5,1
    7ed8:	c348                	sw	a0,4(a4)
    7eda:	0ff7f793          	andi	a5,a5,255
    7ede:	4709                	li	a4,2
    7ee0:	00f76d63          	bltu	a4,a5,7efa <MedianFilter+0x2e>
    7ee4:	a19c                	sb	a5,0(a1)
    7ee6:	41dc                	lw	a5,4(a1)
    7ee8:	4709                	li	a4,2
    7eea:	587d                	li	a6,-1
    7eec:	c23e                	sw	a5,4(sp)
    7eee:	459c                	lw	a5,8(a1)
    7ef0:	c43e                	sw	a5,8(sp)
    7ef2:	45dc                	lw	a5,12(a1)
    7ef4:	c63e                	sw	a5,12(sp)
    7ef6:	4781                	li	a5,0
    7ef8:	a80d                	j	7f2a <MedianFilter+0x5e>
    7efa:	00058023          	sb	zero,0(a1)
    7efe:	b7e5                	j	7ee6 <MedianFilter+0x1a>
    7f00:	00279613          	slli	a2,a5,0x2
    7f04:	0814                	addi	a3,sp,16
    7f06:	0785                	addi	a5,a5,1
    7f08:	9636                	add	a2,a2,a3
    7f0a:	0808                	addi	a0,sp,16
    7f0c:	00279693          	slli	a3,a5,0x2
    7f10:	96aa                	add	a3,a3,a0
    7f12:	ff462583          	lw	a1,-12(a2)
    7f16:	ff46a503          	lw	a0,-12(a3)
    7f1a:	00b57663          	bgeu	a0,a1,7f26 <MedianFilter+0x5a>
    7f1e:	fea62a23          	sw	a0,-12(a2)
    7f22:	feb6aa23          	sw	a1,-12(a3)
    7f26:	0ff7f793          	andi	a5,a5,255
    7f2a:	fce7cbe3          	blt	a5,a4,7f00 <MedianFilter+0x34>
    7f2e:	177d                	addi	a4,a4,-1
    7f30:	fd0713e3          	bne	a4,a6,7ef6 <MedianFilter+0x2a>
    7f34:	4522                	lw	a0,8(sp)
    7f36:	47b2                	lw	a5,12(sp)
    7f38:	0141                	addi	sp,sp,16
    7f3a:	953e                	add	a0,a0,a5
    7f3c:	8105                	srli	a0,a0,0x1
    7f3e:	8082                	ret

00007f40 <Delay_Init>:
    7f40:	200007b7          	lui	a5,0x20000
    7f44:	5807a783          	lw	a5,1408(a5) # 20000580 <SystemCoreClock>
    7f48:	007a1737          	lui	a4,0x7a1
    7f4c:	20070713          	addi	a4,a4,512 # 7a1200 <_data_lma+0x793a68>
    7f50:	02e7d7b3          	divu	a5,a5,a4
    7f54:	0ff7f793          	andi	a5,a5,255
    7f58:	92f18723          	sb	a5,-1746(gp) # 200006ae <p_us>
    7f5c:	3e800713          	li	a4,1000
    7f60:	02e787b3          	mul	a5,a5,a4
    7f64:	92f19623          	sh	a5,-1748(gp) # 200006ac <p_ms>
    7f68:	8082                	ret

00007f6a <Delay_Ms>:
    7f6a:	e000f7b7          	lui	a5,0xe000f
    7f6e:	43d8                	lw	a4,4(a5)
    7f70:	4681                	li	a3,0
    7f72:	9b79                	andi	a4,a4,-2
    7f74:	c3d8                	sw	a4,4(a5)
    7f76:	92c1d703          	lhu	a4,-1748(gp) # 200006ac <p_ms>
    7f7a:	02a70633          	mul	a2,a4,a0
    7f7e:	cb90                	sw	a2,16(a5)
    7f80:	cbd4                	sw	a3,20(a5)
    7f82:	4398                	lw	a4,0(a5)
    7f84:	01076713          	ori	a4,a4,16
    7f88:	c398                	sw	a4,0(a5)
    7f8a:	4398                	lw	a4,0(a5)
    7f8c:	02176713          	ori	a4,a4,33
    7f90:	c398                	sw	a4,0(a5)
    7f92:	43d8                	lw	a4,4(a5)
    7f94:	8b05                	andi	a4,a4,1
    7f96:	df75                	beqz	a4,7f92 <Delay_Ms+0x28>
    7f98:	4398                	lw	a4,0(a5)
    7f9a:	9b79                	andi	a4,a4,-2
    7f9c:	c398                	sw	a4,0(a5)
    7f9e:	8082                	ret

00007fa0 <USART_Printf_Init>:
    7fa0:	d7ef82ef          	jal	t0,51e <__riscv_save_0>
    7fa4:	842a                	mv	s0,a0
    7fa6:	6511                	lui	a0,0x4
    7fa8:	1101                	addi	sp,sp,-32
    7faa:	4585                	li	a1,1
    7fac:	0511                	addi	a0,a0,4
    7fae:	d40fb0ef          	jal	ra,34ee <RCC_APB2PeriphClockCmd>
    7fb2:	20000793          	li	a5,512
    7fb6:	827c                	sh	a5,4(sp)
    7fb8:	40011537          	lui	a0,0x40011
    7fbc:	478d                	li	a5,3
    7fbe:	c43e                	sw	a5,8(sp)
    7fc0:	004c                	addi	a1,sp,4
    7fc2:	47e1                	li	a5,24
    7fc4:	80050513          	addi	a0,a0,-2048 # 40010800 <__freertos_irq_stack_top+0x2000b800>
    7fc8:	c63e                	sw	a5,12(sp)
    7fca:	ecffa0ef          	jal	ra,2e98 <GPIO_Init>
    7fce:	c822                	sw	s0,16(sp)
    7fd0:	40014437          	lui	s0,0x40014
    7fd4:	000807b7          	lui	a5,0x80
    7fd8:	080c                	addi	a1,sp,16
    7fda:	80040513          	addi	a0,s0,-2048 # 40013800 <__freertos_irq_stack_top+0x2000e800>
    7fde:	cc3e                	sw	a5,24(sp)
    7fe0:	ca02                	sw	zero,20(sp)
    7fe2:	00011e23          	sh	zero,28(sp)
    7fe6:	b53fb0ef          	jal	ra,3b38 <USART_Init>
    7fea:	4585                	li	a1,1
    7fec:	80040513          	addi	a0,s0,-2048
    7ff0:	c05fb0ef          	jal	ra,3bf4 <USART_Cmd>
    7ff4:	6105                	addi	sp,sp,32
    7ff6:	d4cf806f          	j	542 <__riscv_restore_0>

00007ffa <_write>:
    7ffa:	d0af82ef          	jal	t0,504 <__riscv_save_4>
    7ffe:	400144b7          	lui	s1,0x40014
    8002:	89ae                	mv	s3,a1
    8004:	8932                	mv	s2,a2
    8006:	4401                	li	s0,0
    8008:	80048493          	addi	s1,s1,-2048 # 40013800 <__freertos_irq_stack_top+0x2000e800>
    800c:	01244563          	blt	s0,s2,8016 <_write+0x1c>
    8010:	854a                	mv	a0,s2
    8012:	d26f806f          	j	538 <__riscv_restore_4>
    8016:	04000593          	li	a1,64
    801a:	8526                	mv	a0,s1
    801c:	bf7fb0ef          	jal	ra,3c12 <USART_GetFlagStatus>
    8020:	d97d                	beqz	a0,8016 <_write+0x1c>
    8022:	008987b3          	add	a5,s3,s0
    8026:	00078583          	lb	a1,0(a5) # 80000 <_data_lma+0x72868>
    802a:	8526                	mv	a0,s1
    802c:	0405                	addi	s0,s0,1
    802e:	05c2                	slli	a1,a1,0x10
    8030:	81c1                	srli	a1,a1,0x10
    8032:	bd9fb0ef          	jal	ra,3c0a <USART_SendData>
    8036:	bfd9                	j	800c <_write+0x12>

00008038 <_sbrk>:
    8038:	81018713          	addi	a4,gp,-2032 # 20000590 <curbrk.4668>
    803c:	431c                	lw	a5,0(a4)
    803e:	200036b7          	lui	a3,0x20003
    8042:	20068693          	addi	a3,a3,512 # 20003200 <_ebss>
    8046:	953e                	add	a0,a0,a5
    8048:	00d56b63          	bltu	a0,a3,805e <_sbrk+0x26>
    804c:	200056b7          	lui	a3,0x20005
    8050:	80068693          	addi	a3,a3,-2048 # 20004800 <_heap_end>
    8054:	00a6e563          	bltu	a3,a0,805e <_sbrk+0x26>
    8058:	c308                	sw	a0,0(a4)
    805a:	853e                	mv	a0,a5
    805c:	8082                	ret
    805e:	57fd                	li	a5,-1
    8060:	bfed                	j	805a <_sbrk+0x22>

00008062 <__get_MEPC>:
    8062:	34102573          	csrr	a0,mepc
    8066:	8082                	ret

00008068 <__get_MCAUSE>:
    8068:	34202573          	csrr	a0,mcause
    806c:	8082                	ret

0000806e <__get_MTVAL>:
    806e:	34302573          	csrr	a0,mtval
    8072:	8082                	ret

00008074 <prv_read_can_received_msg>:
    8074:	caaf82ef          	jal	t0,51e <__riscv_save_0>
    8078:	1101                	addi	sp,sp,-32
    807a:	080c                	addi	a1,sp,16
    807c:	c38fc0ef          	jal	ra,44b4 <HAL_CANGetRXMessage>
    8080:	01414603          	lbu	a2,20(sp)
    8084:	4442                	lw	s0,16(sp)
    8086:	01510593          	addi	a1,sp,21
    808a:	00510513          	addi	a0,sp,5
    808e:	c022                	sw	s0,0(sp)
    8090:	8250                	sb	a2,4(sp)
    8092:	6cc030ef          	jal	ra,b75e <memcpy>
    8096:	9301a703          	lw	a4,-1744(gp) # 200006b0 <CANModule_local>
    809a:	435c                	lw	a5,4(a4)
    809c:	2718                	lbu	a4,8(a4)
    809e:	cb19                	beqz	a4,80b4 <prv_read_can_received_msg+0x40>
    80a0:	2396                	lhu	a3,0(a5)
    80a2:	23b2                	lhu	a2,2(a5)
    80a4:	8ea1                	xor	a3,a3,s0
    80a6:	8ef1                	and	a3,a3,a2
    80a8:	ea89                	bnez	a3,80ba <prv_read_can_received_msg+0x46>
    80aa:	4798                	lw	a4,8(a5)
    80ac:	c701                	beqz	a4,80b4 <prv_read_can_received_msg+0x40>
    80ae:	43c8                	lw	a0,4(a5)
    80b0:	858a                	mv	a1,sp
    80b2:	9702                	jalr	a4
    80b4:	6105                	addi	sp,sp,32
    80b6:	c8cf806f          	j	542 <__riscv_restore_0>
    80ba:	177d                	addi	a4,a4,-1
    80bc:	0ff77713          	andi	a4,a4,255
    80c0:	07b1                	addi	a5,a5,12
    80c2:	bff1                	j	809e <prv_read_can_received_msg+0x2a>

000080c4 <prv_send_can_message.isra.0>:
    80c4:	c5af82ef          	jal	t0,51e <__riscv_save_0>
    80c8:	2150                	lbu	a2,4(a0)
    80ca:	411c                	lw	a5,0(a0)
    80cc:	1141                	addi	sp,sp,-16
    80ce:	00550593          	addi	a1,a0,5
    80d2:	00510513          	addi	a0,sp,5
    80d6:	8250                	sb	a2,4(sp)
    80d8:	c03e                	sw	a5,0(sp)
    80da:	684030ef          	jal	ra,b75e <memcpy>
    80de:	850a                	mv	a0,sp
    80e0:	b4afc0ef          	jal	ra,442a <HAL_CANSend>
    80e4:	1571                	addi	a0,a0,-4
    80e6:	00a03533          	snez	a0,a0
    80ea:	0141                	addi	sp,sp,16
    80ec:	c56f806f          	j	542 <__riscv_restore_0>

000080f0 <CAN_SendMessage>:
    80f0:	c2ef82ef          	jal	t0,51e <__riscv_save_0>
    80f4:	9301a783          	lw	a5,-1744(gp) # 200006b0 <CANModule_local>
    80f8:	0207a023          	sw	zero,32(a5)
    80fc:	0007ae23          	sw	zero,28(a5)
    8100:	33da                	lhu	a4,36(a5)
    8102:	0742                	slli	a4,a4,0x10
    8104:	8341                	srli	a4,a4,0x10
    8106:	c305                	beqz	a4,8126 <CAN_SendMessage+0x36>
    8108:	47c4                	lw	s1,12(a5)
    810a:	93018413          	addi	s0,gp,-1744 # 200006b0 <CANModule_local>
    810e:	b8ffd0ef          	jal	ra,5c9c <vPortEnterCritical>
    8112:	401c                	lw	a5,0(s0)
    8114:	0107d903          	lhu	s2,16(a5)
    8118:	00091963          	bnez	s2,812a <CAN_SendMessage+0x3a>
    811c:	401c                	lw	a5,0(s0)
    811e:	02079223          	sh	zero,36(a5)
    8122:	b91fd0ef          	jal	ra,5cb2 <vPortExitCritical>
    8126:	c1cf806f          	j	542 <__riscv_restore_0>
    812a:	489c                	lw	a5,16(s1)
    812c:	cf99                	beqz	a5,814a <CAN_SendMessage+0x5a>
    812e:	8526                	mv	a0,s1
    8130:	f95ff0ef          	jal	ra,80c4 <prv_send_can_message.isra.0>
    8134:	c919                	beqz	a0,814a <CAN_SendMessage+0x5a>
    8136:	4018                	lw	a4,0(s0)
    8138:	0004a823          	sw	zero,16(s1)
    813c:	335e                	lhu	a5,36(a4)
    813e:	17fd                	addi	a5,a5,-1
    8140:	07c2                	slli	a5,a5,0x10
    8142:	83c1                	srli	a5,a5,0x10
    8144:	b35e                	sh	a5,36(a4)
    8146:	48dc                	lw	a5,20(s1)
    8148:	cf5c                	sw	a5,28(a4)
    814a:	197d                	addi	s2,s2,-1
    814c:	0942                	slli	s2,s2,0x10
    814e:	01095913          	srli	s2,s2,0x10
    8152:	04e1                	addi	s1,s1,24
    8154:	b7d1                	j	8118 <CAN_SendMessage+0x28>

00008156 <co_drv_create_os_objects>:
    8156:	bc8f82ef          	jal	t0,51e <__riscv_save_0>
    815a:	4511                	li	a0,4
    815c:	93afe0ef          	jal	ra,6296 <xQueueCreateMutex>
    8160:	92a1ae23          	sw	a0,-1732(gp) # 200006bc <co_mutex>
    8164:	460d                	li	a2,3
    8166:	4581                	li	a1,0
    8168:	4505                	li	a0,1
    816a:	ebdfd0ef          	jal	ra,6026 <xQueueGenericCreate>
    816e:	92a1aa23          	sw	a0,-1740(gp) # 200006b4 <co_drv_app_thread_sync_semaphore>
    8172:	460d                	li	a2,3
    8174:	4581                	li	a1,0
    8176:	4505                	li	a0,1
    8178:	eaffd0ef          	jal	ra,6026 <xQueueGenericCreate>
    817c:	92a1ac23          	sw	a0,-1736(gp) # 200006b8 <co_drv_periodic_thread_sync_semaphore>
    8180:	4505                	li	a0,1
    8182:	bc0f806f          	j	542 <__riscv_restore_0>

00008186 <co_drv_mutex_lock>:
    8186:	b98f82ef          	jal	t0,51e <__riscv_save_0>
    818a:	93c1a503          	lw	a0,-1732(gp) # 200006bc <co_mutex>
    818e:	55fd                	li	a1,-1
    8190:	c58fe0ef          	jal	ra,65e8 <xQueueTakeMutexRecursive>
    8194:	157d                	addi	a0,a0,-1
    8196:	00153513          	seqz	a0,a0
    819a:	ba8f806f          	j	542 <__riscv_restore_0>

0000819e <co_drv_mutex_unlock>:
    819e:	b80f82ef          	jal	t0,51e <__riscv_save_0>
    81a2:	93c1a503          	lw	a0,-1732(gp) # 200006bc <co_mutex>
    81a6:	89afe0ef          	jal	ra,6240 <xQueueGiveMutexRecursive>
    81aa:	157d                	addi	a0,a0,-1
    81ac:	00153513          	seqz	a0,a0
    81b0:	b92f806f          	j	542 <__riscv_restore_0>

000081b4 <CO_CANsetConfigurationMode>:
    81b4:	c519                	beqz	a0,81c2 <CO_CANsetConfigurationMode+0xe>
    81b6:	b68f82ef          	jal	t0,51e <__riscv_save_0>
    81ba:	a44fc0ef          	jal	ra,43fe <HAL_CANToInitMode>
    81be:	b84f806f          	j	542 <__riscv_restore_0>
    81c2:	8082                	ret

000081c4 <CO_CANsetNormalMode>:
    81c4:	411c                	lw	a5,0(a0)
    81c6:	cf81                	beqz	a5,81de <CO_CANsetNormalMode+0x1a>
    81c8:	b56f82ef          	jal	t0,51e <__riscv_save_0>
    81cc:	842a                	mv	s0,a0
    81ce:	a46fc0ef          	jal	ra,4414 <HAL_CANToOperatingMode>
    81d2:	4785                	li	a5,1
    81d4:	00f51363          	bne	a0,a5,81da <CO_CANsetNormalMode+0x16>
    81d8:	c848                	sw	a0,20(s0)
    81da:	b68f806f          	j	542 <__riscv_restore_0>
    81de:	8082                	ret

000081e0 <CO_CANmodule_init>:
    81e0:	10050563          	beqz	a0,82ea <CO_CANmodule_init+0x10a>
    81e4:	88aa                	mv	a7,a0
    81e6:	557d                	li	a0,-1
    81e8:	10060363          	beqz	a2,82ee <CO_CANmodule_init+0x10e>
    81ec:	10070163          	beqz	a4,82ee <CO_CANmodule_init+0x10e>
    81f0:	b2ef82ef          	jal	t0,51e <__riscv_save_0>
    81f4:	0008aa23          	sw	zero,20(a7)
    81f8:	00b8a023          	sw	a1,0(a7)
    81fc:	0216b593          	sltiu	a1,a3,33
    8200:	00b8ac23          	sw	a1,24(a7)
    8204:	0008ae23          	sw	zero,28(a7)
    8208:	4585                	li	a1,1
    820a:	02b8a023          	sw	a1,32(a7)
    820e:	9311a823          	sw	a7,-1744(gp) # 200006b0 <CANModule_local>
    8212:	00c8a223          	sw	a2,4(a7)
    8216:	00d89423          	sh	a3,8(a7)
    821a:	00e8a623          	sw	a4,12(a7)
    821e:	00f89823          	sh	a5,16(a7)
    8222:	00089923          	sh	zero,18(a7)
    8226:	02089223          	sh	zero,36(a7)
    822a:	0208a423          	sw	zero,40(a7)
    822e:	4581                	li	a1,0
    8230:	557d                	li	a0,-1
    8232:	08d59963          	bne	a1,a3,82c4 <CO_CANmodule_init+0xe4>
    8236:	4681                	li	a3,0
    8238:	45e1                	li	a1,24
    823a:	01069613          	slli	a2,a3,0x10
    823e:	8241                	srli	a2,a2,0x10
    8240:	08f66e63          	bltu	a2,a5,82dc <CO_CANmodule_init+0xfc>
    8244:	8542                	mv	a0,a6
    8246:	460d                	li	a2,3
    8248:	4585                	li	a1,1
    824a:	890fc0ef          	jal	ra,42da <HAL_CANIntIT>
    824e:	ac1f80ef          	jal	ra,d0e <vGetNodeId>
    8252:	842a                	mv	s0,a0
    8254:	abbf80ef          	jal	ra,d0e <vGetNodeId>
    8258:	84aa                	mv	s1,a0
    825a:	ab5f80ef          	jal	ra,d0e <vGetNodeId>
    825e:	892a                	mv	s2,a0
    8260:	aaff80ef          	jal	ra,d0e <vGetNodeId>
    8264:	40056713          	ori	a4,a0,1024
    8268:	30096693          	ori	a3,s2,768
    826c:	2004e613          	ori	a2,s1,512
    8270:	18046593          	ori	a1,s0,384
    8274:	4781                	li	a5,0
    8276:	4501                	li	a0,0
    8278:	a02fc0ef          	jal	ra,447a <HAL_CANSetFiters>
    827c:	a93f80ef          	jal	ra,d0e <vGetNodeId>
    8280:	842a                	mv	s0,a0
    8282:	a8df80ef          	jal	ra,d0e <vGetNodeId>
    8286:	60056613          	ori	a2,a0,1536
    828a:	4785                	li	a5,1
    828c:	4701                	li	a4,0
    828e:	4681                	li	a3,0
    8290:	50046593          	ori	a1,s0,1280
    8294:	4505                	li	a0,1
    8296:	9e4fc0ef          	jal	ra,447a <HAL_CANSetFiters>
    829a:	00008537          	lui	a0,0x8
    829e:	0f050513          	addi	a0,a0,240 # 80f0 <CAN_SendMessage>
    82a2:	81afc0ef          	jal	ra,42bc <HAL_CANSetTXCallback>
    82a6:	00002537          	lui	a0,0x2
    82aa:	ebc50513          	addi	a0,a0,-324 # 1ebc <vRestartNode>
    82ae:	822fc0ef          	jal	ra,42d0 <HAL_CANSetERRCallback>
    82b2:	00008537          	lui	a0,0x8
    82b6:	07450513          	addi	a0,a0,116 # 8074 <prv_read_can_received_msg>
    82ba:	80cfc0ef          	jal	ra,42c6 <HAL_CANSetRXCallback>
    82be:	4501                	li	a0,0
    82c0:	a82f806f          	j	542 <__riscv_restore_0>
    82c4:	0585                	addi	a1,a1,1
    82c6:	05c2                	slli	a1,a1,0x10
    82c8:	00061023          	sh	zero,0(a2)
    82cc:	a22a                	sh	a0,2(a2)
    82ce:	00062223          	sw	zero,4(a2)
    82d2:	00062423          	sw	zero,8(a2)
    82d6:	81c1                	srli	a1,a1,0x10
    82d8:	0631                	addi	a2,a2,12
    82da:	bfa1                	j	8232 <CO_CANmodule_init+0x52>
    82dc:	02b68633          	mul	a2,a3,a1
    82e0:	0685                	addi	a3,a3,1
    82e2:	963a                	add	a2,a2,a4
    82e4:	00062823          	sw	zero,16(a2)
    82e8:	bf89                	j	823a <CO_CANmodule_init+0x5a>
    82ea:	557d                	li	a0,-1
    82ec:	8082                	ret
    82ee:	8082                	ret

000082f0 <CO_CANmodule_disable>:
    82f0:	c909                	beqz	a0,8302 <CO_CANmodule_disable+0x12>
    82f2:	411c                	lw	a5,0(a0)
    82f4:	c799                	beqz	a5,8302 <CO_CANmodule_disable+0x12>
    82f6:	a28f82ef          	jal	t0,51e <__riscv_save_0>
    82fa:	904fc0ef          	jal	ra,43fe <HAL_CANToInitMode>
    82fe:	a44f806f          	j	542 <__riscv_restore_0>
    8302:	8082                	ret

00008304 <CO_CANrxBufferInit>:
    8304:	88aa                	mv	a7,a0
    8306:	557d                	li	a0,-1
    8308:	04088663          	beqz	a7,8354 <CO_CANrxBufferInit+0x50>
    830c:	c7a1                	beqz	a5,8354 <CO_CANrxBufferInit+0x50>
    830e:	04080363          	beqz	a6,8354 <CO_CANrxBufferInit+0x50>
    8312:	0088d303          	lhu	t1,8(a7)
    8316:	0265ff63          	bgeu	a1,t1,8354 <CO_CANrxBufferInit+0x50>
    831a:	4531                	li	a0,12
    831c:	02a58533          	mul	a0,a1,a0
    8320:	0048a583          	lw	a1,4(a7)
    8324:	7ff67613          	andi	a2,a2,2047
    8328:	95aa                	add	a1,a1,a0
    832a:	c1dc                	sw	a5,4(a1)
    832c:	0105a423          	sw	a6,8(a1)
    8330:	ef09                	bnez	a4,834a <CO_CANrxBufferInit+0x46>
    8332:	6785                	lui	a5,0x1
    8334:	80078793          	addi	a5,a5,-2048 # 800 <__stack_size>
    8338:	7ff6f693          	andi	a3,a3,2047
    833c:	8edd                	or	a3,a3,a5
    833e:	a192                	sh	a2,0(a1)
    8340:	a1b6                	sh	a3,2(a1)
    8342:	0188a783          	lw	a5,24(a7)
    8346:	4501                	li	a0,0
    8348:	8082                	ret
    834a:	6785                	lui	a5,0x1
    834c:	80078793          	addi	a5,a5,-2048 # 800 <__stack_size>
    8350:	8e5d                	or	a2,a2,a5
    8352:	b7c5                	j	8332 <CO_CANrxBufferInit+0x2e>
    8354:	8082                	ret

00008356 <CO_CANtxBufferInit>:
    8356:	4801                	li	a6,0
    8358:	c915                	beqz	a0,838c <CO_CANtxBufferInit+0x36>
    835a:	01055883          	lhu	a7,16(a0)
    835e:	4801                	li	a6,0
    8360:	0315f663          	bgeu	a1,a7,838c <CO_CANtxBufferInit+0x36>
    8364:	4861                	li	a6,24
    8366:	030585b3          	mul	a1,a1,a6
    836a:	00c52803          	lw	a6,12(a0)
    836e:	00d036b3          	snez	a3,a3
    8372:	7ff67613          	andi	a2,a2,2047
    8376:	06be                	slli	a3,a3,0xf
    8378:	8e55                	or	a2,a2,a3
    837a:	982e                	add	a6,a6,a1
    837c:	00082823          	sw	zero,16(a6)
    8380:	00c82023          	sw	a2,0(a6)
    8384:	00e80223          	sb	a4,4(a6)
    8388:	00f82a23          	sw	a5,20(a6)
    838c:	8542                	mv	a0,a6
    838e:	8082                	ret

00008390 <CO_CANmodule_process>:
    8390:	551c                	lw	a5,40(a0)
    8392:	c799                	beqz	a5,83a0 <CO_CANmodule_process+0x10>
    8394:	293e                	lhu	a5,18(a0)
    8396:	02052423          	sw	zero,40(a0)
    839a:	cf07f793          	andi	a5,a5,-784
    839e:	a93e                	sh	a5,18(a0)
    83a0:	8082                	ret

000083a2 <CO_CANsend>:
    83a2:	97cf82ef          	jal	t0,51e <__riscv_save_0>
    83a6:	499c                	lw	a5,16(a1)
    83a8:	842a                	mv	s0,a0
    83aa:	84ae                	mv	s1,a1
    83ac:	4901                	li	s2,0
    83ae:	cb81                	beqz	a5,83be <CO_CANsend+0x1c>
    83b0:	511c                	lw	a5,32(a0)
    83b2:	595d                	li	s2,-9
    83b4:	e789                	bnez	a5,83be <CO_CANsend+0x1c>
    83b6:	293e                	lhu	a5,18(a0)
    83b8:	0087e793          	ori	a5,a5,8
    83bc:	a93e                	sh	a5,18(a0)
    83be:	8dffd0ef          	jal	ra,5c9c <vPortEnterCritical>
    83c2:	8526                	mv	a0,s1
    83c4:	d01ff0ef          	jal	ra,80c4 <prv_send_can_message.isra.0>
    83c8:	c901                	beqz	a0,83d8 <CO_CANsend+0x36>
    83ca:	48dc                	lw	a5,20(s1)
    83cc:	cc5c                	sw	a5,28(s0)
    83ce:	8e5fd0ef          	jal	ra,5cb2 <vPortExitCritical>
    83d2:	854a                	mv	a0,s2
    83d4:	96ef806f          	j	542 <__riscv_restore_0>
    83d8:	4785                	li	a5,1
    83da:	c89c                	sw	a5,16(s1)
    83dc:	305e                	lhu	a5,36(s0)
    83de:	0785                	addi	a5,a5,1
    83e0:	07c2                	slli	a5,a5,0x10
    83e2:	83c1                	srli	a5,a5,0x10
    83e4:	b05e                	sh	a5,36(s0)
    83e6:	b7e5                	j	83ce <CO_CANsend+0x2c>

000083e8 <CO_LSSslave_receive>:
    83e8:	21d8                	lbu	a4,4(a1)
    83ea:	47a1                	li	a5,8
    83ec:	1af71163          	bne	a4,a5,858e <CO_LSSslave_receive+0x1a6>
    83f0:	417c                	lw	a5,68(a0)
    83f2:	18079e63          	bnez	a5,858e <CO_LSSslave_receive+0x1a6>
    83f6:	90ef82ef          	jal	t0,504 <__riscv_save_4>
    83fa:	31c4                	lbu	s1,5(a1)
    83fc:	4791                	li	a5,4
    83fe:	1141                	addi	sp,sp,-16
    8400:	842a                	mv	s0,a0
    8402:	04f49a63          	bne	s1,a5,8456 <CO_LSSslave_receive+0x6e>
    8406:	21fc                	lbu	a5,6(a1)
    8408:	c799                	beqz	a5,8416 <CO_LSSslave_receive+0x2e>
    840a:	4705                	li	a4,1
    840c:	04e78363          	beq	a5,a4,8452 <CO_LSSslave_receive+0x6a>
    8410:	0141                	addi	sp,sp,16
    8412:	926f806f          	j	538 <__riscv_restore_4>
    8416:	4918                	lw	a4,16(a0)
    8418:	4785                	li	a5,1
    841a:	4901                	li	s2,0
    841c:	00f71e63          	bne	a4,a5,8438 <CO_LSSslave_receive+0x50>
    8420:	04054783          	lbu	a5,64(a0)
    8424:	0ff00713          	li	a4,255
    8428:	00e79863          	bne	a5,a4,8438 <CO_LSSslave_receive+0x50>
    842c:	5d58                	lw	a4,60(a0)
    842e:	2318                	lbu	a4,0(a4)
    8430:	00f70463          	beq	a4,a5,8438 <CO_LSSslave_receive+0x50>
    8434:	c524                	sw	s1,72(a0)
    8436:	4905                	li	s2,1
    8438:	00042823          	sw	zero,16(s0)
    843c:	4641                	li	a2,16
    843e:	4581                	li	a1,0
    8440:	01440513          	addi	a0,s0,20
    8444:	90af80ef          	jal	ra,54e <memset>
    8448:	fc0904e3          	beqz	s2,8410 <CO_LSSslave_receive+0x28>
    844c:	4785                	li	a5,1
    844e:	c07c                	sw	a5,68(s0)
    8450:	b7c1                	j	8410 <CO_LSSslave_receive+0x28>
    8452:	c91c                	sw	a5,16(a0)
    8454:	bf75                	j	8410 <CO_LSSslave_receive+0x28>
    8456:	491c                	lw	a5,16(a0)
    8458:	12079363          	bnez	a5,857e <CO_LSSslave_receive+0x196>
    845c:	04200793          	li	a5,66
    8460:	0af48363          	beq	s1,a5,8506 <CO_LSSslave_receive+0x11e>
    8464:	0297e263          	bltu	a5,s1,8488 <CO_LSSslave_receive+0xa0>
    8468:	04000793          	li	a5,64
    846c:	08f48563          	beq	s1,a5,84f6 <CO_LSSslave_receive+0x10e>
    8470:	04100793          	li	a5,65
    8474:	f8f49ee3          	bne	s1,a5,8410 <CO_LSSslave_receive+0x28>
    8478:	4611                	li	a2,4
    847a:	0599                	addi	a1,a1,6
    847c:	0068                	addi	a0,sp,12
    847e:	2e0030ef          	jal	ra,b75e <memcpy>
    8482:	47b2                	lw	a5,12(sp)
    8484:	cc1c                	sw	a5,24(s0)
    8486:	b769                	j	8410 <CO_LSSslave_receive+0x28>
    8488:	04300793          	li	a5,67
    848c:	08f48563          	beq	s1,a5,8516 <CO_LSSslave_receive+0x12e>
    8490:	05100793          	li	a5,81
    8494:	f6f49ee3          	bne	s1,a5,8410 <CO_LSSslave_receive+0x28>
    8498:	5d5c                	lw	a5,60(a0)
    849a:	0ff00713          	li	a4,255
    849e:	239c                	lbu	a5,0(a5)
    84a0:	f6e798e3          	bne	a5,a4,8410 <CO_LSSslave_receive+0x28>
    84a4:	04054703          	lbu	a4,64(a0)
    84a8:	f6f714e3          	bne	a4,a5,8410 <CO_LSSslave_receive+0x28>
    84ac:	25a4                	lbu	s1,10(a1)
    84ae:	47fd                	li	a5,31
    84b0:	0097f663          	bgeu	a5,s1,84bc <CO_LSSslave_receive+0xd4>
    84b4:	08000793          	li	a5,128
    84b8:	f4f49ce3          	bne	s1,a5,8410 <CO_LSSslave_receive+0x28>
    84bc:	00b5c983          	lbu	s3,11(a1)
    84c0:	478d                	li	a5,3
    84c2:	f537e7e3          	bltu	a5,s3,8410 <CO_LSSslave_receive+0x28>
    84c6:	00c5c903          	lbu	s2,12(a1)
    84ca:	f527e3e3          	bltu	a5,s2,8410 <CO_LSSslave_receive+0x28>
    84ce:	4611                	li	a2,4
    84d0:	0599                	addi	a1,a1,6
    84d2:	0068                	addi	a0,sp,12
    84d4:	28a030ef          	jal	ra,b75e <memcpy>
    84d8:	08000793          	li	a5,128
    84dc:	06f49963          	bne	s1,a5,854e <CO_LSSslave_receive+0x166>
    84e0:	02040a23          	sb	zero,52(s0)
    84e4:	4641                	li	a2,16
    84e6:	4581                	li	a1,0
    84e8:	02440513          	addi	a0,s0,36
    84ec:	862f80ef          	jal	ra,54e <memset>
    84f0:	05100793          	li	a5,81
    84f4:	a899                	j	854a <CO_LSSslave_receive+0x162>
    84f6:	4611                	li	a2,4
    84f8:	0599                	addi	a1,a1,6
    84fa:	0068                	addi	a0,sp,12
    84fc:	262030ef          	jal	ra,b75e <memcpy>
    8500:	47b2                	lw	a5,12(sp)
    8502:	c85c                	sw	a5,20(s0)
    8504:	b731                	j	8410 <CO_LSSslave_receive+0x28>
    8506:	4611                	li	a2,4
    8508:	0599                	addi	a1,a1,6
    850a:	0068                	addi	a0,sp,12
    850c:	252030ef          	jal	ra,b75e <memcpy>
    8510:	47b2                	lw	a5,12(sp)
    8512:	cc5c                	sw	a5,28(s0)
    8514:	bdf5                	j	8410 <CO_LSSslave_receive+0x28>
    8516:	4611                	li	a2,4
    8518:	0599                	addi	a1,a1,6
    851a:	0068                	addi	a0,sp,12
    851c:	242030ef          	jal	ra,b75e <memcpy>
    8520:	47b2                	lw	a5,12(sp)
    8522:	4054                	lw	a3,4(s0)
    8524:	4c18                	lw	a4,24(s0)
    8526:	d01c                	sw	a5,32(s0)
    8528:	eee694e3          	bne	a3,a4,8410 <CO_LSSslave_receive+0x28>
    852c:	4414                	lw	a3,8(s0)
    852e:	4c58                	lw	a4,28(s0)
    8530:	eee690e3          	bne	a3,a4,8410 <CO_LSSslave_receive+0x28>
    8534:	4458                	lw	a4,12(s0)
    8536:	ece79de3          	bne	a5,a4,8410 <CO_LSSslave_receive+0x28>
    853a:	4018                	lw	a4,0(s0)
    853c:	485c                	lw	a5,20(s0)
    853e:	ecf719e3          	bne	a4,a5,8410 <CO_LSSslave_receive+0x28>
    8542:	4785                	li	a5,1
    8544:	c81c                	sw	a5,16(s0)
    8546:	04300793          	li	a5,67
    854a:	c43c                	sw	a5,72(s0)
    854c:	b701                	j	844c <CO_LSSslave_receive+0x64>
    854e:	03444703          	lbu	a4,52(s0)
    8552:	eb371fe3          	bne	a4,s3,8410 <CO_LSSslave_receive+0x28>
    8556:	00271793          	slli	a5,a4,0x2
    855a:	97a2                	add	a5,a5,s0
    855c:	4394                	lw	a3,0(a5)
    855e:	47b2                	lw	a5,12(sp)
    8560:	8fb5                	xor	a5,a5,a3
    8562:	56fd                	li	a3,-1
    8564:	009696b3          	sll	a3,a3,s1
    8568:	8ff5                	and	a5,a5,a3
    856a:	ea0793e3          	bnez	a5,8410 <CO_LSSslave_receive+0x28>
    856e:	03240a23          	sb	s2,52(s0)
    8572:	fcbd                	bnez	s1,84f0 <CO_LSSslave_receive+0x108>
    8574:	f6e97ee3          	bgeu	s2,a4,84f0 <CO_LSSslave_receive+0x108>
    8578:	4785                	li	a5,1
    857a:	c81c                	sw	a5,16(s0)
    857c:	bf95                	j	84f0 <CO_LSSslave_receive+0x108>
    857e:	4621                	li	a2,8
    8580:	0595                	addi	a1,a1,5
    8582:	04c50513          	addi	a0,a0,76
    8586:	1d8030ef          	jal	ra,b75e <memcpy>
    858a:	c424                	sw	s1,72(s0)
    858c:	b5c1                	j	844c <CO_LSSslave_receive+0x64>
    858e:	8082                	ret

00008590 <CO_LSSslave_init>:
    8590:	f67f72ef          	jal	t0,4f6 <__riscv_save_10>
    8594:	cd41                	beqz	a0,862c <CO_LSSslave_init+0x9c>
    8596:	ca59                	beqz	a2,862c <CO_LSSslave_init+0x9c>
    8598:	cad1                	beqz	a3,862c <CO_LSSslave_init+0x9c>
    859a:	cb49                	beqz	a4,862c <CO_LSSslave_init+0x9c>
    859c:	08088863          	beqz	a7,862c <CO_LSSslave_init+0x9c>
    85a0:	0006c303          	lbu	t1,0(a3)
    85a4:	01831e13          	slli	t3,t1,0x18
    85a8:	418e5e13          	srai	t3,t3,0x18
    85ac:	01c04663          	bgtz	t3,85b8 <CO_LSSslave_init+0x28>
    85b0:	0ff00e13          	li	t3,255
    85b4:	07c31c63          	bne	t1,t3,862c <CO_LSSslave_init+0x9c>
    85b8:	8a32                	mv	s4,a2
    85ba:	8bae                	mv	s7,a1
    85bc:	07400613          	li	a2,116
    85c0:	4581                	li	a1,0
    85c2:	842a                	mv	s0,a0
    85c4:	8946                	mv	s2,a7
    85c6:	84b6                	mv	s1,a3
    85c8:	8b42                	mv	s6,a6
    85ca:	8abe                	mv	s5,a5
    85cc:	89ba                	mv	s3,a4
    85ce:	f81f70ef          	jal	ra,54e <memset>
    85d2:	4641                	li	a2,16
    85d4:	85de                	mv	a1,s7
    85d6:	8522                	mv	a0,s0
    85d8:	186030ef          	jal	ra,b75e <memcpy>
    85dc:	dc44                	sw	s1,60(s0)
    85de:	00042823          	sw	zero,16(s0)
    85e2:	02040a23          	sb	zero,52(s0)
    85e6:	03442c23          	sw	s4,56(s0)
    85ea:	209c                	lbu	a5,0(s1)
    85ec:	00008837          	lui	a6,0x8
    85f0:	3e880813          	addi	a6,a6,1000 # 83e8 <CO_LSSslave_receive>
    85f4:	04f40023          	sb	a5,64(s0)
    85f8:	4701                	li	a4,0
    85fa:	87a2                	mv	a5,s0
    85fc:	7ff00693          	li	a3,2047
    8600:	865a                	mv	a2,s6
    8602:	85d6                	mv	a1,s5
    8604:	04042223          	sw	zero,68(s0)
    8608:	854e                	mv	a0,s3
    860a:	cfbff0ef          	jal	ra,8304 <CO_CANrxBufferInit>
    860e:	03415603          	lhu	a2,52(sp)
    8612:	03015583          	lhu	a1,48(sp)
    8616:	84aa                	mv	s1,a0
    8618:	07242623          	sw	s2,108(s0)
    861c:	4781                	li	a5,0
    861e:	4721                	li	a4,8
    8620:	4681                	li	a3,0
    8622:	854a                	mv	a0,s2
    8624:	d33ff0ef          	jal	ra,8356 <CO_CANtxBufferInit>
    8628:	d828                	sw	a0,112(s0)
    862a:	e111                	bnez	a0,862e <CO_LSSslave_init+0x9e>
    862c:	54fd                	li	s1,-1
    862e:	8526                	mv	a0,s1
    8630:	efff706f          	j	52e <__riscv_restore_10>

00008634 <CO_LSSslave_process>:
    8634:	417c                	lw	a5,68(a0)
    8636:	18078e63          	beqz	a5,87d2 <CO_LSSslave_process+0x19e>
    863a:	ee5f72ef          	jal	t0,51e <__riscv_save_0>
    863e:	842a                	mv	s0,a0
    8640:	5928                	lw	a0,112(a0)
    8642:	1141                	addi	sp,sp,-16
    8644:	4621                	li	a2,8
    8646:	4581                	li	a1,0
    8648:	0515                	addi	a0,a0,5
    864a:	f05f70ef          	jal	ra,54e <memset>
    864e:	443c                	lw	a5,72(s0)
    8650:	04300713          	li	a4,67
    8654:	0ae78563          	beq	a5,a4,86fe <CO_LSSslave_process+0xca>
    8658:	04f76b63          	bltu	a4,a5,86ae <CO_LSSslave_process+0x7a>
    865c:	474d                	li	a4,19
    865e:	0ce78d63          	beq	a5,a4,8738 <CO_LSSslave_process+0x104>
    8662:	00f76f63          	bltu	a4,a5,8680 <CO_LSSslave_process+0x4c>
    8666:	4711                	li	a4,4
    8668:	4505                	li	a0,1
    866a:	00e78663          	beq	a5,a4,8676 <CO_LSSslave_process+0x42>
    866e:	4745                	li	a4,17
    8670:	08e78c63          	beq	a5,a4,8708 <CO_LSSslave_process+0xd4>
    8674:	4501                	li	a0,0
    8676:	04042223          	sw	zero,68(s0)
    867a:	0141                	addi	sp,sp,16
    867c:	ec7f706f          	j	542 <__riscv_restore_0>
    8680:	4755                	li	a4,21
    8682:	10e78663          	beq	a5,a4,878e <CO_LSSslave_process+0x15a>
    8686:	475d                	li	a4,23
    8688:	fee796e3          	bne	a5,a4,8674 <CO_LSSslave_process+0x40>
    868c:	507c                	lw	a5,100(s0)
    868e:	4505                	li	a0,1
    8690:	cb91                	beqz	a5,86a4 <CO_LSSslave_process+0x70>
    8692:	5c14                	lw	a3,56(s0)
    8694:	5c58                	lw	a4,60(s0)
    8696:	5428                	lw	a0,104(s0)
    8698:	2292                	lhu	a2,0(a3)
    869a:	230c                	lbu	a1,0(a4)
    869c:	9782                	jalr	a5
    869e:	00153513          	seqz	a0,a0
    86a2:	0506                	slli	a0,a0,0x1
    86a4:	583c                	lw	a5,112(s0)
    86a6:	4438                	lw	a4,72(s0)
    86a8:	a3e8                	sb	a0,6(a5)
    86aa:	b3d8                	sb	a4,5(a5)
    86ac:	a049                	j	872e <CO_LSSslave_process+0xfa>
    86ae:	05b00713          	li	a4,91
    86b2:	0ee78e63          	beq	a5,a4,87ae <CO_LSSslave_process+0x17a>
    86b6:	02f76463          	bltu	a4,a5,86de <CO_LSSslave_process+0xaa>
    86ba:	05100713          	li	a4,81
    86be:	10e78663          	beq	a5,a4,87ca <CO_LSSslave_process+0x196>
    86c2:	05a00713          	li	a4,90
    86c6:	fae797e3          	bne	a5,a4,8674 <CO_LSSslave_process+0x40>
    86ca:	5828                	lw	a0,112(s0)
    86cc:	b15c                	sb	a5,5(a0)
    86ce:	401c                	lw	a5,0(s0)
    86d0:	4611                	li	a2,4
    86d2:	006c                	addi	a1,sp,12
    86d4:	0519                	addi	a0,a0,6
    86d6:	c63e                	sw	a5,12(sp)
    86d8:	086030ef          	jal	ra,b75e <memcpy>
    86dc:	a889                	j	872e <CO_LSSslave_process+0xfa>
    86de:	05d00713          	li	a4,93
    86e2:	0ee78063          	beq	a5,a4,87c2 <CO_LSSslave_process+0x18e>
    86e6:	0ce7e863          	bltu	a5,a4,87b6 <CO_LSSslave_process+0x182>
    86ea:	05e00713          	li	a4,94
    86ee:	f8e793e3          	bne	a5,a4,8674 <CO_LSSslave_process+0x40>
    86f2:	5838                	lw	a4,112(s0)
    86f4:	b35c                	sb	a5,5(a4)
    86f6:	04044783          	lbu	a5,64(s0)
    86fa:	a37c                	sb	a5,6(a4)
    86fc:	a80d                	j	872e <CO_LSSslave_process+0xfa>
    86fe:	583c                	lw	a5,112(s0)
    8700:	04400713          	li	a4,68
    8704:	b3d8                	sb	a4,5(a5)
    8706:	a025                	j	872e <CO_LSSslave_process+0xfa>
    8708:	04d44783          	lbu	a5,77(s0)
    870c:	01879713          	slli	a4,a5,0x18
    8710:	8761                	srai	a4,a4,0x18
    8712:	00e04763          	bgtz	a4,8720 <CO_LSSslave_process+0xec>
    8716:	0ff00693          	li	a3,255
    871a:	4705                	li	a4,1
    871c:	00d79563          	bne	a5,a3,8726 <CO_LSSslave_process+0xf2>
    8720:	5c58                	lw	a4,60(s0)
    8722:	a31c                	sb	a5,0(a4)
    8724:	4701                	li	a4,0
    8726:	583c                	lw	a5,112(s0)
    8728:	4434                	lw	a3,72(s0)
    872a:	a3f8                	sb	a4,6(a5)
    872c:	b3d4                	sb	a3,5(a5)
    872e:	582c                	lw	a1,112(s0)
    8730:	5468                	lw	a0,108(s0)
    8732:	c71ff0ef          	jal	ra,83a2 <CO_CANsend>
    8736:	bf3d                	j	8674 <CO_LSSslave_process+0x40>
    8738:	4874                	lw	a3,84(s0)
    873a:	4501                	li	a0,0
    873c:	de8d                	beqz	a3,8676 <CO_LSSslave_process+0x42>
    873e:	04d44483          	lbu	s1,77(s0)
    8742:	ec9d                	bnez	s1,8780 <CO_LSSslave_process+0x14c>
    8744:	04e44703          	lbu	a4,78(s0)
    8748:	4615                	li	a2,5
    874a:	4785                	li	a5,1
    874c:	02c70463          	beq	a4,a2,8774 <CO_LSSslave_process+0x140>
    8750:	4625                	li	a2,9
    8752:	02e66163          	bltu	a2,a4,8774 <CO_LSSslave_process+0x140>
    8756:	67b5                	lui	a5,0xd
    8758:	0706                	slli	a4,a4,0x1
    875a:	4c078793          	addi	a5,a5,1216 # d4c0 <CO_LSS_bitTimingTableLookup>
    875e:	97ba                	add	a5,a5,a4
    8760:	0007d903          	lhu	s2,0(a5)
    8764:	4c28                	lw	a0,88(s0)
    8766:	85ca                	mv	a1,s2
    8768:	9682                	jalr	a3
    876a:	cd11                	beqz	a0,8786 <CO_LSSslave_process+0x152>
    876c:	5c1c                	lw	a5,56(s0)
    876e:	01279023          	sh	s2,0(a5)
    8772:	4781                	li	a5,0
    8774:	5838                	lw	a4,112(s0)
    8776:	4434                	lw	a3,72(s0)
    8778:	a37c                	sb	a5,6(a4)
    877a:	b354                	sb	a3,5(a4)
    877c:	b364                	sb	s1,7(a4)
    877e:	bf45                	j	872e <CO_LSSslave_process+0xfa>
    8780:	4481                	li	s1,0
    8782:	4785                	li	a5,1
    8784:	bfc5                	j	8774 <CO_LSSslave_process+0x140>
    8786:	4485                	li	s1,1
    8788:	0ff00793          	li	a5,255
    878c:	b7e5                	j	8774 <CO_LSSslave_process+0x140>
    878e:	487c                	lw	a5,84(s0)
    8790:	4501                	li	a0,0
    8792:	ee0782e3          	beqz	a5,8676 <CO_LSSslave_process+0x42>
    8796:	4c78                	lw	a4,92(s0)
    8798:	ec070fe3          	beqz	a4,8676 <CO_LSSslave_process+0x42>
    879c:	04e44783          	lbu	a5,78(s0)
    87a0:	04d44583          	lbu	a1,77(s0)
    87a4:	5028                	lw	a0,96(s0)
    87a6:	07a2                	slli	a5,a5,0x8
    87a8:	8ddd                	or	a1,a1,a5
    87aa:	9702                	jalr	a4
    87ac:	b5e1                	j	8674 <CO_LSSslave_process+0x40>
    87ae:	5828                	lw	a0,112(s0)
    87b0:	b15c                	sb	a5,5(a0)
    87b2:	405c                	lw	a5,4(s0)
    87b4:	bf31                	j	86d0 <CO_LSSslave_process+0x9c>
    87b6:	5828                	lw	a0,112(s0)
    87b8:	05c00793          	li	a5,92
    87bc:	b15c                	sb	a5,5(a0)
    87be:	441c                	lw	a5,8(s0)
    87c0:	bf01                	j	86d0 <CO_LSSslave_process+0x9c>
    87c2:	5828                	lw	a0,112(s0)
    87c4:	b15c                	sb	a5,5(a0)
    87c6:	445c                	lw	a5,12(s0)
    87c8:	b721                	j	86d0 <CO_LSSslave_process+0x9c>
    87ca:	583c                	lw	a5,112(s0)
    87cc:	04f00713          	li	a4,79
    87d0:	bf15                	j	8704 <CO_LSSslave_process+0xd0>
    87d2:	4501                	li	a0,0
    87d4:	8082                	ret

000087d6 <OD_write_1003>:
    87d6:	47a5                	li	a5,9
    87d8:	c10d                	beqz	a0,87fa <OD_write_1003+0x24>
    87da:	3918                	lbu	a4,17(a0)
    87dc:	47a5                	li	a5,9
    87de:	ef11                	bnez	a4,87fa <OD_write_1003+0x24>
    87e0:	cd89                	beqz	a1,87fa <OD_write_1003+0x24>
    87e2:	4705                	li	a4,1
    87e4:	00e61b63          	bne	a2,a4,87fa <OD_write_1003+0x24>
    87e8:	ca89                	beqz	a3,87fa <OD_write_1003+0x24>
    87ea:	2198                	lbu	a4,0(a1)
    87ec:	47bd                	li	a5,15
    87ee:	e711                	bnez	a4,87fa <OD_write_1003+0x24>
    87f0:	415c                	lw	a5,4(a0)
    87f2:	02078023          	sb	zero,32(a5)
    87f6:	c290                	sw	a2,0(a3)
    87f8:	4781                	li	a5,0
    87fa:	853e                	mv	a0,a5
    87fc:	8082                	ret

000087fe <OD_read_1003>:
    87fe:	47a5                	li	a5,9
    8800:	c90d                	beqz	a0,8832 <OD_read_1003+0x34>
    8802:	c985                	beqz	a1,8832 <OD_read_1003+0x34>
    8804:	c69d                	beqz	a3,8832 <OD_read_1003+0x34>
    8806:	478d                	li	a5,3
    8808:	00c7e663          	bltu	a5,a2,8814 <OD_read_1003+0x16>
    880c:	3918                	lbu	a4,17(a0)
    880e:	47a5                	li	a5,9
    8810:	e30d                	bnez	a4,8832 <OD_read_1003+0x34>
    8812:	c205                	beqz	a2,8832 <OD_read_1003+0x34>
    8814:	4150                	lw	a2,4(a0)
    8816:	4885                	li	a7,1
    8818:	47a5                	li	a5,9
    881a:	01c64803          	lbu	a6,28(a2)
    881e:	0108fa63          	bgeu	a7,a6,8832 <OD_read_1003+0x34>
    8822:	3918                	lbu	a4,17(a0)
    8824:	02064503          	lbu	a0,32(a2)
    8828:	e719                	bnez	a4,8836 <OD_read_1003+0x38>
    882a:	a188                	sb	a0,0(a1)
    882c:	0116a023          	sw	a7,0(a3)
    8830:	4781                	li	a5,0
    8832:	853e                	mv	a0,a5
    8834:	8082                	ret
    8836:	47e5                	li	a5,25
    8838:	fee56de3          	bltu	a0,a4,8832 <OD_read_1003+0x34>
    883c:	3e5c                	lbu	a5,29(a2)
    883e:	8f99                	sub	a5,a5,a4
    8840:	07c2                	slli	a5,a5,0x10
    8842:	83c1                	srli	a5,a5,0x10
    8844:	01079713          	slli	a4,a5,0x10
    8848:	8741                	srai	a4,a4,0x10
    884a:	02075c63          	bgez	a4,8882 <OD_read_1003+0x84>
    884e:	97c2                	add	a5,a5,a6
    8850:	01079713          	slli	a4,a5,0x10
    8854:	8741                	srai	a4,a4,0x10
    8856:	cc9f72ef          	jal	t0,51e <__riscv_save_0>
    885a:	8436                	mv	s0,a3
    885c:	4e14                	lw	a3,24(a2)
    885e:	00371793          	slli	a5,a4,0x3
    8862:	1141                	addi	sp,sp,-16
    8864:	97b6                	add	a5,a5,a3
    8866:	439c                	lw	a5,0(a5)
    8868:	852e                	mv	a0,a1
    886a:	4611                	li	a2,4
    886c:	006c                	addi	a1,sp,12
    886e:	c63e                	sw	a5,12(sp)
    8870:	6ef020ef          	jal	ra,b75e <memcpy>
    8874:	4791                	li	a5,4
    8876:	c01c                	sw	a5,0(s0)
    8878:	4781                	li	a5,0
    887a:	853e                	mv	a0,a5
    887c:	0141                	addi	sp,sp,16
    887e:	cc5f706f          	j	542 <__riscv_restore_0>
    8882:	47a5                	li	a5,9
    8884:	fd0749e3          	blt	a4,a6,8856 <OD_read_1003+0x58>
    8888:	b76d                	j	8832 <OD_read_1003+0x34>

0000888a <OD_read_1014_default>:
    888a:	c529                	beqz	a0,88d4 <OD_read_1014_default+0x4a>
    888c:	3918                	lbu	a4,17(a0)
    888e:	47a5                	li	a5,9
    8890:	e339                	bnez	a4,88d6 <OD_read_1014_default+0x4c>
    8892:	c1b1                	beqz	a1,88d6 <OD_read_1014_default+0x4c>
    8894:	470d                	li	a4,3
    8896:	04c77063          	bgeu	a4,a2,88d6 <OD_read_1014_default+0x4c>
    889a:	ce95                	beqz	a3,88d6 <OD_read_1014_default+0x4c>
    889c:	c83f72ef          	jal	t0,51e <__riscv_save_0>
    88a0:	415c                	lw	a5,4(a0)
    88a2:	1141                	addi	sp,sp,-16
    88a4:	4701                	li	a4,0
    88a6:	53d0                	lw	a2,36(a5)
    88a8:	e219                	bnez	a2,88ae <OD_read_1014_default+0x24>
    88aa:	80000737          	lui	a4,0x80000
    88ae:	0287c783          	lbu	a5,40(a5)
    88b2:	852e                	mv	a0,a1
    88b4:	4611                	li	a2,4
    88b6:	08078793          	addi	a5,a5,128
    88ba:	8fd9                	or	a5,a5,a4
    88bc:	006c                	addi	a1,sp,12
    88be:	8436                	mv	s0,a3
    88c0:	c63e                	sw	a5,12(sp)
    88c2:	69d020ef          	jal	ra,b75e <memcpy>
    88c6:	4791                	li	a5,4
    88c8:	c01c                	sw	a5,0(s0)
    88ca:	4781                	li	a5,0
    88cc:	853e                	mv	a0,a5
    88ce:	0141                	addi	sp,sp,16
    88d0:	c73f706f          	j	542 <__riscv_restore_0>
    88d4:	47a5                	li	a5,9
    88d6:	853e                	mv	a0,a5
    88d8:	8082                	ret

000088da <CO_EM_init>:
    88da:	c1df72ef          	jal	t0,4f6 <__riscv_save_10>
    88de:	1141                	addi	sp,sp,-16
    88e0:	04014c83          	lbu	s9,64(sp)
    88e4:	4916                	lw	s2,68(sp)
    88e6:	e509                	bnez	a0,88f0 <CO_EM_init+0x16>
    88e8:	557d                	li	a0,-1
    88ea:	0141                	addi	sp,sp,16
    88ec:	c43f706f          	j	52e <__riscv_restore_10>
    88f0:	de65                	beqz	a2,88e8 <CO_EM_init+0xe>
    88f2:	e681                	bnez	a3,88fa <CO_EM_init+0x20>
    88f4:	4305                	li	t1,1
    88f6:	fee369e3          	bltu	t1,a4,88e8 <CO_EM_init+0xe>
    88fa:	d7fd                	beqz	a5,88e8 <CO_EM_init+0xe>
    88fc:	d5f5                	beqz	a1,88e8 <CO_EM_init+0xe>
    88fe:	018c9313          	slli	t1,s9,0x18
    8902:	41835313          	srai	t1,t1,0x18
    8906:	fe6051e3          	blez	t1,88e8 <CO_EM_init+0xe>
    890a:	fc088fe3          	beqz	a7,88e8 <CO_EM_init+0xe>
    890e:	8a32                	mv	s4,a2
    8910:	89ae                	mv	s3,a1
    8912:	05000613          	li	a2,80
    8916:	4581                	li	a1,0
    8918:	842a                	mv	s0,a0
    891a:	8ac6                	mv	s5,a7
    891c:	8bc2                	mv	s7,a6
    891e:	84be                	mv	s1,a5
    8920:	8b3a                	mv	s6,a4
    8922:	8c36                	mv	s8,a3
    8924:	c2bf70ef          	jal	ra,54e <memset>
    8928:	4681                	li	a3,0
    892a:	01342a23          	sw	s3,20(s0)
    892e:	4605                	li	a2,1
    8930:	4581                	li	a1,0
    8932:	8552                	mv	a0,s4
    8934:	7dc000ef          	jal	ra,9110 <OD_getPtr>
    8938:	c448                	sw	a0,12(s0)
    893a:	e911                	bnez	a0,894e <CO_EM_init+0x74>
    893c:	00091463          	bnez	s2,8944 <CO_EM_init+0x6a>
    8940:	5551                	li	a0,-12
    8942:	b765                	j	88ea <CO_EM_init+0x10>
    8944:	000a5783          	lhu	a5,0(s4)
    8948:	00f92023          	sw	a5,0(s2)
    894c:	bfd5                	j	8940 <CO_EM_init+0x66>
    894e:	00050023          	sb	zero,0(a0)
    8952:	01842c23          	sw	s8,24(s0)
    8956:	01640e23          	sb	s6,28(s0)
    895a:	4705                	li	a4,1
    895c:	4691                	li	a3,4
    895e:	0070                	addi	a2,sp,12
    8960:	4581                	li	a1,0
    8962:	8526                	mv	a0,s1
    8964:	27a9                	jal	90ae <OD_get_value>
    8966:	e92d                	bnez	a0,89d8 <CO_EM_init+0xfe>
    8968:	47b2                	lw	a5,12(sp)
    896a:	80000737          	lui	a4,0x80000
    896e:	80074713          	xori	a4,a4,-2048
    8972:	8ff9                	and	a5,a5,a4
    8974:	ebad                	bnez	a5,89e6 <CO_EM_init+0x10c>
    8976:	47b2                	lw	a5,12(sp)
    8978:	d800                	sw	s0,48(s0)
    897a:	4721                	li	a4,8
    897c:	fff7c793          	not	a5,a5
    8980:	83fd                	srli	a5,a5,0x1f
    8982:	d05c                	sw	a5,36(s0)
    8984:	000097b7          	lui	a5,0x9
    8988:	88a78793          	addi	a5,a5,-1910 # 888a <OD_read_1014_default>
    898c:	d85c                	sw	a5,52(s0)
    898e:	000097b7          	lui	a5,0x9
    8992:	ed478793          	addi	a5,a5,-300 # 8ed4 <OD_writeOriginal>
    8996:	dc1c                	sw	a5,56(s0)
    8998:	03040793          	addi	a5,s0,48
    899c:	c49c                	sw	a5,8(s1)
    899e:	03940423          	sb	s9,40(s0)
    89a2:	4781                	li	a5,0
    89a4:	4681                	li	a3,0
    89a6:	080c8613          	addi	a2,s9,128
    89aa:	85de                	mv	a1,s7
    89ac:	854e                	mv	a0,s3
    89ae:	9a9ff0ef          	jal	ra,8356 <CO_CANtxBufferInit>
    89b2:	d448                	sw	a0,44(s0)
    89b4:	d915                	beqz	a0,88e8 <CO_EM_init+0xe>
    89b6:	000087b7          	lui	a5,0x8
    89ba:	7fe78793          	addi	a5,a5,2046 # 87fe <OD_read_1003>
    89be:	c07c                	sw	a5,68(s0)
    89c0:	000087b7          	lui	a5,0x8
    89c4:	7d678793          	addi	a5,a5,2006 # 87d6 <OD_write_1003>
    89c8:	c020                	sw	s0,64(s0)
    89ca:	c43c                	sw	a5,72(s0)
    89cc:	04040413          	addi	s0,s0,64
    89d0:	008aa423          	sw	s0,8(s5)
    89d4:	4501                	li	a0,0
    89d6:	bf11                	j	88ea <CO_EM_init+0x10>
    89d8:	f60904e3          	beqz	s2,8940 <CO_EM_init+0x66>
    89dc:	209e                	lhu	a5,0(s1)
    89de:	00f92023          	sw	a5,0(s2)
    89e2:	d951                	beqz	a0,8976 <CO_EM_init+0x9c>
    89e4:	bfb1                	j	8940 <CO_EM_init+0x66>
    89e6:	f80908e3          	beqz	s2,8976 <CO_EM_init+0x9c>
    89ea:	bfcd                	j	89dc <CO_EM_init+0x102>

000089ec <CO_error>:
    89ec:	c169                	beqz	a0,8aae <CO_error+0xc2>
    89ee:	b31f72ef          	jal	t0,51e <__riscv_save_0>
    89f2:	00365493          	srli	s1,a2,0x3
    89f6:	47a5                	li	a5,9
    89f8:	1101                	addi	sp,sp,-32
    89fa:	0297e163          	bltu	a5,s1,8a1c <CO_error+0x30>
    89fe:	00767793          	andi	a5,a2,7
    8a02:	4405                	li	s0,1
    8a04:	00f41433          	sll	s0,s0,a5
    8a08:	0ff47413          	andi	s0,s0,255
    8a0c:	94aa                	add	s1,s1,a0
    8a0e:	209c                	lbu	a5,0(s1)
    8a10:	8fe1                	and	a5,a5,s0
    8a12:	cd81                	beqz	a1,8a2a <CO_error+0x3e>
    8a14:	cf89                	beqz	a5,8a2e <CO_error+0x42>
    8a16:	6105                	addi	sp,sp,32
    8a18:	b2bf706f          	j	542 <__riscv_restore_0>
    8a1c:	6699                	lui	a3,0x6
    8a1e:	8732                	mv	a4,a2
    8a20:	4405                	li	s0,1
    8a22:	4495                	li	s1,5
    8a24:	10068693          	addi	a3,a3,256 # 6100 <xQueueGenericSend+0x68>
    8a28:	b7d5                	j	8a0c <CO_error+0x20>
    8a2a:	d7f5                	beqz	a5,8a16 <CO_error+0x2a>
    8a2c:	4681                	li	a3,0
    8a2e:	ce3a                	sw	a4,28(sp)
    8a30:	cc36                	sw	a3,24(sp)
    8a32:	ca32                	sw	a2,20(sp)
    8a34:	c82e                	sw	a1,16(sp)
    8a36:	c62a                	sw	a0,12(sp)
    8a38:	a64fd0ef          	jal	ra,5c9c <vPortEnterCritical>
    8a3c:	45c2                	lw	a1,16(sp)
    8a3e:	4532                	lw	a0,12(sp)
    8a40:	4652                	lw	a2,20(sp)
    8a42:	46e2                	lw	a3,24(sp)
    8a44:	4772                	lw	a4,28(sp)
    8a46:	c995                	beqz	a1,8a7a <CO_error+0x8e>
    8a48:	209c                	lbu	a5,0(s1)
    8a4a:	8c5d                	or	s0,s0,a5
    8a4c:	a080                	sb	s0,0(s1)
    8a4e:	2d4c                	lbu	a1,28(a0)
    8a50:	4785                	li	a5,1
    8a52:	02b7f163          	bgeu	a5,a1,8a74 <CO_error+0x88>
    8a56:	01d54803          	lbu	a6,29(a0)
    8a5a:	00180793          	addi	a5,a6,1
    8a5e:	0ff7f793          	andi	a5,a5,255
    8a62:	00b7e363          	bltu	a5,a1,8a68 <CO_error+0x7c>
    8a66:	4781                	li	a5,0
    8a68:	01e54883          	lbu	a7,30(a0)
    8a6c:	00f89c63          	bne	a7,a5,8a84 <CO_error+0x98>
    8a70:	4785                	li	a5,1
    8a72:	bd7c                	sb	a5,31(a0)
    8a74:	a3efd0ef          	jal	ra,5cb2 <vPortExitCritical>
    8a78:	bf79                	j	8a16 <CO_error+0x2a>
    8a7a:	209c                	lbu	a5,0(s1)
    8a7c:	fff44413          	not	s0,s0
    8a80:	8c7d                	and	s0,s0,a5
    8a82:	b7e9                	j	8a4c <CO_error+0x60>
    8a84:	00381893          	slli	a7,a6,0x3
    8a88:	01852803          	lw	a6,24(a0)
    8a8c:	0662                	slli	a2,a2,0x18
    8a8e:	8e55                	or	a2,a2,a3
    8a90:	9846                	add	a6,a6,a7
    8a92:	00c82023          	sw	a2,0(a6)
    8a96:	00e82223          	sw	a4,4(a6)
    8a9a:	bd5c                	sb	a5,29(a0)
    8a9c:	02054783          	lbu	a5,32(a0)
    8aa0:	15fd                	addi	a1,a1,-1
    8aa2:	fcb7d9e3          	bge	a5,a1,8a74 <CO_error+0x88>
    8aa6:	0785                	addi	a5,a5,1
    8aa8:	02f50023          	sb	a5,32(a0)
    8aac:	b7e1                	j	8a74 <CO_error+0x88>
    8aae:	8082                	ret

00008ab0 <CO_EM_process>:
    8ab0:	a55f72ef          	jal	t0,504 <__riscv_save_4>
    8ab4:	495c                	lw	a5,20(a0)
    8ab6:	01055903          	lhu	s2,16(a0)
    8aba:	842a                	mv	s0,a0
    8abc:	2ba6                	lhu	s1,18(a5)
    8abe:	89ae                	mv	s3,a1
    8ac0:	0c990463          	beq	s2,s1,8b88 <CO_EM_process+0xd8>
    8ac4:	00994933          	xor	s2,s2,s1
    8ac8:	a906                	sh	s1,16(a0)
    8aca:	10197793          	andi	a5,s2,257
    8ace:	cb91                	beqz	a5,8ae2 <CO_EM_process+0x32>
    8ad0:	1014f593          	andi	a1,s1,257
    8ad4:	4701                	li	a4,0
    8ad6:	4681                	li	a3,0
    8ad8:	4605                	li	a2,1
    8ada:	00b035b3          	snez	a1,a1
    8ade:	f0fff0ef          	jal	ra,89ec <CO_error>
    8ae2:	00297793          	andi	a5,s2,2
    8ae6:	cf81                	beqz	a5,8afe <CO_EM_process+0x4e>
    8ae8:	0014d593          	srli	a1,s1,0x1
    8aec:	66a1                	lui	a3,0x8
    8aee:	4701                	li	a4,0
    8af0:	12068693          	addi	a3,a3,288 # 8120 <CAN_SendMessage+0x30>
    8af4:	461d                	li	a2,7
    8af6:	8985                	andi	a1,a1,1
    8af8:	8522                	mv	a0,s0
    8afa:	ef3ff0ef          	jal	ra,89ec <CO_error>
    8afe:	00497793          	andi	a5,s2,4
    8b02:	cf81                	beqz	a5,8b1a <CO_EM_process+0x6a>
    8b04:	0024d593          	srli	a1,s1,0x2
    8b08:	66a1                	lui	a3,0x8
    8b0a:	4701                	li	a4,0
    8b0c:	14068693          	addi	a3,a3,320 # 8140 <CAN_SendMessage+0x50>
    8b10:	4649                	li	a2,18
    8b12:	8985                	andi	a1,a1,1
    8b14:	8522                	mv	a0,s0
    8b16:	ed7ff0ef          	jal	ra,89ec <CO_error>
    8b1a:	00897793          	andi	a5,s2,8
    8b1e:	cf81                	beqz	a5,8b36 <CO_EM_process+0x86>
    8b20:	0034d593          	srli	a1,s1,0x3
    8b24:	66a1                	lui	a3,0x8
    8b26:	4701                	li	a4,0
    8b28:	11068693          	addi	a3,a3,272 # 8110 <CAN_SendMessage+0x20>
    8b2c:	4651                	li	a2,20
    8b2e:	8985                	andi	a1,a1,1
    8b30:	8522                	mv	a0,s0
    8b32:	ebbff0ef          	jal	ra,89ec <CO_error>
    8b36:	08097793          	andi	a5,s2,128
    8b3a:	cf81                	beqz	a5,8b52 <CO_EM_process+0xa2>
    8b3c:	0074d593          	srli	a1,s1,0x7
    8b40:	66a1                	lui	a3,0x8
    8b42:	4701                	li	a4,0
    8b44:	10068693          	addi	a3,a3,256 # 8100 <CAN_SendMessage+0x10>
    8b48:	4655                	li	a2,21
    8b4a:	8985                	andi	a1,a1,1
    8b4c:	8522                	mv	a0,s0
    8b4e:	e9fff0ef          	jal	ra,89ec <CO_error>
    8b52:	20097793          	andi	a5,s2,512
    8b56:	cf81                	beqz	a5,8b6e <CO_EM_process+0xbe>
    8b58:	0094d593          	srli	a1,s1,0x9
    8b5c:	66a1                	lui	a3,0x8
    8b5e:	4701                	li	a4,0
    8b60:	12068693          	addi	a3,a3,288 # 8120 <CAN_SendMessage+0x30>
    8b64:	4619                	li	a2,6
    8b66:	8985                	andi	a1,a1,1
    8b68:	8522                	mv	a0,s0
    8b6a:	e83ff0ef          	jal	ra,89ec <CO_error>
    8b6e:	01491793          	slli	a5,s2,0x14
    8b72:	0007db63          	bgez	a5,8b88 <CO_EM_process+0xd8>
    8b76:	00b4d593          	srli	a1,s1,0xb
    8b7a:	4701                	li	a4,0
    8b7c:	46cd                	li	a3,19
    8b7e:	464d                	li	a2,19
    8b80:	8985                	andi	a1,a1,1
    8b82:	8522                	mv	a0,s0
    8b84:	e69ff0ef          	jal	ra,89ec <CO_error>
    8b88:	4014                	lw	a3,0(s0)
    8b8a:	305c                	lbu	a5,5(s0)
    8b8c:	7741                	lui	a4,0xffff0
    8b8e:	8f75                	and	a4,a4,a3
    8b90:	00f037b3          	snez	a5,a5
    8b94:	c319                	beqz	a4,8b9a <CO_EM_process+0xea>
    8b96:	0107e793          	ori	a5,a5,16
    8b9a:	241a                	lhu	a4,8(s0)
    8b9c:	c319                	beqz	a4,8ba2 <CO_EM_process+0xf2>
    8b9e:	0807e793          	ori	a5,a5,128
    8ba2:	4458                	lw	a4,12(s0)
    8ba4:	a31c                	sb	a5,0(a4)
    8ba6:	06098463          	beqz	s3,8c0e <CO_EM_process+0x15e>
    8baa:	2c54                	lbu	a3,28(s0)
    8bac:	4705                	li	a4,1
    8bae:	06d77063          	bgeu	a4,a3,8c0e <CO_EM_process+0x15e>
    8bb2:	2c64                	lbu	s1,30(s0)
    8bb4:	3c58                	lbu	a4,29(s0)
    8bb6:	04970c63          	beq	a4,s1,8c0e <CO_EM_process+0x15e>
    8bba:	5448                	lw	a0,44(s0)
    8bbc:	4918                	lw	a4,16(a0)
    8bbe:	eb21                	bnez	a4,8c0e <CO_EM_process+0x15e>
    8bc0:	4c0c                	lw	a1,24(s0)
    8bc2:	00349713          	slli	a4,s1,0x3
    8bc6:	07c2                	slli	a5,a5,0x10
    8bc8:	95ba                	add	a1,a1,a4
    8bca:	4198                	lw	a4,0(a1)
    8bcc:	4621                	li	a2,8
    8bce:	0515                	addi	a0,a0,5
    8bd0:	8fd9                	or	a5,a5,a4
    8bd2:	c19c                	sw	a5,0(a1)
    8bd4:	38b020ef          	jal	ra,b75e <memcpy>
    8bd8:	544c                	lw	a1,44(s0)
    8bda:	4848                	lw	a0,20(s0)
    8bdc:	fc6ff0ef          	jal	ra,83a2 <CO_CANsend>
    8be0:	2c58                	lbu	a4,28(s0)
    8be2:	00148793          	addi	a5,s1,1
    8be6:	0ff7f793          	andi	a5,a5,255
    8bea:	00e7e363          	bltu	a5,a4,8bf0 <CO_EM_process+0x140>
    8bee:	4781                	li	a5,0
    8bf0:	3c78                	lbu	a4,31(s0)
    8bf2:	ac7c                	sb	a5,30(s0)
    8bf4:	4685                	li	a3,1
    8bf6:	00d71e63          	bne	a4,a3,8c12 <CO_EM_process+0x162>
    8bfa:	4789                	li	a5,2
    8bfc:	bc7c                	sb	a5,31(s0)
    8bfe:	4701                	li	a4,0
    8c00:	6685                	lui	a3,0x1
    8c02:	02000613          	li	a2,32
    8c06:	4585                	li	a1,1
    8c08:	8522                	mv	a0,s0
    8c0a:	de3ff0ef          	jal	ra,89ec <CO_error>
    8c0e:	92bf706f          	j	538 <__riscv_restore_4>
    8c12:	4689                	li	a3,2
    8c14:	fed71de3          	bne	a4,a3,8c0e <CO_EM_process+0x15e>
    8c18:	3c58                	lbu	a4,29(s0)
    8c1a:	fef71ae3          	bne	a4,a5,8c0e <CO_EM_process+0x15e>
    8c1e:	00040fa3          	sb	zero,31(s0)
    8c22:	4701                	li	a4,0
    8c24:	4681                	li	a3,0
    8c26:	02000613          	li	a2,32
    8c2a:	4581                	li	a1,0
    8c2c:	bff1                	j	8c08 <CO_EM_process+0x158>

00008c2e <CO_NMT_receive>:
    8c2e:	21d8                	lbu	a4,4(a1)
    8c30:	4789                	li	a5,2
    8c32:	00f71963          	bne	a4,a5,8c44 <CO_NMT_receive+0x16>
    8c36:	21fc                	lbu	a5,6(a1)
    8c38:	c781                	beqz	a5,8c40 <CO_NMT_receive+0x12>
    8c3a:	2558                	lbu	a4,12(a0)
    8c3c:	00f71463          	bne	a4,a5,8c44 <CO_NMT_receive+0x16>
    8c40:	31dc                	lbu	a5,5(a1)
    8c42:	c51c                	sw	a5,8(a0)
    8c44:	8082                	ret

00008c46 <OD_write_1017>:
    8c46:	c129                	beqz	a0,8c88 <OD_write_1017+0x42>
    8c48:	01154303          	lbu	t1,17(a0)
    8c4c:	47a5                	li	a5,9
    8c4e:	02031e63          	bnez	t1,8c8a <OD_write_1017+0x44>
    8c52:	cd85                	beqz	a1,8c8a <OD_write_1017+0x44>
    8c54:	4309                	li	t1,2
    8c56:	02661a63          	bne	a2,t1,8c8a <OD_write_1017+0x44>
    8c5a:	ca85                	beqz	a3,8c8a <OD_write_1017+0x44>
    8c5c:	8c3f72ef          	jal	t0,51e <__riscv_save_0>
    8c60:	219c                	lbu	a5,0(a1)
    8c62:	1141                	addi	sp,sp,-16
    8c64:	3e800713          	li	a4,1000
    8c68:	875c                	sb	a5,14(sp)
    8c6a:	319c                	lbu	a5,1(a1)
    8c6c:	00452803          	lw	a6,4(a0)
    8c70:	87dc                	sb	a5,15(sp)
    8c72:	873c                	lhu	a5,14(sp)
    8c74:	00082c23          	sw	zero,24(a6)
    8c78:	02e787b3          	mul	a5,a5,a4
    8c7c:	00f82a23          	sw	a5,20(a6)
    8c80:	2c91                	jal	8ed4 <OD_writeOriginal>
    8c82:	0141                	addi	sp,sp,16
    8c84:	8bff706f          	j	542 <__riscv_restore_0>
    8c88:	47a5                	li	a5,9
    8c8a:	853e                	mv	a0,a5
    8c8c:	8082                	ret

00008c8e <CO_NMT_init>:
    8c8e:	869f72ef          	jal	t0,4f6 <__riscv_save_10>
    8c92:	1141                	addi	sp,sp,-16
    8c94:	4a16                	lw	s4,68(sp)
    8c96:	4b46                	lw	s6,80(sp)
    8c98:	cd79                	beqz	a0,8d76 <CO_NMT_init+0xe8>
    8c9a:	842a                	mv	s0,a0
    8c9c:	557d                	li	a0,-1
    8c9e:	c1b5                	beqz	a1,8d02 <CO_NMT_init+0x74>
    8ca0:	c22d                	beqz	a2,8d02 <CO_NMT_init+0x74>
    8ca2:	06080063          	beqz	a6,8d02 <CO_NMT_init+0x74>
    8ca6:	040a0e63          	beqz	s4,8d02 <CO_NMT_init+0x74>
    8caa:	8ab2                	mv	s5,a2
    8cac:	84ae                	mv	s1,a1
    8cae:	03000613          	li	a2,48
    8cb2:	4581                	li	a1,0
    8cb4:	00840513          	addi	a0,s0,8
    8cb8:	8c3a                	mv	s8,a4
    8cba:	8cb6                	mv	s9,a3
    8cbc:	893e                	mv	s2,a5
    8cbe:	8bc6                	mv	s7,a7
    8cc0:	89c2                	mv	s3,a6
    8cc2:	88df70ef          	jal	ra,54e <memset>
    8cc6:	03542623          	sw	s5,44(s0)
    8cca:	3e800a93          	li	s5,1000
    8cce:	03590933          	mul	s2,s2,s5
    8cd2:	00042023          	sw	zero,0(s0)
    8cd6:	00042223          	sw	zero,4(s0)
    8cda:	01940623          	sb	s9,12(s0)
    8cde:	01842823          	sw	s8,16(s0)
    8ce2:	4705                	li	a4,1
    8ce4:	4689                	li	a3,2
    8ce6:	00e10613          	addi	a2,sp,14
    8cea:	4581                	li	a1,0
    8cec:	8526                	mv	a0,s1
    8cee:	01242c23          	sw	s2,24(s0)
    8cf2:	2e75                	jal	90ae <OD_get_value>
    8cf4:	c911                	beqz	a0,8d08 <CO_NMT_init+0x7a>
    8cf6:	5551                	li	a0,-12
    8cf8:	000b0563          	beqz	s6,8d02 <CO_NMT_init+0x74>
    8cfc:	209e                	lhu	a5,0(s1)
    8cfe:	00fb2023          	sw	a5,0(s6) # 4000 <bReadEEPROM+0x2>
    8d02:	0141                	addi	sp,sp,16
    8d04:	82bf706f          	j	52e <__riscv_restore_10>
    8d08:	873c                	lhu	a5,14(sp)
    8d0a:	00009737          	lui	a4,0x9
    8d0e:	e8470713          	addi	a4,a4,-380 # 8e84 <OD_readOriginal>
    8d12:	035787b3          	mul	a5,a5,s5
    8d16:	d018                	sw	a4,32(s0)
    8d18:	00009737          	lui	a4,0x9
    8d1c:	c4670713          	addi	a4,a4,-954 # 8c46 <OD_write_1017>
    8d20:	d058                	sw	a4,36(s0)
    8d22:	cc40                	sw	s0,28(s0)
    8d24:	01c40713          	addi	a4,s0,28
    8d28:	c85c                	sw	a5,20(s0)
    8d2a:	c498                	sw	a4,8(s1)
    8d2c:	4c18                	lw	a4,24(s0)
    8d2e:	00e7f363          	bgeu	a5,a4,8d34 <CO_NMT_init+0xa6>
    8d32:	cc1c                	sw	a5,24(s0)
    8d34:	04015603          	lhu	a2,64(sp)
    8d38:	00009837          	lui	a6,0x9
    8d3c:	c2e80813          	addi	a6,a6,-978 # 8c2e <CO_NMT_receive>
    8d40:	87a2                	mv	a5,s0
    8d42:	4701                	li	a4,0
    8d44:	7ff00693          	li	a3,2047
    8d48:	85de                	mv	a1,s7
    8d4a:	854e                	mv	a0,s3
    8d4c:	db8ff0ef          	jal	ra,8304 <CO_CANrxBufferInit>
    8d50:	f94d                	bnez	a0,8d02 <CO_NMT_init+0x74>
    8d52:	04c15603          	lhu	a2,76(sp)
    8d56:	04815583          	lhu	a1,72(sp)
    8d5a:	03442823          	sw	s4,48(s0)
    8d5e:	4781                	li	a5,0
    8d60:	4705                	li	a4,1
    8d62:	4681                	li	a3,0
    8d64:	8552                	mv	a0,s4
    8d66:	df0ff0ef          	jal	ra,8356 <CO_CANtxBufferInit>
    8d6a:	d848                	sw	a0,52(s0)
    8d6c:	00153513          	seqz	a0,a0
    8d70:	40a00533          	neg	a0,a0
    8d74:	b779                	j	8d02 <CO_NMT_init+0x74>
    8d76:	557d                	li	a0,-1
    8d78:	b769                	j	8d02 <CO_NMT_init+0x74>

00008d7a <CO_NMT_process>:
    8d7a:	fa4f72ef          	jal	t0,51e <__riscv_save_0>
    8d7e:	4d18                	lw	a4,24(a0)
    8d80:	84aa                	mv	s1,a0
    8d82:	892e                	mv	s2,a1
    8d84:	4100                	lw	s0,0(a0)
    8d86:	40c707b3          	sub	a5,a4,a2
    8d8a:	00e66363          	bltu	a2,a4,8d90 <CO_NMT_process+0x16>
    8d8e:	4781                	li	a5,0
    8d90:	cc9c                	sw	a5,24(s1)
    8d92:	c419                	beqz	s0,8da0 <CO_NMT_process+0x26>
    8d94:	48d8                	lw	a4,20(s1)
    8d96:	c315                	beqz	a4,8dba <CO_NMT_process+0x40>
    8d98:	c781                	beqz	a5,8da0 <CO_NMT_process+0x26>
    8d9a:	40dc                	lw	a5,4(s1)
    8d9c:	00878f63          	beq	a5,s0,8dba <CO_NMT_process+0x40>
    8da0:	58cc                	lw	a1,52(s1)
    8da2:	b1c0                	sb	s0,5(a1)
    8da4:	5888                	lw	a0,48(s1)
    8da6:	dfcff0ef          	jal	ra,83a2 <CO_CANsend>
    8daa:	e859                	bnez	s0,8e40 <CO_NMT_process+0xc6>
    8dac:	489c                	lw	a5,16(s1)
    8dae:	4415                	li	s0,5
    8db0:	1007f793          	andi	a5,a5,256
    8db4:	e399                	bnez	a5,8dba <CO_NMT_process+0x40>
    8db6:	07f00413          	li	s0,127
    8dba:	449c                	lw	a5,8(s1)
    8dbc:	c0c0                	sw	s0,4(s1)
    8dbe:	4501                	li	a0,0
    8dc0:	cf99                	beqz	a5,8dde <CO_NMT_process+0x64>
    8dc2:	08000713          	li	a4,128
    8dc6:	08e78a63          	beq	a5,a4,8e5a <CO_NMT_process+0xe0>
    8dca:	06f76e63          	bltu	a4,a5,8e46 <CO_NMT_process+0xcc>
    8dce:	4705                	li	a4,1
    8dd0:	08e78863          	beq	a5,a4,8e60 <CO_NMT_process+0xe6>
    8dd4:	4709                	li	a4,2
    8dd6:	08e78763          	beq	a5,a4,8e64 <CO_NMT_process+0xea>
    8dda:	0004a423          	sw	zero,8(s1)
    8dde:	4894                	lw	a3,16(s1)
    8de0:	4781                	li	a5,0
    8de2:	01369713          	slli	a4,a3,0x13
    8de6:	00075c63          	bgez	a4,8dfe <CO_NMT_process+0x84>
    8dea:	54d8                	lw	a4,44(s1)
    8dec:	4785                	li	a5,1
    8dee:	cb01                	beqz	a4,8dfe <CO_NMT_process+0x84>
    8df0:	2330                	lbu	a2,2(a4)
    8df2:	8a11                	andi	a2,a2,4
    8df4:	e609                	bnez	a2,8dfe <CO_NMT_process+0x84>
    8df6:	333c                	lbu	a5,3(a4)
    8df8:	8be1                	andi	a5,a5,24
    8dfa:	00f037b3          	snez	a5,a5
    8dfe:	01269613          	slli	a2,a3,0x12
    8e02:	4701                	li	a4,0
    8e04:	00065a63          	bgez	a2,8e18 <CO_NMT_process+0x9e>
    8e08:	54d0                	lw	a2,44(s1)
    8e0a:	c619                	beqz	a2,8e18 <CO_NMT_process+0x9e>
    8e0c:	4650                	lw	a2,12(a2)
    8e0e:	c609                	beqz	a2,8e18 <CO_NMT_process+0x9e>
    8e10:	2218                	lbu	a4,0(a2)
    8e12:	8f75                	and	a4,a4,a3
    8e14:	00e03733          	snez	a4,a4
    8e18:	4615                	li	a2,5
    8e1a:	04c41763          	bne	s0,a2,8e68 <CO_NMT_process+0xee>
    8e1e:	00e7e633          	or	a2,a5,a4
    8e22:	c239                	beqz	a2,8e68 <CO_NMT_process+0xee>
    8e24:	01169793          	slli	a5,a3,0x11
    8e28:	07f00413          	li	s0,127
    8e2c:	0007d363          	bgez	a5,8e32 <CO_NMT_process+0xb8>
    8e30:	4411                	li	s0,4
    8e32:	c080                	sw	s0,0(s1)
    8e34:	00090463          	beqz	s2,8e3c <CO_NMT_process+0xc2>
    8e38:	00892023          	sw	s0,0(s2)
    8e3c:	f06f706f          	j	542 <__riscv_restore_0>
    8e40:	48dc                	lw	a5,20(s1)
    8e42:	cc9c                	sw	a5,24(s1)
    8e44:	bf9d                	j	8dba <CO_NMT_process+0x40>
    8e46:	08100713          	li	a4,129
    8e4a:	4509                	li	a0,2
    8e4c:	f8e787e3          	beq	a5,a4,8dda <CO_NMT_process+0x60>
    8e50:	f7e78793          	addi	a5,a5,-130
    8e54:	0017b513          	seqz	a0,a5
    8e58:	b749                	j	8dda <CO_NMT_process+0x60>
    8e5a:	07f00413          	li	s0,127
    8e5e:	bfb5                	j	8dda <CO_NMT_process+0x60>
    8e60:	4415                	li	s0,5
    8e62:	bfa5                	j	8dda <CO_NMT_process+0x60>
    8e64:	4411                	li	s0,4
    8e66:	bf95                	j	8dda <CO_NMT_process+0x60>
    8e68:	01069613          	slli	a2,a3,0x10
    8e6c:	fc0653e3          	bgez	a2,8e32 <CO_NMT_process+0xb8>
    8e70:	07f00693          	li	a3,127
    8e74:	fad41fe3          	bne	s0,a3,8e32 <CO_NMT_process+0xb8>
    8e78:	8fd9                	or	a5,a5,a4
    8e7a:	ffc5                	bnez	a5,8e32 <CO_NMT_process+0xb8>
    8e7c:	4415                	li	s0,5
    8e7e:	bf55                	j	8e32 <CO_NMT_process+0xb8>

00008e80 <OD_readDisabled>:
    8e80:	4509                	li	a0,2
    8e82:	8082                	ret

00008e84 <OD_readOriginal>:
    8e84:	e9af72ef          	jal	t0,51e <__riscv_save_0>
    8e88:	4425                	li	s0,9
    8e8a:	cd15                	beqz	a0,8ec6 <OD_readOriginal+0x42>
    8e8c:	cd8d                	beqz	a1,8ec6 <OD_readOriginal+0x42>
    8e8e:	ce85                	beqz	a3,8ec6 <OD_readOriginal+0x42>
    8e90:	4118                	lw	a4,0(a0)
    8e92:	4504                	lw	s1,8(a0)
    8e94:	4439                	li	s0,14
    8e96:	cb05                	beqz	a4,8ec6 <OD_readOriginal+0x42>
    8e98:	455c                	lw	a5,12(a0)
    8e9a:	e399                	bnez	a5,8ea0 <OD_readOriginal+0x1c>
    8e9c:	02967a63          	bgeu	a2,s1,8ed0 <OD_readOriginal+0x4c>
    8ea0:	4425                	li	s0,9
    8ea2:	0297f263          	bgeu	a5,s1,8ec6 <OD_readOriginal+0x42>
    8ea6:	8c9d                	sub	s1,s1,a5
    8ea8:	973e                	add	a4,a4,a5
    8eaa:	02967163          	bgeu	a2,s1,8ecc <OD_readOriginal+0x48>
    8eae:	97b2                	add	a5,a5,a2
    8eb0:	c55c                	sw	a5,12(a0)
    8eb2:	84b2                	mv	s1,a2
    8eb4:	547d                	li	s0,-1
    8eb6:	8936                	mv	s2,a3
    8eb8:	852e                	mv	a0,a1
    8eba:	8626                	mv	a2,s1
    8ebc:	85ba                	mv	a1,a4
    8ebe:	0a1020ef          	jal	ra,b75e <memcpy>
    8ec2:	00992023          	sw	s1,0(s2)
    8ec6:	8522                	mv	a0,s0
    8ec8:	e7af706f          	j	542 <__riscv_restore_0>
    8ecc:	00052623          	sw	zero,12(a0)
    8ed0:	4401                	li	s0,0
    8ed2:	b7d5                	j	8eb6 <OD_readOriginal+0x32>

00008ed4 <OD_writeOriginal>:
    8ed4:	e4af72ef          	jal	t0,51e <__riscv_save_0>
    8ed8:	44a5                	li	s1,9
    8eda:	cd0d                	beqz	a0,8f14 <OD_writeOriginal+0x40>
    8edc:	cd85                	beqz	a1,8f14 <OD_writeOriginal+0x40>
    8ede:	ca9d                	beqz	a3,8f14 <OD_writeOriginal+0x40>
    8ee0:	872a                	mv	a4,a0
    8ee2:	4500                	lw	s0,8(a0)
    8ee4:	4108                	lw	a0,0(a0)
    8ee6:	44b9                	li	s1,14
    8ee8:	c515                	beqz	a0,8f14 <OD_writeOriginal+0x40>
    8eea:	475c                	lw	a5,12(a4)
    8eec:	e399                	bnez	a5,8ef2 <OD_writeOriginal+0x1e>
    8eee:	02867863          	bgeu	a2,s0,8f1e <OD_writeOriginal+0x4a>
    8ef2:	44a5                	li	s1,9
    8ef4:	0287f063          	bgeu	a5,s0,8f14 <OD_writeOriginal+0x40>
    8ef8:	8c1d                	sub	s0,s0,a5
    8efa:	953e                	add	a0,a0,a5
    8efc:	00867f63          	bgeu	a2,s0,8f1a <OD_writeOriginal+0x46>
    8f00:	97b2                	add	a5,a5,a2
    8f02:	c75c                	sw	a5,12(a4)
    8f04:	8432                	mv	s0,a2
    8f06:	54fd                	li	s1,-1
    8f08:	8936                	mv	s2,a3
    8f0a:	8622                	mv	a2,s0
    8f0c:	053020ef          	jal	ra,b75e <memcpy>
    8f10:	00892023          	sw	s0,0(s2)
    8f14:	8526                	mv	a0,s1
    8f16:	e2cf706f          	j	542 <__riscv_restore_0>
    8f1a:	00072623          	sw	zero,12(a4)
    8f1e:	44b1                	li	s1,12
    8f20:	fec46ae3          	bltu	s0,a2,8f14 <OD_writeOriginal+0x40>
    8f24:	4481                	li	s1,0
    8f26:	b7cd                	j	8f08 <OD_writeOriginal+0x34>

00008f28 <OD_writeDisabled>:
    8f28:	4509                	li	a0,2
    8f2a:	8082                	ret

00008f2c <OD_find>:
    8f2c:	c535                	beqz	a0,8f98 <OD_find+0x6c>
    8f2e:	211a                	lhu	a4,0(a0)
    8f30:	4781                	li	a5,0
    8f32:	c31d                	beqz	a4,8f58 <OD_find+0x2c>
    8f34:	177d                	addi	a4,a4,-1
    8f36:	0742                	slli	a4,a4,0x10
    8f38:	8341                	srli	a4,a4,0x10
    8f3a:	4681                	li	a3,0
    8f3c:	4331                	li	t1,12
    8f3e:	00e6ef63          	bltu	a3,a4,8f5c <OD_find+0x30>
    8f42:	4781                	li	a5,0
    8f44:	00e69a63          	bne	a3,a4,8f58 <OD_find+0x2c>
    8f48:	47b1                	li	a5,12
    8f4a:	02f686b3          	mul	a3,a3,a5
    8f4e:	415c                	lw	a5,4(a0)
    8f50:	97b6                	add	a5,a5,a3
    8f52:	239a                	lhu	a4,0(a5)
    8f54:	04b71263          	bne	a4,a1,8f98 <OD_find+0x6c>
    8f58:	853e                	mv	a0,a5
    8f5a:	8082                	ret
    8f5c:	00e68833          	add	a6,a3,a4
    8f60:	40185813          	srai	a6,a6,0x1
    8f64:	026808b3          	mul	a7,a6,t1
    8f68:	415c                	lw	a5,4(a0)
    8f6a:	01081613          	slli	a2,a6,0x10
    8f6e:	8241                	srli	a2,a2,0x10
    8f70:	97c6                	add	a5,a5,a7
    8f72:	0007d883          	lhu	a7,0(a5)
    8f76:	feb881e3          	beq	a7,a1,8f58 <OD_find+0x2c>
    8f7a:	0115fa63          	bgeu	a1,a7,8f8e <OD_find+0x62>
    8f7e:	4701                	li	a4,0
    8f80:	fc0801e3          	beqz	a6,8f42 <OD_find+0x16>
    8f84:	fff60713          	addi	a4,a2,-1
    8f88:	0742                	slli	a4,a4,0x10
    8f8a:	8341                	srli	a4,a4,0x10
    8f8c:	bf4d                	j	8f3e <OD_find+0x12>
    8f8e:	00160693          	addi	a3,a2,1
    8f92:	06c2                	slli	a3,a3,0x10
    8f94:	82c1                	srli	a3,a3,0x10
    8f96:	b765                	j	8f3e <OD_find+0x12>
    8f98:	4781                	li	a5,0
    8f9a:	bf7d                	j	8f58 <OD_find+0x2c>

00008f9c <OD_getSub>:
    8f9c:	4715                	li	a4,5
    8f9e:	c115                	beqz	a0,8fc2 <OD_getSub+0x26>
    8fa0:	415c                	lw	a5,4(a0)
    8fa2:	4715                	li	a4,5
    8fa4:	cf99                	beqz	a5,8fc2 <OD_getSub+0x26>
    8fa6:	4725                	li	a4,9
    8fa8:	ce09                	beqz	a2,8fc2 <OD_getSub+0x26>
    8faa:	3138                	lbu	a4,3(a0)
    8fac:	4809                	li	a6,2
    8fae:	8b3d                	andi	a4,a4,15
    8fb0:	05070e63          	beq	a4,a6,900c <OD_getSub+0x70>
    8fb4:	480d                	li	a6,3
    8fb6:	01070863          	beq	a4,a6,8fc6 <OD_getSub+0x2a>
    8fba:	4805                	li	a6,1
    8fbc:	01070c63          	beq	a4,a6,8fd4 <OD_getSub+0x38>
    8fc0:	4725                	li	a4,9
    8fc2:	853a                	mv	a0,a4
    8fc4:	8082                	ret
    8fc6:	00254883          	lbu	a7,2(a0)
    8fca:	4701                	li	a4,0
    8fcc:	06e89d63          	bne	a7,a4,9046 <OD_getSub+0xaa>
    8fd0:	4739                	li	a4,14
    8fd2:	bfc5                	j	8fc2 <OD_getSub+0x26>
    8fd4:	4739                	li	a4,14
    8fd6:	f5f5                	bnez	a1,8fc2 <OD_getSub+0x26>
    8fd8:	23d8                	lbu	a4,4(a5)
    8fda:	aa18                	sb	a4,16(a2)
    8fdc:	4398                	lw	a4,0(a5)
    8fde:	479c                	lw	a5,8(a5)
    8fe0:	c218                	sw	a4,0(a2)
    8fe2:	4518                	lw	a4,8(a0)
    8fe4:	c61c                	sw	a5,8(a2)
    8fe6:	c311                	beqz	a4,8fea <OD_getSub+0x4e>
    8fe8:	caad                	beqz	a3,905a <OD_getSub+0xbe>
    8fea:	000097b7          	lui	a5,0x9
    8fee:	e8478793          	addi	a5,a5,-380 # 8e84 <OD_readOriginal>
    8ff2:	ca5c                	sw	a5,20(a2)
    8ff4:	000097b7          	lui	a5,0x9
    8ff8:	ed478793          	addi	a5,a5,-300 # 8ed4 <OD_writeOriginal>
    8ffc:	ce1c                	sw	a5,24(a2)
    8ffe:	00062223          	sw	zero,4(a2)
    9002:	00062623          	sw	zero,12(a2)
    9006:	ba0c                	sb	a1,17(a2)
    9008:	4701                	li	a4,0
    900a:	bf65                	j	8fc2 <OD_getSub+0x26>
    900c:	00254803          	lbu	a6,2(a0)
    9010:	4739                	li	a4,14
    9012:	fb05f8e3          	bgeu	a1,a6,8fc2 <OD_getSub+0x26>
    9016:	e599                	bnez	a1,9024 <OD_getSub+0x88>
    9018:	2798                	lbu	a4,8(a5)
    901a:	aa18                	sb	a4,16(a2)
    901c:	439c                	lw	a5,0(a5)
    901e:	c21c                	sw	a5,0(a2)
    9020:	4785                	li	a5,1
    9022:	b7c1                	j	8fe2 <OD_getSub+0x46>
    9024:	3798                	lbu	a4,9(a5)
    9026:	aa18                	sb	a4,16(a2)
    9028:	0047a803          	lw	a6,4(a5)
    902c:	00080963          	beqz	a6,903e <OD_getSub+0xa2>
    9030:	0107a883          	lw	a7,16(a5)
    9034:	fff58713          	addi	a4,a1,-1
    9038:	03170733          	mul	a4,a4,a7
    903c:	983a                	add	a6,a6,a4
    903e:	01062023          	sw	a6,0(a2)
    9042:	47dc                	lw	a5,12(a5)
    9044:	bf79                	j	8fe2 <OD_getSub+0x46>
    9046:	883e                	mv	a6,a5
    9048:	07b1                	addi	a5,a5,12
    904a:	ff87c303          	lbu	t1,-8(a5)
    904e:	02b30763          	beq	t1,a1,907c <OD_getSub+0xe0>
    9052:	0705                	addi	a4,a4,1
    9054:	0ff77713          	andi	a4,a4,255
    9058:	bf95                	j	8fcc <OD_getSub+0x30>
    905a:	435c                	lw	a5,4(a4)
    905c:	e789                	bnez	a5,9066 <OD_getSub+0xca>
    905e:	000097b7          	lui	a5,0x9
    9062:	e8078793          	addi	a5,a5,-384 # 8e80 <OD_readDisabled>
    9066:	ca5c                	sw	a5,20(a2)
    9068:	471c                	lw	a5,8(a4)
    906a:	e789                	bnez	a5,9074 <OD_getSub+0xd8>
    906c:	000097b7          	lui	a5,0x9
    9070:	f2878793          	addi	a5,a5,-216 # 8f28 <OD_writeDisabled>
    9074:	ce1c                	sw	a5,24(a2)
    9076:	431c                	lw	a5,0(a4)
    9078:	c25c                	sw	a5,4(a2)
    907a:	b761                	j	9002 <OD_getSub+0x66>
    907c:	00584783          	lbu	a5,5(a6)
    9080:	aa1c                	sb	a5,16(a2)
    9082:	00082783          	lw	a5,0(a6)
    9086:	c21c                	sw	a5,0(a2)
    9088:	00882783          	lw	a5,8(a6)
    908c:	bf99                	j	8fe2 <OD_getSub+0x46>

0000908e <OD_getSDOabCode>:
    908e:	47e5                	li	a5,25
    9090:	00a7ea63          	bltu	a5,a0,90a4 <OD_getSDOabCode+0x16>
    9094:	00251793          	slli	a5,a0,0x2
    9098:	6535                	lui	a0,0xd
    909a:	4d450513          	addi	a0,a0,1236 # d4d4 <abortCodes.6774>
    909e:	953e                	add	a0,a0,a5
    90a0:	4108                	lw	a0,0(a0)
    90a2:	8082                	ret
    90a4:	06040537          	lui	a0,0x6040
    90a8:	04750513          	addi	a0,a0,71 # 6040047 <_data_lma+0x60328af>
    90ac:	8082                	ret

000090ae <OD_get_value>:
    90ae:	ca05                	beqz	a2,90de <OD_get_value+0x30>
    90b0:	c6ef72ef          	jal	t0,51e <__riscv_save_0>
    90b4:	1101                	addi	sp,sp,-32
    90b6:	84b6                	mv	s1,a3
    90b8:	8432                	mv	s0,a2
    90ba:	86ba                	mv	a3,a4
    90bc:	0050                	addi	a2,sp,4
    90be:	c002                	sw	zero,0(sp)
    90c0:	eddff0ef          	jal	ra,8f9c <OD_getSub>
    90c4:	e911                	bnez	a0,90d8 <OD_get_value+0x2a>
    90c6:	4632                	lw	a2,12(sp)
    90c8:	452d                	li	a0,11
    90ca:	00961763          	bne	a2,s1,90d8 <OD_get_value+0x2a>
    90ce:	47e2                	lw	a5,24(sp)
    90d0:	868a                	mv	a3,sp
    90d2:	85a2                	mv	a1,s0
    90d4:	0048                	addi	a0,sp,4
    90d6:	9782                	jalr	a5
    90d8:	6105                	addi	sp,sp,32
    90da:	c68f706f          	j	542 <__riscv_restore_0>
    90de:	4525                	li	a0,9
    90e0:	8082                	ret

000090e2 <OD_set_value>:
    90e2:	c3cf72ef          	jal	t0,51e <__riscv_save_0>
    90e6:	1101                	addi	sp,sp,-32
    90e8:	8432                	mv	s0,a2
    90ea:	84b6                	mv	s1,a3
    90ec:	0050                	addi	a2,sp,4
    90ee:	86ba                	mv	a3,a4
    90f0:	c002                	sw	zero,0(sp)
    90f2:	eabff0ef          	jal	ra,8f9c <OD_getSub>
    90f6:	e911                	bnez	a0,910a <OD_set_value+0x28>
    90f8:	4632                	lw	a2,12(sp)
    90fa:	452d                	li	a0,11
    90fc:	00961763          	bne	a2,s1,910a <OD_set_value+0x28>
    9100:	47f2                	lw	a5,28(sp)
    9102:	868a                	mv	a3,sp
    9104:	85a2                	mv	a1,s0
    9106:	0048                	addi	a0,sp,4
    9108:	9782                	jalr	a5
    910a:	6105                	addi	sp,sp,32
    910c:	c36f706f          	j	542 <__riscv_restore_0>

00009110 <OD_getPtr>:
    9110:	c0ef72ef          	jal	t0,51e <__riscv_save_0>
    9114:	1101                	addi	sp,sp,-32
    9116:	84b2                	mv	s1,a2
    9118:	8436                	mv	s0,a3
    911a:	0050                	addi	a2,sp,4
    911c:	4685                	li	a3,1
    911e:	e7fff0ef          	jal	ra,8f9c <OD_getSub>
    9122:	ed19                	bnez	a0,9140 <OD_getPtr+0x30>
    9124:	4792                	lw	a5,4(sp)
    9126:	cf81                	beqz	a5,913e <OD_getPtr+0x2e>
    9128:	4732                	lw	a4,12(sp)
    912a:	cb11                	beqz	a4,913e <OD_getPtr+0x2e>
    912c:	c481                	beqz	s1,9134 <OD_getPtr+0x24>
    912e:	452d                	li	a0,11
    9130:	00971863          	bne	a4,s1,9140 <OD_getPtr+0x30>
    9134:	c019                	beqz	s0,913a <OD_getPtr+0x2a>
    9136:	00042023          	sw	zero,0(s0)
    913a:	853e                	mv	a0,a5
    913c:	a029                	j	9146 <OD_getPtr+0x36>
    913e:	4525                	li	a0,9
    9140:	c011                	beqz	s0,9144 <OD_getPtr+0x34>
    9142:	c008                	sw	a0,0(s0)
    9144:	4501                	li	a0,0
    9146:	6105                	addi	sp,sp,32
    9148:	bfaf706f          	j	542 <__riscv_restore_0>

0000914c <OD_write_dummy>:
    914c:	c291                	beqz	a3,9150 <OD_write_dummy+0x4>
    914e:	c290                	sw	a2,0(a3)
    9150:	4501                	li	a0,0
    9152:	8082                	ret

00009154 <OD_read_dummy>:
    9154:	47a5                	li	a5,9
    9156:	c585                	beqz	a1,917e <OD_read_dummy+0x2a>
    9158:	c11d                	beqz	a0,917e <OD_read_dummy+0x2a>
    915a:	c295                	beqz	a3,917e <OD_read_dummy+0x2a>
    915c:	bc2f72ef          	jal	t0,51e <__riscv_save_0>
    9160:	4504                	lw	s1,8(a0)
    9162:	00967363          	bgeu	a2,s1,9168 <OD_read_dummy+0x14>
    9166:	84b2                	mv	s1,a2
    9168:	852e                	mv	a0,a1
    916a:	8626                	mv	a2,s1
    916c:	4581                	li	a1,0
    916e:	8436                	mv	s0,a3
    9170:	bdef70ef          	jal	ra,54e <memset>
    9174:	4781                	li	a5,0
    9176:	c004                	sw	s1,0(s0)
    9178:	853e                	mv	a0,a5
    917a:	bc8f706f          	j	542 <__riscv_restore_0>
    917e:	853e                	mv	a0,a5
    9180:	8082                	ret

00009182 <PDOconfigMap>:
    9182:	b74f72ef          	jal	t0,4f6 <__riscv_save_10>
    9186:	0ff5f993          	andi	s3,a1,255
    918a:	0039d993          	srli	s3,s3,0x3
    918e:	4821                	li	a6,8
    9190:	1101                	addi	sp,sp,-32
    9192:	4b1d                	li	s6,7
    9194:	05386b63          	bltu	a6,s3,91ea <PDOconfigMap+0x68>
    9198:	0085da13          	srli	s4,a1,0x8
    919c:	8bb6                	mv	s7,a3
    919e:	0105d793          	srli	a5,a1,0x10
    91a2:	46fd                	li	a3,31
    91a4:	0ffa7a93          	andi	s5,s4,255
    91a8:	8932                	mv	s2,a2
    91aa:	84ae                	mv	s1,a1
    91ac:	842a                	mv	s0,a0
    91ae:	04f6e263          	bltu	a3,a5,91f2 <PDOconfigMap+0x70>
    91b2:	040a9063          	bnez	s5,91f2 <PDOconfigMap+0x70>
    91b6:	44f1                	li	s1,28
    91b8:	029604b3          	mul	s1,a2,s1
    91bc:	4581                	li	a1,0
    91be:	4651                	li	a2,20
    91c0:	4b01                	li	s6,0
    91c2:	01048513          	addi	a0,s1,16
    91c6:	9522                	add	a0,a0,s0
    91c8:	b86f70ef          	jal	ra,54e <memset>
    91cc:	000097b7          	lui	a5,0x9
    91d0:	9426                	add	s0,s0,s1
    91d2:	15478793          	addi	a5,a5,340 # 9154 <OD_read_dummy>
    91d6:	d05c                	sw	a5,36(s0)
    91d8:	000097b7          	lui	a5,0x9
    91dc:	14c78793          	addi	a5,a5,332 # 914c <OD_write_dummy>
    91e0:	01342e23          	sw	s3,28(s0)
    91e4:	01342c23          	sw	s3,24(s0)
    91e8:	d41c                	sw	a5,40(s0)
    91ea:	855a                	mv	a0,s6
    91ec:	6105                	addi	sp,sp,32
    91ee:	b40f706f          	j	52e <__riscv_restore_10>
    91f2:	85be                	mv	a1,a5
    91f4:	853a                	mv	a0,a4
    91f6:	d37ff0ef          	jal	ra,8f2c <OD_find>
    91fa:	4681                	li	a3,0
    91fc:	0050                	addi	a2,sp,4
    91fe:	85d6                	mv	a1,s5
    9200:	8c2a                	mv	s8,a0
    9202:	d9bff0ef          	jal	ra,8f9c <OD_getSub>
    9206:	8b2a                	mv	s6,a0
    9208:	f16d                	bnez	a0,91ea <PDOconfigMap+0x68>
    920a:	47a1                	li	a5,8
    920c:	000b9363          	bnez	s7,9212 <PDOconfigMap+0x90>
    9210:	4791                	li	a5,4
    9212:	01414703          	lbu	a4,20(sp)
    9216:	8ff9                	and	a5,a5,a4
    9218:	c3ad                	beqz	a5,927a <PDOconfigMap+0xf8>
    921a:	0074f593          	andi	a1,s1,7
    921e:	edb1                	bnez	a1,927a <PDOconfigMap+0xf8>
    9220:	47b2                	lw	a5,12(sp)
    9222:	0537ec63          	bltu	a5,s3,927a <PDOconfigMap+0xf8>
    9226:	44f1                	li	s1,28
    9228:	029904b3          	mul	s1,s2,s1
    922c:	4671                	li	a2,28
    922e:	004c                	addi	a1,sp,4
    9230:	94a2                	add	s1,s1,s0
    9232:	01048513          	addi	a0,s1,16
    9236:	528020ef          	jal	ra,b75e <memcpy>
    923a:	0134ae23          	sw	s3,28(s1)
    923e:	fa0b96e3          	bnez	s7,91ea <PDOconfigMap+0x68>
    9242:	03c90793          	addi	a5,s2,60
    9246:	477d                	li	a4,31
    9248:	078a                	slli	a5,a5,0x2
    924a:	03576463          	bltu	a4,s5,9272 <PDOconfigMap+0xf0>
    924e:	008c2703          	lw	a4,8(s8)
    9252:	c305                	beqz	a4,9272 <PDOconfigMap+0xf0>
    9254:	003ad593          	srli	a1,s5,0x3
    9258:	05b1                	addi	a1,a1,12
    925a:	97a2                	add	a5,a5,s0
    925c:	95ba                	add	a1,a1,a4
    925e:	c38c                	sw	a1,0(a5)
    9260:	007a7a13          	andi	s4,s4,7
    9264:	4785                	li	a5,1
    9266:	944a                	add	s0,s0,s2
    9268:	01479a33          	sll	s4,a5,s4
    926c:	11440823          	sb	s4,272(s0)
    9270:	bfad                	j	91ea <PDOconfigMap+0x68>
    9272:	943e                	add	s0,s0,a5
    9274:	00042023          	sw	zero,0(s0)
    9278:	bf8d                	j	91ea <PDOconfigMap+0x68>
    927a:	4b19                	li	s6,6
    927c:	b7bd                	j	91ea <PDOconfigMap+0x68>

0000927e <CO_PDO_receive>:
    927e:	aa0f72ef          	jal	t0,51e <__riscv_save_0>
    9282:	451c                	lw	a5,8(a0)
    9284:	84aa                	mv	s1,a0
    9286:	15454403          	lbu	s0,340(a0)
    928a:	c785                	beqz	a5,92b2 <CO_PDO_receive+0x34>
    928c:	21dc                	lbu	a5,4(a1)
    928e:	2558                	lbu	a4,12(a0)
    9290:	02e7e863          	bltu	a5,a4,92c0 <CO_PDO_receive+0x42>
    9294:	02f71363          	bne	a4,a5,92ba <CO_PDO_receive+0x3c>
    9298:	4785                	li	a5,1
    929a:	00f41363          	bne	s0,a5,92a0 <CO_PDO_receive+0x22>
    929e:	442d                	li	s0,11
    92a0:	4621                	li	a2,8
    92a2:	0595                	addi	a1,a1,5
    92a4:	14c48513          	addi	a0,s1,332
    92a8:	4b6020ef          	jal	ra,b75e <memcpy>
    92ac:	4785                	li	a5,1
    92ae:	14f4a423          	sw	a5,328(s1)
    92b2:	14848a23          	sb	s0,340(s1)
    92b6:	a8cf706f          	j	542 <__riscv_restore_0>
    92ba:	f07d                	bnez	s0,92a0 <CO_PDO_receive+0x22>
    92bc:	4435                	li	s0,13
    92be:	b7cd                	j	92a0 <CO_PDO_receive+0x22>
    92c0:	f86d                	bnez	s0,92b2 <CO_PDO_receive+0x34>
    92c2:	4431                	li	s0,12
    92c4:	b7fd                	j	92b2 <CO_PDO_receive+0x34>

000092c6 <OD_read_PDO_commParam>:
    92c6:	a3ef72ef          	jal	t0,504 <__riscv_save_4>
    92ca:	1141                	addi	sp,sp,-16
    92cc:	892a                	mv	s2,a0
    92ce:	84ae                	mv	s1,a1
    92d0:	89b6                	mv	s3,a3
    92d2:	bb3ff0ef          	jal	ra,8e84 <OD_readOriginal>
    92d6:	842a                	mv	s0,a0
    92d8:	e939                	bnez	a0,932e <OD_read_PDO_commParam+0x68>
    92da:	01194703          	lbu	a4,17(s2)
    92de:	4785                	li	a5,1
    92e0:	04f71763          	bne	a4,a5,932e <OD_read_PDO_commParam+0x68>
    92e4:	0009a703          	lw	a4,0(s3)
    92e8:	4791                	li	a5,4
    92ea:	04f71263          	bne	a4,a5,932e <OD_read_PDO_commParam+0x68>
    92ee:	4611                	li	a2,4
    92f0:	85a6                	mv	a1,s1
    92f2:	0068                	addi	a0,sp,12
    92f4:	00492903          	lw	s2,4(s2)
    92f8:	466020ef          	jal	ra,b75e <memcpy>
    92fc:	47b2                	lw	a5,12(sp)
    92fe:	7ff7f693          	andi	a3,a5,2047
    9302:	ca91                	beqz	a3,9316 <OD_read_PDO_commParam+0x50>
    9304:	12295703          	lhu	a4,290(s2)
    9308:	f8077613          	andi	a2,a4,-128
    930c:	00c69563          	bne	a3,a2,9316 <OD_read_PDO_commParam+0x50>
    9310:	76c1                	lui	a3,0xffff0
    9312:	8ff5                	and	a5,a5,a3
    9314:	8fd9                	or	a5,a5,a4
    9316:	00892703          	lw	a4,8(s2)
    931a:	e701                	bnez	a4,9322 <OD_read_PDO_commParam+0x5c>
    931c:	80000737          	lui	a4,0x80000
    9320:	8fd9                	or	a5,a5,a4
    9322:	4611                	li	a2,4
    9324:	006c                	addi	a1,sp,12
    9326:	8526                	mv	a0,s1
    9328:	c63e                	sw	a5,12(sp)
    932a:	434020ef          	jal	ra,b75e <memcpy>
    932e:	8522                	mv	a0,s0
    9330:	0141                	addi	sp,sp,16
    9332:	a06f706f          	j	538 <__riscv_restore_4>

00009336 <PDO_initMapping.constprop.3>:
    9336:	9b8f72ef          	jal	t0,4ee <__riscv_save_12>
    933a:	1141                	addi	sp,sp,-16
    933c:	84b2                	mv	s1,a2
    933e:	8a2a                	mv	s4,a0
    9340:	8bae                	mv	s7,a1
    9342:	8c36                	mv	s8,a3
    9344:	8aba                	mv	s5,a4
    9346:	4685                	li	a3,1
    9348:	4705                	li	a4,1
    934a:	00b10613          	addi	a2,sp,11
    934e:	4581                	li	a1,0
    9350:	8526                	mv	a0,s1
    9352:	8b3e                	mv	s6,a5
    9354:	000105a3          	sb	zero,11(sp)
    9358:	d57ff0ef          	jal	ra,90ae <OD_get_value>
    935c:	cd11                	beqz	a0,9378 <PDO_initMapping.constprop.3+0x42>
    935e:	5551                	li	a0,-12
    9360:	000a8963          	beqz	s5,9372 <PDO_initMapping.constprop.3+0x3c>
    9364:	4781                	li	a5,0
    9366:	c091                	beqz	s1,936a <PDO_initMapping.constprop.3+0x34>
    9368:	209e                	lhu	a5,0(s1)
    936a:	07a2                	slli	a5,a5,0x8
    936c:	00faa023          	sw	a5,0(s5)
    9370:	5551                	li	a0,-12
    9372:	0141                	addi	sp,sp,16
    9374:	9b6f706f          	j	52a <__riscv_restore_12>
    9378:	01ca0d93          	addi	s11,s4,28
    937c:	4901                	li	s2,0
    937e:	4981                	li	s3,0
    9380:	4cb9                	li	s9,14
    9382:	0ff00d13          	li	s10,255
    9386:	00198413          	addi	s0,s3,1
    938a:	0ff47413          	andi	s0,s0,255
    938e:	4705                	li	a4,1
    9390:	4691                	li	a3,4
    9392:	0070                	addi	a2,sp,12
    9394:	85a2                	mv	a1,s0
    9396:	8526                	mv	a0,s1
    9398:	c602                	sw	zero,12(sp)
    939a:	d15ff0ef          	jal	ra,90ae <OD_get_value>
    939e:	05950463          	beq	a0,s9,93e6 <PDO_initMapping.constprop.3+0xb0>
    93a2:	c911                	beqz	a0,93b6 <PDO_initMapping.constprop.3+0x80>
    93a4:	fc0a86e3          	beqz	s5,9370 <PDO_initMapping.constprop.3+0x3a>
    93a8:	4781                	li	a5,0
    93aa:	c091                	beqz	s1,93ae <PDO_initMapping.constprop.3+0x78>
    93ac:	209e                	lhu	a5,0(s1)
    93ae:	07a2                	slli	a5,a5,0x8
    93b0:	0137e7b3          	or	a5,a5,s3
    93b4:	bf65                	j	936c <PDO_initMapping.constprop.3+0x36>
    93b6:	45b2                	lw	a1,12(sp)
    93b8:	875e                	mv	a4,s7
    93ba:	86e2                	mv	a3,s8
    93bc:	864e                	mv	a2,s3
    93be:	8552                	mv	a0,s4
    93c0:	dc3ff0ef          	jal	ra,9182 <PDOconfigMap>
    93c4:	c919                	beqz	a0,93da <PDO_initMapping.constprop.3+0xa4>
    93c6:	fe0dae23          	sw	zero,-4(s11)
    93ca:	01ada023          	sw	s10,0(s11)
    93ce:	000b2703          	lw	a4,0(s6)
    93d2:	e701                	bnez	a4,93da <PDO_initMapping.constprop.3+0xa4>
    93d4:	4732                	lw	a4,12(sp)
    93d6:	00eb2023          	sw	a4,0(s6)
    93da:	8598                	lbu	a4,11(sp)
    93dc:	00e9f563          	bgeu	s3,a4,93e6 <PDO_initMapping.constprop.3+0xb0>
    93e0:	000da703          	lw	a4,0(s11)
    93e4:	993a                	add	s2,s2,a4
    93e6:	47a1                	li	a5,8
    93e8:	0df1                	addi	s11,s11,28
    93ea:	89a2                	mv	s3,s0
    93ec:	f8f41de3          	bne	s0,a5,9386 <PDO_initMapping.constprop.3+0x50>
    93f0:	000b2703          	lw	a4,0(s6)
    93f4:	01246663          	bltu	s0,s2,9400 <PDO_initMapping.constprop.3+0xca>
    93f8:	00091a63          	bnez	s2,940c <PDO_initMapping.constprop.3+0xd6>
    93fc:	8594                	lbu	a3,11(sp)
    93fe:	c699                	beqz	a3,940c <PDO_initMapping.constprop.3+0xd6>
    9400:	e701                	bnez	a4,9408 <PDO_initMapping.constprop.3+0xd2>
    9402:	4705                	li	a4,1
    9404:	00eb2023          	sw	a4,0(s6)
    9408:	4501                	li	a0,0
    940a:	b7a5                	j	9372 <PDO_initMapping.constprop.3+0x3c>
    940c:	ff75                	bnez	a4,9408 <PDO_initMapping.constprop.3+0xd2>
    940e:	859c                	lbu	a5,11(sp)
    9410:	012a0623          	sb	s2,12(s4)
    9414:	00fa06a3          	sb	a5,13(s4)
    9418:	bfc5                	j	9408 <PDO_initMapping.constprop.3+0xd2>

0000941a <OD_write_PDO_mapping>:
    941a:	c54d                	beqz	a0,94c4 <OD_write_PDO_mapping+0xaa>
    941c:	8e8f72ef          	jal	t0,504 <__riscv_save_4>
    9420:	84aa                	mv	s1,a0
    9422:	1141                	addi	sp,sp,-16
    9424:	89ae                	mv	s3,a1
    9426:	4525                	li	a0,9
    9428:	c18d                	beqz	a1,944a <OD_write_PDO_mapping+0x30>
    942a:	c285                	beqz	a3,944a <OD_write_PDO_mapping+0x30>
    942c:	0114c903          	lbu	s2,17(s1)
    9430:	4721                	li	a4,8
    9432:	01276c63          	bltu	a4,s2,944a <OD_write_PDO_mapping+0x30>
    9436:	40c0                	lw	s0,4(s1)
    9438:	4509                	li	a0,2
    943a:	4418                	lw	a4,8(s0)
    943c:	e719                	bnez	a4,944a <OD_write_PDO_mapping+0x30>
    943e:	345c                	lbu	a5,13(s0)
    9440:	8a36                	mv	s4,a3
    9442:	8ab2                	mv	s5,a2
    9444:	c791                	beqz	a5,9450 <OD_write_PDO_mapping+0x36>
    9446:	00090763          	beqz	s2,9454 <OD_write_PDO_mapping+0x3a>
    944a:	0141                	addi	sp,sp,16
    944c:	8ecf706f          	j	538 <__riscv_restore_4>
    9450:	04091963          	bnez	s2,94a2 <OD_write_PDO_mapping+0x88>
    9454:	0009c603          	lbu	a2,0(s3)
    9458:	47a1                	li	a5,8
    945a:	451d                	li	a0,7
    945c:	fec7e7e3          	bltu	a5,a2,944a <OD_write_PDO_mapping+0x30>
    9460:	01840693          	addi	a3,s0,24
    9464:	4781                	li	a5,0
    9466:	4701                	li	a4,0
    9468:	02c79263          	bne	a5,a2,948c <OD_write_PDO_mapping+0x72>
    946c:	46a1                	li	a3,8
    946e:	451d                	li	a0,7
    9470:	fce6ede3          	bltu	a3,a4,944a <OD_write_PDO_mapping+0x30>
    9474:	e319                	bnez	a4,947a <OD_write_PDO_mapping+0x60>
    9476:	453d                	li	a0,15
    9478:	fbe9                	bnez	a5,944a <OD_write_PDO_mapping+0x30>
    947a:	a458                	sb	a4,12(s0)
    947c:	b450                	sb	a2,13(s0)
    947e:	86d2                	mv	a3,s4
    9480:	8656                	mv	a2,s5
    9482:	85ce                	mv	a1,s3
    9484:	8526                	mv	a0,s1
    9486:	a4fff0ef          	jal	ra,8ed4 <OD_writeOriginal>
    948a:	b7c1                	j	944a <OD_write_PDO_mapping+0x30>
    948c:	4288                	lw	a0,0(a3)
    948e:	06f1                	addi	a3,a3,28
    9490:	fe86a583          	lw	a1,-24(a3) # fffeffe8 <__freertos_irq_stack_top+0xdffeafe8>
    9494:	02b56a63          	bltu	a0,a1,94c8 <OD_write_PDO_mapping+0xae>
    9498:	0785                	addi	a5,a5,1
    949a:	972e                	add	a4,a4,a1
    949c:	0ff7f793          	andi	a5,a5,255
    94a0:	b7e1                	j	9468 <OD_write_PDO_mapping+0x4e>
    94a2:	4611                	li	a2,4
    94a4:	0068                	addi	a0,sp,12
    94a6:	2b8020ef          	jal	ra,b75e <memcpy>
    94aa:	11c42703          	lw	a4,284(s0)
    94ae:	11842683          	lw	a3,280(s0)
    94b2:	45b2                	lw	a1,12(sp)
    94b4:	197d                	addi	s2,s2,-1
    94b6:	0ff97613          	andi	a2,s2,255
    94ba:	8522                	mv	a0,s0
    94bc:	cc7ff0ef          	jal	ra,9182 <PDOconfigMap>
    94c0:	dd5d                	beqz	a0,947e <OD_write_PDO_mapping+0x64>
    94c2:	b761                	j	944a <OD_write_PDO_mapping+0x30>
    94c4:	4525                	li	a0,9
    94c6:	8082                	ret
    94c8:	4519                	li	a0,6
    94ca:	b741                	j	944a <OD_write_PDO_mapping+0x30>

000094cc <OD_write_18xx>:
    94cc:	16050f63          	beqz	a0,964a <OD_write_18xx+0x17e>
    94d0:	834f72ef          	jal	t0,504 <__riscv_save_4>
    94d4:	1141                	addi	sp,sp,-16
    94d6:	84ae                	mv	s1,a1
    94d8:	47a5                	li	a5,9
    94da:	c5c1                	beqz	a1,9562 <OD_write_18xx+0x96>
    94dc:	c2d9                	beqz	a3,9562 <OD_write_18xx+0x96>
    94de:	4711                	li	a4,4
    94e0:	89b2                	mv	s3,a2
    94e2:	08c76063          	bltu	a4,a2,9562 <OD_write_18xx+0x96>
    94e6:	892a                	mv	s2,a0
    94e8:	4140                	lw	s0,4(a0)
    94ea:	0028                	addi	a0,sp,8
    94ec:	8a36                	mv	s4,a3
    94ee:	270020ef          	jal	ra,b75e <memcpy>
    94f2:	01194783          	lbu	a5,17(s2)
    94f6:	4709                	li	a4,2
    94f8:	10e78c63          	beq	a5,a4,9610 <OD_write_18xx+0x144>
    94fc:	00f76d63          	bltu	a4,a5,9516 <OD_write_18xx+0x4a>
    9500:	4705                	li	a4,1
    9502:	02e78e63          	beq	a5,a4,953e <OD_write_18xx+0x72>
    9506:	86d2                	mv	a3,s4
    9508:	864e                	mv	a2,s3
    950a:	002c                	addi	a1,sp,8
    950c:	854a                	mv	a0,s2
    950e:	9c7ff0ef          	jal	ra,8ed4 <OD_writeOriginal>
    9512:	87aa                	mv	a5,a0
    9514:	a0b9                	j	9562 <OD_write_18xx+0x96>
    9516:	470d                	li	a4,3
    9518:	10e78b63          	beq	a5,a4,962e <OD_write_18xx+0x162>
    951c:	4715                	li	a4,5
    951e:	fee794e3          	bne	a5,a4,9506 <OD_write_18xx+0x3a>
    9522:	209c                	lbu	a5,0(s1)
    9524:	3e800713          	li	a4,1000
    9528:	865c                	sb	a5,12(sp)
    952a:	309c                	lbu	a5,1(s1)
    952c:	16042023          	sw	zero,352(s0)
    9530:	86dc                	sb	a5,13(sp)
    9532:	863c                	lhu	a5,12(sp)
    9534:	02e787b3          	mul	a5,a5,a4
    9538:	14f42c23          	sw	a5,344(s0)
    953c:	b7e9                	j	9506 <OD_write_18xx+0x3a>
    953e:	85a6                	mv	a1,s1
    9540:	4611                	li	a2,4
    9542:	0068                	addi	a0,sp,12
    9544:	21a020ef          	jal	ra,b75e <memcpy>
    9548:	47b2                	lw	a5,12(sp)
    954a:	40000737          	lui	a4,0x40000
    954e:	80070713          	addi	a4,a4,-2048 # 3ffff800 <__freertos_irq_stack_top+0x1fffa800>
    9552:	01079693          	slli	a3,a5,0x10
    9556:	82c1                	srli	a3,a3,0x10
    9558:	8f7d                	and	a4,a4,a5
    955a:	7ff6f493          	andi	s1,a3,2047
    955e:	c711                	beqz	a4,956a <OD_write_18xx+0x9e>
    9560:	47bd                	li	a5,15
    9562:	853e                	mv	a0,a5
    9564:	0141                	addi	sp,sp,16
    9566:	fd3f606f          	j	538 <__riscv_restore_4>
    956a:	4410                	lw	a2,8(s0)
    956c:	0407c963          	bltz	a5,95be <OD_write_18xx+0xf2>
    9570:	c609                	beqz	a2,957a <OD_write_18xx+0xae>
    9572:	12445703          	lhu	a4,292(s0)
    9576:	fe9715e3          	bne	a4,s1,9560 <OD_write_18xx+0x94>
    957a:	7806f693          	andi	a3,a3,1920
    957e:	d2ed                	beqz	a3,9560 <OD_write_18xx+0x94>
    9580:	eff48713          	addi	a4,s1,-257
    9584:	0742                	slli	a4,a4,0x10
    9586:	8341                	srli	a4,a4,0x10
    9588:	07f00693          	li	a3,127
    958c:	fce6fae3          	bgeu	a3,a4,9560 <OD_write_18xx+0x94>
    9590:	a7f48713          	addi	a4,s1,-1409
    9594:	f7f77713          	andi	a4,a4,-129
    9598:	0742                	slli	a4,a4,0x10
    959a:	8341                	srli	a4,a4,0x10
    959c:	07e00693          	li	a3,126
    95a0:	fce6f0e3          	bgeu	a3,a4,9560 <OD_write_18xx+0x94>
    95a4:	92048713          	addi	a4,s1,-1760
    95a8:	0742                	slli	a4,a4,0x10
    95aa:	8341                	srli	a4,a4,0x10
    95ac:	46fd                	li	a3,31
    95ae:	fae6f9e3          	bgeu	a3,a4,9560 <OD_write_18xx+0x94>
    95b2:	70000713          	li	a4,1792
    95b6:	fa9765e3          	bltu	a4,s1,9560 <OD_write_18xx+0x94>
    95ba:	3458                	lbu	a4,13(s0)
    95bc:	d355                	beqz	a4,9560 <OD_write_18xx+0x94>
    95be:	fff7ca93          	not	s5,a5
    95c2:	01fada93          	srli	s5,s5,0x1f
    95c6:	00ca9663          	bne	s5,a2,95d2 <OD_write_18xx+0x106>
    95ca:	12445703          	lhu	a4,292(s0)
    95ce:	f2970ce3          	beq	a4,s1,9506 <OD_write_18xx+0x3a>
    95d2:	12245703          	lhu	a4,290(s0)
    95d6:	00971563          	bne	a4,s1,95e0 <OD_write_18xx+0x114>
    95da:	f807f713          	andi	a4,a5,-128
    95de:	c43a                	sw	a4,8(sp)
    95e0:	0007d363          	bgez	a5,95e6 <OD_write_18xx+0x11a>
    95e4:	4481                	li	s1,0
    95e6:	14c44783          	lbu	a5,332(s0)
    95ea:	2458                	lbu	a4,12(s0)
    95ec:	12045583          	lhu	a1,288(s0)
    95f0:	4048                	lw	a0,4(s0)
    95f2:	0f17b793          	sltiu	a5,a5,241
    95f6:	4681                	li	a3,0
    95f8:	8626                	mv	a2,s1
    95fa:	d5dfe0ef          	jal	ra,8356 <CO_CANtxBufferInit>
    95fe:	47a5                	li	a5,9
    9600:	d12d                	beqz	a0,9562 <OD_write_18xx+0x96>
    9602:	14a42423          	sw	a0,328(s0)
    9606:	01542423          	sw	s5,8(s0)
    960a:	12941223          	sh	s1,292(s0)
    960e:	bde5                	j	9506 <OD_write_18xx+0x3a>
    9610:	209c                	lbu	a5,0(s1)
    9612:	0fd00713          	li	a4,253
    9616:	f4f775e3          	bgeu	a4,a5,9560 <OD_write_18xx+0x94>
    961a:	14f40623          	sb	a5,332(s0)
    961e:	4785                	li	a5,1
    9620:	14f42823          	sw	a5,336(s0)
    9624:	16042023          	sw	zero,352(s0)
    9628:	14042e23          	sw	zero,348(s0)
    962c:	bde9                	j	9506 <OD_write_18xx+0x3a>
    962e:	441c                	lw	a5,8(s0)
    9630:	fb85                	bnez	a5,9560 <OD_write_18xx+0x94>
    9632:	209c                	lbu	a5,0(s1)
    9634:	06400713          	li	a4,100
    9638:	865c                	sb	a5,12(sp)
    963a:	309c                	lbu	a5,1(s1)
    963c:	86dc                	sb	a5,13(sp)
    963e:	863c                	lhu	a5,12(sp)
    9640:	02e787b3          	mul	a5,a5,a4
    9644:	14f42a23          	sw	a5,340(s0)
    9648:	b7c5                	j	9628 <OD_write_18xx+0x15c>
    964a:	47a5                	li	a5,9
    964c:	853e                	mv	a0,a5
    964e:	8082                	ret

00009650 <OD_write_14xx>:
    9650:	14050a63          	beqz	a0,97a4 <OD_write_14xx+0x154>
    9654:	eb1f62ef          	jal	t0,504 <__riscv_save_4>
    9658:	1141                	addi	sp,sp,-16
    965a:	84ae                	mv	s1,a1
    965c:	47a5                	li	a5,9
    965e:	c9b1                	beqz	a1,96b2 <OD_write_14xx+0x62>
    9660:	caa9                	beqz	a3,96b2 <OD_write_14xx+0x62>
    9662:	4711                	li	a4,4
    9664:	8a32                	mv	s4,a2
    9666:	04c76663          	bltu	a4,a2,96b2 <OD_write_14xx+0x62>
    966a:	89aa                	mv	s3,a0
    966c:	4140                	lw	s0,4(a0)
    966e:	0028                	addi	a0,sp,8
    9670:	8ab6                	mv	s5,a3
    9672:	0ec020ef          	jal	ra,b75e <memcpy>
    9676:	0119c783          	lbu	a5,17(s3)
    967a:	4709                	li	a4,2
    967c:	10e78063          	beq	a5,a4,977c <OD_write_14xx+0x12c>
    9680:	4715                	li	a4,5
    9682:	10e78363          	beq	a5,a4,9788 <OD_write_14xx+0x138>
    9686:	4705                	li	a4,1
    9688:	0ce79b63          	bne	a5,a4,975e <OD_write_14xx+0x10e>
    968c:	85a6                	mv	a1,s1
    968e:	4611                	li	a2,4
    9690:	0068                	addi	a0,sp,12
    9692:	0cc020ef          	jal	ra,b75e <memcpy>
    9696:	4932                	lw	s2,12(sp)
    9698:	400007b7          	lui	a5,0x40000
    969c:	80078793          	addi	a5,a5,-2048 # 3ffff800 <__freertos_irq_stack_top+0x1fffa800>
    96a0:	01091713          	slli	a4,s2,0x10
    96a4:	8341                	srli	a4,a4,0x10
    96a6:	00f977b3          	and	a5,s2,a5
    96aa:	7ff77493          	andi	s1,a4,2047
    96ae:	c791                	beqz	a5,96ba <OD_write_14xx+0x6a>
    96b0:	47bd                	li	a5,15
    96b2:	853e                	mv	a0,a5
    96b4:	0141                	addi	sp,sp,16
    96b6:	e83f606f          	j	538 <__riscv_restore_4>
    96ba:	4414                	lw	a3,8(s0)
    96bc:	04094963          	bltz	s2,970e <OD_write_14xx+0xbe>
    96c0:	c689                	beqz	a3,96ca <OD_write_14xx+0x7a>
    96c2:	12445783          	lhu	a5,292(s0)
    96c6:	fe9795e3          	bne	a5,s1,96b0 <OD_write_14xx+0x60>
    96ca:	78077713          	andi	a4,a4,1920
    96ce:	d36d                	beqz	a4,96b0 <OD_write_14xx+0x60>
    96d0:	eff48793          	addi	a5,s1,-257
    96d4:	07c2                	slli	a5,a5,0x10
    96d6:	83c1                	srli	a5,a5,0x10
    96d8:	07f00713          	li	a4,127
    96dc:	fcf77ae3          	bgeu	a4,a5,96b0 <OD_write_14xx+0x60>
    96e0:	a7f48793          	addi	a5,s1,-1409
    96e4:	f7f7f793          	andi	a5,a5,-129
    96e8:	07c2                	slli	a5,a5,0x10
    96ea:	83c1                	srli	a5,a5,0x10
    96ec:	07e00713          	li	a4,126
    96f0:	fcf770e3          	bgeu	a4,a5,96b0 <OD_write_14xx+0x60>
    96f4:	92048793          	addi	a5,s1,-1760
    96f8:	07c2                	slli	a5,a5,0x10
    96fa:	83c1                	srli	a5,a5,0x10
    96fc:	477d                	li	a4,31
    96fe:	faf779e3          	bgeu	a4,a5,96b0 <OD_write_14xx+0x60>
    9702:	70000793          	li	a5,1792
    9706:	fa97e5e3          	bltu	a5,s1,96b0 <OD_write_14xx+0x60>
    970a:	345c                	lbu	a5,13(s0)
    970c:	d3d5                	beqz	a5,96b0 <OD_write_14xx+0x60>
    970e:	fff94793          	not	a5,s2
    9712:	83fd                	srli	a5,a5,0x1f
    9714:	00d79663          	bne	a5,a3,9720 <OD_write_14xx+0xd0>
    9718:	12445783          	lhu	a5,292(s0)
    971c:	04978163          	beq	a5,s1,975e <OD_write_14xx+0x10e>
    9720:	12245783          	lhu	a5,290(s0)
    9724:	00979563          	bne	a5,s1,972e <OD_write_14xx+0xde>
    9728:	f8097793          	andi	a5,s2,-128
    972c:	c43e                	sw	a5,8(sp)
    972e:	00095363          	bgez	s2,9734 <OD_write_14xx+0xe4>
    9732:	4481                	li	s1,0
    9734:	12045583          	lhu	a1,288(s0)
    9738:	4048                	lw	a0,4(s0)
    973a:	00009837          	lui	a6,0x9
    973e:	27e80813          	addi	a6,a6,638 # 927e <CO_PDO_receive>
    9742:	87a2                	mv	a5,s0
    9744:	4701                	li	a4,0
    9746:	7ff00693          	li	a3,2047
    974a:	8626                	mv	a2,s1
    974c:	bb9fe0ef          	jal	ra,8304 <CO_CANrxBufferInit>
    9750:	00094f63          	bltz	s2,976e <OD_write_14xx+0x11e>
    9754:	ed09                	bnez	a0,976e <OD_write_14xx+0x11e>
    9756:	4785                	li	a5,1
    9758:	c41c                	sw	a5,8(s0)
    975a:	12941223          	sh	s1,292(s0)
    975e:	86d6                	mv	a3,s5
    9760:	8652                	mv	a2,s4
    9762:	002c                	addi	a1,sp,8
    9764:	854e                	mv	a0,s3
    9766:	f6eff0ef          	jal	ra,8ed4 <OD_writeOriginal>
    976a:	87aa                	mv	a5,a0
    976c:	b799                	j	96b2 <OD_write_14xx+0x62>
    976e:	00042423          	sw	zero,8(s0)
    9772:	14042423          	sw	zero,328(s0)
    9776:	47a5                	li	a5,9
    9778:	d17d                	beqz	a0,975e <OD_write_14xx+0x10e>
    977a:	bf25                	j	96b2 <OD_write_14xx+0x62>
    977c:	2098                	lbu	a4,0(s1)
    977e:	0fd00793          	li	a5,253
    9782:	fce7eee3          	bltu	a5,a4,975e <OD_write_14xx+0x10e>
    9786:	b72d                	j	96b0 <OD_write_14xx+0x60>
    9788:	209c                	lbu	a5,0(s1)
    978a:	3e800713          	li	a4,1000
    978e:	865c                	sb	a5,12(sp)
    9790:	309c                	lbu	a5,1(s1)
    9792:	14042e23          	sw	zero,348(s0)
    9796:	86dc                	sb	a5,13(sp)
    9798:	863c                	lhu	a5,12(sp)
    979a:	02e787b3          	mul	a5,a5,a4
    979e:	14f42c23          	sw	a5,344(s0)
    97a2:	bf75                	j	975e <OD_write_14xx+0x10e>
    97a4:	47a5                	li	a5,9
    97a6:	853e                	mv	a0,a5
    97a8:	8082                	ret

000097aa <CO_RPDO_init>:
    97aa:	d4df62ef          	jal	t0,4f6 <__riscv_save_10>
    97ae:	1141                	addi	sp,sp,-16
    97b0:	4986                	lw	s3,64(sp)
    97b2:	54fd                	li	s1,-1
    97b4:	c52d                	beqz	a0,981e <CO_RPDO_init+0x74>
    97b6:	c5a5                	beqz	a1,981e <CO_RPDO_init+0x74>
    97b8:	c23d                	beqz	a2,981e <CO_RPDO_init+0x74>
    97ba:	c335                	beqz	a4,981e <CO_RPDO_init+0x74>
    97bc:	c3ad                	beqz	a5,981e <CO_RPDO_init+0x74>
    97be:	06080063          	beqz	a6,981e <CO_RPDO_init+0x74>
    97c2:	84b2                	mv	s1,a2
    97c4:	8b2e                	mv	s6,a1
    97c6:	16000613          	li	a2,352
    97ca:	4581                	li	a1,0
    97cc:	842a                	mv	s0,a0
    97ce:	8bc2                	mv	s7,a6
    97d0:	8a3e                	mv	s4,a5
    97d2:	8c46                	mv	s8,a7
    97d4:	893a                	mv	s2,a4
    97d6:	8ab6                	mv	s5,a3
    97d8:	d77f60ef          	jal	ra,54e <memset>
    97dc:	003c                	addi	a5,sp,8
    97de:	c004                	sw	s1,0(s0)
    97e0:	01742223          	sw	s7,4(s0)
    97e4:	874e                	mv	a4,s3
    97e6:	4685                	li	a3,1
    97e8:	8652                	mv	a2,s4
    97ea:	85da                	mv	a1,s6
    97ec:	8522                	mv	a0,s0
    97ee:	c402                	sw	zero,8(sp)
    97f0:	b47ff0ef          	jal	ra,9336 <PDO_initMapping.constprop.3>
    97f4:	84aa                	mv	s1,a0
    97f6:	e505                	bnez	a0,981e <CO_RPDO_init+0x74>
    97f8:	4705                	li	a4,1
    97fa:	4691                	li	a3,4
    97fc:	0070                	addi	a2,sp,12
    97fe:	4585                	li	a1,1
    9800:	854a                	mv	a0,s2
    9802:	c602                	sw	zero,12(sp)
    9804:	8abff0ef          	jal	ra,90ae <OD_get_value>
    9808:	cd19                	beqz	a0,9826 <CO_RPDO_init+0x7c>
    980a:	54d1                	li	s1,-12
    980c:	00098963          	beqz	s3,981e <CO_RPDO_init+0x74>
    9810:	00095783          	lhu	a5,0(s2)
    9814:	07a2                	slli	a5,a5,0x8
    9816:	0017e793          	ori	a5,a5,1
    981a:	00f9a023          	sw	a5,0(s3)
    981e:	8526                	mv	a0,s1
    9820:	0141                	addi	sp,sp,16
    9822:	d0df606f          	j	52e <__riscv_restore_10>
    9826:	47b2                	lw	a5,12(sp)
    9828:	4c81                	li	s9,0
    982a:	7ff7f993          	andi	s3,a5,2047
    982e:	0007cc63          	bltz	a5,9846 <CO_RPDO_init+0x9c>
    9832:	3458                	lbu	a4,13(s0)
    9834:	c701                	beqz	a4,983c <CO_RPDO_init+0x92>
    9836:	4c85                	li	s9,1
    9838:	00099763          	bnez	s3,9846 <CO_RPDO_init+0x9c>
    983c:	4722                	lw	a4,8(sp)
    983e:	4c81                	li	s9,0
    9840:	e319                	bnez	a4,9846 <CO_RPDO_init+0x9c>
    9842:	4705                	li	a4,1
    9844:	c43a                	sw	a4,8(sp)
    9846:	4722                	lw	a4,8(sp)
    9848:	cf09                	beqz	a4,9862 <CO_RPDO_init+0xb8>
    984a:	4685                	li	a3,1
    984c:	4008                	lw	a0,0(s0)
    984e:	00d71363          	bne	a4,a3,9854 <CO_RPDO_init+0xaa>
    9852:	873e                	mv	a4,a5
    9854:	66a1                	lui	a3,0x8
    9856:	20068693          	addi	a3,a3,512 # 8200 <CO_CANmodule_init+0x20>
    985a:	4669                	li	a2,26
    985c:	4585                	li	a1,1
    985e:	98eff0ef          	jal	ra,89ec <CO_error>
    9862:	0a0c8b63          	beqz	s9,9918 <CO_RPDO_init+0x16e>
    9866:	00098763          	beqz	s3,9874 <CO_RPDO_init+0xca>
    986a:	f80af793          	andi	a5,s5,-128
    986e:	00f99363          	bne	s3,a5,9874 <CO_RPDO_init+0xca>
    9872:	89d6                	mv	s3,s5
    9874:	00009837          	lui	a6,0x9
    9878:	27e80813          	addi	a6,a6,638 # 927e <CO_PDO_receive>
    987c:	87a2                	mv	a5,s0
    987e:	4701                	li	a4,0
    9880:	7ff00693          	li	a3,2047
    9884:	864e                	mv	a2,s3
    9886:	85e2                	mv	a1,s8
    9888:	855e                	mv	a0,s7
    988a:	a7bfe0ef          	jal	ra,8304 <CO_CANrxBufferInit>
    988e:	84aa                	mv	s1,a0
    9890:	f559                	bnez	a0,981e <CO_RPDO_init+0x74>
    9892:	01942423          	sw	s9,8(s0)
    9896:	4705                	li	a4,1
    9898:	4689                	li	a3,2
    989a:	00610613          	addi	a2,sp,6
    989e:	4595                	li	a1,5
    98a0:	854a                	mv	a0,s2
    98a2:	00011323          	sh	zero,6(sp)
    98a6:	809ff0ef          	jal	ra,90ae <OD_get_value>
    98aa:	833c                	lhu	a5,6(sp)
    98ac:	3e800713          	li	a4,1000
    98b0:	11642e23          	sw	s6,284(s0)
    98b4:	02e787b3          	mul	a5,a5,a4
    98b8:	13841023          	sh	s8,288(s0)
    98bc:	13541123          	sh	s5,290(s0)
    98c0:	13341223          	sh	s3,292(s0)
    98c4:	12842423          	sw	s0,296(s0)
    98c8:	12842c23          	sw	s0,312(s0)
    98cc:	14f42c23          	sw	a5,344(s0)
    98d0:	4785                	li	a5,1
    98d2:	10f42c23          	sw	a5,280(s0)
    98d6:	000097b7          	lui	a5,0x9
    98da:	2c678793          	addi	a5,a5,710 # 92c6 <OD_read_PDO_commParam>
    98de:	12f42623          	sw	a5,300(s0)
    98e2:	000097b7          	lui	a5,0x9
    98e6:	65078793          	addi	a5,a5,1616 # 9650 <OD_write_14xx>
    98ea:	12f42823          	sw	a5,304(s0)
    98ee:	000097b7          	lui	a5,0x9
    98f2:	e8478793          	addi	a5,a5,-380 # 8e84 <OD_readOriginal>
    98f6:	12f42e23          	sw	a5,316(s0)
    98fa:	000097b7          	lui	a5,0x9
    98fe:	41a78793          	addi	a5,a5,1050 # 941a <OD_write_PDO_mapping>
    9902:	14f42023          	sw	a5,320(s0)
    9906:	12840793          	addi	a5,s0,296
    990a:	00f92423          	sw	a5,8(s2)
    990e:	13840413          	addi	s0,s0,312
    9912:	008a2423          	sw	s0,8(s4)
    9916:	b721                	j	981e <CO_RPDO_init+0x74>
    9918:	4981                	li	s3,0
    991a:	bfa9                	j	9874 <CO_RPDO_init+0xca>

0000991c <CO_RPDO_process>:
    991c:	451c                	lw	a5,8(a0)
    991e:	10078463          	beqz	a5,9a26 <CO_RPDO_process+0x10a>
    9922:	10068263          	beqz	a3,9a26 <CO_RPDO_process+0x10a>
    9926:	bd1f62ef          	jal	t0,4f6 <__riscv_save_10>
    992a:	15454783          	lbu	a5,340(a0)
    992e:	4729                	li	a4,10
    9930:	1141                	addi	sp,sp,-16
    9932:	892e                	mv	s2,a1
    9934:	842a                	mv	s0,a0
    9936:	02f77463          	bgeu	a4,a5,995e <CO_RPDO_process+0x42>
    993a:	ff578493          	addi	s1,a5,-11
    993e:	4731                	li	a4,12
    9940:	009034b3          	snez	s1,s1
    9944:	66a1                	lui	a3,0x8
    9946:	02e78063          	beq	a5,a4,9966 <CO_RPDO_process+0x4a>
    994a:	22068693          	addi	a3,a3,544 # 8220 <CO_CANmodule_init+0x40>
    994e:	2458                	lbu	a4,12(s0)
    9950:	4008                	lw	a0,0(s0)
    9952:	4611                	li	a2,4
    9954:	85a6                	mv	a1,s1
    9956:	896ff0ef          	jal	ra,89ec <CO_error>
    995a:	14940a23          	sb	s1,340(s0)
    995e:	4b01                	li	s6,0
    9960:	4bf1                	li	s7,28
    9962:	4c21                	li	s8,8
    9964:	a829                	j	997e <CO_RPDO_process+0x62>
    9966:	21068693          	addi	a3,a3,528
    996a:	b7d5                	j	994e <CO_RPDO_process+0x32>
    996c:	14c40993          	addi	s3,s0,332
    9970:	14042423          	sw	zero,328(s0)
    9974:	4481                	li	s1,0
    9976:	4b05                	li	s6,1
    9978:	345c                	lbu	a5,13(s0)
    997a:	02f4ea63          	bltu	s1,a5,99ae <CO_RPDO_process+0x92>
    997e:	14842783          	lw	a5,328(s0)
    9982:	f7ed                	bnez	a5,996c <CO_RPDO_process+0x50>
    9984:	15842783          	lw	a5,344(s0)
    9988:	c385                	beqz	a5,99a8 <CO_RPDO_process+0x8c>
    998a:	15c42703          	lw	a4,348(s0)
    998e:	060b0b63          	beqz	s6,9a04 <CO_RPDO_process+0xe8>
    9992:	00e7f863          	bgeu	a5,a4,99a2 <CO_RPDO_process+0x86>
    9996:	4008                	lw	a0,0(s0)
    9998:	4681                	li	a3,0
    999a:	465d                	li	a2,23
    999c:	4581                	li	a1,0
    999e:	84eff0ef          	jal	ra,89ec <CO_error>
    99a2:	4785                	li	a5,1
    99a4:	14f42e23          	sw	a5,348(s0)
    99a8:	0141                	addi	sp,sp,16
    99aa:	b85f606f          	j	52e <__riscv_restore_10>
    99ae:	037487b3          	mul	a5,s1,s7
    99b2:	97a2                	add	a5,a5,s0
    99b4:	0187aa83          	lw	s5,24(a5)
    99b8:	015c7363          	bgeu	s8,s5,99be <CO_RPDO_process+0xa2>
    99bc:	4aa1                	li	s5,8
    99be:	037487b3          	mul	a5,s1,s7
    99c2:	85ce                	mv	a1,s3
    99c4:	97a2                	add	a5,a5,s0
    99c6:	01c7ca03          	lbu	s4,28(a5)
    99ca:	015a7963          	bgeu	s4,s5,99dc <CO_RPDO_process+0xc0>
    99ce:	8652                	mv	a2,s4
    99d0:	0028                	addi	a0,sp,8
    99d2:	c402                	sw	zero,8(sp)
    99d4:	c602                	sw	zero,12(sp)
    99d6:	589010ef          	jal	ra,b75e <memcpy>
    99da:	002c                	addi	a1,sp,8
    99dc:	03748533          	mul	a0,s1,s7
    99e0:	0054                	addi	a3,sp,4
    99e2:	8656                	mv	a2,s5
    99e4:	0485                	addi	s1,s1,1
    99e6:	99d2                	add	s3,s3,s4
    99e8:	0ff4f493          	andi	s1,s1,255
    99ec:	00a40cb3          	add	s9,s0,a0
    99f0:	028ca783          	lw	a5,40(s9)
    99f4:	0541                	addi	a0,a0,16
    99f6:	000cae23          	sw	zero,28(s9)
    99fa:	9522                	add	a0,a0,s0
    99fc:	9782                	jalr	a5
    99fe:	014cae23          	sw	s4,28(s9)
    9a02:	bf9d                	j	9978 <CO_RPDO_process+0x5c>
    9a04:	d355                	beqz	a4,99a8 <CO_RPDO_process+0x8c>
    9a06:	faf771e3          	bgeu	a4,a5,99a8 <CO_RPDO_process+0x8c>
    9a0a:	974a                	add	a4,a4,s2
    9a0c:	14e42e23          	sw	a4,348(s0)
    9a10:	f8e7fce3          	bgeu	a5,a4,99a8 <CO_RPDO_process+0x8c>
    9a14:	4008                	lw	a0,0(s0)
    9a16:	66a1                	lui	a3,0x8
    9a18:	25068693          	addi	a3,a3,592 # 8250 <CO_CANmodule_init+0x70>
    9a1c:	465d                	li	a2,23
    9a1e:	4585                	li	a1,1
    9a20:	fcdfe0ef          	jal	ra,89ec <CO_error>
    9a24:	b751                	j	99a8 <CO_RPDO_process+0x8c>
    9a26:	14052423          	sw	zero,328(a0)
    9a2a:	14052e23          	sw	zero,348(a0)
    9a2e:	8082                	ret

00009a30 <CO_TPDO_init>:
    9a30:	ac7f62ef          	jal	t0,4f6 <__riscv_save_10>
    9a34:	1141                	addi	sp,sp,-16
    9a36:	4906                	lw	s2,64(sp)
    9a38:	e511                	bnez	a0,9a44 <CO_TPDO_init+0x14>
    9a3a:	59fd                	li	s3,-1
    9a3c:	854e                	mv	a0,s3
    9a3e:	0141                	addi	sp,sp,16
    9a40:	aeff606f          	j	52e <__riscv_restore_10>
    9a44:	d9fd                	beqz	a1,9a3a <CO_TPDO_init+0xa>
    9a46:	da75                	beqz	a2,9a3a <CO_TPDO_init+0xa>
    9a48:	db6d                	beqz	a4,9a3a <CO_TPDO_init+0xa>
    9a4a:	dbe5                	beqz	a5,9a3a <CO_TPDO_init+0xa>
    9a4c:	fe0807e3          	beqz	a6,9a3a <CO_TPDO_init+0xa>
    9a50:	89b2                	mv	s3,a2
    9a52:	8b2e                	mv	s6,a1
    9a54:	16400613          	li	a2,356
    9a58:	4581                	li	a1,0
    9a5a:	842a                	mv	s0,a0
    9a5c:	8bc2                	mv	s7,a6
    9a5e:	8a3e                	mv	s4,a5
    9a60:	8c46                	mv	s8,a7
    9a62:	84ba                	mv	s1,a4
    9a64:	8ab6                	mv	s5,a3
    9a66:	ae9f60ef          	jal	ra,54e <memset>
    9a6a:	003c                	addi	a5,sp,8
    9a6c:	01342023          	sw	s3,0(s0)
    9a70:	01742223          	sw	s7,4(s0)
    9a74:	874a                	mv	a4,s2
    9a76:	4681                	li	a3,0
    9a78:	8652                	mv	a2,s4
    9a7a:	85da                	mv	a1,s6
    9a7c:	8522                	mv	a0,s0
    9a7e:	c402                	sw	zero,8(sp)
    9a80:	8b7ff0ef          	jal	ra,9336 <PDO_initMapping.constprop.3>
    9a84:	89aa                	mv	s3,a0
    9a86:	f95d                	bnez	a0,9a3c <CO_TPDO_init+0xc>
    9a88:	5cf9                	li	s9,-2
    9a8a:	4705                	li	a4,1
    9a8c:	4685                	li	a3,1
    9a8e:	00310613          	addi	a2,sp,3
    9a92:	4589                	li	a1,2
    9a94:	8526                	mv	a0,s1
    9a96:	019101a3          	sb	s9,3(sp)
    9a9a:	e14ff0ef          	jal	ra,90ae <OD_get_value>
    9a9e:	cd01                	beqz	a0,9ab6 <CO_TPDO_init+0x86>
    9aa0:	00091463          	bnez	s2,9aa8 <CO_TPDO_init+0x78>
    9aa4:	59d1                	li	s3,-12
    9aa6:	bf59                	j	9a3c <CO_TPDO_init+0xc>
    9aa8:	209e                	lhu	a5,0(s1)
    9aaa:	07a2                	slli	a5,a5,0x8
    9aac:	0027e793          	ori	a5,a5,2
    9ab0:	00f92023          	sw	a5,0(s2)
    9ab4:	bfc5                	j	9aa4 <CO_TPDO_init+0x74>
    9ab6:	8198                	lbu	a4,3(sp)
    9ab8:	0fd00793          	li	a5,253
    9abc:	00e7e463          	bltu	a5,a4,9ac4 <CO_TPDO_init+0x94>
    9ac0:	019101a3          	sb	s9,3(sp)
    9ac4:	819c                	lbu	a5,3(sp)
    9ac6:	4705                	li	a4,1
    9ac8:	4691                	li	a3,4
    9aca:	14f40623          	sb	a5,332(s0)
    9ace:	4785                	li	a5,1
    9ad0:	14f42823          	sw	a5,336(s0)
    9ad4:	0070                	addi	a2,sp,12
    9ad6:	4585                	li	a1,1
    9ad8:	8526                	mv	a0,s1
    9ada:	c602                	sw	zero,12(sp)
    9adc:	dd2ff0ef          	jal	ra,90ae <OD_get_value>
    9ae0:	c901                	beqz	a0,9af0 <CO_TPDO_init+0xc0>
    9ae2:	fc0901e3          	beqz	s2,9aa4 <CO_TPDO_init+0x74>
    9ae6:	209e                	lhu	a5,0(s1)
    9ae8:	07a2                	slli	a5,a5,0x8
    9aea:	0017e793          	ori	a5,a5,1
    9aee:	b7c9                	j	9ab0 <CO_TPDO_init+0x80>
    9af0:	47b2                	lw	a5,12(sp)
    9af2:	4c81                	li	s9,0
    9af4:	7ff7f913          	andi	s2,a5,2047
    9af8:	0007cc63          	bltz	a5,9b10 <CO_TPDO_init+0xe0>
    9afc:	3458                	lbu	a4,13(s0)
    9afe:	c701                	beqz	a4,9b06 <CO_TPDO_init+0xd6>
    9b00:	4c85                	li	s9,1
    9b02:	00091763          	bnez	s2,9b10 <CO_TPDO_init+0xe0>
    9b06:	4722                	lw	a4,8(sp)
    9b08:	4c81                	li	s9,0
    9b0a:	e319                	bnez	a4,9b10 <CO_TPDO_init+0xe0>
    9b0c:	4705                	li	a4,1
    9b0e:	c43a                	sw	a4,8(sp)
    9b10:	4722                	lw	a4,8(sp)
    9b12:	cf09                	beqz	a4,9b2c <CO_TPDO_init+0xfc>
    9b14:	4685                	li	a3,1
    9b16:	4008                	lw	a0,0(s0)
    9b18:	00d71363          	bne	a4,a3,9b1e <CO_TPDO_init+0xee>
    9b1c:	873e                	mv	a4,a5
    9b1e:	66a1                	lui	a3,0x8
    9b20:	20068693          	addi	a3,a3,512 # 8200 <CO_CANmodule_init+0x20>
    9b24:	4669                	li	a2,26
    9b26:	4585                	li	a1,1
    9b28:	ec5fe0ef          	jal	ra,89ec <CO_error>
    9b2c:	0c0c8963          	beqz	s9,9bfe <CO_TPDO_init+0x1ce>
    9b30:	00090763          	beqz	s2,9b3e <CO_TPDO_init+0x10e>
    9b34:	f80af793          	andi	a5,s5,-128
    9b38:	00f91363          	bne	s2,a5,9b3e <CO_TPDO_init+0x10e>
    9b3c:	8956                	mv	s2,s5
    9b3e:	14c44783          	lbu	a5,332(s0)
    9b42:	2458                	lbu	a4,12(s0)
    9b44:	4681                	li	a3,0
    9b46:	0f17b793          	sltiu	a5,a5,241
    9b4a:	864a                	mv	a2,s2
    9b4c:	85e2                	mv	a1,s8
    9b4e:	855e                	mv	a0,s7
    9b50:	807fe0ef          	jal	ra,8356 <CO_CANtxBufferInit>
    9b54:	14a42423          	sw	a0,328(s0)
    9b58:	ee0501e3          	beqz	a0,9a3a <CO_TPDO_init+0xa>
    9b5c:	01942423          	sw	s9,8(s0)
    9b60:	4705                	li	a4,1
    9b62:	4689                	li	a3,2
    9b64:	0050                	addi	a2,sp,4
    9b66:	458d                	li	a1,3
    9b68:	8526                	mv	a0,s1
    9b6a:	00011223          	sh	zero,4(sp)
    9b6e:	00011323          	sh	zero,6(sp)
    9b72:	d3cff0ef          	jal	ra,90ae <OD_get_value>
    9b76:	4705                	li	a4,1
    9b78:	4689                	li	a3,2
    9b7a:	00610613          	addi	a2,sp,6
    9b7e:	4595                	li	a1,5
    9b80:	8526                	mv	a0,s1
    9b82:	d2cff0ef          	jal	ra,90ae <OD_get_value>
    9b86:	823c                	lhu	a5,4(sp)
    9b88:	06400713          	li	a4,100
    9b8c:	10042c23          	sw	zero,280(s0)
    9b90:	02e787b3          	mul	a5,a5,a4
    9b94:	3e800713          	li	a4,1000
    9b98:	11642e23          	sw	s6,284(s0)
    9b9c:	13841023          	sh	s8,288(s0)
    9ba0:	13541123          	sh	s5,290(s0)
    9ba4:	13241223          	sh	s2,292(s0)
    9ba8:	12842423          	sw	s0,296(s0)
    9bac:	12842c23          	sw	s0,312(s0)
    9bb0:	14f42a23          	sw	a5,340(s0)
    9bb4:	833c                	lhu	a5,6(sp)
    9bb6:	02e787b3          	mul	a5,a5,a4
    9bba:	14f42c23          	sw	a5,344(s0)
    9bbe:	000097b7          	lui	a5,0x9
    9bc2:	2c678793          	addi	a5,a5,710 # 92c6 <OD_read_PDO_commParam>
    9bc6:	12f42623          	sw	a5,300(s0)
    9bca:	000097b7          	lui	a5,0x9
    9bce:	4cc78793          	addi	a5,a5,1228 # 94cc <OD_write_18xx>
    9bd2:	12f42823          	sw	a5,304(s0)
    9bd6:	000097b7          	lui	a5,0x9
    9bda:	e8478793          	addi	a5,a5,-380 # 8e84 <OD_readOriginal>
    9bde:	12f42e23          	sw	a5,316(s0)
    9be2:	000097b7          	lui	a5,0x9
    9be6:	41a78793          	addi	a5,a5,1050 # 941a <OD_write_PDO_mapping>
    9bea:	14f42023          	sw	a5,320(s0)
    9bee:	12840793          	addi	a5,s0,296
    9bf2:	c49c                	sw	a5,8(s1)
    9bf4:	13840413          	addi	s0,s0,312
    9bf8:	008a2423          	sw	s0,8(s4)
    9bfc:	b581                	j	9a3c <CO_TPDO_init+0xc>
    9bfe:	4901                	li	s2,0
    9c00:	bf3d                	j	9b3e <CO_TPDO_init+0x10e>

00009c02 <CO_TPDO_process>:
    9c02:	451c                	lw	a5,8(a0)
    9c04:	14078563          	beqz	a5,9d4e <CO_TPDO_process+0x14c>
    9c08:	14068363          	beqz	a3,9d4e <CO_TPDO_process+0x14c>
    9c0c:	14c54603          	lbu	a2,332(a0)
    9c10:	0fc00713          	li	a4,252
    9c14:	fff60793          	addi	a5,a2,-1
    9c18:	0ff7f793          	andi	a5,a5,255
    9c1c:	14f77163          	bgeu	a4,a5,9d5e <CO_TPDO_process+0x15c>
    9c20:	15852783          	lw	a5,344(a0)
    9c24:	cfbd                	beqz	a5,9ca2 <CO_TPDO_process+0xa0>
    9c26:	16052783          	lw	a5,352(a0)
    9c2a:	06f5e963          	bltu	a1,a5,9c9c <CO_TPDO_process+0x9a>
    9c2e:	16052023          	sw	zero,352(a0)
    9c32:	4785                	li	a5,1
    9c34:	14f52823          	sw	a5,336(a0)
    9c38:	0fd00793          	li	a5,253
    9c3c:	12c7f163          	bgeu	a5,a2,9d5e <CO_TPDO_process+0x15c>
    9c40:	15c52703          	lw	a4,348(a0)
    9c44:	4781                	li	a5,0
    9c46:	00e5f463          	bgeu	a1,a4,9c4e <CO_TPDO_process+0x4c>
    9c4a:	40b707b3          	sub	a5,a4,a1
    9c4e:	15052703          	lw	a4,336(a0)
    9c52:	14f52e23          	sw	a5,348(a0)
    9c56:	10070463          	beqz	a4,9d5e <CO_TPDO_process+0x15c>
    9c5a:	10079263          	bnez	a5,9d5e <CO_TPDO_process+0x15c>
    9c5e:	899f62ef          	jal	t0,4f6 <__riscv_save_10>
    9c62:	14852903          	lw	s2,328(a0)
    9c66:	1141                	addi	sp,sp,-16
    9c68:	842a                	mv	s0,a0
    9c6a:	0915                	addi	s2,s2,5
    9c6c:	4481                	li	s1,0
    9c6e:	4bf1                	li	s7,28
    9c70:	4b21                	li	s6,8
    9c72:	345c                	lbu	a5,13(s0)
    9c74:	06f4e263          	bltu	s1,a5,9cd8 <CO_TPDO_process+0xd6>
    9c78:	15842783          	lw	a5,344(s0)
    9c7c:	14842583          	lw	a1,328(s0)
    9c80:	4048                	lw	a0,4(s0)
    9c82:	16f42023          	sw	a5,352(s0)
    9c86:	15442783          	lw	a5,340(s0)
    9c8a:	14042823          	sw	zero,336(s0)
    9c8e:	14f42e23          	sw	a5,348(s0)
    9c92:	f10fe0ef          	jal	ra,83a2 <CO_CANsend>
    9c96:	0141                	addi	sp,sp,16
    9c98:	897f606f          	j	52e <__riscv_restore_10>
    9c9c:	8f8d                	sub	a5,a5,a1
    9c9e:	16f52023          	sw	a5,352(a0)
    9ca2:	15052783          	lw	a5,336(a0)
    9ca6:	fbc9                	bnez	a5,9c38 <CO_TPDO_process+0x36>
    9ca8:	00d54883          	lbu	a7,13(a0)
    9cac:	0f050713          	addi	a4,a0,240
    9cb0:	0ff7f693          	andi	a3,a5,255
    9cb4:	f916f2e3          	bgeu	a3,a7,9c38 <CO_TPDO_process+0x36>
    9cb8:	00072803          	lw	a6,0(a4)
    9cbc:	00080b63          	beqz	a6,9cd2 <CO_TPDO_process+0xd0>
    9cc0:	00f506b3          	add	a3,a0,a5
    9cc4:	1106c683          	lbu	a3,272(a3)
    9cc8:	00084803          	lbu	a6,0(a6)
    9ccc:	0106f6b3          	and	a3,a3,a6
    9cd0:	d2ad                	beqz	a3,9c32 <CO_TPDO_process+0x30>
    9cd2:	0785                	addi	a5,a5,1
    9cd4:	0711                	addi	a4,a4,4
    9cd6:	bfe9                	j	9cb0 <CO_TPDO_process+0xae>
    9cd8:	037487b3          	mul	a5,s1,s7
    9cdc:	01078513          	addi	a0,a5,16
    9ce0:	97a2                	add	a5,a5,s0
    9ce2:	0187aa03          	lw	s4,24(a5)
    9ce6:	9522                	add	a0,a0,s0
    9ce8:	014b7363          	bgeu	s6,s4,9cee <CO_TPDO_process+0xec>
    9cec:	4a21                	li	s4,8
    9cee:	037487b3          	mul	a5,s1,s7
    9cf2:	85ca                	mv	a1,s2
    9cf4:	97a2                	add	a5,a5,s0
    9cf6:	01c7c983          	lbu	s3,28(a5)
    9cfa:	0149f563          	bgeu	s3,s4,9d04 <CO_TPDO_process+0x102>
    9cfe:	c402                	sw	zero,8(sp)
    9d00:	c602                	sw	zero,12(sp)
    9d02:	002c                	addi	a1,sp,8
    9d04:	03748ab3          	mul	s5,s1,s7
    9d08:	0054                	addi	a3,sp,4
    9d0a:	8652                	mv	a2,s4
    9d0c:	9aa2                	add	s5,s5,s0
    9d0e:	024aa783          	lw	a5,36(s5)
    9d12:	000aae23          	sw	zero,28(s5)
    9d16:	9782                	jalr	a5
    9d18:	013aae23          	sw	s3,28(s5)
    9d1c:	0149f763          	bgeu	s3,s4,9d2a <CO_TPDO_process+0x128>
    9d20:	864e                	mv	a2,s3
    9d22:	002c                	addi	a1,sp,8
    9d24:	854a                	mv	a0,s2
    9d26:	239010ef          	jal	ra,b75e <memcpy>
    9d2a:	03c48793          	addi	a5,s1,60
    9d2e:	078a                	slli	a5,a5,0x2
    9d30:	97a2                	add	a5,a5,s0
    9d32:	439c                	lw	a5,0(a5)
    9d34:	cb81                	beqz	a5,9d44 <CO_TPDO_process+0x142>
    9d36:	009406b3          	add	a3,s0,s1
    9d3a:	2398                	lbu	a4,0(a5)
    9d3c:	1106c683          	lbu	a3,272(a3)
    9d40:	8f55                	or	a4,a4,a3
    9d42:	a398                	sb	a4,0(a5)
    9d44:	0485                	addi	s1,s1,1
    9d46:	994e                	add	s2,s2,s3
    9d48:	0ff4f493          	andi	s1,s1,255
    9d4c:	b71d                	j	9c72 <CO_TPDO_process+0x70>
    9d4e:	4785                	li	a5,1
    9d50:	14f52823          	sw	a5,336(a0)
    9d54:	16052023          	sw	zero,352(a0)
    9d58:	14052e23          	sw	zero,348(a0)
    9d5c:	8082                	ret
    9d5e:	8082                	ret

00009d60 <CO_SDOserver_init_canRxTx>:
    9d60:	fa4f62ef          	jal	t0,504 <__riscv_save_4>
    9d64:	842a                	mv	s0,a0
    9d66:	89b6                	mv	s3,a3
    9d68:	4474                	lw	a3,76(s0)
    9d6a:	852e                	mv	a0,a1
    9d6c:	85b2                	mv	a1,a2
    9d6e:	00e69663          	bne	a3,a4,9d7a <CO_SDOserver_init_canRxTx+0x1a>
    9d72:	4834                	lw	a3,80(s0)
    9d74:	4901                	li	s2,0
    9d76:	06f68163          	beq	a3,a5,9dd8 <CO_SDOserver_init_canRxTx+0x78>
    9d7a:	c478                	sw	a4,76(s0)
    9d7c:	c83c                	sw	a5,80(s0)
    9d7e:	00075363          	bgez	a4,9d84 <CO_SDOserver_init_canRxTx+0x24>
    9d82:	4701                	li	a4,0
    9d84:	0007ce63          	bltz	a5,9da0 <CO_SDOserver_init_canRxTx+0x40>
    9d88:	01071613          	slli	a2,a4,0x10
    9d8c:	8241                	srli	a2,a2,0x10
    9d8e:	ca21                	beqz	a2,9dde <CO_SDOserver_init_canRxTx+0x7e>
    9d90:	01079493          	slli	s1,a5,0x10
    9d94:	80c1                	srli	s1,s1,0x10
    9d96:	4785                	li	a5,1
    9d98:	e499                	bnez	s1,9da6 <CO_SDOserver_init_canRxTx+0x46>
    9d9a:	4601                	li	a2,0
    9d9c:	4781                	li	a5,0
    9d9e:	a021                	j	9da6 <CO_SDOserver_init_canRxTx+0x46>
    9da0:	4781                	li	a5,0
    9da2:	4481                	li	s1,0
    9da4:	4601                	li	a2,0
    9da6:	0000a837          	lui	a6,0xa
    9daa:	c81c                	sw	a5,16(s0)
    9dac:	de280813          	addi	a6,a6,-542 # 9de2 <CO_SDO_receive>
    9db0:	87a2                	mv	a5,s0
    9db2:	4701                	li	a4,0
    9db4:	7ff00693          	li	a3,2047
    9db8:	d4cfe0ef          	jal	ra,8304 <CO_CANrxBufferInit>
    9dbc:	892a                	mv	s2,a0
    9dbe:	4008                	lw	a0,0(s0)
    9dc0:	4781                	li	a5,0
    9dc2:	4721                	li	a4,8
    9dc4:	4681                	li	a3,0
    9dc6:	8626                	mv	a2,s1
    9dc8:	85ce                	mv	a1,s3
    9dca:	d8cfe0ef          	jal	ra,8356 <CO_CANtxBufferInit>
    9dce:	c048                	sw	a0,4(s0)
    9dd0:	e501                	bnez	a0,9dd8 <CO_SDOserver_init_canRxTx+0x78>
    9dd2:	00042823          	sw	zero,16(s0)
    9dd6:	597d                	li	s2,-1
    9dd8:	854a                	mv	a0,s2
    9dda:	f5ef606f          	j	538 <__riscv_restore_4>
    9dde:	4481                	li	s1,0
    9de0:	bf75                	j	9d9c <CO_SDOserver_init_canRxTx+0x3c>

00009de2 <CO_SDO_receive>:
    9de2:	21d8                	lbu	a4,4(a1)
    9de4:	47a1                	li	a5,8
    9de6:	02f71963          	bne	a4,a5,9e18 <CO_SDO_receive+0x36>
    9dea:	31d8                	lbu	a4,5(a1)
    9dec:	08000793          	li	a5,128
    9df0:	00f71563          	bne	a4,a5,9dfa <CO_SDO_receive+0x18>
    9df4:	00052a23          	sw	zero,20(a0)
    9df8:	8082                	ret
    9dfa:	5d1c                	lw	a5,56(a0)
    9dfc:	ef91                	bnez	a5,9e18 <CO_SDO_receive+0x36>
    9dfe:	f20f62ef          	jal	t0,51e <__riscv_save_0>
    9e02:	842a                	mv	s0,a0
    9e04:	4621                	li	a2,8
    9e06:	0595                	addi	a1,a1,5
    9e08:	03c50513          	addi	a0,a0,60
    9e0c:	153010ef          	jal	ra,b75e <memcpy>
    9e10:	4785                	li	a5,1
    9e12:	dc1c                	sw	a5,56(s0)
    9e14:	f2ef606f          	j	542 <__riscv_restore_0>
    9e18:	8082                	ret

00009e1a <readFromOd.isra.1.constprop.5>:
    9e1a:	eeaf62ef          	jal	t0,504 <__riscv_save_4>
    9e1e:	07052983          	lw	s3,112(a0)
    9e22:	1101                	addi	sp,sp,-32
    9e24:	0e099463          	bnez	s3,9f0c <readFromOd.isra.1.constprop.5+0xf2>
    9e28:	0a052903          	lw	s2,160(a0)
    9e2c:	0a452483          	lw	s1,164(a0)
    9e30:	4799                	li	a5,6
    9e32:	40990ab3          	sub	s5,s2,s1
    9e36:	0d57eb63          	bltu	a5,s5,9f0c <readFromOd.isra.1.constprop.5+0xf2>
    9e3a:	07c50b13          	addi	s6,a0,124
    9e3e:	842a                	mv	s0,a0
    9e40:	8a2e                	mv	s4,a1
    9e42:	855a                	mv	a0,s6
    9e44:	009b05b3          	add	a1,s6,s1
    9e48:	8656                	mv	a2,s5
    9e4a:	02048493          	addi	s1,s1,32
    9e4e:	1c3010ef          	jal	ra,b810 <memmove>
    9e52:	412484b3          	sub	s1,s1,s2
    9e56:	02844903          	lbu	s2,40(s0)
    9e5a:	0a042223          	sw	zero,164(s0)
    9e5e:	0b542023          	sw	s5,160(s0)
    9e62:	ce02                	sw	zero,28(sp)
    9e64:	03c97913          	andi	s2,s2,60
    9e68:	9b56                	add	s6,s6,s5
    9e6a:	01840513          	addi	a0,s0,24
    9e6e:	00090663          	beqz	s2,9e7a <readFromOd.isra.1.constprop.5+0x60>
    9e72:	c62a                	sw	a0,12(sp)
    9e74:	e29fb0ef          	jal	ra,5c9c <vPortEnterCritical>
    9e78:	4532                	lw	a0,12(sp)
    9e7a:	545c                	lw	a5,44(s0)
    9e7c:	8626                	mv	a2,s1
    9e7e:	0874                	addi	a3,sp,28
    9e80:	85da                	mv	a1,s6
    9e82:	9782                	jalr	a5
    9e84:	84aa                	mv	s1,a0
    9e86:	00090463          	beqz	s2,9e8e <readFromOd.isra.1.constprop.5+0x74>
    9e8a:	e29fb0ef          	jal	ra,5cb2 <vPortExitCritical>
    9e8e:	00148793          	addi	a5,s1,1
    9e92:	4905                	li	s2,1
    9e94:	00f97d63          	bgeu	s2,a5,9eae <readFromOd.isra.1.constprop.5+0x94>
    9e98:	8526                	mv	a0,s1
    9e9a:	9f4ff0ef          	jal	ra,908e <OD_getSDOabCode>
    9e9e:	00aa2023          	sw	a0,0(s4)
    9ea2:	01242a23          	sw	s2,20(s0)
    9ea6:	854e                	mv	a0,s3
    9ea8:	6105                	addi	sp,sp,32
    9eaa:	e8ef606f          	j	538 <__riscv_restore_4>
    9eae:	4972                	lw	s2,28(sp)
    9eb0:	02090663          	beqz	s2,9edc <readFromOd.isra.1.constprop.5+0xc2>
    9eb4:	02840783          	lb	a5,40(s0)
    9eb8:	0207d263          	bgez	a5,9edc <readFromOd.isra.1.constprop.5+0xc2>
    9ebc:	012b07b3          	add	a5,s6,s2
    9ec0:	00078023          	sb	zero,0(a5)
    9ec4:	855a                	mv	a0,s6
    9ec6:	485010ef          	jal	ra,bb4a <strlen>
    9eca:	e111                	bnez	a0,9ece <readFromOd.isra.1.constprop.5+0xb4>
    9ecc:	4505                	li	a0,1
    9ece:	01257763          	bgeu	a0,s2,9edc <readFromOd.isra.1.constprop.5+0xc2>
    9ed2:	543c                	lw	a5,104(s0)
    9ed4:	ce2a                	sw	a0,28(sp)
    9ed6:	4481                	li	s1,0
    9ed8:	953e                	add	a0,a0,a5
    9eda:	d008                	sw	a0,32(s0)
    9edc:	4672                	lw	a2,28(sp)
    9ede:	9656                	add	a2,a2,s5
    9ee0:	0ac42023          	sw	a2,160(s0)
    9ee4:	c601                	beqz	a2,9eec <readFromOd.isra.1.constprop.5+0xd2>
    9ee6:	57fd                	li	a5,-1
    9ee8:	02f49063          	bne	s1,a5,9f08 <readFromOd.isra.1.constprop.5+0xee>
    9eec:	06042823          	sw	zero,112(s0)
    9ef0:	4799                	li	a5,6
    9ef2:	00c7ed63          	bltu	a5,a2,9f0c <readFromOd.isra.1.constprop.5+0xf2>
    9ef6:	060407b7          	lui	a5,0x6040
    9efa:	04778793          	addi	a5,a5,71 # 6040047 <_data_lma+0x60328af>
    9efe:	00fa2023          	sw	a5,0(s4)
    9f02:	4785                	li	a5,1
    9f04:	c85c                	sw	a5,20(s0)
    9f06:	b745                	j	9ea6 <readFromOd.isra.1.constprop.5+0x8c>
    9f08:	4785                	li	a5,1
    9f0a:	d83c                	sw	a5,112(s0)
    9f0c:	4985                	li	s3,1
    9f0e:	bf61                	j	9ea6 <readFromOd.isra.1.constprop.5+0x8c>

00009f10 <OD_write_1201_additional>:
    9f10:	14050a63          	beqz	a0,a064 <OD_write_1201_additional+0x154>
    9f14:	df0f62ef          	jal	t0,504 <__riscv_save_4>
    9f18:	84aa                	mv	s1,a0
    9f1a:	1141                	addi	sp,sp,-16
    9f1c:	892e                	mv	s2,a1
    9f1e:	4525                	li	a0,9
    9f20:	c5b1                	beqz	a1,9f6c <OD_write_1201_additional+0x5c>
    9f22:	c6a9                	beqz	a3,9f6c <OD_write_1201_additional+0x5c>
    9f24:	389c                	lbu	a5,17(s1)
    9f26:	4705                	li	a4,1
    9f28:	8a36                	mv	s4,a3
    9f2a:	89b2                	mv	s3,a2
    9f2c:	40c0                	lw	s0,4(s1)
    9f2e:	02e78363          	beq	a5,a4,9f54 <OD_write_1201_additional+0x44>
    9f32:	4511                	li	a0,4
    9f34:	cf85                	beqz	a5,9f6c <OD_write_1201_additional+0x5c>
    9f36:	4689                	li	a3,2
    9f38:	0ad78b63          	beq	a5,a3,9fee <OD_write_1201_additional+0xde>
    9f3c:	468d                	li	a3,3
    9f3e:	4539                	li	a0,14
    9f40:	02d79663          	bne	a5,a3,9f6c <OD_write_1201_additional+0x5c>
    9f44:	452d                	li	a0,11
    9f46:	02e61363          	bne	a2,a4,9f6c <OD_write_1201_additional+0x5c>
    9f4a:	00058783          	lb	a5,0(a1)
    9f4e:	08f04963          	bgtz	a5,9fe0 <OD_write_1201_additional+0xd0>
    9f52:	a821                	j	9f6a <OD_write_1201_additional+0x5a>
    9f54:	4611                	li	a2,4
    9f56:	0068                	addi	a0,sp,12
    9f58:	007010ef          	jal	ra,b75e <memcpy>
    9f5c:	4732                	lw	a4,12(sp)
    9f5e:	400007b7          	lui	a5,0x40000
    9f62:	80078793          	addi	a5,a5,-2048 # 3ffff800 <__freertos_irq_stack_top+0x1fffa800>
    9f66:	8ff9                	and	a5,a5,a4
    9f68:	c789                	beqz	a5,9f72 <OD_write_1201_additional+0x62>
    9f6a:	453d                	li	a0,15
    9f6c:	0141                	addi	sp,sp,16
    9f6e:	dcaf606f          	j	538 <__riscv_restore_4>
    9f72:	04074e63          	bltz	a4,9fce <OD_write_1201_additional+0xbe>
    9f76:	4810                	lw	a2,16(s0)
    9f78:	01071693          	slli	a3,a4,0x10
    9f7c:	82c1                	srli	a3,a3,0x10
    9f7e:	7ff6f793          	andi	a5,a3,2047
    9f82:	c611                	beqz	a2,9f8e <OD_write_1201_additional+0x7e>
    9f84:	4470                	lw	a2,76(s0)
    9f86:	7ff67613          	andi	a2,a2,2047
    9f8a:	fec790e3          	bne	a5,a2,9f6a <OD_write_1201_additional+0x5a>
    9f8e:	7806f693          	andi	a3,a3,1920
    9f92:	dee1                	beqz	a3,9f6a <OD_write_1201_additional+0x5a>
    9f94:	eff78693          	addi	a3,a5,-257
    9f98:	06c2                	slli	a3,a3,0x10
    9f9a:	82c1                	srli	a3,a3,0x10
    9f9c:	07f00613          	li	a2,127
    9fa0:	fcd675e3          	bgeu	a2,a3,9f6a <OD_write_1201_additional+0x5a>
    9fa4:	a7f78693          	addi	a3,a5,-1409
    9fa8:	f7f6f693          	andi	a3,a3,-129
    9fac:	06c2                	slli	a3,a3,0x10
    9fae:	82c1                	srli	a3,a3,0x10
    9fb0:	07e00613          	li	a2,126
    9fb4:	fad67be3          	bgeu	a2,a3,9f6a <OD_write_1201_additional+0x5a>
    9fb8:	92078693          	addi	a3,a5,-1760
    9fbc:	06c2                	slli	a3,a3,0x10
    9fbe:	82c1                	srli	a3,a3,0x10
    9fc0:	467d                	li	a2,31
    9fc2:	fad674e3          	bgeu	a2,a3,9f6a <OD_write_1201_additional+0x5a>
    9fc6:	70000693          	li	a3,1792
    9fca:	faf6e0e3          	bltu	a3,a5,9f6a <OD_write_1201_additional+0x5a>
    9fce:	483c                	lw	a5,80(s0)
    9fd0:	04a45683          	lhu	a3,74(s0)
    9fd4:	04845603          	lhu	a2,72(s0)
    9fd8:	406c                	lw	a1,68(s0)
    9fda:	8522                	mv	a0,s0
    9fdc:	d85ff0ef          	jal	ra,9d60 <CO_SDOserver_init_canRxTx>
    9fe0:	86d2                	mv	a3,s4
    9fe2:	864e                	mv	a2,s3
    9fe4:	85ca                	mv	a1,s2
    9fe6:	8526                	mv	a0,s1
    9fe8:	eedfe0ef          	jal	ra,8ed4 <OD_writeOriginal>
    9fec:	b741                	j	9f6c <OD_write_1201_additional+0x5c>
    9fee:	4611                	li	a2,4
    9ff0:	0068                	addi	a0,sp,12
    9ff2:	76c010ef          	jal	ra,b75e <memcpy>
    9ff6:	47b2                	lw	a5,12(sp)
    9ff8:	40000737          	lui	a4,0x40000
    9ffc:	80070713          	addi	a4,a4,-2048 # 3ffff800 <__freertos_irq_stack_top+0x1fffa800>
    a000:	8f7d                	and	a4,a4,a5
    a002:	f725                	bnez	a4,9f6a <OD_write_1201_additional+0x5a>
    a004:	0407ce63          	bltz	a5,a060 <OD_write_1201_additional+0x150>
    a008:	4810                	lw	a2,16(s0)
    a00a:	01079693          	slli	a3,a5,0x10
    a00e:	82c1                	srli	a3,a3,0x10
    a010:	7ff6f713          	andi	a4,a3,2047
    a014:	c611                	beqz	a2,a020 <OD_write_1201_additional+0x110>
    a016:	4830                	lw	a2,80(s0)
    a018:	7ff67613          	andi	a2,a2,2047
    a01c:	f4c717e3          	bne	a4,a2,9f6a <OD_write_1201_additional+0x5a>
    a020:	7806f693          	andi	a3,a3,1920
    a024:	d2b9                	beqz	a3,9f6a <OD_write_1201_additional+0x5a>
    a026:	eff70693          	addi	a3,a4,-257
    a02a:	06c2                	slli	a3,a3,0x10
    a02c:	82c1                	srli	a3,a3,0x10
    a02e:	07f00613          	li	a2,127
    a032:	f2d67ce3          	bgeu	a2,a3,9f6a <OD_write_1201_additional+0x5a>
    a036:	a7f70593          	addi	a1,a4,-1409
    a03a:	f7f5f593          	andi	a1,a1,-129
    a03e:	05c2                	slli	a1,a1,0x10
    a040:	81c1                	srli	a1,a1,0x10
    a042:	07e00693          	li	a3,126
    a046:	f2b6f2e3          	bgeu	a3,a1,9f6a <OD_write_1201_additional+0x5a>
    a04a:	92070693          	addi	a3,a4,-1760
    a04e:	06c2                	slli	a3,a3,0x10
    a050:	82c1                	srli	a3,a3,0x10
    a052:	467d                	li	a2,31
    a054:	f0d67be3          	bgeu	a2,a3,9f6a <OD_write_1201_additional+0x5a>
    a058:	70000693          	li	a3,1792
    a05c:	f0e6e7e3          	bltu	a3,a4,9f6a <OD_write_1201_additional+0x5a>
    a060:	4478                	lw	a4,76(s0)
    a062:	b7bd                	j	9fd0 <OD_write_1201_additional+0xc0>
    a064:	4525                	li	a0,9
    a066:	8082                	ret

0000a068 <CO_SDOserver_init>:
    a068:	c8ef62ef          	jal	t0,4f6 <__riscv_save_10>
    a06c:	1141                	addi	sp,sp,-16
    a06e:	04015b03          	lhu	s6,64(sp)
    a072:	4496                	lw	s1,68(sp)
    a074:	e509                	bnez	a0,a07e <CO_SDOserver_init+0x16>
    a076:	557d                	li	a0,-1
    a078:	0141                	addi	sp,sp,16
    a07a:	cb4f606f          	j	52e <__riscv_restore_10>
    a07e:	dde5                	beqz	a1,a076 <CO_SDOserver_init+0xe>
    a080:	dbfd                	beqz	a5,a076 <CO_SDOserver_init+0xe>
    a082:	fe088ae3          	beqz	a7,a076 <CO_SDOserver_init+0xe>
    a086:	89be                	mv	s3,a5
    a088:	3e800793          	li	a5,1000
    a08c:	02f70733          	mul	a4,a4,a5
    a090:	c50c                	sw	a1,8(a0)
    a092:	a554                	sb	a3,12(a0)
    a094:	00052a23          	sw	zero,20(a0)
    a098:	8ac6                	mv	s5,a7
    a09a:	8a42                	mv	s4,a6
    a09c:	8932                	mv	s2,a2
    a09e:	842a                	mv	s0,a0
    a0a0:	d978                	sw	a4,116(a0)
    a0a2:	e631                	bnez	a2,a0ee <CO_SDOserver_init+0x86>
    a0a4:	01869793          	slli	a5,a3,0x18
    a0a8:	87e1                	srai	a5,a5,0x18
    a0aa:	fcf056e3          	blez	a5,a076 <CO_SDOserver_init+0xe>
    a0ae:	01069493          	slli	s1,a3,0x10
    a0b2:	80c1                	srli	s1,s1,0x10
    a0b4:	4785                	li	a5,1
    a0b6:	60048b93          	addi	s7,s1,1536
    a0ba:	c91c                	sw	a5,16(a0)
    a0bc:	58048493          	addi	s1,s1,1408
    a0c0:	02042c23          	sw	zero,56(s0)
    a0c4:	05342223          	sw	s3,68(s0)
    a0c8:	05441423          	sh	s4,72(s0)
    a0cc:	05641523          	sh	s6,74(s0)
    a0d0:	04042623          	sw	zero,76(s0)
    a0d4:	04042823          	sw	zero,80(s0)
    a0d8:	01542023          	sw	s5,0(s0)
    a0dc:	87a6                	mv	a5,s1
    a0de:	875e                	mv	a4,s7
    a0e0:	86da                	mv	a3,s6
    a0e2:	8652                	mv	a2,s4
    a0e4:	85ce                	mv	a1,s3
    a0e6:	8522                	mv	a0,s0
    a0e8:	c79ff0ef          	jal	ra,9d60 <CO_SDOserver_init_canRxTx>
    a0ec:	b771                	j	a078 <CO_SDOserver_init+0x10>
    a0ee:	00065c03          	lhu	s8,0(a2)
    a0f2:	6785                	lui	a5,0x1
    a0f4:	20078793          	addi	a5,a5,512 # 1200 <vBarMode+0x2e>
    a0f8:	04fc1163          	bne	s8,a5,a13a <CO_SDOserver_init+0xd2>
    a0fc:	01869793          	slli	a5,a3,0x18
    a100:	87e1                	srai	a5,a5,0x18
    a102:	f6f05ae3          	blez	a5,a076 <CO_SDOserver_init+0xe>
    a106:	01069493          	slli	s1,a3,0x10
    a10a:	4785                	li	a5,1
    a10c:	80c1                	srli	s1,s1,0x10
    a10e:	60048b93          	addi	s7,s1,1536
    a112:	c91c                	sw	a5,16(a0)
    a114:	0070                	addi	a2,sp,12
    a116:	4705                	li	a4,1
    a118:	4691                	li	a3,4
    a11a:	4585                	li	a1,1
    a11c:	854a                	mv	a0,s2
    a11e:	c65e                	sw	s7,12(sp)
    a120:	fc3fe0ef          	jal	ra,90e2 <OD_set_value>
    a124:	58048493          	addi	s1,s1,1408
    a128:	4705                	li	a4,1
    a12a:	4691                	li	a3,4
    a12c:	0070                	addi	a2,sp,12
    a12e:	4589                	li	a1,2
    a130:	854a                	mv	a0,s2
    a132:	c626                	sw	s1,12(sp)
    a134:	faffe0ef          	jal	ra,90e2 <OD_set_value>
    a138:	b761                	j	a0c0 <CO_SDOserver_init+0x58>
    a13a:	777d                	lui	a4,0xfffff
    a13c:	dff70713          	addi	a4,a4,-513 # ffffedff <__freertos_irq_stack_top+0xdfff9dff>
    a140:	9762                	add	a4,a4,s8
    a142:	0742                	slli	a4,a4,0x10
    a144:	8341                	srli	a4,a4,0x10
    a146:	07e00793          	li	a5,126
    a14a:	f2e7e6e3          	bltu	a5,a4,a076 <CO_SDOserver_init+0xe>
    a14e:	4705                	li	a4,1
    a150:	4685                	li	a3,1
    a152:	00710613          	addi	a2,sp,7
    a156:	4581                	li	a1,0
    a158:	854a                	mv	a0,s2
    a15a:	f55fe0ef          	jal	ra,90ae <OD_get_value>
    a15e:	4705                	li	a4,1
    a160:	4691                	li	a3,4
    a162:	0030                	addi	a2,sp,8
    a164:	4585                	li	a1,1
    a166:	8caa                	mv	s9,a0
    a168:	854a                	mv	a0,s2
    a16a:	f45fe0ef          	jal	ra,90ae <OD_get_value>
    a16e:	4705                	li	a4,1
    a170:	8baa                	mv	s7,a0
    a172:	4691                	li	a3,4
    a174:	0070                	addi	a2,sp,12
    a176:	4589                	li	a1,2
    a178:	854a                	mv	a0,s2
    a17a:	f35fe0ef          	jal	ra,90ae <OD_get_value>
    a17e:	839c                	lbu	a5,7(sp)
    a180:	4705                	li	a4,1
    a182:	17f9                	addi	a5,a5,-2
    a184:	0ff7f793          	andi	a5,a5,255
    a188:	00f76863          	bltu	a4,a5,a198 <CO_SDOserver_init+0x130>
    a18c:	019bebb3          	or	s7,s7,s9
    a190:	00abebb3          	or	s7,s7,a0
    a194:	000b8763          	beqz	s7,a1a2 <CO_SDOserver_init+0x13a>
    a198:	c099                	beqz	s1,a19e <CO_SDOserver_init+0x136>
    a19a:	0184a023          	sw	s8,0(s1)
    a19e:	5551                	li	a0,-12
    a1a0:	bde1                	j	a078 <CO_SDOserver_init+0x10>
    a1a2:	47a2                	lw	a5,8(sp)
    a1a4:	4b81                	li	s7,0
    a1a6:	0007c463          	bltz	a5,a1ae <CO_SDOserver_init+0x146>
    a1aa:	7ff7fb93          	andi	s7,a5,2047
    a1ae:	47b2                	lw	a5,12(sp)
    a1b0:	4481                	li	s1,0
    a1b2:	0007c463          	bltz	a5,a1ba <CO_SDOserver_init+0x152>
    a1b6:	7ff7f493          	andi	s1,a5,2047
    a1ba:	000097b7          	lui	a5,0x9
    a1be:	e8478793          	addi	a5,a5,-380 # 8e84 <OD_readOriginal>
    a1c2:	cc3c                	sw	a5,88(s0)
    a1c4:	0000a7b7          	lui	a5,0xa
    a1c8:	f1078793          	addi	a5,a5,-240 # 9f10 <OD_write_1201_additional>
    a1cc:	cc7c                	sw	a5,92(s0)
    a1ce:	c860                	sw	s0,84(s0)
    a1d0:	05440793          	addi	a5,s0,84
    a1d4:	00f92423          	sw	a5,8(s2)
    a1d8:	b5e5                	j	a0c0 <CO_SDOserver_init+0x58>

0000a1da <CO_SDOserver_process>:
    a1da:	5e050c63          	beqz	a0,a7d2 <CO_SDOserver_process+0x5f8>
    a1de:	b26f62ef          	jal	t0,504 <__riscv_save_4>
    a1e2:	491c                	lw	a5,16(a0)
    a1e4:	1101                	addi	sp,sp,-32
    a1e6:	c802                	sw	zero,16(sp)
    a1e8:	842a                	mv	s0,a0
    a1ea:	5e078863          	beqz	a5,a7da <CO_SDOserver_process+0x600>
    a1ee:	495c                	lw	a5,20(a0)
    a1f0:	5d18                	lw	a4,56(a0)
    a1f2:	5e079263          	bnez	a5,a7d6 <CO_SDOserver_process+0x5fc>
    a1f6:	5e071763          	bnez	a4,a7e4 <CO_SDOserver_process+0x60a>
    a1fa:	4501                	li	a0,0
    a1fc:	6105                	addi	sp,sp,32
    a1fe:	b3af606f          	j	538 <__riscv_restore_4>
    a202:	20070f63          	beqz	a4,a420 <CO_SDOserver_process+0x246>
    a206:	485c                	lw	a5,20(s0)
    a208:	e3bd                	bnez	a5,a26e <CO_SDOserver_process+0x94>
    a20a:	03c44783          	lbu	a5,60(s0)
    a20e:	02000713          	li	a4,32
    a212:	0f07f693          	andi	a3,a5,240
    a216:	00e69663          	bne	a3,a4,a222 <CO_SDOserver_process+0x48>
    a21a:	47c5                	li	a5,17
    a21c:	c85c                	sw	a5,20(s0)
    a21e:	4481                	li	s1,0
    a220:	a809                	j	a232 <CO_SDOserver_process+0x58>
    a222:	04000713          	li	a4,64
    a226:	06e79863          	bne	a5,a4,a296 <CO_SDOserver_process+0xbc>
    a22a:	02100793          	li	a5,33
    a22e:	c85c                	sw	a5,20(s0)
    a230:	4485                	li	s1,1
    a232:	47c2                	lw	a5,16(sp)
    a234:	ef85                	bnez	a5,a26c <CO_SDOserver_process+0x92>
    a236:	03e44583          	lbu	a1,62(s0)
    a23a:	03d44783          	lbu	a5,61(s0)
    a23e:	4408                	lw	a0,8(s0)
    a240:	05a2                	slli	a1,a1,0x8
    a242:	8ddd                	or	a1,a1,a5
    a244:	03f44783          	lbu	a5,63(s0)
    a248:	b84e                	sh	a1,52(s0)
    a24a:	02f40b23          	sb	a5,54(s0)
    a24e:	cdffe0ef          	jal	ra,8f2c <OD_find>
    a252:	03644583          	lbu	a1,54(s0)
    a256:	4681                	li	a3,0
    a258:	01840613          	addi	a2,s0,24
    a25c:	d41fe0ef          	jal	ra,8f9c <OD_getSub>
    a260:	c129                	beqz	a0,a2a2 <CO_SDOserver_process+0xc8>
    a262:	e2dfe0ef          	jal	ra,908e <OD_getSDOabCode>
    a266:	c82a                	sw	a0,16(sp)
    a268:	4785                	li	a5,1
    a26a:	c85c                	sw	a5,20(s0)
    a26c:	e4b9                	bnez	s1,a2ba <CO_SDOserver_process+0xe0>
    a26e:	485c                	lw	a5,20(s0)
    a270:	1a078363          	beqz	a5,a416 <CO_SDOserver_process+0x23c>
    a274:	485c                	lw	a5,20(s0)
    a276:	4985                	li	s3,1
    a278:	19378f63          	beq	a5,s3,a416 <CO_SDOserver_process+0x23c>
    a27c:	485c                	lw	a5,20(s0)
    a27e:	474d                	li	a4,19
    a280:	24e78f63          	beq	a5,a4,a4de <CO_SDOserver_process+0x304>
    a284:	08f76f63          	bltu	a4,a5,a322 <CO_SDOserver_process+0x148>
    a288:	4745                	li	a4,17
    a28a:	0ce78463          	beq	a5,a4,a352 <CO_SDOserver_process+0x178>
    a28e:	050407b7          	lui	a5,0x5040
    a292:	0785                	addi	a5,a5,1
    a294:	aa9d                	j	a40a <CO_SDOserver_process+0x230>
    a296:	050407b7          	lui	a5,0x5040
    a29a:	0785                	addi	a5,a5,1
    a29c:	c83e                	sw	a5,16(sp)
    a29e:	4785                	li	a5,1
    a2a0:	bfb5                	j	a21c <CO_SDOserver_process+0x42>
    a2a2:	02844783          	lbu	a5,40(s0)
    a2a6:	0037f713          	andi	a4,a5,3
    a2aa:	e709                	bnez	a4,a2b4 <CO_SDOserver_process+0xda>
    a2ac:	060107b7          	lui	a5,0x6010
    a2b0:	c83e                	sw	a5,16(sp)
    a2b2:	bf5d                	j	a268 <CO_SDOserver_process+0x8e>
    a2b4:	c0b1                	beqz	s1,a2f8 <CO_SDOserver_process+0x11e>
    a2b6:	8b85                	andi	a5,a5,1
    a2b8:	cb8d                	beqz	a5,a2ea <CO_SDOserver_process+0x110>
    a2ba:	47c2                	lw	a5,16(sp)
    a2bc:	fbcd                	bnez	a5,a26e <CO_SDOserver_process+0x94>
    a2be:	0a042023          	sw	zero,160(s0)
    a2c2:	0a042223          	sw	zero,164(s0)
    a2c6:	06042423          	sw	zero,104(s0)
    a2ca:	06042823          	sw	zero,112(s0)
    a2ce:	080c                	addi	a1,sp,16
    a2d0:	8522                	mv	a0,s0
    a2d2:	b49ff0ef          	jal	ra,9e1a <readFromOd.isra.1.constprop.5>
    a2d6:	dd41                	beqz	a0,a26e <CO_SDOserver_process+0x94>
    a2d8:	583c                	lw	a5,112(s0)
    a2da:	cf85                	beqz	a5,a312 <CO_SDOserver_process+0x138>
    a2dc:	501c                	lw	a5,32(s0)
    a2de:	0a042703          	lw	a4,160(s0)
    a2e2:	d07c                	sw	a5,100(s0)
    a2e4:	e385                	bnez	a5,a304 <CO_SDOserver_process+0x12a>
    a2e6:	d078                	sw	a4,100(s0)
    a2e8:	b759                	j	a26e <CO_SDOserver_process+0x94>
    a2ea:	060107b7          	lui	a5,0x6010
    a2ee:	0785                	addi	a5,a5,1
    a2f0:	c83e                	sw	a5,16(sp)
    a2f2:	4785                	li	a5,1
    a2f4:	c85c                	sw	a5,20(s0)
    a2f6:	bfa5                	j	a26e <CO_SDOserver_process+0x94>
    a2f8:	8b89                	andi	a5,a5,2
    a2fa:	fbb5                	bnez	a5,a26e <CO_SDOserver_process+0x94>
    a2fc:	060107b7          	lui	a5,0x6010
    a300:	0789                	addi	a5,a5,2
    a302:	b7fd                	j	a2f0 <CO_SDOserver_process+0x116>
    a304:	f6e785e3          	beq	a5,a4,a26e <CO_SDOserver_process+0x94>
    a308:	060407b7          	lui	a5,0x6040
    a30c:	04778793          	addi	a5,a5,71 # 6040047 <_data_lma+0x60328af>
    a310:	b7c5                	j	a2f0 <CO_SDOserver_process+0x116>
    a312:	02840703          	lb	a4,40(s0)
    a316:	4781                	li	a5,0
    a318:	00074363          	bltz	a4,a31e <CO_SDOserver_process+0x144>
    a31c:	501c                	lw	a5,32(s0)
    a31e:	d07c                	sw	a5,100(s0)
    a320:	b7b9                	j	a26e <CO_SDOserver_process+0x94>
    a322:	02100713          	li	a4,33
    a326:	30e78363          	beq	a5,a4,a62c <CO_SDOserver_process+0x452>
    a32a:	02300713          	li	a4,35
    a32e:	f6e790e3          	bne	a5,a4,a28e <CO_SDOserver_process+0xb4>
    a332:	03c44783          	lbu	a5,60(s0)
    a336:	06000713          	li	a4,96
    a33a:	0ef7f693          	andi	a3,a5,239
    a33e:	2ee69a63          	bne	a3,a4,a632 <CO_SDOserver_process+0x458>
    a342:	06c44703          	lbu	a4,108(s0)
    a346:	8bc1                	andi	a5,a5,16
    a348:	1af71a63          	bne	a4,a5,a4fc <CO_SDOserver_process+0x322>
    a34c:	02400793          	li	a5,36
    a350:	aaf5                	j	a54c <CO_SDOserver_process+0x372>
    a352:	03c44903          	lbu	s2,60(s0)
    a356:	00297713          	andi	a4,s2,2
    a35a:	00197793          	andi	a5,s2,1
    a35e:	12070c63          	beqz	a4,a496 <CO_SDOserver_process+0x2bc>
    a362:	5004                	lw	s1,32(s0)
    a364:	cfbd                	beqz	a5,a3e2 <CO_SDOserver_process+0x208>
    a366:	00295913          	srli	s2,s2,0x2
    a36a:	00397793          	andi	a5,s2,3
    a36e:	4911                	li	s2,4
    a370:	40f90933          	sub	s2,s2,a5
    a374:	864a                	mv	a2,s2
    a376:	04040593          	addi	a1,s0,64
    a37a:	0828                	addi	a0,sp,24
    a37c:	cc02                	sw	zero,24(sp)
    a37e:	00011e23          	sh	zero,28(sp)
    a382:	3dc010ef          	jal	ra,b75e <memcpy>
    a386:	02844783          	lbu	a5,40(s0)
    a38a:	01879713          	slli	a4,a5,0x18
    a38e:	8761                	srai	a4,a4,0x18
    a390:	06075163          	bgez	a4,a3f2 <CO_SDOserver_process+0x218>
    a394:	c099                	beqz	s1,a39a <CO_SDOserver_process+0x1c0>
    a396:	06997363          	bgeu	s2,s1,a3fc <CO_SDOserver_process+0x222>
    a39a:	fff48713          	addi	a4,s1,-1
    a39e:	4485                	li	s1,1
    a3a0:	01270363          	beq	a4,s2,a3a6 <CO_SDOserver_process+0x1cc>
    a3a4:	4489                	li	s1,2
    a3a6:	94ca                	add	s1,s1,s2
    a3a8:	d004                	sw	s1,32(s0)
    a3aa:	ca02                	sw	zero,20(sp)
    a3ac:	03c7f913          	andi	s2,a5,60
    a3b0:	01840513          	addi	a0,s0,24
    a3b4:	00090663          	beqz	s2,a3c0 <CO_SDOserver_process+0x1e6>
    a3b8:	c62a                	sw	a0,12(sp)
    a3ba:	8e3fb0ef          	jal	ra,5c9c <vPortEnterCritical>
    a3be:	4532                	lw	a0,12(sp)
    a3c0:	581c                	lw	a5,48(s0)
    a3c2:	0854                	addi	a3,sp,20
    a3c4:	8626                	mv	a2,s1
    a3c6:	082c                	addi	a1,sp,24
    a3c8:	9782                	jalr	a5
    a3ca:	00090663          	beqz	s2,a3d6 <CO_SDOserver_process+0x1fc>
    a3ce:	c62a                	sw	a0,12(sp)
    a3d0:	8e3fb0ef          	jal	ra,5cb2 <vPortExitCritical>
    a3d4:	4532                	lw	a0,12(sp)
    a3d6:	cd05                	beqz	a0,a40e <CO_SDOserver_process+0x234>
    a3d8:	cb7fe0ef          	jal	ra,908e <OD_getSDOabCode>
    a3dc:	c82a                	sw	a0,16(sp)
    a3de:	4785                	li	a5,1
    a3e0:	a2b5                	j	a54c <CO_SDOserver_process+0x372>
    a3e2:	fff48793          	addi	a5,s1,-1
    a3e6:	4709                	li	a4,2
    a3e8:	4911                	li	s2,4
    a3ea:	f8f765e3          	bltu	a4,a5,a374 <CO_SDOserver_process+0x19a>
    a3ee:	8926                	mv	s2,s1
    a3f0:	b751                	j	a374 <CO_SDOserver_process+0x19a>
    a3f2:	e489                	bnez	s1,a3fc <CO_SDOserver_process+0x222>
    a3f4:	03242023          	sw	s2,32(s0)
    a3f8:	84ca                	mv	s1,s2
    a3fa:	bf45                	j	a3aa <CO_SDOserver_process+0x1d0>
    a3fc:	fa9907e3          	beq	s2,s1,a3aa <CO_SDOserver_process+0x1d0>
    a400:	060707b7          	lui	a5,0x6070
    a404:	1524ee63          	bltu	s1,s2,a560 <CO_SDOserver_process+0x386>
    a408:	07cd                	addi	a5,a5,19
    a40a:	c83e                	sw	a5,16(sp)
    a40c:	bfc9                	j	a3de <CO_SDOserver_process+0x204>
    a40e:	47c9                	li	a5,18
    a410:	c85c                	sw	a5,20(s0)
    a412:	4785                	li	a5,1
    a414:	d83c                	sw	a5,112(s0)
    a416:	06042c23          	sw	zero,120(s0)
    a41a:	02042c23          	sw	zero,56(s0)
    a41e:	4601                	li	a2,0
    a420:	5c3c                	lw	a5,120(s0)
    a422:	5878                	lw	a4,116(s0)
    a424:	20e7eb63          	bltu	a5,a4,a63a <CO_SDOserver_process+0x460>
    a428:	050407b7          	lui	a5,0x5040
    a42c:	c83e                	sw	a5,16(sp)
    a42e:	4785                	li	a5,1
    a430:	c85c                	sw	a5,20(s0)
    a432:	405c                	lw	a5,4(s0)
    a434:	4511                	li	a0,4
    a436:	4b98                	lw	a4,16(a5)
    a438:	dc0712e3          	bnez	a4,a1fc <CO_SDOserver_process+0x22>
    a43c:	00578513          	addi	a0,a5,5 # 5040005 <_data_lma+0x503286d>
    a440:	4621                	li	a2,8
    a442:	4581                	li	a1,0
    a444:	90af60ef          	jal	ra,54e <memset>
    a448:	485c                	lw	a5,20(s0)
    a44a:	4751                	li	a4,20
    a44c:	2ce78663          	beq	a5,a4,a718 <CO_SDOserver_process+0x53e>
    a450:	1ef76a63          	bltu	a4,a5,a644 <CO_SDOserver_process+0x46a>
    a454:	4749                	li	a4,18
    a456:	28e78363          	beq	a5,a4,a6dc <CO_SDOserver_process+0x502>
    a45a:	485c                	lw	a5,20(s0)
    a45c:	4505                	li	a0,1
    a45e:	d8a79fe3          	bne	a5,a0,a1fc <CO_SDOserver_process+0x22>
    a462:	47c2                	lw	a5,16(sp)
    a464:	4048                	lw	a0,4(s0)
    a466:	4611                	li	a2,4
    a468:	cc3e                	sw	a5,24(sp)
    a46a:	f8000793          	li	a5,-128
    a46e:	b15c                	sb	a5,5(a0)
    a470:	385e                	lhu	a5,52(s0)
    a472:	082c                	addi	a1,sp,24
    a474:	0525                	addi	a0,a0,9
    a476:	fef51ea3          	sh	a5,-3(a0)
    a47a:	03644783          	lbu	a5,54(s0)
    a47e:	fef50fa3          	sb	a5,-1(a0)
    a482:	2dc010ef          	jal	ra,b75e <memcpy>
    a486:	404c                	lw	a1,4(s0)
    a488:	4008                	lw	a0,0(s0)
    a48a:	f19fd0ef          	jal	ra,83a2 <CO_CANsend>
    a48e:	5559                	li	a0,-10
    a490:	00042a23          	sw	zero,20(s0)
    a494:	b3a5                	j	a1fc <CO_SDOserver_process+0x22>
    a496:	cf8d                	beqz	a5,a4d0 <CO_SDOserver_process+0x2f6>
    a498:	4611                	li	a2,4
    a49a:	04040593          	addi	a1,s0,64
    a49e:	0828                	addi	a0,sp,24
    a4a0:	5004                	lw	s1,32(s0)
    a4a2:	2bc010ef          	jal	ra,b75e <memcpy>
    a4a6:	47e2                	lw	a5,24(sp)
    a4a8:	d07c                	sw	a5,100(s0)
    a4aa:	c48d                	beqz	s1,a4d4 <CO_SDOserver_process+0x2fa>
    a4ac:	00f4f963          	bgeu	s1,a5,a4be <CO_SDOserver_process+0x2e4>
    a4b0:	060707b7          	lui	a5,0x6070
    a4b4:	07c9                	addi	a5,a5,18
    a4b6:	c83e                	sw	a5,16(sp)
    a4b8:	01342a23          	sw	s3,20(s0)
    a4bc:	bfa9                	j	a416 <CO_SDOserver_process+0x23c>
    a4be:	0097fb63          	bgeu	a5,s1,a4d4 <CO_SDOserver_process+0x2fa>
    a4c2:	02840783          	lb	a5,40(s0)
    a4c6:	0007c763          	bltz	a5,a4d4 <CO_SDOserver_process+0x2fa>
    a4ca:	060707b7          	lui	a5,0x6070
    a4ce:	bf2d                	j	a408 <CO_SDOserver_process+0x22e>
    a4d0:	06042223          	sw	zero,100(s0)
    a4d4:	47c9                	li	a5,18
    a4d6:	c85c                	sw	a5,20(s0)
    a4d8:	06042823          	sw	zero,112(s0)
    a4dc:	bf2d                	j	a416 <CO_SDOserver_process+0x23c>
    a4de:	03c44603          	lbu	a2,60(s0)
    a4e2:	0e067793          	andi	a5,a2,224
    a4e6:	14079663          	bnez	a5,a632 <CO_SDOserver_process+0x458>
    a4ea:	06c44703          	lbu	a4,108(s0)
    a4ee:	00167793          	andi	a5,a2,1
    a4f2:	d83c                	sw	a5,112(s0)
    a4f4:	01067793          	andi	a5,a2,16
    a4f8:	00f70563          	beq	a4,a5,a502 <CO_SDOserver_process+0x328>
    a4fc:	050307b7          	lui	a5,0x5030
    a500:	bf5d                	j	a4b6 <CO_SDOserver_process+0x2dc>
    a502:	0a042503          	lw	a0,160(s0)
    a506:	8205                	srli	a2,a2,0x1
    a508:	fff64613          	not	a2,a2
    a50c:	00767493          	andi	s1,a2,7
    a510:	07c40913          	addi	s2,s0,124
    a514:	8626                	mv	a2,s1
    a516:	03d40593          	addi	a1,s0,61
    a51a:	954a                	add	a0,a0,s2
    a51c:	242010ef          	jal	ra,b75e <memcpy>
    a520:	0a042703          	lw	a4,160(s0)
    a524:	5430                	lw	a2,104(s0)
    a526:	501c                	lw	a5,32(s0)
    a528:	9726                	add	a4,a4,s1
    a52a:	9626                	add	a2,a2,s1
    a52c:	0ae42023          	sw	a4,160(s0)
    a530:	d430                	sw	a2,104(s0)
    a532:	c399                	beqz	a5,a538 <CO_SDOserver_process+0x35e>
    a534:	f6c7eee3          	bltu	a5,a2,a4b0 <CO_SDOserver_process+0x2d6>
    a538:	5834                	lw	a3,112(s0)
    a53a:	ea99                	bnez	a3,a550 <CO_SDOserver_process+0x376>
    a53c:	02000793          	li	a5,32
    a540:	40e78733          	sub	a4,a5,a4
    a544:	47a1                	li	a5,8
    a546:	0ae7ff63          	bgeu	a5,a4,a604 <CO_SDOserver_process+0x42a>
    a54a:	47d1                	li	a5,20
    a54c:	c85c                	sw	a5,20(s0)
    a54e:	b5e1                	j	a416 <CO_SDOserver_process+0x23c>
    a550:	5074                	lw	a3,100(s0)
    a552:	ca89                	beqz	a3,a564 <CO_SDOserver_process+0x38a>
    a554:	00d60863          	beq	a2,a3,a564 <CO_SDOserver_process+0x38a>
    a558:	060707b7          	lui	a5,0x6070
    a55c:	eac6f6e3          	bgeu	a3,a2,a408 <CO_SDOserver_process+0x22e>
    a560:	07c9                	addi	a5,a5,18
    a562:	b565                	j	a40a <CO_SDOserver_process+0x230>
    a564:	02840683          	lb	a3,40(s0)
    a568:	0806d463          	bgez	a3,a5f0 <CO_SDOserver_process+0x416>
    a56c:	c399                	beqz	a5,a572 <CO_SDOserver_process+0x398>
    a56e:	08f67463          	bgeu	a2,a5,a5f6 <CO_SDOserver_process+0x41c>
    a572:	00270593          	addi	a1,a4,2
    a576:	02000693          	li	a3,32
    a57a:	06b6eb63          	bltu	a3,a1,a5f0 <CO_SDOserver_process+0x416>
    a57e:	00170693          	addi	a3,a4,1
    a582:	0ad42023          	sw	a3,160(s0)
    a586:	9722                	add	a4,a4,s0
    a588:	06070e23          	sb	zero,124(a4)
    a58c:	00160713          	addi	a4,a2,1
    a590:	d438                	sw	a4,104(s0)
    a592:	c399                	beqz	a5,a598 <CO_SDOserver_process+0x3be>
    a594:	00f77963          	bgeu	a4,a5,a5a6 <CO_SDOserver_process+0x3cc>
    a598:	0ab42023          	sw	a1,160(s0)
    a59c:	96a2                	add	a3,a3,s0
    a59e:	06068e23          	sb	zero,124(a3)
    a5a2:	0609                	addi	a2,a2,2
    a5a4:	d430                	sw	a2,104(s0)
    a5a6:	543c                	lw	a5,104(s0)
    a5a8:	d01c                	sw	a5,32(s0)
    a5aa:	02844483          	lbu	s1,40(s0)
    a5ae:	cc02                	sw	zero,24(sp)
    a5b0:	01840513          	addi	a0,s0,24
    a5b4:	03c4f493          	andi	s1,s1,60
    a5b8:	c489                	beqz	s1,a5c2 <CO_SDOserver_process+0x3e8>
    a5ba:	c62a                	sw	a0,12(sp)
    a5bc:	ee0fb0ef          	jal	ra,5c9c <vPortEnterCritical>
    a5c0:	4532                	lw	a0,12(sp)
    a5c2:	581c                	lw	a5,48(s0)
    a5c4:	0a042603          	lw	a2,160(s0)
    a5c8:	0834                	addi	a3,sp,24
    a5ca:	85ca                	mv	a1,s2
    a5cc:	9782                	jalr	a5
    a5ce:	c489                	beqz	s1,a5d8 <CO_SDOserver_process+0x3fe>
    a5d0:	c62a                	sw	a0,12(sp)
    a5d2:	ee0fb0ef          	jal	ra,5cb2 <vPortExitCritical>
    a5d6:	4532                	lw	a0,12(sp)
    a5d8:	0a042023          	sw	zero,160(s0)
    a5dc:	00150793          	addi	a5,a0,1
    a5e0:	4485                	li	s1,1
    a5e2:	02f4f663          	bgeu	s1,a5,a60e <CO_SDOserver_process+0x434>
    a5e6:	aa9fe0ef          	jal	ra,908e <OD_getSDOabCode>
    a5ea:	c82a                	sw	a0,16(sp)
    a5ec:	c844                	sw	s1,20(s0)
    a5ee:	b525                	j	a416 <CO_SDOserver_process+0x23c>
    a5f0:	e399                	bnez	a5,a5f6 <CO_SDOserver_process+0x41c>
    a5f2:	d010                	sw	a2,32(s0)
    a5f4:	bf5d                	j	a5aa <CO_SDOserver_process+0x3d0>
    a5f6:	faf60ae3          	beq	a2,a5,a5aa <CO_SDOserver_process+0x3d0>
    a5fa:	ecc7f8e3          	bgeu	a5,a2,a4ca <CO_SDOserver_process+0x2f0>
    a5fe:	060707b7          	lui	a5,0x6070
    a602:	bfb9                	j	a560 <CO_SDOserver_process+0x386>
    a604:	507c                	lw	a5,100(s0)
    a606:	d3d5                	beqz	a5,a5aa <CO_SDOserver_process+0x3d0>
    a608:	fac7f1e3          	bgeu	a5,a2,a5aa <CO_SDOserver_process+0x3d0>
    a60c:	bfcd                	j	a5fe <CO_SDOserver_process+0x424>
    a60e:	583c                	lw	a5,112(s0)
    a610:	cb89                	beqz	a5,a622 <CO_SDOserver_process+0x448>
    a612:	57fd                	li	a5,-1
    a614:	f2f51be3          	bne	a0,a5,a54a <CO_SDOserver_process+0x370>
    a618:	060707b7          	lui	a5,0x6070
    a61c:	07cd                	addi	a5,a5,19
    a61e:	c83e                	sw	a5,16(sp)
    a620:	b7f1                	j	a5ec <CO_SDOserver_process+0x412>
    a622:	f505                	bnez	a0,a54a <CO_SDOserver_process+0x370>
    a624:	060707b7          	lui	a5,0x6070
    a628:	07c9                	addi	a5,a5,18
    a62a:	bfd5                	j	a61e <CO_SDOserver_process+0x444>
    a62c:	02200793          	li	a5,34
    a630:	bf31                	j	a54c <CO_SDOserver_process+0x372>
    a632:	050407b7          	lui	a5,0x5040
    a636:	0785                	addi	a5,a5,1
    a638:	bdbd                	j	a4b6 <CO_SDOserver_process+0x2dc>
    a63a:	97b2                	add	a5,a5,a2
    a63c:	dc3c                	sw	a5,120(s0)
    a63e:	dee7eae3          	bltu	a5,a4,a432 <CO_SDOserver_process+0x258>
    a642:	b3dd                	j	a428 <CO_SDOserver_process+0x24e>
    a644:	02200713          	li	a4,34
    a648:	0ee78b63          	beq	a5,a4,a73e <CO_SDOserver_process+0x564>
    a64c:	02400713          	li	a4,36
    a650:	e0e795e3          	bne	a5,a4,a45a <CO_SDOserver_process+0x280>
    a654:	080c                	addi	a1,sp,16
    a656:	8522                	mv	a0,s0
    a658:	fc2ff0ef          	jal	ra,9e1a <readFromOd.isra.1.constprop.5>
    a65c:	de050fe3          	beqz	a0,a45a <CO_SDOserver_process+0x280>
    a660:	06c44783          	lbu	a5,108(s0)
    a664:	4048                	lw	a0,4(s0)
    a666:	0017b713          	seqz	a4,a5
    a66a:	b15c                	sb	a5,5(a0)
    a66c:	0a442683          	lw	a3,164(s0)
    a670:	0a042483          	lw	s1,160(s0)
    a674:	0712                	slli	a4,a4,0x4
    a676:	06e40623          	sb	a4,108(s0)
    a67a:	8c95                	sub	s1,s1,a3
    a67c:	4719                	li	a4,6
    a67e:	00977863          	bgeu	a4,s1,a68e <CO_SDOserver_process+0x4b4>
    a682:	5838                	lw	a4,112(s0)
    a684:	12070363          	beqz	a4,a7aa <CO_SDOserver_process+0x5d0>
    a688:	471d                	li	a4,7
    a68a:	12e49063          	bne	s1,a4,a7aa <CO_SDOserver_process+0x5d0>
    a68e:	471d                	li	a4,7
    a690:	8f05                	sub	a4,a4,s1
    a692:	0706                	slli	a4,a4,0x1
    a694:	8fd9                	or	a5,a5,a4
    a696:	0017e793          	ori	a5,a5,1
    a69a:	b15c                	sb	a5,5(a0)
    a69c:	00042a23          	sw	zero,20(s0)
    a6a0:	4901                	li	s2,0
    a6a2:	07c40593          	addi	a1,s0,124
    a6a6:	8626                	mv	a2,s1
    a6a8:	95b6                	add	a1,a1,a3
    a6aa:	0519                	addi	a0,a0,6
    a6ac:	0b2010ef          	jal	ra,b75e <memcpy>
    a6b0:	0a442783          	lw	a5,164(s0)
    a6b4:	97a6                	add	a5,a5,s1
    a6b6:	0af42223          	sw	a5,164(s0)
    a6ba:	543c                	lw	a5,104(s0)
    a6bc:	94be                	add	s1,s1,a5
    a6be:	507c                	lw	a5,100(s0)
    a6c0:	d424                	sw	s1,104(s0)
    a6c2:	10078663          	beqz	a5,a7ce <CO_SDOserver_process+0x5f4>
    a6c6:	0e97fa63          	bgeu	a5,s1,a7ba <CO_SDOserver_process+0x5e0>
    a6ca:	060707b7          	lui	a5,0x6070
    a6ce:	07c9                	addi	a5,a5,18
    a6d0:	c83e                	sw	a5,16(sp)
    a6d2:	4785                	li	a5,1
    a6d4:	c85c                	sw	a5,20(s0)
    a6d6:	d80912e3          	bnez	s2,a45a <CO_SDOserver_process+0x280>
    a6da:	b605                	j	a1fa <CO_SDOserver_process+0x20>
    a6dc:	404c                	lw	a1,4(s0)
    a6de:	06000793          	li	a5,96
    a6e2:	b1dc                	sb	a5,5(a1)
    a6e4:	385e                	lhu	a5,52(s0)
    a6e6:	a1fe                	sh	a5,6(a1)
    a6e8:	03644783          	lbu	a5,54(s0)
    a6ec:	a59c                	sb	a5,8(a1)
    a6ee:	4008                	lw	a0,0(s0)
    a6f0:	06042c23          	sw	zero,120(s0)
    a6f4:	caffd0ef          	jal	ra,83a2 <CO_CANsend>
    a6f8:	583c                	lw	a5,112(s0)
    a6fa:	c781                	beqz	a5,a702 <CO_SDOserver_process+0x528>
    a6fc:	00042a23          	sw	zero,20(s0)
    a700:	bced                	j	a1fa <CO_SDOserver_process+0x20>
    a702:	06040623          	sb	zero,108(s0)
    a706:	06042423          	sw	zero,104(s0)
    a70a:	0a042023          	sw	zero,160(s0)
    a70e:	0a042223          	sw	zero,164(s0)
    a712:	47cd                	li	a5,19
    a714:	c85c                	sw	a5,20(s0)
    a716:	b391                	j	a45a <CO_SDOserver_process+0x280>
    a718:	06c44783          	lbu	a5,108(s0)
    a71c:	404c                	lw	a1,4(s0)
    a71e:	0207e713          	ori	a4,a5,32
    a722:	b1d8                	sb	a4,5(a1)
    a724:	0017b793          	seqz	a5,a5
    a728:	4008                	lw	a0,0(s0)
    a72a:	0792                	slli	a5,a5,0x4
    a72c:	06f40623          	sb	a5,108(s0)
    a730:	06042c23          	sw	zero,120(s0)
    a734:	c6ffd0ef          	jal	ra,83a2 <CO_CANsend>
    a738:	583c                	lw	a5,112(s0)
    a73a:	dfe1                	beqz	a5,a712 <CO_SDOserver_process+0x538>
    a73c:	b7c1                	j	a6fc <CO_SDOserver_process+0x522>
    a73e:	5070                	lw	a2,100(s0)
    a740:	478d                	li	a5,3
    a742:	4048                	lw	a0,4(s0)
    a744:	fff60713          	addi	a4,a2,-1
    a748:	02e7ea63          	bltu	a5,a4,a77c <CO_SDOserver_process+0x5a2>
    a74c:	4791                	li	a5,4
    a74e:	8f91                	sub	a5,a5,a2
    a750:	078a                	slli	a5,a5,0x2
    a752:	0437e793          	ori	a5,a5,67
    a756:	b15c                	sb	a5,5(a0)
    a758:	07c40593          	addi	a1,s0,124
    a75c:	0525                	addi	a0,a0,9
    a75e:	000010ef          	jal	ra,b75e <memcpy>
    a762:	4901                	li	s2,0
    a764:	00042a23          	sw	zero,20(s0)
    a768:	385e                	lhu	a5,52(s0)
    a76a:	404c                	lw	a1,4(s0)
    a76c:	a1fe                	sh	a5,6(a1)
    a76e:	03644783          	lbu	a5,54(s0)
    a772:	a59c                	sb	a5,8(a1)
    a774:	4008                	lw	a0,0(s0)
    a776:	c2dfd0ef          	jal	ra,83a2 <CO_CANsend>
    a77a:	bfb1                	j	a6d6 <CO_SDOserver_process+0x4fc>
    a77c:	c21d                	beqz	a2,a7a2 <CO_SDOserver_process+0x5c8>
    a77e:	cc32                	sw	a2,24(sp)
    a780:	04100793          	li	a5,65
    a784:	b15c                	sb	a5,5(a0)
    a786:	4611                	li	a2,4
    a788:	082c                	addi	a1,sp,24
    a78a:	0525                	addi	a0,a0,9
    a78c:	7d3000ef          	jal	ra,b75e <memcpy>
    a790:	02300793          	li	a5,35
    a794:	06040623          	sb	zero,108(s0)
    a798:	06042c23          	sw	zero,120(s0)
    a79c:	c85c                	sw	a5,20(s0)
    a79e:	4905                	li	s2,1
    a7a0:	b7e1                	j	a768 <CO_SDOserver_process+0x58e>
    a7a2:	04000793          	li	a5,64
    a7a6:	b15c                	sb	a5,5(a0)
    a7a8:	b7e5                	j	a790 <CO_SDOserver_process+0x5b6>
    a7aa:	02300793          	li	a5,35
    a7ae:	06042c23          	sw	zero,120(s0)
    a7b2:	c85c                	sw	a5,20(s0)
    a7b4:	449d                	li	s1,7
    a7b6:	4905                	li	s2,1
    a7b8:	b5ed                	j	a6a2 <CO_SDOserver_process+0x4c8>
    a7ba:	00091a63          	bnez	s2,a7ce <CO_SDOserver_process+0x5f4>
    a7be:	00f4f863          	bgeu	s1,a5,a7ce <CO_SDOserver_process+0x5f4>
    a7c2:	060707b7          	lui	a5,0x6070
    a7c6:	07cd                	addi	a5,a5,19
    a7c8:	c83e                	sw	a5,16(sp)
    a7ca:	4785                	li	a5,1
    a7cc:	b7a1                	j	a714 <CO_SDOserver_process+0x53a>
    a7ce:	404c                	lw	a1,4(s0)
    a7d0:	b755                	j	a774 <CO_SDOserver_process+0x59a>
    a7d2:	5579                	li	a0,-2
    a7d4:	8082                	ret
    a7d6:	a20596e3          	bnez	a1,a202 <CO_SDOserver_process+0x28>
    a7da:	00042a23          	sw	zero,20(s0)
    a7de:	02042c23          	sw	zero,56(s0)
    a7e2:	bc21                	j	a1fa <CO_SDOserver_process+0x20>
    a7e4:	d9fd                	beqz	a1,a7da <CO_SDOserver_process+0x600>
    a7e6:	b405                	j	a206 <CO_SDOserver_process+0x2c>

0000a7e8 <CO_delete>:
    a7e8:	c931                	beqz	a0,a83c <CO_delete+0x54>
    a7ea:	d35f52ef          	jal	t0,51e <__riscv_save_0>
    a7ee:	842a                	mv	s0,a0
    a7f0:	4148                	lw	a0,4(a0)
    a7f2:	afffd0ef          	jal	ra,82f0 <CO_CANmodule_disable>
    a7f6:	4448                	lw	a0,12(s0)
    a7f8:	75d000ef          	jal	ra,b754 <free>
    a7fc:	4408                	lw	a0,8(s0)
    a7fe:	757000ef          	jal	ra,b754 <free>
    a802:	4048                	lw	a0,4(s0)
    a804:	751000ef          	jal	ra,b754 <free>
    a808:	5408                	lw	a0,40(s0)
    a80a:	74b000ef          	jal	ra,b754 <free>
    a80e:	5048                	lw	a0,36(s0)
    a810:	745000ef          	jal	ra,b754 <free>
    a814:	5008                	lw	a0,32(s0)
    a816:	73f000ef          	jal	ra,b754 <free>
    a81a:	4c48                	lw	a0,28(s0)
    a81c:	739000ef          	jal	ra,b754 <free>
    a820:	4848                	lw	a0,20(s0)
    a822:	733000ef          	jal	ra,b754 <free>
    a826:	4c08                	lw	a0,24(s0)
    a828:	72d000ef          	jal	ra,b754 <free>
    a82c:	4808                	lw	a0,16(s0)
    a82e:	727000ef          	jal	ra,b754 <free>
    a832:	8522                	mv	a0,s0
    a834:	721000ef          	jal	ra,b754 <free>
    a838:	d0bf506f          	j	542 <__riscv_restore_0>
    a83c:	8082                	ret

0000a83e <CO_new>:
    a83e:	ce1f52ef          	jal	t0,51e <__riscv_save_0>
    a842:	892e                	mv	s2,a1
    a844:	4505                	li	a0,1
    a846:	02c00593          	li	a1,44
    a84a:	6ff000ef          	jal	ra,b748 <calloc>
    a84e:	84aa                	mv	s1,a0
    a850:	c145                	beqz	a0,a8f0 <CO_new+0xb2>
    a852:	03800593          	li	a1,56
    a856:	4505                	li	a0,1
    a858:	6f1000ef          	jal	ra,b748 <calloc>
    a85c:	c888                	sw	a0,16(s1)
    a85e:	cd59                	beqz	a0,a8fc <CO_new+0xbe>
    a860:	05000593          	li	a1,80
    a864:	4505                	li	a0,1
    a866:	6e3000ef          	jal	ra,b748 <calloc>
    a86a:	c8c8                	sw	a0,20(s1)
    a86c:	c959                	beqz	a0,a902 <CO_new+0xc4>
    a86e:	45a1                	li	a1,8
    a870:	4545                	li	a0,17
    a872:	6d7000ef          	jal	ra,b748 <calloc>
    a876:	cc88                	sw	a0,24(s1)
    a878:	c941                	beqz	a0,a908 <CO_new+0xca>
    a87a:	0a800593          	li	a1,168
    a87e:	4505                	li	a0,1
    a880:	6c9000ef          	jal	ra,b748 <calloc>
    a884:	ccc8                	sw	a0,28(s1)
    a886:	c541                	beqz	a0,a90e <CO_new+0xd0>
    a888:	16000593          	li	a1,352
    a88c:	4511                	li	a0,4
    a88e:	6bb000ef          	jal	ra,b748 <calloc>
    a892:	d088                	sw	a0,32(s1)
    a894:	c141                	beqz	a0,a914 <CO_new+0xd6>
    a896:	16400593          	li	a1,356
    a89a:	450d                	li	a0,3
    a89c:	6ad000ef          	jal	ra,b748 <calloc>
    a8a0:	d0c8                	sw	a0,36(s1)
    a8a2:	cd25                	beqz	a0,a91a <CO_new+0xdc>
    a8a4:	07400593          	li	a1,116
    a8a8:	4505                	li	a0,1
    a8aa:	69f000ef          	jal	ra,b748 <calloc>
    a8ae:	d488                	sw	a0,40(s1)
    a8b0:	c925                	beqz	a0,a920 <CO_new+0xe2>
    a8b2:	03800593          	li	a1,56
    a8b6:	4505                	li	a0,1
    a8b8:	691000ef          	jal	ra,b748 <calloc>
    a8bc:	c0c8                	sw	a0,4(s1)
    a8be:	c52d                	beqz	a0,a928 <CO_new+0xea>
    a8c0:	45b1                	li	a1,12
    a8c2:	451d                	li	a0,7
    a8c4:	685000ef          	jal	ra,b748 <calloc>
    a8c8:	c488                	sw	a0,8(s1)
    a8ca:	c13d                	beqz	a0,a930 <CO_new+0xf2>
    a8cc:	45e1                	li	a1,24
    a8ce:	451d                	li	a0,7
    a8d0:	679000ef          	jal	ra,b748 <calloc>
    a8d4:	c4c8                	sw	a0,12(s1)
    a8d6:	c12d                	beqz	a0,a938 <CO_new+0xfa>
    a8d8:	4785                	li	a5,1
    a8da:	6405                	lui	s0,0x1
    a8dc:	c09c                	sw	a5,0(s1)
    a8de:	d3840413          	addi	s0,s0,-712 # d38 <vSaveData+0x10>
    a8e2:	00090463          	beqz	s2,a8ea <CO_new+0xac>
    a8e6:	00892023          	sw	s0,0(s2)
    a8ea:	8526                	mv	a0,s1
    a8ec:	c57f506f          	j	542 <__riscv_restore_0>
    a8f0:	4401                	li	s0,0
    a8f2:	8526                	mv	a0,s1
    a8f4:	ef5ff0ef          	jal	ra,a7e8 <CO_delete>
    a8f8:	4481                	li	s1,0
    a8fa:	b7e5                	j	a8e2 <CO_new+0xa4>
    a8fc:	02c00413          	li	s0,44
    a900:	bfcd                	j	a8f2 <CO_new+0xb4>
    a902:	06400413          	li	s0,100
    a906:	b7f5                	j	a8f2 <CO_new+0xb4>
    a908:	0b400413          	li	s0,180
    a90c:	b7dd                	j	a8f2 <CO_new+0xb4>
    a90e:	13c00413          	li	s0,316
    a912:	b7c5                	j	a8f2 <CO_new+0xb4>
    a914:	1e400413          	li	s0,484
    a918:	bfe9                	j	a8f2 <CO_new+0xb4>
    a91a:	76400413          	li	s0,1892
    a91e:	bfd1                	j	a8f2 <CO_new+0xb4>
    a920:	6405                	lui	s0,0x1
    a922:	b9040413          	addi	s0,s0,-1136 # b90 <DataModel_Init+0x2c0>
    a926:	b7f1                	j	a8f2 <CO_new+0xb4>
    a928:	6405                	lui	s0,0x1
    a92a:	c0440413          	addi	s0,s0,-1020 # c04 <DataModel_Init+0x334>
    a92e:	b7d1                	j	a8f2 <CO_new+0xb4>
    a930:	6405                	lui	s0,0x1
    a932:	c3c40413          	addi	s0,s0,-964 # c3c <DataModel_Init+0x36c>
    a936:	bf75                	j	a8f2 <CO_new+0xb4>
    a938:	6405                	lui	s0,0x1
    a93a:	c9040413          	addi	s0,s0,-880 # c90 <DataModel_Init+0x3c0>
    a93e:	bf55                	j	a8f2 <CO_new+0xb4>

0000a940 <CO_CANinit>:
    a940:	c90d                	beqz	a0,a972 <CO_CANinit+0x32>
    a942:	bddf52ef          	jal	t0,51e <__riscv_save_0>
    a946:	415c                	lw	a5,4(a0)
    a948:	1141                	addi	sp,sp,-16
    a94a:	842a                	mv	s0,a0
    a94c:	0007aa23          	sw	zero,20(a5) # 6070014 <_data_lma+0x606287c>
    a950:	852e                	mv	a0,a1
    a952:	c632                	sw	a2,12(sp)
    a954:	c42e                	sw	a1,8(sp)
    a956:	85ffd0ef          	jal	ra,81b4 <CO_CANsetConfigurationMode>
    a95a:	4832                	lw	a6,12(sp)
    a95c:	45a2                	lw	a1,8(sp)
    a95e:	4458                	lw	a4,12(s0)
    a960:	4410                	lw	a2,8(s0)
    a962:	4048                	lw	a0,4(s0)
    a964:	479d                	li	a5,7
    a966:	469d                	li	a3,7
    a968:	879fd0ef          	jal	ra,81e0 <CO_CANmodule_init>
    a96c:	0141                	addi	sp,sp,16
    a96e:	bd5f506f          	j	542 <__riscv_restore_0>
    a972:	557d                	li	a0,-1
    a974:	8082                	ret

0000a976 <CO_LSSinit>:
    a976:	c51d                	beqz	a0,a9a4 <CO_LSSinit+0x2e>
    a978:	ba7f52ef          	jal	t0,51e <__riscv_save_0>
    a97c:	1141                	addi	sp,sp,-16
    a97e:	7e400793          	li	a5,2020
    a982:	c23e                	sw	a5,4(sp)
    a984:	4799                	li	a5,6
    a986:	c03e                	sw	a5,0(sp)
    a988:	00452883          	lw	a7,4(a0)
    a98c:	5508                	lw	a0,40(a0)
    a98e:	8336                	mv	t1,a3
    a990:	7e500813          	li	a6,2021
    a994:	86b2                	mv	a3,a2
    a996:	8746                	mv	a4,a7
    a998:	861a                	mv	a2,t1
    a99a:	bf7fd0ef          	jal	ra,8590 <CO_LSSslave_init>
    a99e:	0141                	addi	sp,sp,16
    a9a0:	ba3f506f          	j	542 <__riscv_restore_0>
    a9a4:	557d                	li	a0,-1
    a9a6:	8082                	ret

0000a9a8 <CO_CANopenInit>:
    a9a8:	b4ff52ef          	jal	t0,4f6 <__riscv_save_10>
    a9ac:	1101                	addi	sp,sp,-32
    a9ae:	05814483          	lbu	s1,88(sp)
    a9b2:	4976                	lw	s2,92(sp)
    a9b4:	e509                	bnez	a0,a9be <CO_CANopenInit+0x16>
    a9b6:	557d                	li	a0,-1
    a9b8:	6105                	addi	sp,sp,32
    a9ba:	b75f506f          	j	52e <__riscv_restore_10>
    a9be:	842a                	mv	s0,a0
    a9c0:	89b2                	mv	s3,a2
    a9c2:	8ab6                	mv	s5,a3
    a9c4:	8b3e                	mv	s6,a5
    a9c6:	8c42                	mv	s8,a6
    a9c8:	8bc6                	mv	s7,a7
    a9ca:	e219                	bnez	a2,a9d0 <CO_CANopenInit+0x28>
    a9cc:	01452983          	lw	s3,20(a0)
    a9d0:	00042023          	sw	zero,0(s0)
    a9d4:	0ff00793          	li	a5,255
    a9d8:	00f49663          	bne	s1,a5,a9e4 <CO_CANopenInit+0x3c>
    a9dc:	4785                	li	a5,1
    a9de:	c01c                	sw	a5,0(s0)
    a9e0:	5535                	li	a0,-19
    a9e2:	bfd9                	j	a9b8 <CO_CANopenInit+0x10>
    a9e4:	01849793          	slli	a5,s1,0x18
    a9e8:	87e1                	srai	a5,a5,0x18
    a9ea:	fcf056e3          	blez	a5,a9b6 <CO_CANopenInit+0xe>
    a9ee:	8141a783          	lw	a5,-2028(gp) # 20000594 <OD>
    a9f2:	4801                	li	a6,0
    a9f4:	4745                	li	a4,17
    a9f6:	43d0                	lw	a2,4(a5)
    a9f8:	c24a                	sw	s2,4(sp)
    a9fa:	c026                	sw	s1,0(sp)
    a9fc:	4c14                	lw	a3,24(s0)
    a9fe:	404c                	lw	a1,4(s0)
    aa00:	4848                	lw	a0,20(s0)
    aa02:	01860893          	addi	a7,a2,24
    aa06:	05460793          	addi	a5,a2,84
    aa0a:	0631                	addi	a2,a2,12
    aa0c:	ecffd0ef          	jal	ra,88da <CO_EM_init>
    aa10:	f545                	bnez	a0,a9b8 <CO_CANopenInit+0x10>
    aa12:	8141a783          	lw	a5,-2028(gp) # 20000594 <OD>
    aa16:	00442803          	lw	a6,4(s0)
    aa1a:	4881                	li	a7,0
    aa1c:	43cc                	lw	a1,4(a5)
    aa1e:	70048793          	addi	a5,s1,1792
    aa22:	c63e                	sw	a5,12(sp)
    aa24:	4795                	li	a5,5
    aa26:	c43e                	sw	a5,8(sp)
    aa28:	c84a                	sw	s2,16(sp)
    aa2a:	c242                	sw	a6,4(sp)
    aa2c:	c002                	sw	zero,0(sp)
    aa2e:	4808                	lw	a0,16(s0)
    aa30:	87e2                	mv	a5,s8
    aa32:	875a                	mv	a4,s6
    aa34:	86a6                	mv	a3,s1
    aa36:	864e                	mv	a2,s3
    aa38:	06c58593          	addi	a1,a1,108
    aa3c:	a52fe0ef          	jal	ra,8c8e <CO_NMT_init>
    aa40:	fd25                	bnez	a0,a9b8 <CO_CANopenInit+0x10>
    aa42:	4791                	li	a5,4
    aa44:	c03e                	sw	a5,0(sp)
    aa46:	c24a                	sw	s2,4(sp)
    aa48:	00442883          	lw	a7,4(s0)
    aa4c:	4c48                	lw	a0,28(s0)
    aa4e:	4815                	li	a6,5
    aa50:	87c6                	mv	a5,a7
    aa52:	875e                	mv	a4,s7
    aa54:	86a6                	mv	a3,s1
    aa56:	4601                	li	a2,0
    aa58:	85d6                	mv	a1,s5
    aa5a:	e0eff0ef          	jal	ra,a068 <CO_SDOserver_init>
    aa5e:	bfa9                	j	a9b8 <CO_CANopenInit+0x10>

0000aa60 <CO_CANopenInitPDO>:
    aa60:	c17d                	beqz	a0,ab46 <CO_CANopenInitPDO+0xe6>
    aa62:	a95f52ef          	jal	t0,4f6 <__riscv_save_10>
    aa66:	84aa                	mv	s1,a0
    aa68:	411c                	lw	a5,0(a0)
    aa6a:	01869513          	slli	a0,a3,0x18
    aa6e:	8561                	srai	a0,a0,0x18
    aa70:	1141                	addi	sp,sp,-16
    aa72:	00a05763          	blez	a0,aa80 <CO_CANopenInitPDO+0x20>
    aa76:	5535                	li	a0,-19
    aa78:	cb81                	beqz	a5,aa88 <CO_CANopenInitPDO+0x28>
    aa7a:	0141                	addi	sp,sp,16
    aa7c:	ab3f506f          	j	52e <__riscv_restore_10>
    aa80:	557d                	li	a0,-1
    aa82:	dfe5                	beqz	a5,aa7a <CO_CANopenInitPDO+0x1a>
    aa84:	5535                	li	a0,-19
    aa86:	bfd5                	j	aa7a <CO_CANopenInitPDO+0x1a>
    aa88:	8a3a                	mv	s4,a4
    aa8a:	8141a703          	lw	a4,-2028(gp) # 20000594 <OD>
    aa8e:	01069413          	slli	s0,a3,0x10
    aa92:	8041                	srli	s0,s0,0x10
    aa94:	4358                	lw	a4,4(a4)
    aa96:	89b2                	mv	s3,a2
    aa98:	892e                	mv	s2,a1
    aa9a:	08470713          	addi	a4,a4,132
    aa9e:	20040a93          	addi	s5,s0,512
    aaa2:	4501                	li	a0,0
    aaa4:	8b3e                	mv	s6,a5
    aaa6:	16000d13          	li	s10,352
    aaaa:	4c11                	li	s8,4
    aaac:	00150b93          	addi	s7,a0,1
    aab0:	03a50533          	mul	a0,a0,s10
    aab4:	0204a303          	lw	t1,32(s1)
    aab8:	c052                	sw	s4,0(sp)
    aaba:	0044a803          	lw	a6,4(s1)
    aabe:	010b9893          	slli	a7,s7,0x10
    aac2:	0108d893          	srli	a7,a7,0x10
    aac6:	03070793          	addi	a5,a4,48
    aaca:	86d6                	mv	a3,s5
    aacc:	864a                	mv	a2,s2
    aace:	85ce                	mv	a1,s3
    aad0:	951a                	add	a0,a0,t1
    aad2:	00c70c93          	addi	s9,a4,12
    aad6:	cd5fe0ef          	jal	ra,97aa <CO_RPDO_init>
    aada:	f145                	bnez	a0,aa7a <CO_CANopenInitPDO+0x1a>
    aadc:	100a8a93          	addi	s5,s5,256
    aae0:	0ac2                	slli	s5,s5,0x10
    aae2:	855e                	mv	a0,s7
    aae4:	010ada93          	srli	s5,s5,0x10
    aae8:	8766                	mv	a4,s9
    aaea:	fd8b91e3          	bne	s7,s8,aaac <CO_CANopenInitPDO+0x4c>
    aaee:	8141a783          	lw	a5,-2028(gp) # 20000594 <OD>
    aaf2:	18040413          	addi	s0,s0,384
    aaf6:	16400c13          	li	s8,356
    aafa:	43dc                	lw	a5,4(a5)
    aafc:	4b0d                	li	s6,3
    aafe:	0e478713          	addi	a4,a5,228
    ab02:	4781                	li	a5,0
    ab04:	03878533          	mul	a0,a5,s8
    ab08:	0244a303          	lw	t1,36(s1)
    ab0c:	c052                	sw	s4,0(sp)
    ab0e:	00178a93          	addi	s5,a5,1
    ab12:	0044a803          	lw	a6,4(s1)
    ab16:	010a9893          	slli	a7,s5,0x10
    ab1a:	0108d893          	srli	a7,a7,0x10
    ab1e:	02470793          	addi	a5,a4,36
    ab22:	86a2                	mv	a3,s0
    ab24:	864a                	mv	a2,s2
    ab26:	85ce                	mv	a1,s3
    ab28:	951a                	add	a0,a0,t1
    ab2a:	00c70b93          	addi	s7,a4,12
    ab2e:	f03fe0ef          	jal	ra,9a30 <CO_TPDO_init>
    ab32:	f521                	bnez	a0,aa7a <CO_CANopenInitPDO+0x1a>
    ab34:	10040413          	addi	s0,s0,256
    ab38:	0442                	slli	s0,s0,0x10
    ab3a:	87d6                	mv	a5,s5
    ab3c:	8041                	srli	s0,s0,0x10
    ab3e:	875e                	mv	a4,s7
    ab40:	fd6a92e3          	bne	s5,s6,ab04 <CO_CANopenInitPDO+0xa4>
    ab44:	bf1d                	j	aa7a <CO_CANopenInitPDO+0x1a>
    ab46:	557d                	li	a0,-1
    ab48:	8082                	ret

0000ab4a <CO_process>:
    ab4a:	9bbf52ef          	jal	t0,504 <__riscv_save_4>
    ab4e:	491c                	lw	a5,16(a0)
    ab50:	1101                	addi	sp,sp,-32
    ab52:	842a                	mv	s0,a0
    ab54:	8932                	mv	s2,a2
    ab56:	89b6                	mv	s3,a3
    ab58:	efa9                	bnez	a5,abb2 <CO_process+0x68>
    ab5a:	ce02                	sw	zero,28(sp)
    ab5c:	4581                	li	a1,0
    ab5e:	4048                	lw	a0,4(s0)
    ab60:	c62e                	sw	a1,12(sp)
    ab62:	82ffd0ef          	jal	ra,8390 <CO_CANmodule_process>
    ab66:	5408                	lw	a0,40(s0)
    ab68:	acdfd0ef          	jal	ra,8634 <CO_LSSslave_process>
    ab6c:	401c                	lw	a5,0(s0)
    ab6e:	45b2                	lw	a1,12(sp)
    ab70:	00a034b3          	snez	s1,a0
    ab74:	eb9d                	bnez	a5,abaa <CO_process+0x60>
    ab76:	4848                	lw	a0,20(s0)
    ab78:	86ce                	mv	a3,s3
    ab7a:	864a                	mv	a2,s2
    ab7c:	f35fd0ef          	jal	ra,8ab0 <CO_EM_process>
    ab80:	4808                	lw	a0,16(s0)
    ab82:	086c                	addi	a1,sp,28
    ab84:	86ce                	mv	a3,s3
    ab86:	864a                	mv	a2,s2
    ab88:	9f2fe0ef          	jal	ra,8d7a <CO_NMT_process>
    ab8c:	47f2                	lw	a5,28(sp)
    ab8e:	07f00713          	li	a4,127
    ab92:	84aa                	mv	s1,a0
    ab94:	4585                	li	a1,1
    ab96:	00e78563          	beq	a5,a4,aba0 <CO_process+0x56>
    ab9a:	17ed                	addi	a5,a5,-5
    ab9c:	0017b593          	seqz	a1,a5
    aba0:	4c48                	lw	a0,28(s0)
    aba2:	86ce                	mv	a3,s3
    aba4:	864a                	mv	a2,s2
    aba6:	e34ff0ef          	jal	ra,a1da <CO_SDOserver_process>
    abaa:	8526                	mv	a0,s1
    abac:	6105                	addi	sp,sp,32
    abae:	98bf506f          	j	538 <__riscv_restore_4>
    abb2:	439c                	lw	a5,0(a5)
    abb4:	07f00713          	li	a4,127
    abb8:	4585                	li	a1,1
    abba:	ce3e                	sw	a5,28(sp)
    abbc:	fae781e3          	beq	a5,a4,ab5e <CO_process+0x14>
    abc0:	17ed                	addi	a5,a5,-5
    abc2:	0017b593          	seqz	a1,a5
    abc6:	bf61                	j	ab5e <CO_process+0x14>

0000abc8 <CO_process_RPDO>:
    abc8:	411c                	lw	a5,0(a0)
    abca:	ef95                	bnez	a5,ac06 <CO_process_RPDO+0x3e>
    abcc:	939f52ef          	jal	t0,504 <__riscv_save_4>
    abd0:	4918                	lw	a4,16(a0)
    abd2:	c311                	beqz	a4,abd6 <CO_process_RPDO+0xe>
    abd4:	431c                	lw	a5,0(a4)
    abd6:	17ed                	addi	a5,a5,-5
    abd8:	8a36                	mv	s4,a3
    abda:	89b2                	mv	s3,a2
    abdc:	8aae                	mv	s5,a1
    abde:	84aa                	mv	s1,a0
    abe0:	0017b413          	seqz	s0,a5
    abe4:	4901                	li	s2,0
    abe6:	58000b13          	li	s6,1408
    abea:	5088                	lw	a0,32(s1)
    abec:	8756                	mv	a4,s5
    abee:	86a2                	mv	a3,s0
    abf0:	954a                	add	a0,a0,s2
    abf2:	8652                	mv	a2,s4
    abf4:	85ce                	mv	a1,s3
    abf6:	16090913          	addi	s2,s2,352
    abfa:	d23fe0ef          	jal	ra,991c <CO_RPDO_process>
    abfe:	ff6916e3          	bne	s2,s6,abea <CO_process_RPDO+0x22>
    ac02:	937f506f          	j	538 <__riscv_restore_4>
    ac06:	8082                	ret

0000ac08 <CO_process_TPDO>:
    ac08:	411c                	lw	a5,0(a0)
    ac0a:	ef95                	bnez	a5,ac46 <CO_process_TPDO+0x3e>
    ac0c:	8f9f52ef          	jal	t0,504 <__riscv_save_4>
    ac10:	4918                	lw	a4,16(a0)
    ac12:	c311                	beqz	a4,ac16 <CO_process_TPDO+0xe>
    ac14:	431c                	lw	a5,0(a4)
    ac16:	17ed                	addi	a5,a5,-5
    ac18:	8a36                	mv	s4,a3
    ac1a:	89b2                	mv	s3,a2
    ac1c:	8aae                	mv	s5,a1
    ac1e:	84aa                	mv	s1,a0
    ac20:	0017b413          	seqz	s0,a5
    ac24:	4901                	li	s2,0
    ac26:	42c00b13          	li	s6,1068
    ac2a:	50c8                	lw	a0,36(s1)
    ac2c:	8756                	mv	a4,s5
    ac2e:	86a2                	mv	a3,s0
    ac30:	954a                	add	a0,a0,s2
    ac32:	8652                	mv	a2,s4
    ac34:	85ce                	mv	a1,s3
    ac36:	16490913          	addi	s2,s2,356
    ac3a:	fc9fe0ef          	jal	ra,9c02 <CO_TPDO_process>
    ac3e:	ff6916e3          	bne	s2,s6,ac2a <CO_process_TPDO+0x22>
    ac42:	8f7f506f          	j	538 <__riscv_restore_4>
    ac46:	8082                	ret

0000ac48 <__addsf3>:
    ac48:	1141                	addi	sp,sp,-16
    ac4a:	00800737          	lui	a4,0x800
    ac4e:	177d                	addi	a4,a4,-1
    ac50:	0175d813          	srli	a6,a1,0x17
    ac54:	c226                	sw	s1,4(sp)
    ac56:	01755493          	srli	s1,a0,0x17
    ac5a:	00a77333          	and	t1,a4,a0
    ac5e:	0ff4f493          	andi	s1,s1,255
    ac62:	00b776b3          	and	a3,a4,a1
    ac66:	c04a                	sw	s2,0(sp)
    ac68:	0ff87813          	andi	a6,a6,255
    ac6c:	01f55913          	srli	s2,a0,0x1f
    ac70:	c606                	sw	ra,12(sp)
    ac72:	c422                	sw	s0,8(sp)
    ac74:	81fd                	srli	a1,a1,0x1f
    ac76:	879a                	mv	a5,t1
    ac78:	8526                	mv	a0,s1
    ac7a:	864a                	mv	a2,s2
    ac7c:	00331e13          	slli	t3,t1,0x3
    ac80:	00369e93          	slli	t4,a3,0x3
    ac84:	410488b3          	sub	a7,s1,a6
    ac88:	0eb90a63          	beq	s2,a1,ad7c <__addsf3+0x134>
    ac8c:	0d105063          	blez	a7,ad4c <__addsf3+0x104>
    ac90:	14080463          	beqz	a6,add8 <__addsf3+0x190>
    ac94:	0ff00793          	li	a5,255
    ac98:	14f48b63          	beq	s1,a5,adee <__addsf3+0x1a6>
    ac9c:	040007b7          	lui	a5,0x4000
    aca0:	00feeeb3          	or	t4,t4,a5
    aca4:	47ed                	li	a5,27
    aca6:	2917c163          	blt	a5,a7,af28 <__addsf3+0x2e0>
    acaa:	02000793          	li	a5,32
    acae:	411787b3          	sub	a5,a5,a7
    acb2:	00fe97b3          	sll	a5,t4,a5
    acb6:	011ed8b3          	srl	a7,t4,a7
    acba:	00f037b3          	snez	a5,a5
    acbe:	00f8e7b3          	or	a5,a7,a5
    acc2:	40fe07b3          	sub	a5,t3,a5
    acc6:	00579713          	slli	a4,a5,0x5
    acca:	18075e63          	bgez	a4,ae66 <__addsf3+0x21e>
    acce:	04000437          	lui	s0,0x4000
    acd2:	147d                	addi	s0,s0,-1
    acd4:	8c7d                	and	s0,s0,a5
    acd6:	8522                	mv	a0,s0
    acd8:	203000ef          	jal	ra,b6da <__clzsi2>
    acdc:	156d                	addi	a0,a0,-5
    acde:	00a417b3          	sll	a5,s0,a0
    ace2:	1a954863          	blt	a0,s1,ae92 <__addsf3+0x24a>
    ace6:	8d05                	sub	a0,a0,s1
    ace8:	00150413          	addi	s0,a0,1
    acec:	02000713          	li	a4,32
    acf0:	8f01                	sub	a4,a4,s0
    acf2:	00e79733          	sll	a4,a5,a4
    acf6:	00e03733          	snez	a4,a4
    acfa:	0087d7b3          	srl	a5,a5,s0
    acfe:	8fd9                	or	a5,a5,a4
    ad00:	4481                	li	s1,0
    ad02:	0077f713          	andi	a4,a5,7
    ad06:	c719                	beqz	a4,ad14 <__addsf3+0xcc>
    ad08:	00f7f713          	andi	a4,a5,15
    ad0c:	4691                	li	a3,4
    ad0e:	00d70363          	beq	a4,a3,ad14 <__addsf3+0xcc>
    ad12:	0791                	addi	a5,a5,4
    ad14:	00579713          	slli	a4,a5,0x5
    ad18:	14075b63          	bgez	a4,ae6e <__addsf3+0x226>
    ad1c:	0485                	addi	s1,s1,1
    ad1e:	0ff00713          	li	a4,255
    ad22:	864a                	mv	a2,s2
    ad24:	16e48363          	beq	s1,a4,ae8a <__addsf3+0x242>
    ad28:	079a                	slli	a5,a5,0x6
    ad2a:	83a5                	srli	a5,a5,0x9
    ad2c:	0ff4f513          	andi	a0,s1,255
    ad30:	40b2                	lw	ra,12(sp)
    ad32:	4422                	lw	s0,8(sp)
    ad34:	07a6                	slli	a5,a5,0x9
    ad36:	01751493          	slli	s1,a0,0x17
    ad3a:	0097d513          	srli	a0,a5,0x9
    ad3e:	8d45                	or	a0,a0,s1
    ad40:	067e                	slli	a2,a2,0x1f
    ad42:	4492                	lw	s1,4(sp)
    ad44:	4902                	lw	s2,0(sp)
    ad46:	8d51                	or	a0,a0,a2
    ad48:	0141                	addi	sp,sp,16
    ad4a:	8082                	ret
    ad4c:	0a089963          	bnez	a7,adfe <__addsf3+0x1b6>
    ad50:	00148713          	addi	a4,s1,1
    ad54:	0fe77713          	andi	a4,a4,254
    ad58:	14071763          	bnez	a4,aea6 <__addsf3+0x25e>
    ad5c:	22049063          	bnez	s1,af7c <__addsf3+0x334>
    ad60:	1e0e0d63          	beqz	t3,af5a <__addsf3+0x312>
    ad64:	fc0e86e3          	beqz	t4,ad30 <__addsf3+0xe8>
    ad68:	41de07b3          	sub	a5,t3,t4
    ad6c:	00579713          	slli	a4,a5,0x5
    ad70:	22075063          	bgez	a4,af90 <__addsf3+0x348>
    ad74:	41ce87b3          	sub	a5,t4,t3
    ad78:	892e                	mv	s2,a1
    ad7a:	b761                	j	ad02 <__addsf3+0xba>
    ad7c:	0b105c63          	blez	a7,ae34 <__addsf3+0x1ec>
    ad80:	08080e63          	beqz	a6,ae1c <__addsf3+0x1d4>
    ad84:	0ff00793          	li	a5,255
    ad88:	06f48363          	beq	s1,a5,adee <__addsf3+0x1a6>
    ad8c:	040007b7          	lui	a5,0x4000
    ad90:	00feeeb3          	or	t4,t4,a5
    ad94:	47ed                	li	a5,27
    ad96:	1f17c963          	blt	a5,a7,af88 <__addsf3+0x340>
    ad9a:	02000793          	li	a5,32
    ad9e:	411787b3          	sub	a5,a5,a7
    ada2:	00fe97b3          	sll	a5,t4,a5
    ada6:	011ed8b3          	srl	a7,t4,a7
    adaa:	00f037b3          	snez	a5,a5
    adae:	00f8e7b3          	or	a5,a7,a5
    adb2:	97f2                	add	a5,a5,t3
    adb4:	00579713          	slli	a4,a5,0x5
    adb8:	0a075763          	bgez	a4,ae66 <__addsf3+0x21e>
    adbc:	0485                	addi	s1,s1,1
    adbe:	0ff00713          	li	a4,255
    adc2:	0ce48463          	beq	s1,a4,ae8a <__addsf3+0x242>
    adc6:	7e0006b7          	lui	a3,0x7e000
    adca:	0017d713          	srli	a4,a5,0x1
    adce:	16fd                	addi	a3,a3,-1
    add0:	8b85                	andi	a5,a5,1
    add2:	8f75                	and	a4,a4,a3
    add4:	8fd9                	or	a5,a5,a4
    add6:	b735                	j	ad02 <__addsf3+0xba>
    add8:	080e8d63          	beqz	t4,ae72 <__addsf3+0x22a>
    addc:	18fd                	addi	a7,a7,-1
    adde:	41de07b3          	sub	a5,t3,t4
    ade2:	ee0882e3          	beqz	a7,acc6 <__addsf3+0x7e>
    ade6:	0ff00793          	li	a5,255
    adea:	eaf49de3          	bne	s1,a5,aca4 <__addsf3+0x5c>
    adee:	08030d63          	beqz	t1,ae88 <__addsf3+0x240>
    adf2:	4601                	li	a2,0
    adf4:	0ff00513          	li	a0,255
    adf8:	004007b7          	lui	a5,0x400
    adfc:	bf15                	j	ad30 <__addsf3+0xe8>
    adfe:	40980733          	sub	a4,a6,s1
    ae02:	e8ed                	bnez	s1,aef4 <__addsf3+0x2ac>
    ae04:	140e0263          	beqz	t3,af48 <__addsf3+0x300>
    ae08:	177d                	addi	a4,a4,-1
    ae0a:	18070863          	beqz	a4,af9a <__addsf3+0x352>
    ae0e:	0ff00793          	li	a5,255
    ae12:	0ef81963          	bne	a6,a5,af04 <__addsf3+0x2bc>
    ae16:	892e                	mv	s2,a1
    ae18:	8336                	mv	t1,a3
    ae1a:	bfd1                	j	adee <__addsf3+0x1a6>
    ae1c:	040e8b63          	beqz	t4,ae72 <__addsf3+0x22a>
    ae20:	18fd                	addi	a7,a7,-1
    ae22:	01de07b3          	add	a5,t3,t4
    ae26:	f80887e3          	beqz	a7,adb4 <__addsf3+0x16c>
    ae2a:	0ff00793          	li	a5,255
    ae2e:	f6f493e3          	bne	s1,a5,ad94 <__addsf3+0x14c>
    ae32:	bf75                	j	adee <__addsf3+0x1a6>
    ae34:	08089563          	bnez	a7,aebe <__addsf3+0x276>
    ae38:	0485                	addi	s1,s1,1
    ae3a:	0fe4f713          	andi	a4,s1,254
    ae3e:	12071363          	bnez	a4,af64 <__addsf3+0x31c>
    ae42:	10051763          	bnez	a0,af50 <__addsf3+0x308>
    ae46:	140e0f63          	beqz	t3,afa4 <__addsf3+0x35c>
    ae4a:	ee0e83e3          	beqz	t4,ad30 <__addsf3+0xe8>
    ae4e:	01de07b3          	add	a5,t3,t4
    ae52:	00579713          	slli	a4,a5,0x5
    ae56:	4481                	li	s1,0
    ae58:	00075763          	bgez	a4,ae66 <__addsf3+0x21e>
    ae5c:	fc000737          	lui	a4,0xfc000
    ae60:	177d                	addi	a4,a4,-1
    ae62:	8ff9                	and	a5,a5,a4
    ae64:	4485                	li	s1,1
    ae66:	0077f713          	andi	a4,a5,7
    ae6a:	e8071fe3          	bnez	a4,ad08 <__addsf3+0xc0>
    ae6e:	0037d313          	srli	t1,a5,0x3
    ae72:	0ff00793          	li	a5,255
    ae76:	f6f48ce3          	beq	s1,a5,adee <__addsf3+0x1a6>
    ae7a:	00931793          	slli	a5,t1,0x9
    ae7e:	83a5                	srli	a5,a5,0x9
    ae80:	0ff4f513          	andi	a0,s1,255
    ae84:	864a                	mv	a2,s2
    ae86:	b56d                	j	ad30 <__addsf3+0xe8>
    ae88:	864a                	mv	a2,s2
    ae8a:	0ff00513          	li	a0,255
    ae8e:	4781                	li	a5,0
    ae90:	b545                	j	ad30 <__addsf3+0xe8>
    ae92:	fc000737          	lui	a4,0xfc000
    ae96:	177d                	addi	a4,a4,-1
    ae98:	8ff9                	and	a5,a5,a4
    ae9a:	0077f713          	andi	a4,a5,7
    ae9e:	8c89                	sub	s1,s1,a0
    aea0:	e60714e3          	bnez	a4,ad08 <__addsf3+0xc0>
    aea4:	b7e9                	j	ae6e <__addsf3+0x226>
    aea6:	41de0433          	sub	s0,t3,t4
    aeaa:	00541793          	slli	a5,s0,0x5
    aeae:	0c07c363          	bltz	a5,af74 <__addsf3+0x32c>
    aeb2:	e20412e3          	bnez	s0,acd6 <__addsf3+0x8e>
    aeb6:	4601                	li	a2,0
    aeb8:	4501                	li	a0,0
    aeba:	4781                	li	a5,0
    aebc:	bd95                	j	ad30 <__addsf3+0xe8>
    aebe:	40980733          	sub	a4,a6,s1
    aec2:	c4ad                	beqz	s1,af2c <__addsf3+0x2e4>
    aec4:	0ff00793          	li	a5,255
    aec8:	f4f808e3          	beq	a6,a5,ae18 <__addsf3+0x1d0>
    aecc:	040007b7          	lui	a5,0x4000
    aed0:	00fe6e33          	or	t3,t3,a5
    aed4:	47ed                	li	a5,27
    aed6:	0ce7cc63          	blt	a5,a4,afae <__addsf3+0x366>
    aeda:	02000793          	li	a5,32
    aede:	8f99                	sub	a5,a5,a4
    aee0:	00fe17b3          	sll	a5,t3,a5
    aee4:	00ee5733          	srl	a4,t3,a4
    aee8:	00f037b3          	snez	a5,a5
    aeec:	8fd9                	or	a5,a5,a4
    aeee:	97f6                	add	a5,a5,t4
    aef0:	84c2                	mv	s1,a6
    aef2:	b5c9                	j	adb4 <__addsf3+0x16c>
    aef4:	0ff00793          	li	a5,255
    aef8:	f0f80fe3          	beq	a6,a5,ae16 <__addsf3+0x1ce>
    aefc:	040007b7          	lui	a5,0x4000
    af00:	00fe6e33          	or	t3,t3,a5
    af04:	47ed                	li	a5,27
    af06:	08e7c363          	blt	a5,a4,af8c <__addsf3+0x344>
    af0a:	02000693          	li	a3,32
    af0e:	8e99                	sub	a3,a3,a4
    af10:	00de16b3          	sll	a3,t3,a3
    af14:	00ee57b3          	srl	a5,t3,a4
    af18:	00d03733          	snez	a4,a3
    af1c:	8fd9                	or	a5,a5,a4
    af1e:	40fe87b3          	sub	a5,t4,a5
    af22:	84c2                	mv	s1,a6
    af24:	892e                	mv	s2,a1
    af26:	b345                	j	acc6 <__addsf3+0x7e>
    af28:	4785                	li	a5,1
    af2a:	bb61                	j	acc2 <__addsf3+0x7a>
    af2c:	060e0e63          	beqz	t3,afa8 <__addsf3+0x360>
    af30:	177d                	addi	a4,a4,-1
    af32:	01de07b3          	add	a5,t3,t4
    af36:	84c2                	mv	s1,a6
    af38:	e6070ee3          	beqz	a4,adb4 <__addsf3+0x16c>
    af3c:	0ff00793          	li	a5,255
    af40:	f8f81ae3          	bne	a6,a5,aed4 <__addsf3+0x28c>
    af44:	8336                	mv	t1,a3
    af46:	b565                	j	adee <__addsf3+0x1a6>
    af48:	8336                	mv	t1,a3
    af4a:	84c2                	mv	s1,a6
    af4c:	892e                	mv	s2,a1
    af4e:	b715                	j	ae72 <__addsf3+0x22a>
    af50:	ec0e04e3          	beqz	t3,ae18 <__addsf3+0x1d0>
    af54:	e80e8de3          	beqz	t4,adee <__addsf3+0x1a6>
    af58:	bd69                	j	adf2 <__addsf3+0x1aa>
    af5a:	020e8d63          	beqz	t4,af94 <__addsf3+0x34c>
    af5e:	862e                	mv	a2,a1
    af60:	87b6                	mv	a5,a3
    af62:	b3f9                	j	ad30 <__addsf3+0xe8>
    af64:	0ff00793          	li	a5,255
    af68:	f2f481e3          	beq	s1,a5,ae8a <__addsf3+0x242>
    af6c:	01de07b3          	add	a5,t3,t4
    af70:	8385                	srli	a5,a5,0x1
    af72:	bdd5                	j	ae66 <__addsf3+0x21e>
    af74:	41ce8433          	sub	s0,t4,t3
    af78:	892e                	mv	s2,a1
    af7a:	bbb1                	j	acd6 <__addsf3+0x8e>
    af7c:	fc0e1ce3          	bnez	t3,af54 <__addsf3+0x30c>
    af80:	e60e89e3          	beqz	t4,adf2 <__addsf3+0x1aa>
    af84:	892e                	mv	s2,a1
    af86:	bd49                	j	ae18 <__addsf3+0x1d0>
    af88:	4785                	li	a5,1
    af8a:	b525                	j	adb2 <__addsf3+0x16a>
    af8c:	4785                	li	a5,1
    af8e:	bf41                	j	af1e <__addsf3+0x2d6>
    af90:	ec079be3          	bnez	a5,ae66 <__addsf3+0x21e>
    af94:	4601                	li	a2,0
    af96:	4781                	li	a5,0
    af98:	bb61                	j	ad30 <__addsf3+0xe8>
    af9a:	41ce87b3          	sub	a5,t4,t3
    af9e:	84c2                	mv	s1,a6
    afa0:	892e                	mv	s2,a1
    afa2:	b315                	j	acc6 <__addsf3+0x7e>
    afa4:	87b6                	mv	a5,a3
    afa6:	b369                	j	ad30 <__addsf3+0xe8>
    afa8:	8336                	mv	t1,a3
    afaa:	84c2                	mv	s1,a6
    afac:	b5d9                	j	ae72 <__addsf3+0x22a>
    afae:	4785                	li	a5,1
    afb0:	bf3d                	j	aeee <__addsf3+0x2a6>

0000afb2 <__divsf3>:
    afb2:	7139                	addi	sp,sp,-64
    afb4:	01755793          	srli	a5,a0,0x17
    afb8:	d84a                	sw	s2,48(sp)
    afba:	d256                	sw	s5,36(sp)
    afbc:	ce5e                	sw	s7,28(sp)
    afbe:	00951a93          	slli	s5,a0,0x9
    afc2:	01f55913          	srli	s2,a0,0x1f
    afc6:	de06                	sw	ra,60(sp)
    afc8:	dc22                	sw	s0,56(sp)
    afca:	da26                	sw	s1,52(sp)
    afcc:	d64e                	sw	s3,44(sp)
    afce:	d452                	sw	s4,40(sp)
    afd0:	d05a                	sw	s6,32(sp)
    afd2:	0ff7f793          	andi	a5,a5,255
    afd6:	009ada93          	srli	s5,s5,0x9
    afda:	8bca                	mv	s7,s2
    afdc:	12078263          	beqz	a5,b100 <__divsf3+0x14e>
    afe0:	0ff00713          	li	a4,255
    afe4:	12e78463          	beq	a5,a4,b10c <__divsf3+0x15a>
    afe8:	0a8e                	slli	s5,s5,0x3
    afea:	04000737          	lui	a4,0x4000
    afee:	00eaeab3          	or	s5,s5,a4
    aff2:	f8178a13          	addi	s4,a5,-127 # 3ffff81 <_data_lma+0x3ff27e9>
    aff6:	4401                	li	s0,0
    aff8:	4b01                	li	s6,0
    affa:	0175d793          	srli	a5,a1,0x17
    affe:	00959493          	slli	s1,a1,0x9
    b002:	0ff7f793          	andi	a5,a5,255
    b006:	80a5                	srli	s1,s1,0x9
    b008:	01f5d993          	srli	s3,a1,0x1f
    b00c:	c7fd                	beqz	a5,b0fa <__divsf3+0x148>
    b00e:	0ff00713          	li	a4,255
    b012:	02e78763          	beq	a5,a4,b040 <__divsf3+0x8e>
    b016:	048e                	slli	s1,s1,0x3
    b018:	f8178793          	addi	a5,a5,-127
    b01c:	04000737          	lui	a4,0x4000
    b020:	8cd9                	or	s1,s1,a4
    b022:	40fa0a33          	sub	s4,s4,a5
    b026:	4681                	li	a3,0
    b028:	8c55                	or	s0,s0,a3
    b02a:	00002717          	auipc	a4,0x2
    b02e:	51270713          	addi	a4,a4,1298 # d53c <abortCodes.6774+0x68>
    b032:	040a                	slli	s0,s0,0x2
    b034:	943a                	add	s0,s0,a4
    b036:	401c                	lw	a5,0(s0)
    b038:	01394933          	xor	s2,s2,s3
    b03c:	97ba                	add	a5,a5,a4
    b03e:	8782                	jr	a5
    b040:	f01a0a13          	addi	s4,s4,-255
    b044:	e8f9                	bnez	s1,b11a <__divsf3+0x168>
    b046:	4689                	li	a3,2
    b048:	8c55                	or	s0,s0,a3
    b04a:	00002717          	auipc	a4,0x2
    b04e:	53270713          	addi	a4,a4,1330 # d57c <abortCodes.6774+0xa8>
    b052:	040a                	slli	s0,s0,0x2
    b054:	943a                	add	s0,s0,a4
    b056:	401c                	lw	a5,0(s0)
    b058:	01394933          	xor	s2,s2,s3
    b05c:	97ba                	add	a5,a5,a4
    b05e:	8782                	jr	a5
    b060:	4901                	li	s2,0
    b062:	0ff00713          	li	a4,255
    b066:	004007b7          	lui	a5,0x400
    b06a:	00979513          	slli	a0,a5,0x9
    b06e:	50f2                	lw	ra,60(sp)
    b070:	5462                	lw	s0,56(sp)
    b072:	01771793          	slli	a5,a4,0x17
    b076:	8125                	srli	a0,a0,0x9
    b078:	097e                	slli	s2,s2,0x1f
    b07a:	8d5d                	or	a0,a0,a5
    b07c:	01256533          	or	a0,a0,s2
    b080:	54d2                	lw	s1,52(sp)
    b082:	5942                	lw	s2,48(sp)
    b084:	59b2                	lw	s3,44(sp)
    b086:	5a22                	lw	s4,40(sp)
    b088:	5a92                	lw	s5,36(sp)
    b08a:	5b02                	lw	s6,32(sp)
    b08c:	4bf2                	lw	s7,28(sp)
    b08e:	6121                	addi	sp,sp,64
    b090:	8082                	ret
    b092:	0ff00713          	li	a4,255
    b096:	4781                	li	a5,0
    b098:	bfc9                	j	b06a <__divsf3+0xb8>
    b09a:	8aa6                	mv	s5,s1
    b09c:	8bce                	mv	s7,s3
    b09e:	8b36                	mv	s6,a3
    b0a0:	4789                	li	a5,2
    b0a2:	1afb0963          	beq	s6,a5,b254 <__divsf3+0x2a2>
    b0a6:	478d                	li	a5,3
    b0a8:	fafb0ce3          	beq	s6,a5,b060 <__divsf3+0xae>
    b0ac:	4785                	li	a5,1
    b0ae:	0afb0863          	beq	s6,a5,b15e <__divsf3+0x1ac>
    b0b2:	07fa0713          	addi	a4,s4,127
    b0b6:	001bf913          	andi	s2,s7,1
    b0ba:	12e05563          	blez	a4,b1e4 <__divsf3+0x232>
    b0be:	007af793          	andi	a5,s5,7
    b0c2:	c799                	beqz	a5,b0d0 <__divsf3+0x11e>
    b0c4:	00faf793          	andi	a5,s5,15
    b0c8:	4691                	li	a3,4
    b0ca:	00d78363          	beq	a5,a3,b0d0 <__divsf3+0x11e>
    b0ce:	0a91                	addi	s5,s5,4
    b0d0:	004a9793          	slli	a5,s5,0x4
    b0d4:	0007d963          	bgez	a5,b0e6 <__divsf3+0x134>
    b0d8:	f80007b7          	lui	a5,0xf8000
    b0dc:	17fd                	addi	a5,a5,-1
    b0de:	00fafab3          	and	s5,s5,a5
    b0e2:	080a0713          	addi	a4,s4,128
    b0e6:	0fe00793          	li	a5,254
    b0ea:	fae7c4e3          	blt	a5,a4,b092 <__divsf3+0xe0>
    b0ee:	006a9793          	slli	a5,s5,0x6
    b0f2:	83a5                	srli	a5,a5,0x9
    b0f4:	0ff77713          	andi	a4,a4,255
    b0f8:	bf8d                	j	b06a <__divsf3+0xb8>
    b0fa:	e4b1                	bnez	s1,b146 <__divsf3+0x194>
    b0fc:	4685                	li	a3,1
    b0fe:	b7a9                	j	b048 <__divsf3+0x96>
    b100:	020a9463          	bnez	s5,b128 <__divsf3+0x176>
    b104:	4411                	li	s0,4
    b106:	4a01                	li	s4,0
    b108:	4b05                	li	s6,1
    b10a:	bdc5                	j	affa <__divsf3+0x48>
    b10c:	000a9963          	bnez	s5,b11e <__divsf3+0x16c>
    b110:	4421                	li	s0,8
    b112:	0ff00a13          	li	s4,255
    b116:	4b09                	li	s6,2
    b118:	b5cd                	j	affa <__divsf3+0x48>
    b11a:	468d                	li	a3,3
    b11c:	b731                	j	b028 <__divsf3+0x76>
    b11e:	4431                	li	s0,12
    b120:	0ff00a13          	li	s4,255
    b124:	4b0d                	li	s6,3
    b126:	bdd1                	j	affa <__divsf3+0x48>
    b128:	8556                	mv	a0,s5
    b12a:	c62e                	sw	a1,12(sp)
    b12c:	237d                	jal	b6da <__clzsi2>
    b12e:	ffb50793          	addi	a5,a0,-5
    b132:	00fa9ab3          	sll	s5,s5,a5
    b136:	f8a00793          	li	a5,-118
    b13a:	40a78a33          	sub	s4,a5,a0
    b13e:	4401                	li	s0,0
    b140:	4b01                	li	s6,0
    b142:	45b2                	lw	a1,12(sp)
    b144:	bd5d                	j	affa <__divsf3+0x48>
    b146:	8526                	mv	a0,s1
    b148:	2b49                	jal	b6da <__clzsi2>
    b14a:	ffb50713          	addi	a4,a0,-5
    b14e:	00aa07b3          	add	a5,s4,a0
    b152:	00e494b3          	sll	s1,s1,a4
    b156:	07678a13          	addi	s4,a5,118 # f8000076 <__freertos_irq_stack_top+0xd7ffb076>
    b15a:	4681                	li	a3,0
    b15c:	b5f1                	j	b028 <__divsf3+0x76>
    b15e:	001bf913          	andi	s2,s7,1
    b162:	4701                	li	a4,0
    b164:	4781                	li	a5,0
    b166:	b711                	j	b06a <__divsf3+0xb8>
    b168:	6641                	lui	a2,0x10
    b16a:	00549513          	slli	a0,s1,0x5
    b16e:	167d                	addi	a2,a2,-1
    b170:	01055793          	srli	a5,a0,0x10
    b174:	8e69                	and	a2,a2,a0
    b176:	0a9afa63          	bgeu	s5,s1,b22a <__divsf3+0x278>
    b17a:	02fad5b3          	divu	a1,s5,a5
    b17e:	1a7d                	addi	s4,s4,-1
    b180:	86d6                	mv	a3,s5
    b182:	4701                	li	a4,0
    b184:	02c58833          	mul	a6,a1,a2
    b188:	02f6f6b3          	remu	a3,a3,a5
    b18c:	06c2                	slli	a3,a3,0x10
    b18e:	8f55                	or	a4,a4,a3
    b190:	01077b63          	bgeu	a4,a6,b1a6 <__divsf3+0x1f4>
    b194:	972a                	add	a4,a4,a0
    b196:	fff58693          	addi	a3,a1,-1
    b19a:	0aa76863          	bltu	a4,a0,b24a <__divsf3+0x298>
    b19e:	0b077663          	bgeu	a4,a6,b24a <__divsf3+0x298>
    b1a2:	15f9                	addi	a1,a1,-2
    b1a4:	972a                	add	a4,a4,a0
    b1a6:	41070733          	sub	a4,a4,a6
    b1aa:	02f756b3          	divu	a3,a4,a5
    b1ae:	02f77733          	remu	a4,a4,a5
    b1b2:	02c68ab3          	mul	s5,a3,a2
    b1b6:	01071793          	slli	a5,a4,0x10
    b1ba:	0157fb63          	bgeu	a5,s5,b1d0 <__divsf3+0x21e>
    b1be:	97aa                	add	a5,a5,a0
    b1c0:	fff68713          	addi	a4,a3,-1 # 7dffffff <__freertos_irq_stack_top+0x5dffafff>
    b1c4:	08a7e163          	bltu	a5,a0,b246 <__divsf3+0x294>
    b1c8:	0757ff63          	bgeu	a5,s5,b246 <__divsf3+0x294>
    b1cc:	16f9                	addi	a3,a3,-2
    b1ce:	97aa                	add	a5,a5,a0
    b1d0:	05c2                	slli	a1,a1,0x10
    b1d2:	41578ab3          	sub	s5,a5,s5
    b1d6:	8dd5                	or	a1,a1,a3
    b1d8:	01503ab3          	snez	s5,s5
    b1dc:	0155eab3          	or	s5,a1,s5
    b1e0:	8bca                	mv	s7,s2
    b1e2:	bdc1                	j	b0b2 <__divsf3+0x100>
    b1e4:	4685                	li	a3,1
    b1e6:	8e99                	sub	a3,a3,a4
    b1e8:	c711                	beqz	a4,b1f4 <__divsf3+0x242>
    b1ea:	466d                	li	a2,27
    b1ec:	4701                	li	a4,0
    b1ee:	4781                	li	a5,0
    b1f0:	e6d64de3          	blt	a2,a3,b06a <__divsf3+0xb8>
    b1f4:	09ea0a13          	addi	s4,s4,158
    b1f8:	014a9a33          	sll	s4,s5,s4
    b1fc:	00dad7b3          	srl	a5,s5,a3
    b200:	01403ab3          	snez	s5,s4
    b204:	0157e7b3          	or	a5,a5,s5
    b208:	0077f713          	andi	a4,a5,7
    b20c:	c719                	beqz	a4,b21a <__divsf3+0x268>
    b20e:	00f7f713          	andi	a4,a5,15
    b212:	4691                	li	a3,4
    b214:	00d70363          	beq	a4,a3,b21a <__divsf3+0x268>
    b218:	0791                	addi	a5,a5,4
    b21a:	00579713          	slli	a4,a5,0x5
    b21e:	02074863          	bltz	a4,b24e <__divsf3+0x29c>
    b222:	079a                	slli	a5,a5,0x6
    b224:	83a5                	srli	a5,a5,0x9
    b226:	4701                	li	a4,0
    b228:	b589                	j	b06a <__divsf3+0xb8>
    b22a:	001ad693          	srli	a3,s5,0x1
    b22e:	02f6d5b3          	divu	a1,a3,a5
    b232:	01fa9713          	slli	a4,s5,0x1f
    b236:	8341                	srli	a4,a4,0x10
    b238:	02c58833          	mul	a6,a1,a2
    b23c:	b7b1                	j	b188 <__divsf3+0x1d6>
    b23e:	8bce                	mv	s7,s3
    b240:	8b36                	mv	s6,a3
    b242:	4a81                	li	s5,0
    b244:	bdb1                	j	b0a0 <__divsf3+0xee>
    b246:	86ba                	mv	a3,a4
    b248:	b761                	j	b1d0 <__divsf3+0x21e>
    b24a:	85b6                	mv	a1,a3
    b24c:	bfa9                	j	b1a6 <__divsf3+0x1f4>
    b24e:	4705                	li	a4,1
    b250:	4781                	li	a5,0
    b252:	bd21                	j	b06a <__divsf3+0xb8>
    b254:	001bf913          	andi	s2,s7,1
    b258:	0ff00713          	li	a4,255
    b25c:	4781                	li	a5,0
    b25e:	b531                	j	b06a <__divsf3+0xb8>

0000b260 <__mulsf3>:
    b260:	7179                	addi	sp,sp,-48
    b262:	d422                	sw	s0,40(sp)
    b264:	01755413          	srli	s0,a0,0x17
    b268:	ce4e                	sw	s3,28(sp)
    b26a:	cc52                	sw	s4,24(sp)
    b26c:	00951993          	slli	s3,a0,0x9
    b270:	d606                	sw	ra,44(sp)
    b272:	d226                	sw	s1,36(sp)
    b274:	d04a                	sw	s2,32(sp)
    b276:	ca56                	sw	s5,20(sp)
    b278:	c85a                	sw	s6,16(sp)
    b27a:	0ff47413          	andi	s0,s0,255
    b27e:	0099d993          	srli	s3,s3,0x9
    b282:	01f55a13          	srli	s4,a0,0x1f
    b286:	c469                	beqz	s0,b350 <__mulsf3+0xf0>
    b288:	0ff00793          	li	a5,255
    b28c:	0ef40863          	beq	s0,a5,b37c <__mulsf3+0x11c>
    b290:	00399793          	slli	a5,s3,0x3
    b294:	04000737          	lui	a4,0x4000
    b298:	00e7e9b3          	or	s3,a5,a4
    b29c:	f8140413          	addi	s0,s0,-127 # 3ffff81 <_data_lma+0x3ff27e9>
    b2a0:	4481                	li	s1,0
    b2a2:	4b01                	li	s6,0
    b2a4:	0175d713          	srli	a4,a1,0x17
    b2a8:	00959a93          	slli	s5,a1,0x9
    b2ac:	0ff77713          	andi	a4,a4,255
    b2b0:	009ada93          	srli	s5,s5,0x9
    b2b4:	01f5d913          	srli	s2,a1,0x1f
    b2b8:	cf45                	beqz	a4,b370 <__mulsf3+0x110>
    b2ba:	0ff00793          	li	a5,255
    b2be:	02f70c63          	beq	a4,a5,b2f6 <__mulsf3+0x96>
    b2c2:	0a8e                	slli	s5,s5,0x3
    b2c4:	f8170713          	addi	a4,a4,-127 # 3ffff81 <_data_lma+0x3ff27e9>
    b2c8:	040007b7          	lui	a5,0x4000
    b2cc:	00faeab3          	or	s5,s5,a5
    b2d0:	943a                	add	s0,s0,a4
    b2d2:	4601                	li	a2,0
    b2d4:	012a4533          	xor	a0,s4,s2
    b2d8:	47bd                	li	a5,15
    b2da:	86aa                	mv	a3,a0
    b2dc:	00140593          	addi	a1,s0,1
    b2e0:	1097e063          	bltu	a5,s1,b3e0 <__mulsf3+0x180>
    b2e4:	00002717          	auipc	a4,0x2
    b2e8:	2d870713          	addi	a4,a4,728 # d5bc <abortCodes.6774+0xe8>
    b2ec:	048a                	slli	s1,s1,0x2
    b2ee:	94ba                	add	s1,s1,a4
    b2f0:	409c                	lw	a5,0(s1)
    b2f2:	97ba                	add	a5,a5,a4
    b2f4:	8782                	jr	a5
    b2f6:	0ff40413          	addi	s0,s0,255
    b2fa:	0c0a9663          	bnez	s5,b3c6 <__mulsf3+0x166>
    b2fe:	0024e493          	ori	s1,s1,2
    b302:	4609                	li	a2,2
    b304:	bfc1                	j	b2d4 <__mulsf3+0x74>
    b306:	4501                	li	a0,0
    b308:	0ff00713          	li	a4,255
    b30c:	004007b7          	lui	a5,0x400
    b310:	50b2                	lw	ra,44(sp)
    b312:	5422                	lw	s0,40(sp)
    b314:	07a6                	slli	a5,a5,0x9
    b316:	075e                	slli	a4,a4,0x17
    b318:	83a5                	srli	a5,a5,0x9
    b31a:	057e                	slli	a0,a0,0x1f
    b31c:	8fd9                	or	a5,a5,a4
    b31e:	5492                	lw	s1,36(sp)
    b320:	5902                	lw	s2,32(sp)
    b322:	49f2                	lw	s3,28(sp)
    b324:	4a62                	lw	s4,24(sp)
    b326:	4ad2                	lw	s5,20(sp)
    b328:	4b42                	lw	s6,16(sp)
    b32a:	8d5d                	or	a0,a0,a5
    b32c:	6145                	addi	sp,sp,48
    b32e:	8082                	ret
    b330:	86ca                	mv	a3,s2
    b332:	89d6                	mv	s3,s5
    b334:	8b32                	mv	s6,a2
    b336:	4789                	li	a5,2
    b338:	08fb0f63          	beq	s6,a5,b3d6 <__mulsf3+0x176>
    b33c:	478d                	li	a5,3
    b33e:	fcfb04e3          	beq	s6,a5,b306 <__mulsf3+0xa6>
    b342:	4785                	li	a5,1
    b344:	8536                	mv	a0,a3
    b346:	1afb1063          	bne	s6,a5,b4e6 <__mulsf3+0x286>
    b34a:	4701                	li	a4,0
    b34c:	4781                	li	a5,0
    b34e:	b7c9                	j	b310 <__mulsf3+0xb0>
    b350:	04099d63          	bnez	s3,b3aa <__mulsf3+0x14a>
    b354:	0175d713          	srli	a4,a1,0x17
    b358:	00959a93          	slli	s5,a1,0x9
    b35c:	0ff77713          	andi	a4,a4,255
    b360:	4491                	li	s1,4
    b362:	4401                	li	s0,0
    b364:	4b05                	li	s6,1
    b366:	009ada93          	srli	s5,s5,0x9
    b36a:	01f5d913          	srli	s2,a1,0x1f
    b36e:	f731                	bnez	a4,b2ba <__mulsf3+0x5a>
    b370:	000a9d63          	bnez	s5,b38a <__mulsf3+0x12a>
    b374:	0014e493          	ori	s1,s1,1
    b378:	4605                	li	a2,1
    b37a:	bfa9                	j	b2d4 <__mulsf3+0x74>
    b37c:	02099263          	bnez	s3,b3a0 <__mulsf3+0x140>
    b380:	44a1                	li	s1,8
    b382:	0ff00413          	li	s0,255
    b386:	4b09                	li	s6,2
    b388:	bf31                	j	b2a4 <__mulsf3+0x44>
    b38a:	8556                	mv	a0,s5
    b38c:	26b9                	jal	b6da <__clzsi2>
    b38e:	ffb50793          	addi	a5,a0,-5
    b392:	8c09                	sub	s0,s0,a0
    b394:	00fa9ab3          	sll	s5,s5,a5
    b398:	f8a40413          	addi	s0,s0,-118
    b39c:	4601                	li	a2,0
    b39e:	bf1d                	j	b2d4 <__mulsf3+0x74>
    b3a0:	44b1                	li	s1,12
    b3a2:	0ff00413          	li	s0,255
    b3a6:	4b0d                	li	s6,3
    b3a8:	bdf5                	j	b2a4 <__mulsf3+0x44>
    b3aa:	854e                	mv	a0,s3
    b3ac:	c62e                	sw	a1,12(sp)
    b3ae:	2635                	jal	b6da <__clzsi2>
    b3b0:	ffb50793          	addi	a5,a0,-5
    b3b4:	f8a00413          	li	s0,-118
    b3b8:	00f999b3          	sll	s3,s3,a5
    b3bc:	8c09                	sub	s0,s0,a0
    b3be:	4481                	li	s1,0
    b3c0:	4b01                	li	s6,0
    b3c2:	45b2                	lw	a1,12(sp)
    b3c4:	b5c5                	j	b2a4 <__mulsf3+0x44>
    b3c6:	0034e493          	ori	s1,s1,3
    b3ca:	460d                	li	a2,3
    b3cc:	b721                	j	b2d4 <__mulsf3+0x74>
    b3ce:	4789                	li	a5,2
    b3d0:	86d2                	mv	a3,s4
    b3d2:	f6fb15e3          	bne	s6,a5,b33c <__mulsf3+0xdc>
    b3d6:	8536                	mv	a0,a3
    b3d8:	0ff00713          	li	a4,255
    b3dc:	4781                	li	a5,0
    b3de:	bf0d                	j	b310 <__mulsf3+0xb0>
    b3e0:	6341                	lui	t1,0x10
    b3e2:	fff30693          	addi	a3,t1,-1 # ffff <_data_lma+0x2867>
    b3e6:	0109d613          	srli	a2,s3,0x10
    b3ea:	010ad893          	srli	a7,s5,0x10
    b3ee:	00d9f7b3          	and	a5,s3,a3
    b3f2:	00dafab3          	and	s5,s5,a3
    b3f6:	03578833          	mul	a6,a5,s5
    b3fa:	02f889b3          	mul	s3,a7,a5
    b3fe:	01085713          	srli	a4,a6,0x10
    b402:	03560ab3          	mul	s5,a2,s5
    b406:	99d6                	add	s3,s3,s5
    b408:	974e                	add	a4,a4,s3
    b40a:	03160633          	mul	a2,a2,a7
    b40e:	01577363          	bgeu	a4,s5,b414 <__mulsf3+0x1b4>
    b412:	961a                	add	a2,a2,t1
    b414:	67c1                	lui	a5,0x10
    b416:	17fd                	addi	a5,a5,-1
    b418:	00f776b3          	and	a3,a4,a5
    b41c:	00f87833          	and	a6,a6,a5
    b420:	06c2                	slli	a3,a3,0x10
    b422:	96c2                	add	a3,a3,a6
    b424:	00669993          	slli	s3,a3,0x6
    b428:	01075793          	srli	a5,a4,0x10
    b42c:	013039b3          	snez	s3,s3
    b430:	82e9                	srli	a3,a3,0x1a
    b432:	97b2                	add	a5,a5,a2
    b434:	079a                	slli	a5,a5,0x6
    b436:	00d9e6b3          	or	a3,s3,a3
    b43a:	00d7e9b3          	or	s3,a5,a3
    b43e:	00499793          	slli	a5,s3,0x4
    b442:	0007d963          	bgez	a5,b454 <__mulsf3+0x1f4>
    b446:	0019d713          	srli	a4,s3,0x1
    b44a:	0019f793          	andi	a5,s3,1
    b44e:	00f769b3          	or	s3,a4,a5
    b452:	842e                	mv	s0,a1
    b454:	07f40713          	addi	a4,s0,127
    b458:	04e05063          	blez	a4,b498 <__mulsf3+0x238>
    b45c:	0079f793          	andi	a5,s3,7
    b460:	c799                	beqz	a5,b46e <__mulsf3+0x20e>
    b462:	00f9f793          	andi	a5,s3,15
    b466:	4691                	li	a3,4
    b468:	00d78363          	beq	a5,a3,b46e <__mulsf3+0x20e>
    b46c:	0991                	addi	s3,s3,4
    b46e:	00499793          	slli	a5,s3,0x4
    b472:	0007d963          	bgez	a5,b484 <__mulsf3+0x224>
    b476:	f80007b7          	lui	a5,0xf8000
    b47a:	17fd                	addi	a5,a5,-1
    b47c:	00f9f9b3          	and	s3,s3,a5
    b480:	08040713          	addi	a4,s0,128
    b484:	0fe00793          	li	a5,254
    b488:	04e7cb63          	blt	a5,a4,b4de <__mulsf3+0x27e>
    b48c:	00699793          	slli	a5,s3,0x6
    b490:	83a5                	srli	a5,a5,0x9
    b492:	0ff77713          	andi	a4,a4,255
    b496:	bdad                	j	b310 <__mulsf3+0xb0>
    b498:	4785                	li	a5,1
    b49a:	40e786b3          	sub	a3,a5,a4
    b49e:	c711                	beqz	a4,b4aa <__mulsf3+0x24a>
    b4a0:	466d                	li	a2,27
    b4a2:	4701                	li	a4,0
    b4a4:	4781                	li	a5,0
    b4a6:	e6d645e3          	blt	a2,a3,b310 <__mulsf3+0xb0>
    b4aa:	09e40713          	addi	a4,s0,158
    b4ae:	00e99733          	sll	a4,s3,a4
    b4b2:	00e03733          	snez	a4,a4
    b4b6:	00d9d7b3          	srl	a5,s3,a3
    b4ba:	8fd9                	or	a5,a5,a4
    b4bc:	0077f713          	andi	a4,a5,7
    b4c0:	c719                	beqz	a4,b4ce <__mulsf3+0x26e>
    b4c2:	00f7f713          	andi	a4,a5,15
    b4c6:	4691                	li	a3,4
    b4c8:	00d70363          	beq	a4,a3,b4ce <__mulsf3+0x26e>
    b4cc:	0791                	addi	a5,a5,4
    b4ce:	00579713          	slli	a4,a5,0x5
    b4d2:	00074c63          	bltz	a4,b4ea <__mulsf3+0x28a>
    b4d6:	079a                	slli	a5,a5,0x6
    b4d8:	83a5                	srli	a5,a5,0x9
    b4da:	4701                	li	a4,0
    b4dc:	bd15                	j	b310 <__mulsf3+0xb0>
    b4de:	0ff00713          	li	a4,255
    b4e2:	4781                	li	a5,0
    b4e4:	b535                	j	b310 <__mulsf3+0xb0>
    b4e6:	842e                	mv	s0,a1
    b4e8:	b7b5                	j	b454 <__mulsf3+0x1f4>
    b4ea:	4705                	li	a4,1
    b4ec:	4781                	li	a5,0
    b4ee:	b50d                	j	b310 <__mulsf3+0xb0>

0000b4f0 <__fixunssfsi>:
    b4f0:	01755713          	srli	a4,a0,0x17
    b4f4:	00800637          	lui	a2,0x800
    b4f8:	fff60793          	addi	a5,a2,-1 # 7fffff <_data_lma+0x7f2867>
    b4fc:	0ff77713          	andi	a4,a4,255
    b500:	07e00593          	li	a1,126
    b504:	00a7f6b3          	and	a3,a5,a0
    b508:	01f55793          	srli	a5,a0,0x1f
    b50c:	4501                	li	a0,0
    b50e:	00e5f463          	bgeu	a1,a4,b516 <__fixunssfsi+0x26>
    b512:	c399                	beqz	a5,b518 <__fixunssfsi+0x28>
    b514:	8082                	ret
    b516:	8082                	ret
    b518:	09e00793          	li	a5,158
    b51c:	557d                	li	a0,-1
    b51e:	fee7ebe3          	bltu	a5,a4,b514 <__fixunssfsi+0x24>
    b522:	09500593          	li	a1,149
    b526:	00c6e7b3          	or	a5,a3,a2
    b52a:	00e5d763          	bge	a1,a4,b538 <__fixunssfsi+0x48>
    b52e:	f6a70713          	addi	a4,a4,-150
    b532:	00e79533          	sll	a0,a5,a4
    b536:	8082                	ret
    b538:	09600513          	li	a0,150
    b53c:	40e50733          	sub	a4,a0,a4
    b540:	00e7d533          	srl	a0,a5,a4
    b544:	8082                	ret

0000b546 <__floatsisf>:
    b546:	1141                	addi	sp,sp,-16
    b548:	c606                	sw	ra,12(sp)
    b54a:	c422                	sw	s0,8(sp)
    b54c:	c226                	sw	s1,4(sp)
    b54e:	cd0d                	beqz	a0,b588 <__floatsisf+0x42>
    b550:	41f55793          	srai	a5,a0,0x1f
    b554:	00a7c433          	xor	s0,a5,a0
    b558:	8c1d                	sub	s0,s0,a5
    b55a:	84aa                	mv	s1,a0
    b55c:	8522                	mv	a0,s0
    b55e:	2ab5                	jal	b6da <__clzsi2>
    b560:	09e00793          	li	a5,158
    b564:	40a78733          	sub	a4,a5,a0
    b568:	09600793          	li	a5,150
    b56c:	80fd                	srli	s1,s1,0x1f
    b56e:	02e7cc63          	blt	a5,a4,b5a6 <__floatsisf+0x60>
    b572:	46a1                	li	a3,8
    b574:	0ff77793          	andi	a5,a4,255
    b578:	00a6d563          	bge	a3,a0,b582 <__floatsisf+0x3c>
    b57c:	1561                	addi	a0,a0,-8
    b57e:	00a41433          	sll	s0,s0,a0
    b582:	0426                	slli	s0,s0,0x9
    b584:	8025                	srli	s0,s0,0x9
    b586:	a021                	j	b58e <__floatsisf+0x48>
    b588:	4481                	li	s1,0
    b58a:	4781                	li	a5,0
    b58c:	4401                	li	s0,0
    b58e:	0426                	slli	s0,s0,0x9
    b590:	00945513          	srli	a0,s0,0x9
    b594:	40b2                	lw	ra,12(sp)
    b596:	4422                	lw	s0,8(sp)
    b598:	07de                	slli	a5,a5,0x17
    b59a:	04fe                	slli	s1,s1,0x1f
    b59c:	8d5d                	or	a0,a0,a5
    b59e:	8d45                	or	a0,a0,s1
    b5a0:	4492                	lw	s1,4(sp)
    b5a2:	0141                	addi	sp,sp,16
    b5a4:	8082                	ret
    b5a6:	09900793          	li	a5,153
    b5aa:	00e7dd63          	bge	a5,a4,b5c4 <__floatsisf+0x7e>
    b5ae:	01b50793          	addi	a5,a0,27
    b5b2:	4695                	li	a3,5
    b5b4:	00f417b3          	sll	a5,s0,a5
    b5b8:	8e89                	sub	a3,a3,a0
    b5ba:	00d45433          	srl	s0,s0,a3
    b5be:	00f037b3          	snez	a5,a5
    b5c2:	8c5d                	or	s0,s0,a5
    b5c4:	4795                	li	a5,5
    b5c6:	00a7d663          	bge	a5,a0,b5d2 <__floatsisf+0x8c>
    b5ca:	ffb50793          	addi	a5,a0,-5
    b5ce:	00f41433          	sll	s0,s0,a5
    b5d2:	fc0006b7          	lui	a3,0xfc000
    b5d6:	16fd                	addi	a3,a3,-1
    b5d8:	00747793          	andi	a5,s0,7
    b5dc:	00d47633          	and	a2,s0,a3
    b5e0:	c385                	beqz	a5,b600 <__floatsisf+0xba>
    b5e2:	00f47793          	andi	a5,s0,15
    b5e6:	4591                	li	a1,4
    b5e8:	00b78c63          	beq	a5,a1,b600 <__floatsisf+0xba>
    b5ec:	0611                	addi	a2,a2,4
    b5ee:	00561793          	slli	a5,a2,0x5
    b5f2:	0007d763          	bgez	a5,b600 <__floatsisf+0xba>
    b5f6:	09f00793          	li	a5,159
    b5fa:	8e75                	and	a2,a2,a3
    b5fc:	40a78733          	sub	a4,a5,a0
    b600:	00661413          	slli	s0,a2,0x6
    b604:	8025                	srli	s0,s0,0x9
    b606:	0ff77793          	andi	a5,a4,255
    b60a:	b751                	j	b58e <__floatsisf+0x48>

0000b60c <__floatunsisf>:
    b60c:	1141                	addi	sp,sp,-16
    b60e:	c606                	sw	ra,12(sp)
    b610:	c422                	sw	s0,8(sp)
    b612:	cd15                	beqz	a0,b64e <__floatunsisf+0x42>
    b614:	842a                	mv	s0,a0
    b616:	20d1                	jal	b6da <__clzsi2>
    b618:	09e00793          	li	a5,158
    b61c:	40a78733          	sub	a4,a5,a0
    b620:	09600793          	li	a5,150
    b624:	04e7c063          	blt	a5,a4,b664 <__floatunsisf+0x58>
    b628:	46a1                	li	a3,8
    b62a:	0ff77793          	andi	a5,a4,255
    b62e:	00a6d563          	bge	a3,a0,b638 <__floatunsisf+0x2c>
    b632:	1561                	addi	a0,a0,-8
    b634:	00a41433          	sll	s0,s0,a0
    b638:	0426                	slli	s0,s0,0x9
    b63a:	8025                	srli	s0,s0,0x9
    b63c:	0426                	slli	s0,s0,0x9
    b63e:	00945513          	srli	a0,s0,0x9
    b642:	40b2                	lw	ra,12(sp)
    b644:	4422                	lw	s0,8(sp)
    b646:	07de                	slli	a5,a5,0x17
    b648:	8d5d                	or	a0,a0,a5
    b64a:	0141                	addi	sp,sp,16
    b64c:	8082                	ret
    b64e:	4401                	li	s0,0
    b650:	0426                	slli	s0,s0,0x9
    b652:	00945513          	srli	a0,s0,0x9
    b656:	40b2                	lw	ra,12(sp)
    b658:	4422                	lw	s0,8(sp)
    b65a:	4781                	li	a5,0
    b65c:	07de                	slli	a5,a5,0x17
    b65e:	8d5d                	or	a0,a0,a5
    b660:	0141                	addi	sp,sp,16
    b662:	8082                	ret
    b664:	09900793          	li	a5,153
    b668:	00e7dd63          	bge	a5,a4,b682 <__floatunsisf+0x76>
    b66c:	01b50793          	addi	a5,a0,27
    b670:	4695                	li	a3,5
    b672:	00f417b3          	sll	a5,s0,a5
    b676:	8e89                	sub	a3,a3,a0
    b678:	00f037b3          	snez	a5,a5
    b67c:	00d45433          	srl	s0,s0,a3
    b680:	8c5d                	or	s0,s0,a5
    b682:	4795                	li	a5,5
    b684:	00a7d663          	bge	a5,a0,b690 <__floatunsisf+0x84>
    b688:	ffb50793          	addi	a5,a0,-5
    b68c:	00f41433          	sll	s0,s0,a5
    b690:	fc0006b7          	lui	a3,0xfc000
    b694:	16fd                	addi	a3,a3,-1
    b696:	00747793          	andi	a5,s0,7
    b69a:	00d47633          	and	a2,s0,a3
    b69e:	c385                	beqz	a5,b6be <__floatunsisf+0xb2>
    b6a0:	00f47793          	andi	a5,s0,15
    b6a4:	4591                	li	a1,4
    b6a6:	00b78c63          	beq	a5,a1,b6be <__floatunsisf+0xb2>
    b6aa:	0611                	addi	a2,a2,4
    b6ac:	00561793          	slli	a5,a2,0x5
    b6b0:	0007d763          	bgez	a5,b6be <__floatunsisf+0xb2>
    b6b4:	09f00793          	li	a5,159
    b6b8:	8e75                	and	a2,a2,a3
    b6ba:	40a78733          	sub	a4,a5,a0
    b6be:	00661413          	slli	s0,a2,0x6
    b6c2:	8025                	srli	s0,s0,0x9
    b6c4:	0426                	slli	s0,s0,0x9
    b6c6:	00945513          	srli	a0,s0,0x9
    b6ca:	40b2                	lw	ra,12(sp)
    b6cc:	4422                	lw	s0,8(sp)
    b6ce:	0ff77793          	andi	a5,a4,255
    b6d2:	07de                	slli	a5,a5,0x17
    b6d4:	8d5d                	or	a0,a0,a5
    b6d6:	0141                	addi	sp,sp,16
    b6d8:	8082                	ret

0000b6da <__clzsi2>:
    b6da:	67c1                	lui	a5,0x10
    b6dc:	02f57c63          	bgeu	a0,a5,b714 <__clzsi2+0x3a>
    b6e0:	0ff00793          	li	a5,255
    b6e4:	02000713          	li	a4,32
    b6e8:	00a7eb63          	bltu	a5,a0,b6fe <__clzsi2+0x24>
    b6ec:	00002797          	auipc	a5,0x2
    b6f0:	f1078793          	addi	a5,a5,-240 # d5fc <__clz_tab>
    b6f4:	97aa                	add	a5,a5,a0
    b6f6:	2388                	lbu	a0,0(a5)
    b6f8:	40a70533          	sub	a0,a4,a0
    b6fc:	8082                	ret
    b6fe:	8121                	srli	a0,a0,0x8
    b700:	00002797          	auipc	a5,0x2
    b704:	efc78793          	addi	a5,a5,-260 # d5fc <__clz_tab>
    b708:	97aa                	add	a5,a5,a0
    b70a:	2388                	lbu	a0,0(a5)
    b70c:	4761                	li	a4,24
    b70e:	40a70533          	sub	a0,a4,a0
    b712:	8082                	ret
    b714:	010007b7          	lui	a5,0x1000
    b718:	00f56d63          	bltu	a0,a5,b732 <__clzsi2+0x58>
    b71c:	8161                	srli	a0,a0,0x18
    b71e:	00002797          	auipc	a5,0x2
    b722:	ede78793          	addi	a5,a5,-290 # d5fc <__clz_tab>
    b726:	97aa                	add	a5,a5,a0
    b728:	2388                	lbu	a0,0(a5)
    b72a:	4721                	li	a4,8
    b72c:	40a70533          	sub	a0,a4,a0
    b730:	8082                	ret
    b732:	8141                	srli	a0,a0,0x10
    b734:	00002797          	auipc	a5,0x2
    b738:	ec878793          	addi	a5,a5,-312 # d5fc <__clz_tab>
    b73c:	97aa                	add	a5,a5,a0
    b73e:	2388                	lbu	a0,0(a5)
    b740:	4741                	li	a4,16
    b742:	40a70533          	sub	a0,a4,a0
    b746:	8082                	ret

0000b748 <calloc>:
    b748:	82818793          	addi	a5,gp,-2008 # 200005a8 <_impure_ptr>
    b74c:	862e                	mv	a2,a1
    b74e:	85aa                	mv	a1,a0
    b750:	4388                	lw	a0,0(a5)
    b752:	a211                	j	b856 <_calloc_r>

0000b754 <free>:
    b754:	82818793          	addi	a5,gp,-2008 # 200005a8 <_impure_ptr>
    b758:	85aa                	mv	a1,a0
    b75a:	4388                	lw	a0,0(a5)
    b75c:	a205                	j	b87c <_free_r>

0000b75e <memcpy>:
    b75e:	00a5c7b3          	xor	a5,a1,a0
    b762:	8b8d                	andi	a5,a5,3
    b764:	00c50733          	add	a4,a0,a2
    b768:	e781                	bnez	a5,b770 <memcpy+0x12>
    b76a:	478d                	li	a5,3
    b76c:	00c7ed63          	bltu	a5,a2,b786 <memcpy+0x28>
    b770:	87aa                	mv	a5,a0
    b772:	08e57e63          	bgeu	a0,a4,b80e <memcpy+0xb0>
    b776:	2194                	lbu	a3,0(a1)
    b778:	0785                	addi	a5,a5,1
    b77a:	0585                	addi	a1,a1,1
    b77c:	fed78fa3          	sb	a3,-1(a5)
    b780:	fee7ebe3          	bltu	a5,a4,b776 <memcpy+0x18>
    b784:	8082                	ret
    b786:	00357693          	andi	a3,a0,3
    b78a:	87aa                	mv	a5,a0
    b78c:	ca89                	beqz	a3,b79e <memcpy+0x40>
    b78e:	2194                	lbu	a3,0(a1)
    b790:	0785                	addi	a5,a5,1
    b792:	0585                	addi	a1,a1,1
    b794:	fed78fa3          	sb	a3,-1(a5)
    b798:	0037f693          	andi	a3,a5,3
    b79c:	bfc5                	j	b78c <memcpy+0x2e>
    b79e:	ffc77693          	andi	a3,a4,-4
    b7a2:	fe068613          	addi	a2,a3,-32 # fbffffe0 <__freertos_irq_stack_top+0xdbffafe0>
    b7a6:	06c7f063          	bgeu	a5,a2,b806 <memcpy+0xa8>
    b7aa:	0005a383          	lw	t2,0(a1)
    b7ae:	0045a283          	lw	t0,4(a1)
    b7b2:	0085af83          	lw	t6,8(a1)
    b7b6:	00c5af03          	lw	t5,12(a1)
    b7ba:	0105ae83          	lw	t4,16(a1)
    b7be:	0145ae03          	lw	t3,20(a1)
    b7c2:	0185a303          	lw	t1,24(a1)
    b7c6:	01c5a883          	lw	a7,28(a1)
    b7ca:	02458593          	addi	a1,a1,36
    b7ce:	0077a023          	sw	t2,0(a5)
    b7d2:	ffc5a803          	lw	a6,-4(a1)
    b7d6:	0057a223          	sw	t0,4(a5)
    b7da:	01f7a423          	sw	t6,8(a5)
    b7de:	01e7a623          	sw	t5,12(a5)
    b7e2:	01d7a823          	sw	t4,16(a5)
    b7e6:	01c7aa23          	sw	t3,20(a5)
    b7ea:	0067ac23          	sw	t1,24(a5)
    b7ee:	0117ae23          	sw	a7,28(a5)
    b7f2:	02478793          	addi	a5,a5,36
    b7f6:	ff07ae23          	sw	a6,-4(a5)
    b7fa:	b775                	j	b7a6 <memcpy+0x48>
    b7fc:	4190                	lw	a2,0(a1)
    b7fe:	0791                	addi	a5,a5,4
    b800:	0591                	addi	a1,a1,4
    b802:	fec7ae23          	sw	a2,-4(a5)
    b806:	fed7ebe3          	bltu	a5,a3,b7fc <memcpy+0x9e>
    b80a:	f6e7e6e3          	bltu	a5,a4,b776 <memcpy+0x18>
    b80e:	8082                	ret

0000b810 <memmove>:
    b810:	04a5f163          	bgeu	a1,a0,b852 <memmove+0x42>
    b814:	00c586b3          	add	a3,a1,a2
    b818:	02d57d63          	bgeu	a0,a3,b852 <memmove+0x42>
    b81c:	fff64593          	not	a1,a2
    b820:	4781                	li	a5,0
    b822:	17fd                	addi	a5,a5,-1
    b824:	00f59363          	bne	a1,a5,b82a <memmove+0x1a>
    b828:	8082                	ret
    b82a:	00f68733          	add	a4,a3,a5
    b82e:	00074803          	lbu	a6,0(a4)
    b832:	00c78733          	add	a4,a5,a2
    b836:	972a                	add	a4,a4,a0
    b838:	01070023          	sb	a6,0(a4)
    b83c:	b7dd                	j	b822 <memmove+0x12>
    b83e:	00f58733          	add	a4,a1,a5
    b842:	2314                	lbu	a3,0(a4)
    b844:	00f50733          	add	a4,a0,a5
    b848:	0785                	addi	a5,a5,1
    b84a:	a314                	sb	a3,0(a4)
    b84c:	fef619e3          	bne	a2,a5,b83e <memmove+0x2e>
    b850:	8082                	ret
    b852:	4781                	li	a5,0
    b854:	bfe5                	j	b84c <memmove+0x3c>

0000b856 <_calloc_r>:
    b856:	02c58633          	mul	a2,a1,a2
    b85a:	1101                	addi	sp,sp,-32
    b85c:	cc22                	sw	s0,24(sp)
    b85e:	ce06                	sw	ra,28(sp)
    b860:	85b2                	mv	a1,a2
    b862:	c632                	sw	a2,12(sp)
    b864:	20c1                	jal	b924 <_malloc_r>
    b866:	842a                	mv	s0,a0
    b868:	c509                	beqz	a0,b872 <_calloc_r+0x1c>
    b86a:	4632                	lw	a2,12(sp)
    b86c:	4581                	li	a1,0
    b86e:	ce1f40ef          	jal	ra,54e <memset>
    b872:	8522                	mv	a0,s0
    b874:	40f2                	lw	ra,28(sp)
    b876:	4462                	lw	s0,24(sp)
    b878:	6105                	addi	sp,sp,32
    b87a:	8082                	ret

0000b87c <_free_r>:
    b87c:	c1dd                	beqz	a1,b922 <_free_r+0xa6>
    b87e:	ffc5a783          	lw	a5,-4(a1)
    b882:	1141                	addi	sp,sp,-16
    b884:	c422                	sw	s0,8(sp)
    b886:	c606                	sw	ra,12(sp)
    b888:	c226                	sw	s1,4(sp)
    b88a:	ffc58413          	addi	s0,a1,-4
    b88e:	0007d363          	bgez	a5,b894 <_free_r+0x18>
    b892:	943e                	add	s0,s0,a5
    b894:	84aa                	mv	s1,a0
    b896:	133000ef          	jal	ra,c1c8 <__malloc_lock>
    b89a:	94018793          	addi	a5,gp,-1728 # 200006c0 <__malloc_free_list>
    b89e:	439c                	lw	a5,0(a5)
    b8a0:	ef81                	bnez	a5,b8b8 <_free_r+0x3c>
    b8a2:	00042223          	sw	zero,4(s0)
    b8a6:	9481a023          	sw	s0,-1728(gp) # 200006c0 <__malloc_free_list>
    b8aa:	4422                	lw	s0,8(sp)
    b8ac:	40b2                	lw	ra,12(sp)
    b8ae:	8526                	mv	a0,s1
    b8b0:	4492                	lw	s1,4(sp)
    b8b2:	0141                	addi	sp,sp,16
    b8b4:	1170006f          	j	c1ca <__malloc_unlock>
    b8b8:	00f47e63          	bgeu	s0,a5,b8d4 <_free_r+0x58>
    b8bc:	4014                	lw	a3,0(s0)
    b8be:	00d40733          	add	a4,s0,a3
    b8c2:	00e79663          	bne	a5,a4,b8ce <_free_r+0x52>
    b8c6:	4398                	lw	a4,0(a5)
    b8c8:	43dc                	lw	a5,4(a5)
    b8ca:	9736                	add	a4,a4,a3
    b8cc:	c018                	sw	a4,0(s0)
    b8ce:	c05c                	sw	a5,4(s0)
    b8d0:	bfd9                	j	b8a6 <_free_r+0x2a>
    b8d2:	87ba                	mv	a5,a4
    b8d4:	43d8                	lw	a4,4(a5)
    b8d6:	c319                	beqz	a4,b8dc <_free_r+0x60>
    b8d8:	fee47de3          	bgeu	s0,a4,b8d2 <_free_r+0x56>
    b8dc:	4394                	lw	a3,0(a5)
    b8de:	00d78633          	add	a2,a5,a3
    b8e2:	00861f63          	bne	a2,s0,b900 <_free_r+0x84>
    b8e6:	4010                	lw	a2,0(s0)
    b8e8:	96b2                	add	a3,a3,a2
    b8ea:	c394                	sw	a3,0(a5)
    b8ec:	00d78633          	add	a2,a5,a3
    b8f0:	fac71de3          	bne	a4,a2,b8aa <_free_r+0x2e>
    b8f4:	4310                	lw	a2,0(a4)
    b8f6:	4358                	lw	a4,4(a4)
    b8f8:	96b2                	add	a3,a3,a2
    b8fa:	c394                	sw	a3,0(a5)
    b8fc:	c3d8                	sw	a4,4(a5)
    b8fe:	b775                	j	b8aa <_free_r+0x2e>
    b900:	00c47563          	bgeu	s0,a2,b90a <_free_r+0x8e>
    b904:	47b1                	li	a5,12
    b906:	c09c                	sw	a5,0(s1)
    b908:	b74d                	j	b8aa <_free_r+0x2e>
    b90a:	4010                	lw	a2,0(s0)
    b90c:	00c406b3          	add	a3,s0,a2
    b910:	00d71663          	bne	a4,a3,b91c <_free_r+0xa0>
    b914:	4314                	lw	a3,0(a4)
    b916:	4358                	lw	a4,4(a4)
    b918:	96b2                	add	a3,a3,a2
    b91a:	c014                	sw	a3,0(s0)
    b91c:	c058                	sw	a4,4(s0)
    b91e:	c3c0                	sw	s0,4(a5)
    b920:	b769                	j	b8aa <_free_r+0x2e>
    b922:	8082                	ret

0000b924 <_malloc_r>:
    b924:	1101                	addi	sp,sp,-32
    b926:	ca26                	sw	s1,20(sp)
    b928:	00358493          	addi	s1,a1,3
    b92c:	98f1                	andi	s1,s1,-4
    b92e:	ce06                	sw	ra,28(sp)
    b930:	cc22                	sw	s0,24(sp)
    b932:	c84a                	sw	s2,16(sp)
    b934:	c64e                	sw	s3,12(sp)
    b936:	04a1                	addi	s1,s1,8
    b938:	47b1                	li	a5,12
    b93a:	04f4f363          	bgeu	s1,a5,b980 <_malloc_r+0x5c>
    b93e:	44b1                	li	s1,12
    b940:	04b4e263          	bltu	s1,a1,b984 <_malloc_r+0x60>
    b944:	892a                	mv	s2,a0
    b946:	083000ef          	jal	ra,c1c8 <__malloc_lock>
    b94a:	94018793          	addi	a5,gp,-1728 # 200006c0 <__malloc_free_list>
    b94e:	4398                	lw	a4,0(a5)
    b950:	843a                	mv	s0,a4
    b952:	e039                	bnez	s0,b998 <_malloc_r+0x74>
    b954:	94418793          	addi	a5,gp,-1724 # 200006c4 <__malloc_sbrk_start>
    b958:	439c                	lw	a5,0(a5)
    b95a:	e791                	bnez	a5,b966 <_malloc_r+0x42>
    b95c:	4581                	li	a1,0
    b95e:	854a                	mv	a0,s2
    b960:	2a65                	jal	bb18 <_sbrk_r>
    b962:	94a1a223          	sw	a0,-1724(gp) # 200006c4 <__malloc_sbrk_start>
    b966:	85a6                	mv	a1,s1
    b968:	854a                	mv	a0,s2
    b96a:	227d                	jal	bb18 <_sbrk_r>
    b96c:	59fd                	li	s3,-1
    b96e:	07351963          	bne	a0,s3,b9e0 <_malloc_r+0xbc>
    b972:	47b1                	li	a5,12
    b974:	00f92023          	sw	a5,0(s2)
    b978:	854a                	mv	a0,s2
    b97a:	051000ef          	jal	ra,c1ca <__malloc_unlock>
    b97e:	a029                	j	b988 <_malloc_r+0x64>
    b980:	fc04d0e3          	bgez	s1,b940 <_malloc_r+0x1c>
    b984:	47b1                	li	a5,12
    b986:	c11c                	sw	a5,0(a0)
    b988:	4501                	li	a0,0
    b98a:	40f2                	lw	ra,28(sp)
    b98c:	4462                	lw	s0,24(sp)
    b98e:	44d2                	lw	s1,20(sp)
    b990:	4942                	lw	s2,16(sp)
    b992:	49b2                	lw	s3,12(sp)
    b994:	6105                	addi	sp,sp,32
    b996:	8082                	ret
    b998:	401c                	lw	a5,0(s0)
    b99a:	8f85                	sub	a5,a5,s1
    b99c:	0207cf63          	bltz	a5,b9da <_malloc_r+0xb6>
    b9a0:	46ad                	li	a3,11
    b9a2:	00f6f663          	bgeu	a3,a5,b9ae <_malloc_r+0x8a>
    b9a6:	c01c                	sw	a5,0(s0)
    b9a8:	943e                	add	s0,s0,a5
    b9aa:	c004                	sw	s1,0(s0)
    b9ac:	a031                	j	b9b8 <_malloc_r+0x94>
    b9ae:	405c                	lw	a5,4(s0)
    b9b0:	02871363          	bne	a4,s0,b9d6 <_malloc_r+0xb2>
    b9b4:	94f1a023          	sw	a5,-1728(gp) # 200006c0 <__malloc_free_list>
    b9b8:	854a                	mv	a0,s2
    b9ba:	011000ef          	jal	ra,c1ca <__malloc_unlock>
    b9be:	00b40513          	addi	a0,s0,11
    b9c2:	00440793          	addi	a5,s0,4
    b9c6:	9961                	andi	a0,a0,-8
    b9c8:	40f50733          	sub	a4,a0,a5
    b9cc:	df5d                	beqz	a4,b98a <_malloc_r+0x66>
    b9ce:	943a                	add	s0,s0,a4
    b9d0:	8f89                	sub	a5,a5,a0
    b9d2:	c01c                	sw	a5,0(s0)
    b9d4:	bf5d                	j	b98a <_malloc_r+0x66>
    b9d6:	c35c                	sw	a5,4(a4)
    b9d8:	b7c5                	j	b9b8 <_malloc_r+0x94>
    b9da:	8722                	mv	a4,s0
    b9dc:	4040                	lw	s0,4(s0)
    b9de:	bf95                	j	b952 <_malloc_r+0x2e>
    b9e0:	00350413          	addi	s0,a0,3
    b9e4:	9871                	andi	s0,s0,-4
    b9e6:	fc8502e3          	beq	a0,s0,b9aa <_malloc_r+0x86>
    b9ea:	40a405b3          	sub	a1,s0,a0
    b9ee:	854a                	mv	a0,s2
    b9f0:	2225                	jal	bb18 <_sbrk_r>
    b9f2:	fb351ce3          	bne	a0,s3,b9aa <_malloc_r+0x86>
    b9f6:	bfb5                	j	b972 <_malloc_r+0x4e>

0000b9f8 <iprintf>:
    b9f8:	7139                	addi	sp,sp,-64
    b9fa:	da3e                	sw	a5,52(sp)
    b9fc:	d22e                	sw	a1,36(sp)
    b9fe:	d432                	sw	a2,40(sp)
    ba00:	d636                	sw	a3,44(sp)
    ba02:	d83a                	sw	a4,48(sp)
    ba04:	dc42                	sw	a6,56(sp)
    ba06:	de46                	sw	a7,60(sp)
    ba08:	82818793          	addi	a5,gp,-2008 # 200005a8 <_impure_ptr>
    ba0c:	cc22                	sw	s0,24(sp)
    ba0e:	4380                	lw	s0,0(a5)
    ba10:	ca26                	sw	s1,20(sp)
    ba12:	ce06                	sw	ra,28(sp)
    ba14:	84aa                	mv	s1,a0
    ba16:	c409                	beqz	s0,ba20 <iprintf+0x28>
    ba18:	4c1c                	lw	a5,24(s0)
    ba1a:	e399                	bnez	a5,ba20 <iprintf+0x28>
    ba1c:	8522                	mv	a0,s0
    ba1e:	23a1                	jal	bf66 <__sinit>
    ba20:	440c                	lw	a1,8(s0)
    ba22:	1054                	addi	a3,sp,36
    ba24:	8626                	mv	a2,s1
    ba26:	8522                	mv	a0,s0
    ba28:	c636                	sw	a3,12(sp)
    ba2a:	00d000ef          	jal	ra,c236 <_vfiprintf_r>
    ba2e:	40f2                	lw	ra,28(sp)
    ba30:	4462                	lw	s0,24(sp)
    ba32:	44d2                	lw	s1,20(sp)
    ba34:	6121                	addi	sp,sp,64
    ba36:	8082                	ret

0000ba38 <_puts_r>:
    ba38:	1101                	addi	sp,sp,-32
    ba3a:	ca26                	sw	s1,20(sp)
    ba3c:	c84a                	sw	s2,16(sp)
    ba3e:	ce06                	sw	ra,28(sp)
    ba40:	cc22                	sw	s0,24(sp)
    ba42:	c64e                	sw	s3,12(sp)
    ba44:	c452                	sw	s4,8(sp)
    ba46:	84aa                	mv	s1,a0
    ba48:	892e                	mv	s2,a1
    ba4a:	c501                	beqz	a0,ba52 <_puts_r+0x1a>
    ba4c:	4d1c                	lw	a5,24(a0)
    ba4e:	e391                	bnez	a5,ba52 <_puts_r+0x1a>
    ba50:	2b19                	jal	bf66 <__sinit>
    ba52:	4c9c                	lw	a5,24(s1)
    ba54:	4480                	lw	s0,8(s1)
    ba56:	e399                	bnez	a5,ba5c <_puts_r+0x24>
    ba58:	8526                	mv	a0,s1
    ba5a:	2331                	jal	bf66 <__sinit>
    ba5c:	00002797          	auipc	a5,0x2
    ba60:	cc078793          	addi	a5,a5,-832 # d71c <__sf_fake_stdin>
    ba64:	02f41b63          	bne	s0,a5,ba9a <_puts_r+0x62>
    ba68:	40c0                	lw	s0,4(s1)
    ba6a:	245e                	lhu	a5,12(s0)
    ba6c:	8ba1                	andi	a5,a5,8
    ba6e:	c7b1                	beqz	a5,baba <_puts_r+0x82>
    ba70:	481c                	lw	a5,16(s0)
    ba72:	c7a1                	beqz	a5,baba <_puts_r+0x82>
    ba74:	59fd                	li	s3,-1
    ba76:	4a29                	li	s4,10
    ba78:	441c                	lw	a5,8(s0)
    ba7a:	00094583          	lbu	a1,0(s2)
    ba7e:	17fd                	addi	a5,a5,-1
    ba80:	e9b1                	bnez	a1,bad4 <_puts_r+0x9c>
    ba82:	c41c                	sw	a5,8(s0)
    ba84:	0607dd63          	bgez	a5,bafe <_puts_r+0xc6>
    ba88:	8622                	mv	a2,s0
    ba8a:	45a9                	li	a1,10
    ba8c:	8526                	mv	a0,s1
    ba8e:	20f9                	jal	bb5c <__swbuf_r>
    ba90:	57fd                	li	a5,-1
    ba92:	02f50863          	beq	a0,a5,bac2 <_puts_r+0x8a>
    ba96:	4529                	li	a0,10
    ba98:	a035                	j	bac4 <_puts_r+0x8c>
    ba9a:	00002797          	auipc	a5,0x2
    ba9e:	ca278793          	addi	a5,a5,-862 # d73c <__sf_fake_stdout>
    baa2:	00f41463          	bne	s0,a5,baaa <_puts_r+0x72>
    baa6:	4480                	lw	s0,8(s1)
    baa8:	b7c9                	j	ba6a <_puts_r+0x32>
    baaa:	00002797          	auipc	a5,0x2
    baae:	c5278793          	addi	a5,a5,-942 # d6fc <__sf_fake_stderr>
    bab2:	faf41ce3          	bne	s0,a5,ba6a <_puts_r+0x32>
    bab6:	44c0                	lw	s0,12(s1)
    bab8:	bf4d                	j	ba6a <_puts_r+0x32>
    baba:	85a2                	mv	a1,s0
    babc:	8526                	mv	a0,s1
    babe:	2aa9                	jal	bc18 <__swsetup_r>
    bac0:	d955                	beqz	a0,ba74 <_puts_r+0x3c>
    bac2:	557d                	li	a0,-1
    bac4:	40f2                	lw	ra,28(sp)
    bac6:	4462                	lw	s0,24(sp)
    bac8:	44d2                	lw	s1,20(sp)
    baca:	4942                	lw	s2,16(sp)
    bacc:	49b2                	lw	s3,12(sp)
    bace:	4a22                	lw	s4,8(sp)
    bad0:	6105                	addi	sp,sp,32
    bad2:	8082                	ret
    bad4:	c41c                	sw	a5,8(s0)
    bad6:	0905                	addi	s2,s2,1
    bad8:	0007d763          	bgez	a5,bae6 <_puts_r+0xae>
    badc:	4c18                	lw	a4,24(s0)
    bade:	00e7ca63          	blt	a5,a4,baf2 <_puts_r+0xba>
    bae2:	01458863          	beq	a1,s4,baf2 <_puts_r+0xba>
    bae6:	401c                	lw	a5,0(s0)
    bae8:	00178713          	addi	a4,a5,1
    baec:	c018                	sw	a4,0(s0)
    baee:	a38c                	sb	a1,0(a5)
    baf0:	b761                	j	ba78 <_puts_r+0x40>
    baf2:	8622                	mv	a2,s0
    baf4:	8526                	mv	a0,s1
    baf6:	209d                	jal	bb5c <__swbuf_r>
    baf8:	f93510e3          	bne	a0,s3,ba78 <_puts_r+0x40>
    bafc:	b7d9                	j	bac2 <_puts_r+0x8a>
    bafe:	401c                	lw	a5,0(s0)
    bb00:	00178713          	addi	a4,a5,1
    bb04:	c018                	sw	a4,0(s0)
    bb06:	4729                	li	a4,10
    bb08:	a398                	sb	a4,0(a5)
    bb0a:	b771                	j	ba96 <_puts_r+0x5e>

0000bb0c <puts>:
    bb0c:	82818793          	addi	a5,gp,-2008 # 200005a8 <_impure_ptr>
    bb10:	85aa                	mv	a1,a0
    bb12:	4388                	lw	a0,0(a5)
    bb14:	f25ff06f          	j	ba38 <_puts_r>

0000bb18 <_sbrk_r>:
    bb18:	1141                	addi	sp,sp,-16
    bb1a:	c422                	sw	s0,8(sp)
    bb1c:	842a                	mv	s0,a0
    bb1e:	852e                	mv	a0,a1
    bb20:	1fff7797          	auipc	a5,0x1fff7
    bb24:	6c07ae23          	sw	zero,1756(a5) # 200031fc <errno>
    bb28:	c606                	sw	ra,12(sp)
    bb2a:	d0efc0ef          	jal	ra,8038 <_sbrk>
    bb2e:	57fd                	li	a5,-1
    bb30:	00f51963          	bne	a0,a5,bb42 <_sbrk_r+0x2a>
    bb34:	1fff7797          	auipc	a5,0x1fff7
    bb38:	6c878793          	addi	a5,a5,1736 # 200031fc <errno>
    bb3c:	439c                	lw	a5,0(a5)
    bb3e:	c391                	beqz	a5,bb42 <_sbrk_r+0x2a>
    bb40:	c01c                	sw	a5,0(s0)
    bb42:	40b2                	lw	ra,12(sp)
    bb44:	4422                	lw	s0,8(sp)
    bb46:	0141                	addi	sp,sp,16
    bb48:	8082                	ret

0000bb4a <strlen>:
    bb4a:	87aa                	mv	a5,a0
    bb4c:	0785                	addi	a5,a5,1
    bb4e:	fff7c703          	lbu	a4,-1(a5)
    bb52:	ff6d                	bnez	a4,bb4c <strlen+0x2>
    bb54:	40a78533          	sub	a0,a5,a0
    bb58:	157d                	addi	a0,a0,-1
    bb5a:	8082                	ret

0000bb5c <__swbuf_r>:
    bb5c:	1101                	addi	sp,sp,-32
    bb5e:	cc22                	sw	s0,24(sp)
    bb60:	ca26                	sw	s1,20(sp)
    bb62:	c84a                	sw	s2,16(sp)
    bb64:	ce06                	sw	ra,28(sp)
    bb66:	c64e                	sw	s3,12(sp)
    bb68:	84aa                	mv	s1,a0
    bb6a:	892e                	mv	s2,a1
    bb6c:	8432                	mv	s0,a2
    bb6e:	c501                	beqz	a0,bb76 <__swbuf_r+0x1a>
    bb70:	4d1c                	lw	a5,24(a0)
    bb72:	e391                	bnez	a5,bb76 <__swbuf_r+0x1a>
    bb74:	2ecd                	jal	bf66 <__sinit>
    bb76:	00002797          	auipc	a5,0x2
    bb7a:	ba678793          	addi	a5,a5,-1114 # d71c <__sf_fake_stdin>
    bb7e:	06f41763          	bne	s0,a5,bbec <__swbuf_r+0x90>
    bb82:	40c0                	lw	s0,4(s1)
    bb84:	4c1c                	lw	a5,24(s0)
    bb86:	c41c                	sw	a5,8(s0)
    bb88:	245e                	lhu	a5,12(s0)
    bb8a:	8ba1                	andi	a5,a5,8
    bb8c:	c3c1                	beqz	a5,bc0c <__swbuf_r+0xb0>
    bb8e:	481c                	lw	a5,16(s0)
    bb90:	cfb5                	beqz	a5,bc0c <__swbuf_r+0xb0>
    bb92:	481c                	lw	a5,16(s0)
    bb94:	4008                	lw	a0,0(s0)
    bb96:	0ff97993          	andi	s3,s2,255
    bb9a:	0ff97913          	andi	s2,s2,255
    bb9e:	8d1d                	sub	a0,a0,a5
    bba0:	485c                	lw	a5,20(s0)
    bba2:	00f54663          	blt	a0,a5,bbae <__swbuf_r+0x52>
    bba6:	85a2                	mv	a1,s0
    bba8:	8526                	mv	a0,s1
    bbaa:	2c79                	jal	be48 <_fflush_r>
    bbac:	e525                	bnez	a0,bc14 <__swbuf_r+0xb8>
    bbae:	441c                	lw	a5,8(s0)
    bbb0:	0505                	addi	a0,a0,1
    bbb2:	17fd                	addi	a5,a5,-1
    bbb4:	c41c                	sw	a5,8(s0)
    bbb6:	401c                	lw	a5,0(s0)
    bbb8:	00178713          	addi	a4,a5,1
    bbbc:	c018                	sw	a4,0(s0)
    bbbe:	01378023          	sb	s3,0(a5)
    bbc2:	485c                	lw	a5,20(s0)
    bbc4:	00a78863          	beq	a5,a0,bbd4 <__swbuf_r+0x78>
    bbc8:	245e                	lhu	a5,12(s0)
    bbca:	8b85                	andi	a5,a5,1
    bbcc:	cb81                	beqz	a5,bbdc <__swbuf_r+0x80>
    bbce:	47a9                	li	a5,10
    bbd0:	00f91663          	bne	s2,a5,bbdc <__swbuf_r+0x80>
    bbd4:	85a2                	mv	a1,s0
    bbd6:	8526                	mv	a0,s1
    bbd8:	2c85                	jal	be48 <_fflush_r>
    bbda:	ed0d                	bnez	a0,bc14 <__swbuf_r+0xb8>
    bbdc:	40f2                	lw	ra,28(sp)
    bbde:	4462                	lw	s0,24(sp)
    bbe0:	854a                	mv	a0,s2
    bbe2:	44d2                	lw	s1,20(sp)
    bbe4:	4942                	lw	s2,16(sp)
    bbe6:	49b2                	lw	s3,12(sp)
    bbe8:	6105                	addi	sp,sp,32
    bbea:	8082                	ret
    bbec:	00002797          	auipc	a5,0x2
    bbf0:	b5078793          	addi	a5,a5,-1200 # d73c <__sf_fake_stdout>
    bbf4:	00f41463          	bne	s0,a5,bbfc <__swbuf_r+0xa0>
    bbf8:	4480                	lw	s0,8(s1)
    bbfa:	b769                	j	bb84 <__swbuf_r+0x28>
    bbfc:	00002797          	auipc	a5,0x2
    bc00:	b0078793          	addi	a5,a5,-1280 # d6fc <__sf_fake_stderr>
    bc04:	f8f410e3          	bne	s0,a5,bb84 <__swbuf_r+0x28>
    bc08:	44c0                	lw	s0,12(s1)
    bc0a:	bfad                	j	bb84 <__swbuf_r+0x28>
    bc0c:	85a2                	mv	a1,s0
    bc0e:	8526                	mv	a0,s1
    bc10:	2021                	jal	bc18 <__swsetup_r>
    bc12:	d141                	beqz	a0,bb92 <__swbuf_r+0x36>
    bc14:	597d                	li	s2,-1
    bc16:	b7d9                	j	bbdc <__swbuf_r+0x80>

0000bc18 <__swsetup_r>:
    bc18:	1141                	addi	sp,sp,-16
    bc1a:	82818793          	addi	a5,gp,-2008 # 200005a8 <_impure_ptr>
    bc1e:	c226                	sw	s1,4(sp)
    bc20:	4384                	lw	s1,0(a5)
    bc22:	c422                	sw	s0,8(sp)
    bc24:	c04a                	sw	s2,0(sp)
    bc26:	c606                	sw	ra,12(sp)
    bc28:	892a                	mv	s2,a0
    bc2a:	842e                	mv	s0,a1
    bc2c:	c489                	beqz	s1,bc36 <__swsetup_r+0x1e>
    bc2e:	4c9c                	lw	a5,24(s1)
    bc30:	e399                	bnez	a5,bc36 <__swsetup_r+0x1e>
    bc32:	8526                	mv	a0,s1
    bc34:	2e0d                	jal	bf66 <__sinit>
    bc36:	00002797          	auipc	a5,0x2
    bc3a:	ae678793          	addi	a5,a5,-1306 # d71c <__sf_fake_stdin>
    bc3e:	02f41b63          	bne	s0,a5,bc74 <__swsetup_r+0x5c>
    bc42:	40c0                	lw	s0,4(s1)
    bc44:	00c41703          	lh	a4,12(s0)
    bc48:	01071793          	slli	a5,a4,0x10
    bc4c:	83c1                	srli	a5,a5,0x10
    bc4e:	0087f693          	andi	a3,a5,8
    bc52:	eab5                	bnez	a3,bcc6 <__swsetup_r+0xae>
    bc54:	0107f693          	andi	a3,a5,16
    bc58:	ee95                	bnez	a3,bc94 <__swsetup_r+0x7c>
    bc5a:	47a5                	li	a5,9
    bc5c:	00f92023          	sw	a5,0(s2)
    bc60:	04076713          	ori	a4,a4,64
    bc64:	a45a                	sh	a4,12(s0)
    bc66:	557d                	li	a0,-1
    bc68:	40b2                	lw	ra,12(sp)
    bc6a:	4422                	lw	s0,8(sp)
    bc6c:	4492                	lw	s1,4(sp)
    bc6e:	4902                	lw	s2,0(sp)
    bc70:	0141                	addi	sp,sp,16
    bc72:	8082                	ret
    bc74:	00002797          	auipc	a5,0x2
    bc78:	ac878793          	addi	a5,a5,-1336 # d73c <__sf_fake_stdout>
    bc7c:	00f41463          	bne	s0,a5,bc84 <__swsetup_r+0x6c>
    bc80:	4480                	lw	s0,8(s1)
    bc82:	b7c9                	j	bc44 <__swsetup_r+0x2c>
    bc84:	00002797          	auipc	a5,0x2
    bc88:	a7878793          	addi	a5,a5,-1416 # d6fc <__sf_fake_stderr>
    bc8c:	faf41ce3          	bne	s0,a5,bc44 <__swsetup_r+0x2c>
    bc90:	44c0                	lw	s0,12(s1)
    bc92:	bf4d                	j	bc44 <__swsetup_r+0x2c>
    bc94:	8b91                	andi	a5,a5,4
    bc96:	c785                	beqz	a5,bcbe <__swsetup_r+0xa6>
    bc98:	584c                	lw	a1,52(s0)
    bc9a:	c991                	beqz	a1,bcae <__swsetup_r+0x96>
    bc9c:	04440793          	addi	a5,s0,68
    bca0:	00f58563          	beq	a1,a5,bcaa <__swsetup_r+0x92>
    bca4:	854a                	mv	a0,s2
    bca6:	bd7ff0ef          	jal	ra,b87c <_free_r>
    bcaa:	02042a23          	sw	zero,52(s0)
    bcae:	245e                	lhu	a5,12(s0)
    bcb0:	00042223          	sw	zero,4(s0)
    bcb4:	fdb7f793          	andi	a5,a5,-37
    bcb8:	a45e                	sh	a5,12(s0)
    bcba:	481c                	lw	a5,16(s0)
    bcbc:	c01c                	sw	a5,0(s0)
    bcbe:	245e                	lhu	a5,12(s0)
    bcc0:	0087e793          	ori	a5,a5,8
    bcc4:	a45e                	sh	a5,12(s0)
    bcc6:	481c                	lw	a5,16(s0)
    bcc8:	eb99                	bnez	a5,bcde <__swsetup_r+0xc6>
    bcca:	245e                	lhu	a5,12(s0)
    bccc:	20000713          	li	a4,512
    bcd0:	2807f793          	andi	a5,a5,640
    bcd4:	00e78563          	beq	a5,a4,bcde <__swsetup_r+0xc6>
    bcd8:	85a2                	mv	a1,s0
    bcda:	854a                	mv	a0,s2
    bcdc:	29a1                	jal	c134 <__smakebuf_r>
    bcde:	245e                	lhu	a5,12(s0)
    bce0:	0017f713          	andi	a4,a5,1
    bce4:	c31d                	beqz	a4,bd0a <__swsetup_r+0xf2>
    bce6:	485c                	lw	a5,20(s0)
    bce8:	00042423          	sw	zero,8(s0)
    bcec:	40f007b3          	neg	a5,a5
    bcf0:	cc1c                	sw	a5,24(s0)
    bcf2:	481c                	lw	a5,16(s0)
    bcf4:	4501                	li	a0,0
    bcf6:	fbad                	bnez	a5,bc68 <__swsetup_r+0x50>
    bcf8:	00c41783          	lh	a5,12(s0)
    bcfc:	0807f713          	andi	a4,a5,128
    bd00:	d725                	beqz	a4,bc68 <__swsetup_r+0x50>
    bd02:	0407e793          	ori	a5,a5,64
    bd06:	a45e                	sh	a5,12(s0)
    bd08:	bfb9                	j	bc66 <__swsetup_r+0x4e>
    bd0a:	8b89                	andi	a5,a5,2
    bd0c:	4701                	li	a4,0
    bd0e:	e391                	bnez	a5,bd12 <__swsetup_r+0xfa>
    bd10:	4858                	lw	a4,20(s0)
    bd12:	c418                	sw	a4,8(s0)
    bd14:	bff9                	j	bcf2 <__swsetup_r+0xda>

0000bd16 <__sflush_r>:
    bd16:	25de                	lhu	a5,12(a1)
    bd18:	1101                	addi	sp,sp,-32
    bd1a:	cc22                	sw	s0,24(sp)
    bd1c:	ca26                	sw	s1,20(sp)
    bd1e:	ce06                	sw	ra,28(sp)
    bd20:	c84a                	sw	s2,16(sp)
    bd22:	c64e                	sw	s3,12(sp)
    bd24:	0087f713          	andi	a4,a5,8
    bd28:	84aa                	mv	s1,a0
    bd2a:	842e                	mv	s0,a1
    bd2c:	ef61                	bnez	a4,be04 <__sflush_r+0xee>
    bd2e:	41d8                	lw	a4,4(a1)
    bd30:	00e04d63          	bgtz	a4,bd4a <__sflush_r+0x34>
    bd34:	41b8                	lw	a4,64(a1)
    bd36:	00e04a63          	bgtz	a4,bd4a <__sflush_r+0x34>
    bd3a:	4501                	li	a0,0
    bd3c:	40f2                	lw	ra,28(sp)
    bd3e:	4462                	lw	s0,24(sp)
    bd40:	44d2                	lw	s1,20(sp)
    bd42:	4942                	lw	s2,16(sp)
    bd44:	49b2                	lw	s3,12(sp)
    bd46:	6105                	addi	sp,sp,32
    bd48:	8082                	ret
    bd4a:	5458                	lw	a4,44(s0)
    bd4c:	d77d                	beqz	a4,bd3a <__sflush_r+0x24>
    bd4e:	0004a903          	lw	s2,0(s1)
    bd52:	01379693          	slli	a3,a5,0x13
    bd56:	0004a023          	sw	zero,0(s1)
    bd5a:	0606dc63          	bgez	a3,bdd2 <__sflush_r+0xbc>
    bd5e:	4870                	lw	a2,84(s0)
    bd60:	245e                	lhu	a5,12(s0)
    bd62:	8b91                	andi	a5,a5,4
    bd64:	c799                	beqz	a5,bd72 <__sflush_r+0x5c>
    bd66:	405c                	lw	a5,4(s0)
    bd68:	8e1d                	sub	a2,a2,a5
    bd6a:	585c                	lw	a5,52(s0)
    bd6c:	c399                	beqz	a5,bd72 <__sflush_r+0x5c>
    bd6e:	403c                	lw	a5,64(s0)
    bd70:	8e1d                	sub	a2,a2,a5
    bd72:	545c                	lw	a5,44(s0)
    bd74:	500c                	lw	a1,32(s0)
    bd76:	4681                	li	a3,0
    bd78:	8526                	mv	a0,s1
    bd7a:	9782                	jalr	a5
    bd7c:	57fd                	li	a5,-1
    bd7e:	245a                	lhu	a4,12(s0)
    bd80:	00f51d63          	bne	a0,a5,bd9a <__sflush_r+0x84>
    bd84:	4094                	lw	a3,0(s1)
    bd86:	47f5                	li	a5,29
    bd88:	06d7e963          	bltu	a5,a3,bdfa <__sflush_r+0xe4>
    bd8c:	204007b7          	lui	a5,0x20400
    bd90:	0785                	addi	a5,a5,1
    bd92:	00d7d7b3          	srl	a5,a5,a3
    bd96:	8b85                	andi	a5,a5,1
    bd98:	c3ad                	beqz	a5,bdfa <__sflush_r+0xe4>
    bd9a:	481c                	lw	a5,16(s0)
    bd9c:	00042223          	sw	zero,4(s0)
    bda0:	c01c                	sw	a5,0(s0)
    bda2:	01371793          	slli	a5,a4,0x13
    bda6:	0007d863          	bgez	a5,bdb6 <__sflush_r+0xa0>
    bdaa:	57fd                	li	a5,-1
    bdac:	00f51463          	bne	a0,a5,bdb4 <__sflush_r+0x9e>
    bdb0:	409c                	lw	a5,0(s1)
    bdb2:	e391                	bnez	a5,bdb6 <__sflush_r+0xa0>
    bdb4:	c868                	sw	a0,84(s0)
    bdb6:	584c                	lw	a1,52(s0)
    bdb8:	0124a023          	sw	s2,0(s1)
    bdbc:	ddbd                	beqz	a1,bd3a <__sflush_r+0x24>
    bdbe:	04440793          	addi	a5,s0,68
    bdc2:	00f58563          	beq	a1,a5,bdcc <__sflush_r+0xb6>
    bdc6:	8526                	mv	a0,s1
    bdc8:	ab5ff0ef          	jal	ra,b87c <_free_r>
    bdcc:	02042a23          	sw	zero,52(s0)
    bdd0:	b7ad                	j	bd3a <__sflush_r+0x24>
    bdd2:	500c                	lw	a1,32(s0)
    bdd4:	4601                	li	a2,0
    bdd6:	4685                	li	a3,1
    bdd8:	8526                	mv	a0,s1
    bdda:	9702                	jalr	a4
    bddc:	57fd                	li	a5,-1
    bdde:	862a                	mv	a2,a0
    bde0:	f8f510e3          	bne	a0,a5,bd60 <__sflush_r+0x4a>
    bde4:	409c                	lw	a5,0(s1)
    bde6:	dfad                	beqz	a5,bd60 <__sflush_r+0x4a>
    bde8:	4775                	li	a4,29
    bdea:	00e78563          	beq	a5,a4,bdf4 <__sflush_r+0xde>
    bdee:	4759                	li	a4,22
    bdf0:	04e79363          	bne	a5,a4,be36 <__sflush_r+0x120>
    bdf4:	0124a023          	sw	s2,0(s1)
    bdf8:	b789                	j	bd3a <__sflush_r+0x24>
    bdfa:	04076713          	ori	a4,a4,64
    bdfe:	a45a                	sh	a4,12(s0)
    be00:	557d                	li	a0,-1
    be02:	bf2d                	j	bd3c <__sflush_r+0x26>
    be04:	0105a983          	lw	s3,16(a1)
    be08:	f20989e3          	beqz	s3,bd3a <__sflush_r+0x24>
    be0c:	0005a903          	lw	s2,0(a1)
    be10:	8b8d                	andi	a5,a5,3
    be12:	0135a023          	sw	s3,0(a1)
    be16:	41390933          	sub	s2,s2,s3
    be1a:	4701                	li	a4,0
    be1c:	e391                	bnez	a5,be20 <__sflush_r+0x10a>
    be1e:	49d8                	lw	a4,20(a1)
    be20:	c418                	sw	a4,8(s0)
    be22:	f1205ce3          	blez	s2,bd3a <__sflush_r+0x24>
    be26:	541c                	lw	a5,40(s0)
    be28:	500c                	lw	a1,32(s0)
    be2a:	86ca                	mv	a3,s2
    be2c:	864e                	mv	a2,s3
    be2e:	8526                	mv	a0,s1
    be30:	9782                	jalr	a5
    be32:	00a04763          	bgtz	a0,be40 <__sflush_r+0x12a>
    be36:	245e                	lhu	a5,12(s0)
    be38:	0407e793          	ori	a5,a5,64
    be3c:	a45e                	sh	a5,12(s0)
    be3e:	b7c9                	j	be00 <__sflush_r+0xea>
    be40:	99aa                	add	s3,s3,a0
    be42:	40a90933          	sub	s2,s2,a0
    be46:	bff1                	j	be22 <__sflush_r+0x10c>

0000be48 <_fflush_r>:
    be48:	499c                	lw	a5,16(a1)
    be4a:	c3a5                	beqz	a5,beaa <_fflush_r+0x62>
    be4c:	1101                	addi	sp,sp,-32
    be4e:	cc22                	sw	s0,24(sp)
    be50:	ce06                	sw	ra,28(sp)
    be52:	842a                	mv	s0,a0
    be54:	c511                	beqz	a0,be60 <_fflush_r+0x18>
    be56:	4d1c                	lw	a5,24(a0)
    be58:	e781                	bnez	a5,be60 <_fflush_r+0x18>
    be5a:	c62e                	sw	a1,12(sp)
    be5c:	2229                	jal	bf66 <__sinit>
    be5e:	45b2                	lw	a1,12(sp)
    be60:	00002797          	auipc	a5,0x2
    be64:	8bc78793          	addi	a5,a5,-1860 # d71c <__sf_fake_stdin>
    be68:	00f59c63          	bne	a1,a5,be80 <_fflush_r+0x38>
    be6c:	404c                	lw	a1,4(s0)
    be6e:	00c59783          	lh	a5,12(a1)
    be72:	c79d                	beqz	a5,bea0 <_fflush_r+0x58>
    be74:	8522                	mv	a0,s0
    be76:	4462                	lw	s0,24(sp)
    be78:	40f2                	lw	ra,28(sp)
    be7a:	6105                	addi	sp,sp,32
    be7c:	e9bff06f          	j	bd16 <__sflush_r>
    be80:	00002797          	auipc	a5,0x2
    be84:	8bc78793          	addi	a5,a5,-1860 # d73c <__sf_fake_stdout>
    be88:	00f59463          	bne	a1,a5,be90 <_fflush_r+0x48>
    be8c:	440c                	lw	a1,8(s0)
    be8e:	b7c5                	j	be6e <_fflush_r+0x26>
    be90:	00002797          	auipc	a5,0x2
    be94:	86c78793          	addi	a5,a5,-1940 # d6fc <__sf_fake_stderr>
    be98:	fcf59be3          	bne	a1,a5,be6e <_fflush_r+0x26>
    be9c:	444c                	lw	a1,12(s0)
    be9e:	bfc1                	j	be6e <_fflush_r+0x26>
    bea0:	40f2                	lw	ra,28(sp)
    bea2:	4462                	lw	s0,24(sp)
    bea4:	4501                	li	a0,0
    bea6:	6105                	addi	sp,sp,32
    bea8:	8082                	ret
    beaa:	4501                	li	a0,0
    beac:	8082                	ret

0000beae <std>:
    beae:	1141                	addi	sp,sp,-16
    beb0:	c422                	sw	s0,8(sp)
    beb2:	c606                	sw	ra,12(sp)
    beb4:	842a                	mv	s0,a0
    beb6:	a54e                	sh	a1,12(a0)
    beb8:	a572                	sh	a2,14(a0)
    beba:	00052023          	sw	zero,0(a0)
    bebe:	00052223          	sw	zero,4(a0)
    bec2:	00052423          	sw	zero,8(a0)
    bec6:	06052223          	sw	zero,100(a0)
    beca:	00052823          	sw	zero,16(a0)
    bece:	00052a23          	sw	zero,20(a0)
    bed2:	00052c23          	sw	zero,24(a0)
    bed6:	4621                	li	a2,8
    bed8:	4581                	li	a1,0
    beda:	05c50513          	addi	a0,a0,92
    bede:	e70f40ef          	jal	ra,54e <memset>
    bee2:	00001797          	auipc	a5,0x1
    bee6:	98a78793          	addi	a5,a5,-1654 # c86c <__sread>
    beea:	d05c                	sw	a5,36(s0)
    beec:	00001797          	auipc	a5,0x1
    bef0:	9ac78793          	addi	a5,a5,-1620 # c898 <__swrite>
    bef4:	d41c                	sw	a5,40(s0)
    bef6:	00001797          	auipc	a5,0x1
    befa:	9ea78793          	addi	a5,a5,-1558 # c8e0 <__sseek>
    befe:	d45c                	sw	a5,44(s0)
    bf00:	00001797          	auipc	a5,0x1
    bf04:	a1078793          	addi	a5,a5,-1520 # c910 <__sclose>
    bf08:	d000                	sw	s0,32(s0)
    bf0a:	d81c                	sw	a5,48(s0)
    bf0c:	40b2                	lw	ra,12(sp)
    bf0e:	4422                	lw	s0,8(sp)
    bf10:	0141                	addi	sp,sp,16
    bf12:	8082                	ret

0000bf14 <_cleanup_r>:
    bf14:	00000597          	auipc	a1,0x0
    bf18:	f3458593          	addi	a1,a1,-204 # be48 <_fflush_r>
    bf1c:	aa99                	j	c072 <_fwalk_reent>

0000bf1e <__sfmoreglue>:
    bf1e:	1141                	addi	sp,sp,-16
    bf20:	c226                	sw	s1,4(sp)
    bf22:	06800613          	li	a2,104
    bf26:	fff58493          	addi	s1,a1,-1
    bf2a:	02c484b3          	mul	s1,s1,a2
    bf2e:	c04a                	sw	s2,0(sp)
    bf30:	892e                	mv	s2,a1
    bf32:	c422                	sw	s0,8(sp)
    bf34:	c606                	sw	ra,12(sp)
    bf36:	07448593          	addi	a1,s1,116
    bf3a:	9ebff0ef          	jal	ra,b924 <_malloc_r>
    bf3e:	842a                	mv	s0,a0
    bf40:	cd01                	beqz	a0,bf58 <__sfmoreglue+0x3a>
    bf42:	00052023          	sw	zero,0(a0)
    bf46:	01252223          	sw	s2,4(a0)
    bf4a:	0531                	addi	a0,a0,12
    bf4c:	c408                	sw	a0,8(s0)
    bf4e:	06848613          	addi	a2,s1,104
    bf52:	4581                	li	a1,0
    bf54:	dfaf40ef          	jal	ra,54e <memset>
    bf58:	8522                	mv	a0,s0
    bf5a:	40b2                	lw	ra,12(sp)
    bf5c:	4422                	lw	s0,8(sp)
    bf5e:	4492                	lw	s1,4(sp)
    bf60:	4902                	lw	s2,0(sp)
    bf62:	0141                	addi	sp,sp,16
    bf64:	8082                	ret

0000bf66 <__sinit>:
    bf66:	4d1c                	lw	a5,24(a0)
    bf68:	e7a5                	bnez	a5,bfd0 <__sinit+0x6a>
    bf6a:	1141                	addi	sp,sp,-16
    bf6c:	c606                	sw	ra,12(sp)
    bf6e:	c422                	sw	s0,8(sp)
    bf70:	00000797          	auipc	a5,0x0
    bf74:	fa478793          	addi	a5,a5,-92 # bf14 <_cleanup_r>
    bf78:	d51c                	sw	a5,40(a0)
    bf7a:	83418793          	addi	a5,gp,-1996 # 200005b4 <_global_impure_ptr>
    bf7e:	439c                	lw	a5,0(a5)
    bf80:	04052423          	sw	zero,72(a0)
    bf84:	04052623          	sw	zero,76(a0)
    bf88:	04052823          	sw	zero,80(a0)
    bf8c:	00f51463          	bne	a0,a5,bf94 <__sinit+0x2e>
    bf90:	4785                	li	a5,1
    bf92:	cd1c                	sw	a5,24(a0)
    bf94:	842a                	mv	s0,a0
    bf96:	2835                	jal	bfd2 <__sfp>
    bf98:	c048                	sw	a0,4(s0)
    bf9a:	8522                	mv	a0,s0
    bf9c:	281d                	jal	bfd2 <__sfp>
    bf9e:	c408                	sw	a0,8(s0)
    bfa0:	8522                	mv	a0,s0
    bfa2:	2805                	jal	bfd2 <__sfp>
    bfa4:	c448                	sw	a0,12(s0)
    bfa6:	4048                	lw	a0,4(s0)
    bfa8:	4601                	li	a2,0
    bfaa:	4591                	li	a1,4
    bfac:	f03ff0ef          	jal	ra,beae <std>
    bfb0:	4408                	lw	a0,8(s0)
    bfb2:	4605                	li	a2,1
    bfb4:	45a5                	li	a1,9
    bfb6:	ef9ff0ef          	jal	ra,beae <std>
    bfba:	4448                	lw	a0,12(s0)
    bfbc:	4609                	li	a2,2
    bfbe:	45c9                	li	a1,18
    bfc0:	eefff0ef          	jal	ra,beae <std>
    bfc4:	4785                	li	a5,1
    bfc6:	cc1c                	sw	a5,24(s0)
    bfc8:	40b2                	lw	ra,12(sp)
    bfca:	4422                	lw	s0,8(sp)
    bfcc:	0141                	addi	sp,sp,16
    bfce:	8082                	ret
    bfd0:	8082                	ret

0000bfd2 <__sfp>:
    bfd2:	1141                	addi	sp,sp,-16
    bfd4:	83418793          	addi	a5,gp,-1996 # 200005b4 <_global_impure_ptr>
    bfd8:	c226                	sw	s1,4(sp)
    bfda:	4384                	lw	s1,0(a5)
    bfdc:	c04a                	sw	s2,0(sp)
    bfde:	c606                	sw	ra,12(sp)
    bfe0:	4c9c                	lw	a5,24(s1)
    bfe2:	c422                	sw	s0,8(sp)
    bfe4:	892a                	mv	s2,a0
    bfe6:	e781                	bnez	a5,bfee <__sfp+0x1c>
    bfe8:	8526                	mv	a0,s1
    bfea:	f7dff0ef          	jal	ra,bf66 <__sinit>
    bfee:	04848493          	addi	s1,s1,72
    bff2:	4480                	lw	s0,8(s1)
    bff4:	40dc                	lw	a5,4(s1)
    bff6:	17fd                	addi	a5,a5,-1
    bff8:	0007d663          	bgez	a5,c004 <__sfp+0x32>
    bffc:	409c                	lw	a5,0(s1)
    bffe:	cfb9                	beqz	a5,c05c <__sfp+0x8a>
    c000:	4084                	lw	s1,0(s1)
    c002:	bfc5                	j	bff2 <__sfp+0x20>
    c004:	00c41703          	lh	a4,12(s0)
    c008:	e739                	bnez	a4,c056 <__sfp+0x84>
    c00a:	77c1                	lui	a5,0xffff0
    c00c:	0785                	addi	a5,a5,1
    c00e:	06042223          	sw	zero,100(s0)
    c012:	00042023          	sw	zero,0(s0)
    c016:	00042223          	sw	zero,4(s0)
    c01a:	00042423          	sw	zero,8(s0)
    c01e:	c45c                	sw	a5,12(s0)
    c020:	00042823          	sw	zero,16(s0)
    c024:	00042a23          	sw	zero,20(s0)
    c028:	00042c23          	sw	zero,24(s0)
    c02c:	4621                	li	a2,8
    c02e:	4581                	li	a1,0
    c030:	05c40513          	addi	a0,s0,92
    c034:	d1af40ef          	jal	ra,54e <memset>
    c038:	02042a23          	sw	zero,52(s0)
    c03c:	02042c23          	sw	zero,56(s0)
    c040:	04042423          	sw	zero,72(s0)
    c044:	04042623          	sw	zero,76(s0)
    c048:	8522                	mv	a0,s0
    c04a:	40b2                	lw	ra,12(sp)
    c04c:	4422                	lw	s0,8(sp)
    c04e:	4492                	lw	s1,4(sp)
    c050:	4902                	lw	s2,0(sp)
    c052:	0141                	addi	sp,sp,16
    c054:	8082                	ret
    c056:	06840413          	addi	s0,s0,104
    c05a:	bf71                	j	bff6 <__sfp+0x24>
    c05c:	4591                	li	a1,4
    c05e:	854a                	mv	a0,s2
    c060:	ebfff0ef          	jal	ra,bf1e <__sfmoreglue>
    c064:	c088                	sw	a0,0(s1)
    c066:	fd49                	bnez	a0,c000 <__sfp+0x2e>
    c068:	47b1                	li	a5,12
    c06a:	00f92023          	sw	a5,0(s2)
    c06e:	4401                	li	s0,0
    c070:	bfe1                	j	c048 <__sfp+0x76>

0000c072 <_fwalk_reent>:
    c072:	7179                	addi	sp,sp,-48
    c074:	d422                	sw	s0,40(sp)
    c076:	d04a                	sw	s2,32(sp)
    c078:	cc52                	sw	s4,24(sp)
    c07a:	ca56                	sw	s5,20(sp)
    c07c:	c85a                	sw	s6,16(sp)
    c07e:	c65e                	sw	s7,12(sp)
    c080:	d606                	sw	ra,44(sp)
    c082:	d226                	sw	s1,36(sp)
    c084:	ce4e                	sw	s3,28(sp)
    c086:	8a2a                	mv	s4,a0
    c088:	8aae                	mv	s5,a1
    c08a:	04850413          	addi	s0,a0,72
    c08e:	4901                	li	s2,0
    c090:	4b05                	li	s6,1
    c092:	5bfd                	li	s7,-1
    c094:	ec09                	bnez	s0,c0ae <_fwalk_reent+0x3c>
    c096:	50b2                	lw	ra,44(sp)
    c098:	5422                	lw	s0,40(sp)
    c09a:	854a                	mv	a0,s2
    c09c:	5492                	lw	s1,36(sp)
    c09e:	5902                	lw	s2,32(sp)
    c0a0:	49f2                	lw	s3,28(sp)
    c0a2:	4a62                	lw	s4,24(sp)
    c0a4:	4ad2                	lw	s5,20(sp)
    c0a6:	4b42                	lw	s6,16(sp)
    c0a8:	4bb2                	lw	s7,12(sp)
    c0aa:	6145                	addi	sp,sp,48
    c0ac:	8082                	ret
    c0ae:	4404                	lw	s1,8(s0)
    c0b0:	00442983          	lw	s3,4(s0)
    c0b4:	19fd                	addi	s3,s3,-1
    c0b6:	0009d463          	bgez	s3,c0be <_fwalk_reent+0x4c>
    c0ba:	4000                	lw	s0,0(s0)
    c0bc:	bfe1                	j	c094 <_fwalk_reent+0x22>
    c0be:	24de                	lhu	a5,12(s1)
    c0c0:	00fb7b63          	bgeu	s6,a5,c0d6 <_fwalk_reent+0x64>
    c0c4:	00e49783          	lh	a5,14(s1)
    c0c8:	01778763          	beq	a5,s7,c0d6 <_fwalk_reent+0x64>
    c0cc:	85a6                	mv	a1,s1
    c0ce:	8552                	mv	a0,s4
    c0d0:	9a82                	jalr	s5
    c0d2:	00a96933          	or	s2,s2,a0
    c0d6:	06848493          	addi	s1,s1,104
    c0da:	bfe9                	j	c0b4 <_fwalk_reent+0x42>

0000c0dc <__swhatbuf_r>:
    c0dc:	7119                	addi	sp,sp,-128
    c0de:	daa6                	sw	s1,116(sp)
    c0e0:	84ae                	mv	s1,a1
    c0e2:	00e59583          	lh	a1,14(a1)
    c0e6:	dca2                	sw	s0,120(sp)
    c0e8:	de86                	sw	ra,124(sp)
    c0ea:	8432                	mv	s0,a2
    c0ec:	0005db63          	bgez	a1,c102 <__swhatbuf_r+0x26>
    c0f0:	24de                	lhu	a5,12(s1)
    c0f2:	0006a023          	sw	zero,0(a3)
    c0f6:	0807f793          	andi	a5,a5,128
    c0fa:	e785                	bnez	a5,c122 <__swhatbuf_r+0x46>
    c0fc:	40000793          	li	a5,1024
    c100:	a01d                	j	c126 <__swhatbuf_r+0x4a>
    c102:	0830                	addi	a2,sp,24
    c104:	c636                	sw	a3,12(sp)
    c106:	077000ef          	jal	ra,c97c <_fstat_r>
    c10a:	46b2                	lw	a3,12(sp)
    c10c:	fe0542e3          	bltz	a0,c0f0 <__swhatbuf_r+0x14>
    c110:	4772                	lw	a4,28(sp)
    c112:	67bd                	lui	a5,0xf
    c114:	8ff9                	and	a5,a5,a4
    c116:	7779                	lui	a4,0xffffe
    c118:	97ba                	add	a5,a5,a4
    c11a:	0017b793          	seqz	a5,a5
    c11e:	c29c                	sw	a5,0(a3)
    c120:	bff1                	j	c0fc <__swhatbuf_r+0x20>
    c122:	04000793          	li	a5,64
    c126:	c01c                	sw	a5,0(s0)
    c128:	50f6                	lw	ra,124(sp)
    c12a:	5466                	lw	s0,120(sp)
    c12c:	54d6                	lw	s1,116(sp)
    c12e:	4501                	li	a0,0
    c130:	6109                	addi	sp,sp,128
    c132:	8082                	ret

0000c134 <__smakebuf_r>:
    c134:	25de                	lhu	a5,12(a1)
    c136:	1101                	addi	sp,sp,-32
    c138:	cc22                	sw	s0,24(sp)
    c13a:	ce06                	sw	ra,28(sp)
    c13c:	ca26                	sw	s1,20(sp)
    c13e:	c84a                	sw	s2,16(sp)
    c140:	8b89                	andi	a5,a5,2
    c142:	842e                	mv	s0,a1
    c144:	cf89                	beqz	a5,c15e <__smakebuf_r+0x2a>
    c146:	04740793          	addi	a5,s0,71
    c14a:	c01c                	sw	a5,0(s0)
    c14c:	c81c                	sw	a5,16(s0)
    c14e:	4785                	li	a5,1
    c150:	c85c                	sw	a5,20(s0)
    c152:	40f2                	lw	ra,28(sp)
    c154:	4462                	lw	s0,24(sp)
    c156:	44d2                	lw	s1,20(sp)
    c158:	4942                	lw	s2,16(sp)
    c15a:	6105                	addi	sp,sp,32
    c15c:	8082                	ret
    c15e:	0074                	addi	a3,sp,12
    c160:	0030                	addi	a2,sp,8
    c162:	84aa                	mv	s1,a0
    c164:	f79ff0ef          	jal	ra,c0dc <__swhatbuf_r>
    c168:	45a2                	lw	a1,8(sp)
    c16a:	892a                	mv	s2,a0
    c16c:	8526                	mv	a0,s1
    c16e:	fb6ff0ef          	jal	ra,b924 <_malloc_r>
    c172:	e919                	bnez	a0,c188 <__smakebuf_r+0x54>
    c174:	00c41783          	lh	a5,12(s0)
    c178:	2007f713          	andi	a4,a5,512
    c17c:	fb79                	bnez	a4,c152 <__smakebuf_r+0x1e>
    c17e:	9bf1                	andi	a5,a5,-4
    c180:	0027e793          	ori	a5,a5,2
    c184:	a45e                	sh	a5,12(s0)
    c186:	b7c1                	j	c146 <__smakebuf_r+0x12>
    c188:	00000797          	auipc	a5,0x0
    c18c:	d8c78793          	addi	a5,a5,-628 # bf14 <_cleanup_r>
    c190:	d49c                	sw	a5,40(s1)
    c192:	245e                	lhu	a5,12(s0)
    c194:	c008                	sw	a0,0(s0)
    c196:	c808                	sw	a0,16(s0)
    c198:	0807e793          	ori	a5,a5,128
    c19c:	a45e                	sh	a5,12(s0)
    c19e:	47a2                	lw	a5,8(sp)
    c1a0:	c85c                	sw	a5,20(s0)
    c1a2:	47b2                	lw	a5,12(sp)
    c1a4:	cf81                	beqz	a5,c1bc <__smakebuf_r+0x88>
    c1a6:	00e41583          	lh	a1,14(s0)
    c1aa:	8526                	mv	a0,s1
    c1ac:	003000ef          	jal	ra,c9ae <_isatty_r>
    c1b0:	c511                	beqz	a0,c1bc <__smakebuf_r+0x88>
    c1b2:	245e                	lhu	a5,12(s0)
    c1b4:	9bf1                	andi	a5,a5,-4
    c1b6:	0017e793          	ori	a5,a5,1
    c1ba:	a45e                	sh	a5,12(s0)
    c1bc:	245e                	lhu	a5,12(s0)
    c1be:	00f96933          	or	s2,s2,a5
    c1c2:	01241623          	sh	s2,12(s0)
    c1c6:	b771                	j	c152 <__smakebuf_r+0x1e>

0000c1c8 <__malloc_lock>:
    c1c8:	8082                	ret

0000c1ca <__malloc_unlock>:
    c1ca:	8082                	ret

0000c1cc <__sfputc_r>:
    c1cc:	461c                	lw	a5,8(a2)
    c1ce:	17fd                	addi	a5,a5,-1
    c1d0:	c61c                	sw	a5,8(a2)
    c1d2:	0007da63          	bgez	a5,c1e6 <__sfputc_r+0x1a>
    c1d6:	4e18                	lw	a4,24(a2)
    c1d8:	00e7c563          	blt	a5,a4,c1e2 <__sfputc_r+0x16>
    c1dc:	47a9                	li	a5,10
    c1de:	00f59463          	bne	a1,a5,c1e6 <__sfputc_r+0x1a>
    c1e2:	97bff06f          	j	bb5c <__swbuf_r>
    c1e6:	421c                	lw	a5,0(a2)
    c1e8:	852e                	mv	a0,a1
    c1ea:	00178713          	addi	a4,a5,1
    c1ee:	c218                	sw	a4,0(a2)
    c1f0:	a38c                	sb	a1,0(a5)
    c1f2:	8082                	ret

0000c1f4 <__sfputs_r>:
    c1f4:	1101                	addi	sp,sp,-32
    c1f6:	cc22                	sw	s0,24(sp)
    c1f8:	ca26                	sw	s1,20(sp)
    c1fa:	c84a                	sw	s2,16(sp)
    c1fc:	c64e                	sw	s3,12(sp)
    c1fe:	c452                	sw	s4,8(sp)
    c200:	ce06                	sw	ra,28(sp)
    c202:	892a                	mv	s2,a0
    c204:	89ae                	mv	s3,a1
    c206:	8432                	mv	s0,a2
    c208:	00d604b3          	add	s1,a2,a3
    c20c:	5a7d                	li	s4,-1
    c20e:	00941463          	bne	s0,s1,c216 <__sfputs_r+0x22>
    c212:	4501                	li	a0,0
    c214:	a809                	j	c226 <__sfputs_r+0x32>
    c216:	200c                	lbu	a1,0(s0)
    c218:	864e                	mv	a2,s3
    c21a:	854a                	mv	a0,s2
    c21c:	fb1ff0ef          	jal	ra,c1cc <__sfputc_r>
    c220:	0405                	addi	s0,s0,1
    c222:	ff4516e3          	bne	a0,s4,c20e <__sfputs_r+0x1a>
    c226:	40f2                	lw	ra,28(sp)
    c228:	4462                	lw	s0,24(sp)
    c22a:	44d2                	lw	s1,20(sp)
    c22c:	4942                	lw	s2,16(sp)
    c22e:	49b2                	lw	s3,12(sp)
    c230:	4a22                	lw	s4,8(sp)
    c232:	6105                	addi	sp,sp,32
    c234:	8082                	ret

0000c236 <_vfiprintf_r>:
    c236:	7135                	addi	sp,sp,-160
    c238:	cd22                	sw	s0,152(sp)
    c23a:	cb26                	sw	s1,148(sp)
    c23c:	c94a                	sw	s2,144(sp)
    c23e:	c74e                	sw	s3,140(sp)
    c240:	cf06                	sw	ra,156(sp)
    c242:	c552                	sw	s4,136(sp)
    c244:	c356                	sw	s5,132(sp)
    c246:	c15a                	sw	s6,128(sp)
    c248:	dede                	sw	s7,124(sp)
    c24a:	dce2                	sw	s8,120(sp)
    c24c:	dae6                	sw	s9,116(sp)
    c24e:	89aa                	mv	s3,a0
    c250:	84ae                	mv	s1,a1
    c252:	8932                	mv	s2,a2
    c254:	8436                	mv	s0,a3
    c256:	c509                	beqz	a0,c260 <_vfiprintf_r+0x2a>
    c258:	4d1c                	lw	a5,24(a0)
    c25a:	e399                	bnez	a5,c260 <_vfiprintf_r+0x2a>
    c25c:	d0bff0ef          	jal	ra,bf66 <__sinit>
    c260:	00001797          	auipc	a5,0x1
    c264:	4bc78793          	addi	a5,a5,1212 # d71c <__sf_fake_stdin>
    c268:	0cf49863          	bne	s1,a5,c338 <_vfiprintf_r+0x102>
    c26c:	0049a483          	lw	s1,4(s3)
    c270:	24de                	lhu	a5,12(s1)
    c272:	8ba1                	andi	a5,a5,8
    c274:	c7e5                	beqz	a5,c35c <_vfiprintf_r+0x126>
    c276:	489c                	lw	a5,16(s1)
    c278:	c3f5                	beqz	a5,c35c <_vfiprintf_r+0x126>
    c27a:	02000793          	li	a5,32
    c27e:	02f104a3          	sb	a5,41(sp)
    c282:	03000793          	li	a5,48
    c286:	d202                	sw	zero,36(sp)
    c288:	02f10523          	sb	a5,42(sp)
    c28c:	c622                	sw	s0,12(sp)
    c28e:	02500b93          	li	s7,37
    c292:	00001a97          	auipc	s5,0x1
    c296:	4caa8a93          	addi	s5,s5,1226 # d75c <__sf_fake_stdout+0x20>
    c29a:	4c05                	li	s8,1
    c29c:	4b29                	li	s6,10
    c29e:	844a                	mv	s0,s2
    c2a0:	201c                	lbu	a5,0(s0)
    c2a2:	c399                	beqz	a5,c2a8 <_vfiprintf_r+0x72>
    c2a4:	0d779f63          	bne	a5,s7,c382 <_vfiprintf_r+0x14c>
    c2a8:	41240cb3          	sub	s9,s0,s2
    c2ac:	000c8e63          	beqz	s9,c2c8 <_vfiprintf_r+0x92>
    c2b0:	86e6                	mv	a3,s9
    c2b2:	864a                	mv	a2,s2
    c2b4:	85a6                	mv	a1,s1
    c2b6:	854e                	mv	a0,s3
    c2b8:	f3dff0ef          	jal	ra,c1f4 <__sfputs_r>
    c2bc:	57fd                	li	a5,-1
    c2be:	1cf50f63          	beq	a0,a5,c49c <_vfiprintf_r+0x266>
    c2c2:	5692                	lw	a3,36(sp)
    c2c4:	96e6                	add	a3,a3,s9
    c2c6:	d236                	sw	a3,36(sp)
    c2c8:	201c                	lbu	a5,0(s0)
    c2ca:	1c078963          	beqz	a5,c49c <_vfiprintf_r+0x266>
    c2ce:	57fd                	li	a5,-1
    c2d0:	00140913          	addi	s2,s0,1
    c2d4:	c802                	sw	zero,16(sp)
    c2d6:	ce02                	sw	zero,28(sp)
    c2d8:	ca3e                	sw	a5,20(sp)
    c2da:	cc02                	sw	zero,24(sp)
    c2dc:	040109a3          	sb	zero,83(sp)
    c2e0:	d482                	sw	zero,104(sp)
    c2e2:	00094583          	lbu	a1,0(s2)
    c2e6:	4615                	li	a2,5
    c2e8:	8556                	mv	a0,s5
    c2ea:	2725                	jal	ca12 <memchr>
    c2ec:	00190413          	addi	s0,s2,1
    c2f0:	47c2                	lw	a5,16(sp)
    c2f2:	e951                	bnez	a0,c386 <_vfiprintf_r+0x150>
    c2f4:	0107f713          	andi	a4,a5,16
    c2f8:	c709                	beqz	a4,c302 <_vfiprintf_r+0xcc>
    c2fa:	02000713          	li	a4,32
    c2fe:	04e109a3          	sb	a4,83(sp)
    c302:	0087f713          	andi	a4,a5,8
    c306:	c709                	beqz	a4,c310 <_vfiprintf_r+0xda>
    c308:	02b00713          	li	a4,43
    c30c:	04e109a3          	sb	a4,83(sp)
    c310:	00094683          	lbu	a3,0(s2)
    c314:	02a00713          	li	a4,42
    c318:	06e68f63          	beq	a3,a4,c396 <_vfiprintf_r+0x160>
    c31c:	47f2                	lw	a5,28(sp)
    c31e:	844a                	mv	s0,s2
    c320:	4681                	li	a3,0
    c322:	4625                	li	a2,9
    c324:	2018                	lbu	a4,0(s0)
    c326:	00140593          	addi	a1,s0,1
    c32a:	fd070713          	addi	a4,a4,-48 # ffffdfd0 <__freertos_irq_stack_top+0xdfff8fd0>
    c32e:	0ae67763          	bgeu	a2,a4,c3dc <_vfiprintf_r+0x1a6>
    c332:	cab5                	beqz	a3,c3a6 <_vfiprintf_r+0x170>
    c334:	ce3e                	sw	a5,28(sp)
    c336:	a885                	j	c3a6 <_vfiprintf_r+0x170>
    c338:	00001797          	auipc	a5,0x1
    c33c:	40478793          	addi	a5,a5,1028 # d73c <__sf_fake_stdout>
    c340:	00f49563          	bne	s1,a5,c34a <_vfiprintf_r+0x114>
    c344:	0089a483          	lw	s1,8(s3)
    c348:	b725                	j	c270 <_vfiprintf_r+0x3a>
    c34a:	00001797          	auipc	a5,0x1
    c34e:	3b278793          	addi	a5,a5,946 # d6fc <__sf_fake_stderr>
    c352:	f0f49fe3          	bne	s1,a5,c270 <_vfiprintf_r+0x3a>
    c356:	00c9a483          	lw	s1,12(s3)
    c35a:	bf19                	j	c270 <_vfiprintf_r+0x3a>
    c35c:	85a6                	mv	a1,s1
    c35e:	854e                	mv	a0,s3
    c360:	8b9ff0ef          	jal	ra,bc18 <__swsetup_r>
    c364:	d919                	beqz	a0,c27a <_vfiprintf_r+0x44>
    c366:	557d                	li	a0,-1
    c368:	40fa                	lw	ra,156(sp)
    c36a:	446a                	lw	s0,152(sp)
    c36c:	44da                	lw	s1,148(sp)
    c36e:	494a                	lw	s2,144(sp)
    c370:	49ba                	lw	s3,140(sp)
    c372:	4a2a                	lw	s4,136(sp)
    c374:	4a9a                	lw	s5,132(sp)
    c376:	4b0a                	lw	s6,128(sp)
    c378:	5bf6                	lw	s7,124(sp)
    c37a:	5c66                	lw	s8,120(sp)
    c37c:	5cd6                	lw	s9,116(sp)
    c37e:	610d                	addi	sp,sp,160
    c380:	8082                	ret
    c382:	0405                	addi	s0,s0,1
    c384:	bf31                	j	c2a0 <_vfiprintf_r+0x6a>
    c386:	41550533          	sub	a0,a0,s5
    c38a:	00ac1533          	sll	a0,s8,a0
    c38e:	8fc9                	or	a5,a5,a0
    c390:	c83e                	sw	a5,16(sp)
    c392:	8922                	mv	s2,s0
    c394:	b7b9                	j	c2e2 <_vfiprintf_r+0xac>
    c396:	4732                	lw	a4,12(sp)
    c398:	00470693          	addi	a3,a4,4
    c39c:	4318                	lw	a4,0(a4)
    c39e:	c636                	sw	a3,12(sp)
    c3a0:	02074763          	bltz	a4,c3ce <_vfiprintf_r+0x198>
    c3a4:	ce3a                	sw	a4,28(sp)
    c3a6:	2018                	lbu	a4,0(s0)
    c3a8:	02e00793          	li	a5,46
    c3ac:	04f71d63          	bne	a4,a5,c406 <_vfiprintf_r+0x1d0>
    c3b0:	3018                	lbu	a4,1(s0)
    c3b2:	02a00793          	li	a5,42
    c3b6:	02f71b63          	bne	a4,a5,c3ec <_vfiprintf_r+0x1b6>
    c3ba:	47b2                	lw	a5,12(sp)
    c3bc:	0409                	addi	s0,s0,2
    c3be:	00478713          	addi	a4,a5,4
    c3c2:	439c                	lw	a5,0(a5)
    c3c4:	c63a                	sw	a4,12(sp)
    c3c6:	0207c163          	bltz	a5,c3e8 <_vfiprintf_r+0x1b2>
    c3ca:	ca3e                	sw	a5,20(sp)
    c3cc:	a82d                	j	c406 <_vfiprintf_r+0x1d0>
    c3ce:	40e00733          	neg	a4,a4
    c3d2:	0027e793          	ori	a5,a5,2
    c3d6:	ce3a                	sw	a4,28(sp)
    c3d8:	c83e                	sw	a5,16(sp)
    c3da:	b7f1                	j	c3a6 <_vfiprintf_r+0x170>
    c3dc:	036787b3          	mul	a5,a5,s6
    c3e0:	4685                	li	a3,1
    c3e2:	842e                	mv	s0,a1
    c3e4:	97ba                	add	a5,a5,a4
    c3e6:	bf3d                	j	c324 <_vfiprintf_r+0xee>
    c3e8:	57fd                	li	a5,-1
    c3ea:	b7c5                	j	c3ca <_vfiprintf_r+0x194>
    c3ec:	0405                	addi	s0,s0,1
    c3ee:	ca02                	sw	zero,20(sp)
    c3f0:	4681                	li	a3,0
    c3f2:	4781                	li	a5,0
    c3f4:	4625                	li	a2,9
    c3f6:	2018                	lbu	a4,0(s0)
    c3f8:	00140593          	addi	a1,s0,1
    c3fc:	fd070713          	addi	a4,a4,-48
    c400:	06e67463          	bgeu	a2,a4,c468 <_vfiprintf_r+0x232>
    c404:	f2f9                	bnez	a3,c3ca <_vfiprintf_r+0x194>
    c406:	200c                	lbu	a1,0(s0)
    c408:	460d                	li	a2,3
    c40a:	00001517          	auipc	a0,0x1
    c40e:	35a50513          	addi	a0,a0,858 # d764 <__sf_fake_stdout+0x28>
    c412:	2501                	jal	ca12 <memchr>
    c414:	cd11                	beqz	a0,c430 <_vfiprintf_r+0x1fa>
    c416:	00001797          	auipc	a5,0x1
    c41a:	34e78793          	addi	a5,a5,846 # d764 <__sf_fake_stdout+0x28>
    c41e:	8d1d                	sub	a0,a0,a5
    c420:	04000793          	li	a5,64
    c424:	00a797b3          	sll	a5,a5,a0
    c428:	4542                	lw	a0,16(sp)
    c42a:	0405                	addi	s0,s0,1
    c42c:	8d5d                	or	a0,a0,a5
    c42e:	c82a                	sw	a0,16(sp)
    c430:	200c                	lbu	a1,0(s0)
    c432:	4619                	li	a2,6
    c434:	00001517          	auipc	a0,0x1
    c438:	33450513          	addi	a0,a0,820 # d768 <__sf_fake_stdout+0x2c>
    c43c:	00140913          	addi	s2,s0,1
    c440:	02b10423          	sb	a1,40(sp)
    c444:	23f9                	jal	ca12 <memchr>
    c446:	c135                	beqz	a0,c4aa <_vfiprintf_r+0x274>
    c448:	ffff4797          	auipc	a5,0xffff4
    c44c:	bb878793          	addi	a5,a5,-1096 # 0 <_sinit>
    c450:	e795                	bnez	a5,c47c <_vfiprintf_r+0x246>
    c452:	4742                	lw	a4,16(sp)
    c454:	47b2                	lw	a5,12(sp)
    c456:	10077713          	andi	a4,a4,256
    c45a:	cf09                	beqz	a4,c474 <_vfiprintf_r+0x23e>
    c45c:	0791                	addi	a5,a5,4
    c45e:	c63e                	sw	a5,12(sp)
    c460:	5792                	lw	a5,36(sp)
    c462:	97d2                	add	a5,a5,s4
    c464:	d23e                	sw	a5,36(sp)
    c466:	bd25                	j	c29e <_vfiprintf_r+0x68>
    c468:	036787b3          	mul	a5,a5,s6
    c46c:	4685                	li	a3,1
    c46e:	842e                	mv	s0,a1
    c470:	97ba                	add	a5,a5,a4
    c472:	b751                	j	c3f6 <_vfiprintf_r+0x1c0>
    c474:	079d                	addi	a5,a5,7
    c476:	9be1                	andi	a5,a5,-8
    c478:	07a1                	addi	a5,a5,8
    c47a:	b7d5                	j	c45e <_vfiprintf_r+0x228>
    c47c:	0078                	addi	a4,sp,12
    c47e:	00000697          	auipc	a3,0x0
    c482:	d7668693          	addi	a3,a3,-650 # c1f4 <__sfputs_r>
    c486:	8626                	mv	a2,s1
    c488:	080c                	addi	a1,sp,16
    c48a:	854e                	mv	a0,s3
    c48c:	00000097          	auipc	ra,0x0
    c490:	000000e7          	jalr	zero # 0 <_sinit>
    c494:	57fd                	li	a5,-1
    c496:	8a2a                	mv	s4,a0
    c498:	fcf514e3          	bne	a0,a5,c460 <_vfiprintf_r+0x22a>
    c49c:	24de                	lhu	a5,12(s1)
    c49e:	0407f793          	andi	a5,a5,64
    c4a2:	ec0792e3          	bnez	a5,c366 <_vfiprintf_r+0x130>
    c4a6:	5512                	lw	a0,36(sp)
    c4a8:	b5c1                	j	c368 <_vfiprintf_r+0x132>
    c4aa:	0078                	addi	a4,sp,12
    c4ac:	00000697          	auipc	a3,0x0
    c4b0:	d4868693          	addi	a3,a3,-696 # c1f4 <__sfputs_r>
    c4b4:	8626                	mv	a2,s1
    c4b6:	080c                	addi	a1,sp,16
    c4b8:	854e                	mv	a0,s3
    c4ba:	2a01                	jal	c5ca <_printf_i>
    c4bc:	bfe1                	j	c494 <_vfiprintf_r+0x25e>

0000c4be <_printf_common>:
    c4be:	7179                	addi	sp,sp,-48
    c4c0:	ca56                	sw	s5,20(sp)
    c4c2:	499c                	lw	a5,16(a1)
    c4c4:	8aba                	mv	s5,a4
    c4c6:	4598                	lw	a4,8(a1)
    c4c8:	d422                	sw	s0,40(sp)
    c4ca:	d226                	sw	s1,36(sp)
    c4cc:	ce4e                	sw	s3,28(sp)
    c4ce:	cc52                	sw	s4,24(sp)
    c4d0:	d606                	sw	ra,44(sp)
    c4d2:	d04a                	sw	s2,32(sp)
    c4d4:	c85a                	sw	s6,16(sp)
    c4d6:	c65e                	sw	s7,12(sp)
    c4d8:	89aa                	mv	s3,a0
    c4da:	842e                	mv	s0,a1
    c4dc:	84b2                	mv	s1,a2
    c4de:	8a36                	mv	s4,a3
    c4e0:	00e7d363          	bge	a5,a4,c4e6 <_printf_common+0x28>
    c4e4:	87ba                	mv	a5,a4
    c4e6:	c09c                	sw	a5,0(s1)
    c4e8:	04344703          	lbu	a4,67(s0)
    c4ec:	c319                	beqz	a4,c4f2 <_printf_common+0x34>
    c4ee:	0785                	addi	a5,a5,1
    c4f0:	c09c                	sw	a5,0(s1)
    c4f2:	401c                	lw	a5,0(s0)
    c4f4:	0207f793          	andi	a5,a5,32
    c4f8:	c781                	beqz	a5,c500 <_printf_common+0x42>
    c4fa:	409c                	lw	a5,0(s1)
    c4fc:	0789                	addi	a5,a5,2
    c4fe:	c09c                	sw	a5,0(s1)
    c500:	00042903          	lw	s2,0(s0)
    c504:	00697913          	andi	s2,s2,6
    c508:	00091a63          	bnez	s2,c51c <_printf_common+0x5e>
    c50c:	01940b13          	addi	s6,s0,25
    c510:	5bfd                	li	s7,-1
    c512:	445c                	lw	a5,12(s0)
    c514:	4098                	lw	a4,0(s1)
    c516:	8f99                	sub	a5,a5,a4
    c518:	04f94c63          	blt	s2,a5,c570 <_printf_common+0xb2>
    c51c:	401c                	lw	a5,0(s0)
    c51e:	04344683          	lbu	a3,67(s0)
    c522:	0207f793          	andi	a5,a5,32
    c526:	00d036b3          	snez	a3,a3
    c52a:	eba5                	bnez	a5,c59a <_printf_common+0xdc>
    c52c:	04340613          	addi	a2,s0,67
    c530:	85d2                	mv	a1,s4
    c532:	854e                	mv	a0,s3
    c534:	9a82                	jalr	s5
    c536:	57fd                	li	a5,-1
    c538:	04f50363          	beq	a0,a5,c57e <_printf_common+0xc0>
    c53c:	401c                	lw	a5,0(s0)
    c53e:	4611                	li	a2,4
    c540:	4098                	lw	a4,0(s1)
    c542:	8b99                	andi	a5,a5,6
    c544:	4454                	lw	a3,12(s0)
    c546:	4481                	li	s1,0
    c548:	00c79763          	bne	a5,a2,c556 <_printf_common+0x98>
    c54c:	40e684b3          	sub	s1,a3,a4
    c550:	0004d363          	bgez	s1,c556 <_printf_common+0x98>
    c554:	4481                	li	s1,0
    c556:	441c                	lw	a5,8(s0)
    c558:	4818                	lw	a4,16(s0)
    c55a:	00f75463          	bge	a4,a5,c562 <_printf_common+0xa4>
    c55e:	8f99                	sub	a5,a5,a4
    c560:	94be                	add	s1,s1,a5
    c562:	4901                	li	s2,0
    c564:	0469                	addi	s0,s0,26
    c566:	5b7d                	li	s6,-1
    c568:	05249863          	bne	s1,s2,c5b8 <_printf_common+0xfa>
    c56c:	4501                	li	a0,0
    c56e:	a809                	j	c580 <_printf_common+0xc2>
    c570:	4685                	li	a3,1
    c572:	865a                	mv	a2,s6
    c574:	85d2                	mv	a1,s4
    c576:	854e                	mv	a0,s3
    c578:	9a82                	jalr	s5
    c57a:	01751e63          	bne	a0,s7,c596 <_printf_common+0xd8>
    c57e:	557d                	li	a0,-1
    c580:	50b2                	lw	ra,44(sp)
    c582:	5422                	lw	s0,40(sp)
    c584:	5492                	lw	s1,36(sp)
    c586:	5902                	lw	s2,32(sp)
    c588:	49f2                	lw	s3,28(sp)
    c58a:	4a62                	lw	s4,24(sp)
    c58c:	4ad2                	lw	s5,20(sp)
    c58e:	4b42                	lw	s6,16(sp)
    c590:	4bb2                	lw	s7,12(sp)
    c592:	6145                	addi	sp,sp,48
    c594:	8082                	ret
    c596:	0905                	addi	s2,s2,1
    c598:	bfad                	j	c512 <_printf_common+0x54>
    c59a:	00d40733          	add	a4,s0,a3
    c59e:	03000613          	li	a2,48
    c5a2:	04c701a3          	sb	a2,67(a4)
    c5a6:	04544703          	lbu	a4,69(s0)
    c5aa:	00168793          	addi	a5,a3,1
    c5ae:	97a2                	add	a5,a5,s0
    c5b0:	0689                	addi	a3,a3,2
    c5b2:	04e781a3          	sb	a4,67(a5)
    c5b6:	bf9d                	j	c52c <_printf_common+0x6e>
    c5b8:	4685                	li	a3,1
    c5ba:	8622                	mv	a2,s0
    c5bc:	85d2                	mv	a1,s4
    c5be:	854e                	mv	a0,s3
    c5c0:	9a82                	jalr	s5
    c5c2:	fb650ee3          	beq	a0,s6,c57e <_printf_common+0xc0>
    c5c6:	0905                	addi	s2,s2,1
    c5c8:	b745                	j	c568 <_printf_common+0xaa>

0000c5ca <_printf_i>:
    c5ca:	7179                	addi	sp,sp,-48
    c5cc:	d422                	sw	s0,40(sp)
    c5ce:	d226                	sw	s1,36(sp)
    c5d0:	d04a                	sw	s2,32(sp)
    c5d2:	ce4e                	sw	s3,28(sp)
    c5d4:	d606                	sw	ra,44(sp)
    c5d6:	cc52                	sw	s4,24(sp)
    c5d8:	ca56                	sw	s5,20(sp)
    c5da:	c85a                	sw	s6,16(sp)
    c5dc:	89b6                	mv	s3,a3
    c5de:	2d94                	lbu	a3,24(a1)
    c5e0:	06900793          	li	a5,105
    c5e4:	8932                	mv	s2,a2
    c5e6:	84aa                	mv	s1,a0
    c5e8:	842e                	mv	s0,a1
    c5ea:	04358613          	addi	a2,a1,67
    c5ee:	02f68d63          	beq	a3,a5,c628 <_printf_i+0x5e>
    c5f2:	06d7e263          	bltu	a5,a3,c656 <_printf_i+0x8c>
    c5f6:	05800793          	li	a5,88
    c5fa:	18f68663          	beq	a3,a5,c786 <_printf_i+0x1bc>
    c5fe:	00d7ed63          	bltu	a5,a3,c618 <_printf_i+0x4e>
    c602:	20068e63          	beqz	a3,c81e <_printf_i+0x254>
    c606:	04300793          	li	a5,67
    c60a:	0af68e63          	beq	a3,a5,c6c6 <_printf_i+0xfc>
    c60e:	04240a93          	addi	s5,s0,66
    c612:	04d40123          	sb	a3,66(s0)
    c616:	a0c9                	j	c6d8 <_printf_i+0x10e>
    c618:	06300793          	li	a5,99
    c61c:	0af68563          	beq	a3,a5,c6c6 <_printf_i+0xfc>
    c620:	06400793          	li	a5,100
    c624:	fef695e3          	bne	a3,a5,c60e <_printf_i+0x44>
    c628:	401c                	lw	a5,0(s0)
    c62a:	4308                	lw	a0,0(a4)
    c62c:	0807f693          	andi	a3,a5,128
    c630:	00450593          	addi	a1,a0,4
    c634:	c6c5                	beqz	a3,c6dc <_printf_i+0x112>
    c636:	411c                	lw	a5,0(a0)
    c638:	c30c                	sw	a1,0(a4)
    c63a:	0007d863          	bgez	a5,c64a <_printf_i+0x80>
    c63e:	02d00713          	li	a4,45
    c642:	40f007b3          	neg	a5,a5
    c646:	04e401a3          	sb	a4,67(s0)
    c64a:	00001697          	auipc	a3,0x1
    c64e:	12668693          	addi	a3,a3,294 # d770 <__sf_fake_stdout+0x34>
    c652:	4729                	li	a4,10
    c654:	a865                	j	c70c <_printf_i+0x142>
    c656:	07000793          	li	a5,112
    c65a:	16f68263          	beq	a3,a5,c7be <_printf_i+0x1f4>
    c65e:	02d7e563          	bltu	a5,a3,c688 <_printf_i+0xbe>
    c662:	06e00793          	li	a5,110
    c666:	18f68963          	beq	a3,a5,c7f8 <_printf_i+0x22e>
    c66a:	06f00793          	li	a5,111
    c66e:	faf690e3          	bne	a3,a5,c60e <_printf_i+0x44>
    c672:	400c                	lw	a1,0(s0)
    c674:	431c                	lw	a5,0(a4)
    c676:	0805f813          	andi	a6,a1,128
    c67a:	00478513          	addi	a0,a5,4
    c67e:	06080763          	beqz	a6,c6ec <_printf_i+0x122>
    c682:	c308                	sw	a0,0(a4)
    c684:	439c                	lw	a5,0(a5)
    c686:	a885                	j	c6f6 <_printf_i+0x12c>
    c688:	07500793          	li	a5,117
    c68c:	fef683e3          	beq	a3,a5,c672 <_printf_i+0xa8>
    c690:	07800793          	li	a5,120
    c694:	12f68963          	beq	a3,a5,c7c6 <_printf_i+0x1fc>
    c698:	07300793          	li	a5,115
    c69c:	f6f699e3          	bne	a3,a5,c60e <_printf_i+0x44>
    c6a0:	431c                	lw	a5,0(a4)
    c6a2:	41d0                	lw	a2,4(a1)
    c6a4:	4581                	li	a1,0
    c6a6:	00478693          	addi	a3,a5,4
    c6aa:	c314                	sw	a3,0(a4)
    c6ac:	0007aa83          	lw	s5,0(a5)
    c6b0:	8556                	mv	a0,s5
    c6b2:	2685                	jal	ca12 <memchr>
    c6b4:	c501                	beqz	a0,c6bc <_printf_i+0xf2>
    c6b6:	41550533          	sub	a0,a0,s5
    c6ba:	c048                	sw	a0,4(s0)
    c6bc:	405c                	lw	a5,4(s0)
    c6be:	c81c                	sw	a5,16(s0)
    c6c0:	040401a3          	sb	zero,67(s0)
    c6c4:	a861                	j	c75c <_printf_i+0x192>
    c6c6:	431c                	lw	a5,0(a4)
    c6c8:	04240a93          	addi	s5,s0,66
    c6cc:	00478693          	addi	a3,a5,4
    c6d0:	439c                	lw	a5,0(a5)
    c6d2:	c314                	sw	a3,0(a4)
    c6d4:	04f40123          	sb	a5,66(s0)
    c6d8:	4785                	li	a5,1
    c6da:	b7d5                	j	c6be <_printf_i+0xf4>
    c6dc:	0407f693          	andi	a3,a5,64
    c6e0:	411c                	lw	a5,0(a0)
    c6e2:	c30c                	sw	a1,0(a4)
    c6e4:	dab9                	beqz	a3,c63a <_printf_i+0x70>
    c6e6:	07c2                	slli	a5,a5,0x10
    c6e8:	87c1                	srai	a5,a5,0x10
    c6ea:	bf81                	j	c63a <_printf_i+0x70>
    c6ec:	0405f593          	andi	a1,a1,64
    c6f0:	c308                	sw	a0,0(a4)
    c6f2:	d9c9                	beqz	a1,c684 <_printf_i+0xba>
    c6f4:	239e                	lhu	a5,0(a5)
    c6f6:	06f00713          	li	a4,111
    c6fa:	0ee68763          	beq	a3,a4,c7e8 <_printf_i+0x21e>
    c6fe:	00001697          	auipc	a3,0x1
    c702:	07268693          	addi	a3,a3,114 # d770 <__sf_fake_stdout+0x34>
    c706:	4729                	li	a4,10
    c708:	040401a3          	sb	zero,67(s0)
    c70c:	404c                	lw	a1,4(s0)
    c70e:	c40c                	sw	a1,8(s0)
    c710:	0005c563          	bltz	a1,c71a <_printf_i+0x150>
    c714:	4008                	lw	a0,0(s0)
    c716:	996d                	andi	a0,a0,-5
    c718:	c008                	sw	a0,0(s0)
    c71a:	e399                	bnez	a5,c720 <_printf_i+0x156>
    c71c:	8ab2                	mv	s5,a2
    c71e:	cd89                	beqz	a1,c738 <_printf_i+0x16e>
    c720:	8ab2                	mv	s5,a2
    c722:	02e7f5b3          	remu	a1,a5,a4
    c726:	1afd                	addi	s5,s5,-1
    c728:	95b6                	add	a1,a1,a3
    c72a:	218c                	lbu	a1,0(a1)
    c72c:	00ba8023          	sb	a1,0(s5)
    c730:	02e7d5b3          	divu	a1,a5,a4
    c734:	0ce7f063          	bgeu	a5,a4,c7f4 <_printf_i+0x22a>
    c738:	47a1                	li	a5,8
    c73a:	00f71e63          	bne	a4,a5,c756 <_printf_i+0x18c>
    c73e:	401c                	lw	a5,0(s0)
    c740:	8b85                	andi	a5,a5,1
    c742:	cb91                	beqz	a5,c756 <_printf_i+0x18c>
    c744:	4058                	lw	a4,4(s0)
    c746:	481c                	lw	a5,16(s0)
    c748:	00e7c763          	blt	a5,a4,c756 <_printf_i+0x18c>
    c74c:	03000793          	li	a5,48
    c750:	fefa8fa3          	sb	a5,-1(s5)
    c754:	1afd                	addi	s5,s5,-1
    c756:	41560633          	sub	a2,a2,s5
    c75a:	c810                	sw	a2,16(s0)
    c75c:	874e                	mv	a4,s3
    c75e:	86ca                	mv	a3,s2
    c760:	0070                	addi	a2,sp,12
    c762:	85a2                	mv	a1,s0
    c764:	8526                	mv	a0,s1
    c766:	d59ff0ef          	jal	ra,c4be <_printf_common>
    c76a:	5a7d                	li	s4,-1
    c76c:	0b451d63          	bne	a0,s4,c826 <_printf_i+0x25c>
    c770:	557d                	li	a0,-1
    c772:	50b2                	lw	ra,44(sp)
    c774:	5422                	lw	s0,40(sp)
    c776:	5492                	lw	s1,36(sp)
    c778:	5902                	lw	s2,32(sp)
    c77a:	49f2                	lw	s3,28(sp)
    c77c:	4a62                	lw	s4,24(sp)
    c77e:	4ad2                	lw	s5,20(sp)
    c780:	4b42                	lw	s6,16(sp)
    c782:	6145                	addi	sp,sp,48
    c784:	8082                	ret
    c786:	04d582a3          	sb	a3,69(a1)
    c78a:	00001697          	auipc	a3,0x1
    c78e:	fe668693          	addi	a3,a3,-26 # d770 <__sf_fake_stdout+0x34>
    c792:	400c                	lw	a1,0(s0)
    c794:	4308                	lw	a0,0(a4)
    c796:	0805f813          	andi	a6,a1,128
    c79a:	411c                	lw	a5,0(a0)
    c79c:	0511                	addi	a0,a0,4
    c79e:	02080d63          	beqz	a6,c7d8 <_printf_i+0x20e>
    c7a2:	c308                	sw	a0,0(a4)
    c7a4:	0015f713          	andi	a4,a1,1
    c7a8:	c701                	beqz	a4,c7b0 <_printf_i+0x1e6>
    c7aa:	0205e593          	ori	a1,a1,32
    c7ae:	c00c                	sw	a1,0(s0)
    c7b0:	4741                	li	a4,16
    c7b2:	fbb9                	bnez	a5,c708 <_printf_i+0x13e>
    c7b4:	400c                	lw	a1,0(s0)
    c7b6:	fdf5f593          	andi	a1,a1,-33
    c7ba:	c00c                	sw	a1,0(s0)
    c7bc:	b7b1                	j	c708 <_printf_i+0x13e>
    c7be:	419c                	lw	a5,0(a1)
    c7c0:	0207e793          	ori	a5,a5,32
    c7c4:	c19c                	sw	a5,0(a1)
    c7c6:	07800793          	li	a5,120
    c7ca:	04f402a3          	sb	a5,69(s0)
    c7ce:	00001697          	auipc	a3,0x1
    c7d2:	fb668693          	addi	a3,a3,-74 # d784 <__sf_fake_stdout+0x48>
    c7d6:	bf75                	j	c792 <_printf_i+0x1c8>
    c7d8:	0405f813          	andi	a6,a1,64
    c7dc:	c308                	sw	a0,0(a4)
    c7de:	fc0803e3          	beqz	a6,c7a4 <_printf_i+0x1da>
    c7e2:	07c2                	slli	a5,a5,0x10
    c7e4:	83c1                	srli	a5,a5,0x10
    c7e6:	bf7d                	j	c7a4 <_printf_i+0x1da>
    c7e8:	00001697          	auipc	a3,0x1
    c7ec:	f8868693          	addi	a3,a3,-120 # d770 <__sf_fake_stdout+0x34>
    c7f0:	4721                	li	a4,8
    c7f2:	bf19                	j	c708 <_printf_i+0x13e>
    c7f4:	87ae                	mv	a5,a1
    c7f6:	b735                	j	c722 <_printf_i+0x158>
    c7f8:	4194                	lw	a3,0(a1)
    c7fa:	431c                	lw	a5,0(a4)
    c7fc:	49cc                	lw	a1,20(a1)
    c7fe:	0806f813          	andi	a6,a3,128
    c802:	00478513          	addi	a0,a5,4
    c806:	00080663          	beqz	a6,c812 <_printf_i+0x248>
    c80a:	c308                	sw	a0,0(a4)
    c80c:	439c                	lw	a5,0(a5)
    c80e:	c38c                	sw	a1,0(a5)
    c810:	a039                	j	c81e <_printf_i+0x254>
    c812:	c308                	sw	a0,0(a4)
    c814:	0406f693          	andi	a3,a3,64
    c818:	439c                	lw	a5,0(a5)
    c81a:	daf5                	beqz	a3,c80e <_printf_i+0x244>
    c81c:	a38e                	sh	a1,0(a5)
    c81e:	00042823          	sw	zero,16(s0)
    c822:	8ab2                	mv	s5,a2
    c824:	bf25                	j	c75c <_printf_i+0x192>
    c826:	4814                	lw	a3,16(s0)
    c828:	8656                	mv	a2,s5
    c82a:	85ca                	mv	a1,s2
    c82c:	8526                	mv	a0,s1
    c82e:	9982                	jalr	s3
    c830:	f54500e3          	beq	a0,s4,c770 <_printf_i+0x1a6>
    c834:	401c                	lw	a5,0(s0)
    c836:	8b89                	andi	a5,a5,2
    c838:	e78d                	bnez	a5,c862 <_printf_i+0x298>
    c83a:	47b2                	lw	a5,12(sp)
    c83c:	4448                	lw	a0,12(s0)
    c83e:	f2f55ae3          	bge	a0,a5,c772 <_printf_i+0x1a8>
    c842:	853e                	mv	a0,a5
    c844:	b73d                	j	c772 <_printf_i+0x1a8>
    c846:	4685                	li	a3,1
    c848:	8656                	mv	a2,s5
    c84a:	85ca                	mv	a1,s2
    c84c:	8526                	mv	a0,s1
    c84e:	9982                	jalr	s3
    c850:	f36500e3          	beq	a0,s6,c770 <_printf_i+0x1a6>
    c854:	0a05                	addi	s4,s4,1
    c856:	445c                	lw	a5,12(s0)
    c858:	4732                	lw	a4,12(sp)
    c85a:	8f99                	sub	a5,a5,a4
    c85c:	fefa45e3          	blt	s4,a5,c846 <_printf_i+0x27c>
    c860:	bfe9                	j	c83a <_printf_i+0x270>
    c862:	4a01                	li	s4,0
    c864:	01940a93          	addi	s5,s0,25
    c868:	5b7d                	li	s6,-1
    c86a:	b7f5                	j	c856 <_printf_i+0x28c>

0000c86c <__sread>:
    c86c:	1141                	addi	sp,sp,-16
    c86e:	c422                	sw	s0,8(sp)
    c870:	842e                	mv	s0,a1
    c872:	00e59583          	lh	a1,14(a1)
    c876:	c606                	sw	ra,12(sp)
    c878:	2a4d                	jal	ca2a <_read_r>
    c87a:	00054963          	bltz	a0,c88c <__sread+0x20>
    c87e:	487c                	lw	a5,84(s0)
    c880:	97aa                	add	a5,a5,a0
    c882:	c87c                	sw	a5,84(s0)
    c884:	40b2                	lw	ra,12(sp)
    c886:	4422                	lw	s0,8(sp)
    c888:	0141                	addi	sp,sp,16
    c88a:	8082                	ret
    c88c:	245e                	lhu	a5,12(s0)
    c88e:	777d                	lui	a4,0xfffff
    c890:	177d                	addi	a4,a4,-1
    c892:	8ff9                	and	a5,a5,a4
    c894:	a45e                	sh	a5,12(s0)
    c896:	b7fd                	j	c884 <__sread+0x18>

0000c898 <__swrite>:
    c898:	25de                	lhu	a5,12(a1)
    c89a:	1101                	addi	sp,sp,-32
    c89c:	cc22                	sw	s0,24(sp)
    c89e:	ca26                	sw	s1,20(sp)
    c8a0:	c84a                	sw	s2,16(sp)
    c8a2:	c64e                	sw	s3,12(sp)
    c8a4:	ce06                	sw	ra,28(sp)
    c8a6:	1007f793          	andi	a5,a5,256
    c8aa:	84aa                	mv	s1,a0
    c8ac:	842e                	mv	s0,a1
    c8ae:	8932                	mv	s2,a2
    c8b0:	89b6                	mv	s3,a3
    c8b2:	c791                	beqz	a5,c8be <__swrite+0x26>
    c8b4:	00e59583          	lh	a1,14(a1)
    c8b8:	4689                	li	a3,2
    c8ba:	4601                	li	a2,0
    c8bc:	220d                	jal	c9de <_lseek_r>
    c8be:	245e                	lhu	a5,12(s0)
    c8c0:	777d                	lui	a4,0xfffff
    c8c2:	177d                	addi	a4,a4,-1
    c8c4:	8ff9                	and	a5,a5,a4
    c8c6:	a45e                	sh	a5,12(s0)
    c8c8:	00e41583          	lh	a1,14(s0)
    c8cc:	4462                	lw	s0,24(sp)
    c8ce:	40f2                	lw	ra,28(sp)
    c8d0:	86ce                	mv	a3,s3
    c8d2:	864a                	mv	a2,s2
    c8d4:	49b2                	lw	s3,12(sp)
    c8d6:	4942                	lw	s2,16(sp)
    c8d8:	8526                	mv	a0,s1
    c8da:	44d2                	lw	s1,20(sp)
    c8dc:	6105                	addi	sp,sp,32
    c8de:	a825                	j	c916 <_write_r>

0000c8e0 <__sseek>:
    c8e0:	1141                	addi	sp,sp,-16
    c8e2:	c422                	sw	s0,8(sp)
    c8e4:	842e                	mv	s0,a1
    c8e6:	00e59583          	lh	a1,14(a1)
    c8ea:	c606                	sw	ra,12(sp)
    c8ec:	28cd                	jal	c9de <_lseek_r>
    c8ee:	57fd                	li	a5,-1
    c8f0:	245a                	lhu	a4,12(s0)
    c8f2:	00f51a63          	bne	a0,a5,c906 <__sseek+0x26>
    c8f6:	77fd                	lui	a5,0xfffff
    c8f8:	17fd                	addi	a5,a5,-1
    c8fa:	8ff9                	and	a5,a5,a4
    c8fc:	a45e                	sh	a5,12(s0)
    c8fe:	40b2                	lw	ra,12(sp)
    c900:	4422                	lw	s0,8(sp)
    c902:	0141                	addi	sp,sp,16
    c904:	8082                	ret
    c906:	6785                	lui	a5,0x1
    c908:	8fd9                	or	a5,a5,a4
    c90a:	a45e                	sh	a5,12(s0)
    c90c:	c868                	sw	a0,84(s0)
    c90e:	bfc5                	j	c8fe <__sseek+0x1e>

0000c910 <__sclose>:
    c910:	00e59583          	lh	a1,14(a1)
    c914:	a825                	j	c94c <_close_r>

0000c916 <_write_r>:
    c916:	1141                	addi	sp,sp,-16
    c918:	c422                	sw	s0,8(sp)
    c91a:	842a                	mv	s0,a0
    c91c:	852e                	mv	a0,a1
    c91e:	85b2                	mv	a1,a2
    c920:	8636                	mv	a2,a3
    c922:	1fff7797          	auipc	a5,0x1fff7
    c926:	8c07ad23          	sw	zero,-1830(a5) # 200031fc <errno>
    c92a:	c606                	sw	ra,12(sp)
    c92c:	ecefb0ef          	jal	ra,7ffa <_write>
    c930:	57fd                	li	a5,-1
    c932:	00f51963          	bne	a0,a5,c944 <_write_r+0x2e>
    c936:	1fff7797          	auipc	a5,0x1fff7
    c93a:	8c678793          	addi	a5,a5,-1850 # 200031fc <errno>
    c93e:	439c                	lw	a5,0(a5)
    c940:	c391                	beqz	a5,c944 <_write_r+0x2e>
    c942:	c01c                	sw	a5,0(s0)
    c944:	40b2                	lw	ra,12(sp)
    c946:	4422                	lw	s0,8(sp)
    c948:	0141                	addi	sp,sp,16
    c94a:	8082                	ret

0000c94c <_close_r>:
    c94c:	1141                	addi	sp,sp,-16
    c94e:	c422                	sw	s0,8(sp)
    c950:	842a                	mv	s0,a0
    c952:	852e                	mv	a0,a1
    c954:	1fff7797          	auipc	a5,0x1fff7
    c958:	8a07a423          	sw	zero,-1880(a5) # 200031fc <errno>
    c95c:	c606                	sw	ra,12(sp)
    c95e:	2201                	jal	ca5e <_close>
    c960:	57fd                	li	a5,-1
    c962:	00f51963          	bne	a0,a5,c974 <_close_r+0x28>
    c966:	1fff7797          	auipc	a5,0x1fff7
    c96a:	89678793          	addi	a5,a5,-1898 # 200031fc <errno>
    c96e:	439c                	lw	a5,0(a5)
    c970:	c391                	beqz	a5,c974 <_close_r+0x28>
    c972:	c01c                	sw	a5,0(s0)
    c974:	40b2                	lw	ra,12(sp)
    c976:	4422                	lw	s0,8(sp)
    c978:	0141                	addi	sp,sp,16
    c97a:	8082                	ret

0000c97c <_fstat_r>:
    c97c:	1141                	addi	sp,sp,-16
    c97e:	c422                	sw	s0,8(sp)
    c980:	842a                	mv	s0,a0
    c982:	852e                	mv	a0,a1
    c984:	85b2                	mv	a1,a2
    c986:	1fff7797          	auipc	a5,0x1fff7
    c98a:	8607ab23          	sw	zero,-1930(a5) # 200031fc <errno>
    c98e:	c606                	sw	ra,12(sp)
    c990:	28f9                	jal	ca6e <_fstat>
    c992:	57fd                	li	a5,-1
    c994:	00f51963          	bne	a0,a5,c9a6 <_fstat_r+0x2a>
    c998:	1fff7797          	auipc	a5,0x1fff7
    c99c:	86478793          	addi	a5,a5,-1948 # 200031fc <errno>
    c9a0:	439c                	lw	a5,0(a5)
    c9a2:	c391                	beqz	a5,c9a6 <_fstat_r+0x2a>
    c9a4:	c01c                	sw	a5,0(s0)
    c9a6:	40b2                	lw	ra,12(sp)
    c9a8:	4422                	lw	s0,8(sp)
    c9aa:	0141                	addi	sp,sp,16
    c9ac:	8082                	ret

0000c9ae <_isatty_r>:
    c9ae:	1141                	addi	sp,sp,-16
    c9b0:	c422                	sw	s0,8(sp)
    c9b2:	842a                	mv	s0,a0
    c9b4:	852e                	mv	a0,a1
    c9b6:	1fff7797          	auipc	a5,0x1fff7
    c9ba:	8407a323          	sw	zero,-1978(a5) # 200031fc <errno>
    c9be:	c606                	sw	ra,12(sp)
    c9c0:	287d                	jal	ca7e <_isatty>
    c9c2:	57fd                	li	a5,-1
    c9c4:	00f51963          	bne	a0,a5,c9d6 <_isatty_r+0x28>
    c9c8:	1fff7797          	auipc	a5,0x1fff7
    c9cc:	83478793          	addi	a5,a5,-1996 # 200031fc <errno>
    c9d0:	439c                	lw	a5,0(a5)
    c9d2:	c391                	beqz	a5,c9d6 <_isatty_r+0x28>
    c9d4:	c01c                	sw	a5,0(s0)
    c9d6:	40b2                	lw	ra,12(sp)
    c9d8:	4422                	lw	s0,8(sp)
    c9da:	0141                	addi	sp,sp,16
    c9dc:	8082                	ret

0000c9de <_lseek_r>:
    c9de:	1141                	addi	sp,sp,-16
    c9e0:	c422                	sw	s0,8(sp)
    c9e2:	842a                	mv	s0,a0
    c9e4:	852e                	mv	a0,a1
    c9e6:	85b2                	mv	a1,a2
    c9e8:	8636                	mv	a2,a3
    c9ea:	1fff7797          	auipc	a5,0x1fff7
    c9ee:	8007a923          	sw	zero,-2030(a5) # 200031fc <errno>
    c9f2:	c606                	sw	ra,12(sp)
    c9f4:	2869                	jal	ca8e <_lseek>
    c9f6:	57fd                	li	a5,-1
    c9f8:	00f51963          	bne	a0,a5,ca0a <_lseek_r+0x2c>
    c9fc:	1fff7797          	auipc	a5,0x1fff7
    ca00:	80078793          	addi	a5,a5,-2048 # 200031fc <errno>
    ca04:	439c                	lw	a5,0(a5)
    ca06:	c391                	beqz	a5,ca0a <_lseek_r+0x2c>
    ca08:	c01c                	sw	a5,0(s0)
    ca0a:	40b2                	lw	ra,12(sp)
    ca0c:	4422                	lw	s0,8(sp)
    ca0e:	0141                	addi	sp,sp,16
    ca10:	8082                	ret

0000ca12 <memchr>:
    ca12:	0ff5f593          	andi	a1,a1,255
    ca16:	962a                	add	a2,a2,a0
    ca18:	00c51463          	bne	a0,a2,ca20 <memchr+0xe>
    ca1c:	4501                	li	a0,0
    ca1e:	8082                	ret
    ca20:	211c                	lbu	a5,0(a0)
    ca22:	feb78ee3          	beq	a5,a1,ca1e <memchr+0xc>
    ca26:	0505                	addi	a0,a0,1
    ca28:	bfc5                	j	ca18 <memchr+0x6>

0000ca2a <_read_r>:
    ca2a:	1141                	addi	sp,sp,-16
    ca2c:	c422                	sw	s0,8(sp)
    ca2e:	842a                	mv	s0,a0
    ca30:	852e                	mv	a0,a1
    ca32:	85b2                	mv	a1,a2
    ca34:	8636                	mv	a2,a3
    ca36:	1fff6797          	auipc	a5,0x1fff6
    ca3a:	7c07a323          	sw	zero,1990(a5) # 200031fc <errno>
    ca3e:	c606                	sw	ra,12(sp)
    ca40:	28b9                	jal	ca9e <_read>
    ca42:	57fd                	li	a5,-1
    ca44:	00f51963          	bne	a0,a5,ca56 <_read_r+0x2c>
    ca48:	1fff6797          	auipc	a5,0x1fff6
    ca4c:	7b478793          	addi	a5,a5,1972 # 200031fc <errno>
    ca50:	439c                	lw	a5,0(a5)
    ca52:	c391                	beqz	a5,ca56 <_read_r+0x2c>
    ca54:	c01c                	sw	a5,0(s0)
    ca56:	40b2                	lw	ra,12(sp)
    ca58:	4422                	lw	s0,8(sp)
    ca5a:	0141                	addi	sp,sp,16
    ca5c:	8082                	ret

0000ca5e <_close>:
    ca5e:	05800793          	li	a5,88
    ca62:	1fff6717          	auipc	a4,0x1fff6
    ca66:	78f72d23          	sw	a5,1946(a4) # 200031fc <errno>
    ca6a:	557d                	li	a0,-1
    ca6c:	8082                	ret

0000ca6e <_fstat>:
    ca6e:	05800793          	li	a5,88
    ca72:	1fff6717          	auipc	a4,0x1fff6
    ca76:	78f72523          	sw	a5,1930(a4) # 200031fc <errno>
    ca7a:	557d                	li	a0,-1
    ca7c:	8082                	ret

0000ca7e <_isatty>:
    ca7e:	05800793          	li	a5,88
    ca82:	1fff6717          	auipc	a4,0x1fff6
    ca86:	76f72d23          	sw	a5,1914(a4) # 200031fc <errno>
    ca8a:	4501                	li	a0,0
    ca8c:	8082                	ret

0000ca8e <_lseek>:
    ca8e:	05800793          	li	a5,88
    ca92:	1fff6717          	auipc	a4,0x1fff6
    ca96:	76f72523          	sw	a5,1898(a4) # 200031fc <errno>
    ca9a:	557d                	li	a0,-1
    ca9c:	8082                	ret

0000ca9e <_read>:
    ca9e:	05800793          	li	a5,88
    caa2:	1fff6717          	auipc	a4,0x1fff6
    caa6:	74f72d23          	sw	a5,1882(a4) # 200031fc <errno>
    caaa:	557d                	li	a0,-1
    caac:	8082                	ret
	...

0000cab0 <CSWTCH.19>:
    cab0:	03e8 007d 01f4 00fa 007d 007d 0032 0014     ..}.....}.}.2...

0000cac0 <CalPoint>:
    cac0:	0000 7fe6 0005 636b 000a 4de0 000f 3d73     ......kc...M..s=
    cad0:	0011 3801 0012 357d 0014 30d4 0015 2eac     ...8..}5...0....
    cae0:	0016 2c9f 0017 2aad 0019 2710 001a 2562     ...,...*...'..b%
    caf0:	001b 23ca 001c 2245 001d 20d3 001e 1f73     ...#..E"... ..s.
    cb00:	0023 197b 0028 14c3 002d 1103 0032 0e09     #.{.(...-...2...
    cb10:	6148 6472 6146 6c75 5f74 6148 646e 656c     HardFault_Handle
    cb20:	0d72 0000 656d 6370 2020 253a 3830 0d78     r...mepc  :%08x.
    cb30:	000a 0000 636d 7561 6573 253a 3830 0d78     ....mcause:%08x.
    cb40:	000a 0000 746d 6176 206c 253a 3830 0d78     ....mtval :%08x.
    cb50:	000a 0000 0dd2 0000 0dd2 0000 0dd2 0000     ................
    cb60:	0dd2 0000 0dd2 0000 0dd2 0000 0dd2 0000     ................
    cb70:	0dd2 0000 0dd2 0000 0dd2 0000 0dd2 0000     ................
    cb80:	0dd2 0000 0dd2 0000 0dd2 0000 0de2 0000     ................
    cb90:	0de2 0000 0de2 0000 0dee 0000 0dee 0000     ................
    cba0:	0dee 0000 0dee 0000 0e0a 0000 0e54 0000     ............T...
    cbb0:	0e6e 0000 0e64 0000 0e7c 0000 0e80 0000     n...d...|.......
    cbc0:	0e86 0000 0000 4120 0000 447a 0000 3d80     ...... A..zD...=
    cbd0:	da74 40a0 4067 3a53 6666 3ee6 1bc6 0000     t..@g@S:ff.>....
    cbe0:	1bc6 0000 1bd2 0000 1bd2 0000 1be2 0000     ................
    cbf0:	1be2 0000 1b90 0000 1bf2 0000 1bf6 0000     ................
    cc00:	1bfa 0000 1bfe 0000 1c02 0000 1c06 0000     ................
    cc10:	1c0a 0000 1c32 0000 1c4c 0000 1c56 0000     ....2...L...V...
    cc20:	1c70 0000 1c7c 0000 1c98 0000 1ca6 0000     p...|...........

0000cc30 <Brigth>:
    cc30:	0000 0002 0003 0005 0008 000d 0015 0022     ..............".
    cc40:	0037 0059 0090 00e9 0100 0262 03e8 0000     7.Y.......b.....

0000cc50 <DigitMask>:
    cc50:	063f 4f5b 6d66 077d 6f7f 0000 7453 7261     ?.[Ofm}..o..Star
    cc60:	0074 0000 6873 756f 646c 276e 2074 7572     t...shouldn't ru
    cc70:	206e 7461 6820 7265 2165 0021 654b 6279     n at here!!.Keyb
    cc80:	616f 6472 6154 6b73 0000 0000 7250 636f     oardTask....Proc
    cc90:	7365 5473 7361 006b 6143 4f6e 6570 506e     essTask.CanOpenP
    cca0:	7265 6f69 6964 0063 6143 4f6e 6570 506e     eriodic.CanOpenP
    ccb0:	6f72 6563 7373 6154 6b73 0000 6e49 7570     rocessTask..Inpu
    ccc0:	7374 6154 6b73 0000 6544 5466 7361 006b     tsTask..DefTask.
    ccd0:	b717 38d1 0000 3f80                         ...8...?

0000ccd8 <ADC_chennel_ref>:
    ccd8:	0100 0302 0504 0706 0908 0b0a 0d0c 0f0e     ................
    cce8:	1110 0000 4e0a 0000 4e24 0000 4e58 0000     .....N..$N..XN..
    ccf8:	4e6c 0000 4e80 0000 4e92 0000 4f04 0000     lN...N...N...O..
    cd08:	4f1a 0000 4f76 0000 4fa0 0000 4e44 0000     .O..vO...O..DN..
    cd18:	4f60 0000 53c4 0000 53d2 0000 53da 0000     `O...S...S...S..
    cd28:	53de 0000 53e2 0000 53e6 0000 53ea 0000     .S...S...S...S..

0000cd38 <timers>:
    cd38:	2c00 4001 0000 4000 0400 4000 0800 4000     .,.@...@...@...@
    cd48:	0c00 4000 2e2e 462f 6572 5265 4f54 2f53     ...@../FreeRTOS/
    cd58:	6f70 7472 6261 656c 4d2f 6d65 614d 676e     portable/MemMang
    cd68:	682f 6165 5f70 2e34 0063 0000 7265 2072     /heap_4.c...err 
    cd78:	7461 6c20 6e69 2065 6425 6f20 2066 6966     at line %d of fi
    cd88:	656c 2220 7325 2e22 0d20 200a 0000 0000     le "%s". .. ....
    cd98:	2e2e 462f 6572 5265 4f54 2f53 6f70 7472     ../FreeRTOS/port
    cda8:	6261 656c 472f 4343 522f 5349 2d43 2f56     able/GCC/RISC-V/
    cdb8:	6f70 7472 632e 0000 2e2e 462f 6572 5265     port.c..../FreeR
    cdc8:	4f54 2f53 7571 7565 2e65 0063 7812 0000     TOS/queue.c..x..
    cdd8:	7808 0000 7828 0000 783a 0000 7834 0000     .x..(x..:x..4x..
    cde8:	79c8 0000 79be 0000 79dc 0000 79ee 0000     .y...y...y...y..
    cdf8:	79e8 0000 2e2e 462f 6572 5265 4f54 2f53     .y..../FreeRTOS/
    ce08:	6174 6b73 2e73 0063 4449 454c 0000 0000     tasks.c.IDLE....
    ce18:	7d5a 0000 7d5a 0000 7d9e 0000 7daa 0000     Z}..Z}...}...}..
    ce28:	7dee 0000 7d5a 0000 7d5a 0000 7d9e 0000     .}..Z}..Z}...}..
    ce38:	7daa 0000 6d54 5172 0000 0000 2e2e 462f     .}..TmrQ....../F
    ce48:	6572 5265 4f54 2f53 6974 656d 7372 632e     reeRTOS/timers.c
    ce58:	0000 0000 6d54 2072 7653 0063               ....Tmr Svc.

0000ce64 <ODObjs>:
    ce64:	0350 2000 0041 0000 0004 0000 031c 2000     P.. A.......... 
    ce74:	0001 0000 0001 0000 0000 0000 0000 0000     ................
    ce84:	4103 0000 0004 0000 0004 0000 0354 2000     .A..........T.. 
    ce94:	0081 0000 000b 0000 0360 2000 0081 0000     ........`.. ....
    cea4:	0004 0000 0365 2000 0081 0000 0004 0000     ....e.. ........
    ceb4:	031d 2000 0083 0000 000e 0000 0598 2000     ... ........... 
    cec4:	0040 0000 0004 0000 059c 2000 0043 0000     @.......... C...
    ced4:	0002 0000 059e 2000 0043 0000 0002 0000     ....... C.......
    cee4:	036c 2000 0100 0000 0001 0000 0370 2000     l.. ........p.. 
    cef4:	4101 0000 0004 0000 0374 2000 4102 0000     .A......t.. .A..
    cf04:	0004 0000 0378 2000 4103 0000 0004 0000     ....x.. .A......
    cf14:	037c 2000 4104 0000 0004 0000 032c 2000     |.. .A......,.. 
    cf24:	0100 0000 0001 0000 0330 2000 4101 0000     ........0.. .A..
    cf34:	0004 0000 0334 2000 0102 0000 0001 0000     ....4.. ........
    cf44:	0380 2000 0100 0000 0001 0000 0384 2000     ... ........... 
    cf54:	4101 0000 0004 0000 0388 2000 0102 0000     .A......... ....
    cf64:	0001 0000 038c 2000 0100 0000 0001 0000     ....... ........
    cf74:	0390 2000 4101 0000 0004 0000 0394 2000     ... .A......... 
    cf84:	0102 0000 0001 0000 0398 2000 0100 0000     ........... ....
    cf94:	0001 0000 039c 2000 4101 0000 0004 0000     ....... .A......
    cfa4:	03a0 2000 0102 0000 0001 0000 0338 2000     ... ........8.. 
    cfb4:	0100 0000 0001 0000 033c 2000 4101 0000     ........<.. .A..
    cfc4:	0004 0000 0340 2000 4102 0000 0004 0000     ....@.. .A......
    cfd4:	0344 2000 4103 0000 0004 0000 03a4 2000     D.. .A......... 
    cfe4:	0100 0000 0001 0000 03a8 2000 4101 0000     ........... .A..
    cff4:	0004 0000 03ac 2000 4102 0000 0004 0000     ....... .A......
    d004:	03b0 2000 4103 0000 0004 0000 03b4 2000     ... .A......... 
    d014:	4104 0000 0004 0000 03b8 2000 4105 0000     .A......... .A..
    d024:	0004 0000 03bc 2000 4106 0000 0004 0000     ....... .A......
    d034:	03c0 2000 0100 0000 0001 0000 03c4 2000     ... ........... 
    d044:	4101 0000 0004 0000 03c8 2000 4102 0000     .A......... .A..
    d054:	0004 0000 03cc 2000 4103 0000 0004 0000     ....... .A......
    d064:	03d0 2000 4104 0000 0004 0000 03d4 2000     ... .A......... 
    d074:	4105 0000 0004 0000 03d8 2000 4106 0000     .A......... .A..
    d084:	0004 0000 03dc 2000 0100 0000 0001 0000     ....... ........
    d094:	03e0 2000 4101 0000 0004 0000 03e4 2000     ... .A......... 
    d0a4:	4102 0000 0004 0000 03e8 2000 4103 0000     .A......... .A..
    d0b4:	0004 0000 03ec 2000 0100 0000 0001 0000     ....... ........
    d0c4:	03f0 2000 4101 0000 0004 0000 03f4 2000     ... .A......... 
    d0d4:	0102 0000 0001 0000 03f6 2000 4103 0000     ........... .A..
    d0e4:	0002 0000 03f8 2000 0104 0000 0001 0000     ....... ........
    d0f4:	03fa 2000 4105 0000 0002 0000 03fc 2000     ... .A......... 
    d104:	0106 0000 0001 0000 02d8 2000 0100 0000     ........... ....
    d114:	0001 0000 02dc 2000 4101 0000 0004 0000     ....... .A......
    d124:	02e0 2000 0102 0000 0001 0000 02e2 2000     ... ........... 
    d134:	4103 0000 0002 0000 02e4 2000 0104 0000     .A......... ....
    d144:	0001 0000 02e6 2000 4105 0000 0002 0000     ....... .A......
    d154:	02e8 2000 0106 0000 0001 0000 02ec 2000     ... ........... 
    d164:	0100 0000 0001 0000 02f0 2000 4101 0000     ........... .A..
    d174:	0004 0000 02f4 2000 0102 0000 0001 0000     ....... ........
    d184:	02f6 2000 4103 0000 0002 0000 02f8 2000     ... .A......... 
    d194:	0104 0000 0001 0000 02fa 2000 4105 0000     ........... .A..
    d1a4:	0002 0000 02fc 2000 0106 0000 0001 0000     ....... ........
    d1b4:	0400 2000 0100 0000 0001 0000 0404 2000     ... ........... 
    d1c4:	4101 0000 0004 0000 0408 2000 4102 0000     .A......... .A..
    d1d4:	0004 0000 040c 2000 4103 0000 0004 0000     ....... .A......
    d1e4:	0410 2000 4104 0000 0004 0000 0414 2000     ... .A......... 
    d1f4:	4105 0000 0004 0000 0300 2000 0100 0000     .A......... ....
    d204:	0001 0000 0304 2000 4101 0000 0004 0000     ....... .A......
    d214:	0308 2000 4102 0000 0004 0000 030c 2000     ... .A......... 
    d224:	4103 0000 0004 0000 0310 2000 0100 0000     .A......... ....
    d234:	0001 0000 0314 2000 4101 0000 0004 0000     ....... .A......
    d244:	0318 2000 4102 0000 0004 0000 0348 2000     ... .A......H.. 
    d254:	0000 0000 0a01 0000 0001 0000 0001 0000     ................
    d264:	0349 2000 0000 0000 0a01 0000 0001 0000     I.. ............
    d274:	0001 0000 034a 2000 0000 0000 4a01 0000     ....J.. .....J..
    d284:	0002 0000 0002 0000 0000 0000 0049 0000     ............I...
    d294:	0004 0000 034b 2000 0000 0000 4301 0000     ....K.. .....C..
    d2a4:	0004 0000 0004 0000 034c 2000 0000 0000     ........L.. ....
    d2b4:	4501 0000 0002 0000 0002 0000 0418 2000     .E............. 
    d2c4:	0000 0000 0501 0000 0001 0000 0004 0000     ................
    d2d4:	0419 2000 0000 0000 4301 0000 0002 0000     ... .....C......
    d2e4:	0002 0000 041a 2000 0000 0000 0301 0000     ....... ........
    d2f4:	0001 0000 0001 0000 041b 2000 041c 2000     ........... ... 
    d304:	4301 0000 0002 0000 0002 0000 0428 2000     .C..........(.. 
    d314:	042a 2000 4301 0000 0002 0000 0002 0000     *.. .C..........
    d324:	0436 2000 0438 2000 4301 0000 0002 0000     6.. 8.. .C......
    d334:	0002 0000 0444 2000 0446 2000 4301 0000     ....D.. F.. .C..
    d344:	0002 0000 0002 0000 0452 2000 0454 2000     ........R.. T.. 
    d354:	4301 0000 0002 0000 0002 0000 0460 2000     .C..........`.. 
    d364:	0462 2000 4301 0000 0002 0000 0002 0000     b.. .C..........
    d374:	046e 2000 0470 2000 4301 0000 0002 0000     n.. p.. .C......
    d384:	0002 0000 047c 2000 047e 2000 4301 0000     ....|.. ~.. .C..
    d394:	0002 0000 0002 0000 048a 2000 048c 2000     ........... ... 
    d3a4:	4301 0000 0002 0000 0002 0000 0498 2000     .C............. 
    d3b4:	049a 2000 4301 0000 0002 0000 0002 0000     ... .C..........
    d3c4:	04a6 2000 04a8 2000 4301 0000 0002 0000     ... ... .C......
    d3d4:	0002 0000 04b4 2000 04b6 2000 4301 0000     ....... ... .C..
    d3e4:	0002 0000 0002 0000 04c2 2000 04c4 2000     ........... ... 
    d3f4:	4301 0000 0002 0000 0002 0000 04d0 2000     .C............. 
    d404:	04d2 2000 4301 0000 0002 0000 0002 0000     ... .C..........
    d414:	04de 2000 04e0 2000 4301 0000 0002 0000     ... ... .C......
    d424:	0002 0000 04ee 2000 04f0 2000 4301 0000     ....... ... .C..
    d434:	0004 0000 0004 0000 0518 2000 0000 0000     ........... ....
    d444:	0301 0000 0001 0000 0001 0000 0000 0000     ................
    d454:	0002 0000 0001 0000 0519 2000 0000 0000     ........... ....
    d464:	0301 0000 0001 0000 0001 0000 051a 2000     ............... 
    d474:	0000 0000 4301 0000 0004 0000 0004 0000     .....C..........
    d484:	051b 2000 0000 0000 4301 0000 0004 0000     ... .....C......
    d494:	0004 0000 051c 2000 0000 0000 4301 0000     ....... .....C..
    d4a4:	0004 0000 0004 0000 051d 2000 0000 0000     ........... ....
    d4b4:	4301 0000 0002 0000 0002 0000               .C..........

0000d4c0 <CO_LSS_bitTimingTableLookup>:
    d4c0:	03e8 0320 01f4 00fa 007d 0000 0032 0014     .. .....}...2...
    d4d0:	000a 0000                                   ....

0000d4d4 <abortCodes.6774>:
    d4d4:	0000 0000 0005 0504 0000 0601 0001 0601     ................
    d4e4:	0002 0601 0000 0602 0041 0604 0042 0604     ........A...B...
    d4f4:	0043 0604 0047 0604 0000 0606 0010 0607     C...G...........
    d504:	0012 0607 0013 0607 0011 0609 0030 0609     ............0...
    d514:	0031 0609 0032 0609 0036 0609 0023 060a     1...2...6...#...
    d524:	0000 0800 0020 0800 0021 0800 0022 0800     .... ...!..."...
    d534:	0023 0800 0024 0800 dc2c ffff db56 ffff     #...$...,...V...
    d544:	dc26 ffff db5e ffff dc26 ffff db24 ffff     &...^...&...$...
    d554:	dc26 ffff db5e ffff db56 ffff db56 ffff     &...^...V...V...
    d564:	db24 ffff db5e ffff db64 ffff db64 ffff     $...^...d...d...
    d574:	db64 ffff db24 ffff db16 ffff db16 ffff     d...$...........
    d584:	dbe6 ffff dcc2 ffff dbe6 ffff dae4 ffff     ................
    d594:	dbe6 ffff dcc2 ffff db16 ffff db16 ffff     ................
    d5a4:	dae4 ffff dcc2 ffff db24 ffff db24 ffff     ........$...$...
    d5b4:	db24 ffff dae4 ffff de24 ffff dd76 ffff     $.......$...v...
    d5c4:	dd76 ffff dd74 ffff dd7a ffff dd7a ffff     v...t...z...z...
    d5d4:	dd4a ffff dd74 ffff dd7a ffff dd4a ffff     J...t...z...J...
    d5e4:	dd7a ffff dd74 ffff de12 ffff de12 ffff     z...t...........
    d5f4:	de12 ffff dd4a ffff                         ....J...

0000d5fc <__clz_tab>:
    d5fc:	0100 0202 0303 0303 0404 0404 0404 0404     ................
    d60c:	0505 0505 0505 0505 0505 0505 0505 0505     ................
    d61c:	0606 0606 0606 0606 0606 0606 0606 0606     ................
    d62c:	0606 0606 0606 0606 0606 0606 0606 0606     ................
    d63c:	0707 0707 0707 0707 0707 0707 0707 0707     ................
    d64c:	0707 0707 0707 0707 0707 0707 0707 0707     ................
    d65c:	0707 0707 0707 0707 0707 0707 0707 0707     ................
    d66c:	0707 0707 0707 0707 0707 0707 0707 0707     ................
    d67c:	0808 0808 0808 0808 0808 0808 0808 0808     ................
    d68c:	0808 0808 0808 0808 0808 0808 0808 0808     ................
    d69c:	0808 0808 0808 0808 0808 0808 0808 0808     ................
    d6ac:	0808 0808 0808 0808 0808 0808 0808 0808     ................
    d6bc:	0808 0808 0808 0808 0808 0808 0808 0808     ................
    d6cc:	0808 0808 0808 0808 0808 0808 0808 0808     ................
    d6dc:	0808 0808 0808 0808 0808 0808 0808 0808     ................
    d6ec:	0808 0808 0808 0808 0808 0808 0808 0808     ................

0000d6fc <__sf_fake_stderr>:
	...

0000d71c <__sf_fake_stdin>:
	...

0000d73c <__sf_fake_stdout>:
	...
    d75c:	2d23 2b30 0020 0000 6c68 004c 6665 4567     #-0+ ...hlL.efgE
    d76c:	4746 0000 3130 3332 3534 3736 3938 4241     FG..0123456789AB
    d77c:	4443 4645 0000 0000 3130 3332 3534 3736     CDEF....01234567
    d78c:	3938 6261 6463 6665 0000 0000               89abcdef....
