
DASH.elf:     file format elf32-littleriscv
DASH.elf
architecture: riscv:rv32, flags 0x00000112:
EXEC_P, HAS_SYMS, D_PAGED
start address 0x00000000

Program Header:
    LOAD off    0x00001000 vaddr 0x00000000 paddr 0x00000000 align 2**12
         filesz 0x0000dafc memsz 0x0000dafc flags r-x
    LOAD off    0x0000f000 vaddr 0x20000000 paddr 0x0000dafc align 2**12
         filesz 0x00000620 memsz 0x000030bc flags rw-
    LOAD off    0x00010418 vaddr 0x20004418 paddr 0x20004418 align 2**12
         filesz 0x00000000 memsz 0x00000be8 flags rw-

Sections:
Idx Name          Size      VMA       LMA       File off  Algn
  0 .init         00000038  00000000  00000000  00001000  2**1
                  CONTENTS, ALLOC, LOAD, READONLY, CODE
  1 .vector       00000108  00000038  00000038  00001038  2**1
                  CONTENTS, ALLOC, LOAD, READONLY, CODE
  2 .text         0000d8fc  00000200  00000200  00001200  2**8
                  CONTENTS, ALLOC, LOAD, READONLY, CODE
  3 .fini         00000000  0000dafc  0000dafc  0000f620  2**0
                  CONTENTS, ALLOC, LOAD, CODE
  4 .dalign       00000000  20000000  20000000  0000f620  2**0
                  CONTENTS
  5 .dlalign      00000000  0000dafc  0000dafc  0000f620  2**0
                  CONTENTS
  6 .data         00000620  20000000  0000dafc  0000f000  2**2
                  CONTENTS, ALLOC, LOAD, DATA
  7 .bss          00002a9c  20000620  0000e11c  0000f620  2**2
                  ALLOC
  8 .stack        00000be8  20004418  20004418  00010418  2**0
                  ALLOC
  9 .debug_info   0005074e  00000000  00000000  0000f620  2**0
                  CONTENTS, READONLY, DEBUGGING
 10 .debug_abbrev 0000b154  00000000  00000000  0005fd6e  2**0
                  CONTENTS, READONLY, DEBUGGING
 11 .debug_loc    00017403  00000000  00000000  0006aec2  2**0
                  CONTENTS, READONLY, DEBUGGING
 12 .debug_aranges 00001aa8  00000000  00000000  000822c8  2**3
                  CONTENTS, READONLY, DEBUGGING
 13 .debug_ranges 000036d0  00000000  00000000  00083d70  2**3
                  CONTENTS, READONLY, DEBUGGING
 14 .debug_line   000306a6  00000000  00000000  00087440  2**0
                  CONTENTS, READONLY, DEBUGGING
 15 .debug_str    0000bc29  00000000  00000000  000b7ae6  2**0
                  CONTENTS, READONLY, DEBUGGING
 16 .comment      00000033  00000000  00000000  000c370f  2**0
                  CONTENTS, READONLY
 17 .debug_frame  000058cc  00000000  00000000  000c3744  2**2
                  CONTENTS, READONLY, DEBUGGING
 18 .stab         00000084  00000000  00000000  000c9010  2**2
                  CONTENTS, READONLY, DEBUGGING
 19 .stabstr      00000117  00000000  00000000  000c9094  2**0
                  CONTENTS, READONLY, DEBUGGING
SYMBOL TABLE:
00000000 l    d  .init	00000000 .init
00000038 l    d  .vector	00000000 .vector
00000200 l    d  .text	00000000 .text
0000dafc l    d  .fini	00000000 .fini
20000000 l    d  .dalign	00000000 .dalign
0000dafc l    d  .dlalign	00000000 .dlalign
20000000 l    d  .data	00000000 .data
20000620 l    d  .bss	00000000 .bss
20004418 l    d  .stack	00000000 .stack
00000000 l    d  .debug_info	00000000 .debug_info
00000000 l    d  .debug_abbrev	00000000 .debug_abbrev
00000000 l    d  .debug_loc	00000000 .debug_loc
00000000 l    d  .debug_aranges	00000000 .debug_aranges
00000000 l    d  .debug_ranges	00000000 .debug_ranges
00000000 l    d  .debug_line	00000000 .debug_line
00000000 l    d  .debug_str	00000000 .debug_str
00000000 l    d  .comment	00000000 .comment
00000000 l    d  .debug_frame	00000000 .debug_frame
00000000 l    d  .stab	00000000 .stab
00000000 l    d  .stabstr	00000000 .stabstr
00000000 l    df *ABS*	00000000 ./Startup/startup_ch32v20x_D6.o
00000038 l       .vector	00000000 _vector_base
00000000 l    df *ABS*	00000000 ./FreeRTOS/portable/GCC/RISC-V/portASM.o
00000258 l       .text	00000000 processed_source
00000428 l       .text	00000000 chip_specific_stack_frame
00000000 l    df *ABS*	00000000 CanOpenNode.c
20000620 l     O .bss	00000004 CO
20000624 l     O .bss	00000004 co_heap_used
20000628 l     O .bss	00000004 pCanOpenPeriodicTaskHandle
2000062c l     O .bss	00000004 pCanOpenProcessTaskHandle
20000630 l     O .bss	00000004 pcan
20000634 l     O .bss	00000004 reset
00000000 l    df *ABS*	00000000 DataModel.c
20000700 l     O .bss	00000226 DATA_MODEL_REGISTER
0000c7b4 l     O .text	00000048 CalPoint
0000c7fc l     O .text	00000010 bitrate_table
0000c80c l     O .text	00000012 seg_const
20000638 l     O .bss	00000004 pDataRegQueue
2000063c l     O .bss	00000002 secondcounter
200005dc l     O .data	00000006 cal_point_index
200005e4 l     O .data	00000006 default_data
00000000 l    df *ABS*	00000000 ch32v20x_it.c
00000000 l    df *ABS*	00000000 dash_draw.c
00000e32 l     F .text	0000005a SegPrint
0000128a l     F .text	0000003a checkLedState
20000928 l     O .bss	00000010 AIN_MIDIAN_FILTER_STRUC
20000938 l     O .bss	00000010 Keys
20000948 l     O .bss	00000044 menu
0000c89c l     O .text	00000014 MenuStateCross
0000c8b0 l     O .text	0000003f dm
20000640 l     O .bss	00000004 ErrorRegister
20000644 l     O .bss	00000004 MenuSatate
20000648 l     O .bss	00000001 ServieModeFSM
20000649 l     O .bss	00000001 coof_view_flag
2000064c l     O .bss	00000004 pProcessTaskHandle
20000650 l     O .bss	00000004 pTaskToNotifykHandle
200005ec l     O .data	00000004 RMPMADOWN
200005f0 l     O .data	00000004 RMPMAUP
200005f4 l     O .data	00000006 ain_view_mask
200005fc l     O .data	00000004 rpm_view_mask
00000000 l    df *ABS*	00000000 init.c
00000000 l    df *ABS*	00000000 inputs.c
2000098c l     O .bss	0000000a ADC_OLD_RAW
20000998 l     O .bss	00000014 OurVData
200009ac l     O .bss	00000010 RPM_AB_FILTER_STRUC
200009bc l     O .bss	00000020 RPM_AVER_FILTER_STRUC
200009dc l     O .bss	00000020 RPM_MIDIAN_FILTER_STRUC
2000065c l     O .bss	00000004 OD_AIN_flagsPDO
20000660 l     O .bss	00000004 pInputsTaskHandle
20000664 l     O .bss	00000004 pTaskToNotifykHandle
20000668 l     O .bss	00000004 xHigherPriorityTaskWoken.7385
00000000 l    df *ABS*	00000000 led.c
200009fc l     O .bss	0000000a SPI1_DATA
20000a08 l     O .bss	0000000a data
0000c934 l     O .text	0000001e Brigth
0000c960 l     O .text	0000000e offset_mask
0000c970 l     O .text	0000000e step_mask
2000066c l     O .bss	00000008 SPI2_DATA
20000674 l     O .bss	00000002 counterRGB
20000600 l     O .data	00000003 color_mask
00000000 l    df *ABS*	00000000 main.c
00000000 l    df *ABS*	00000000 process.c
000025dc l     F .text	00000030 OD_writeRGBMAP
0000260c l     F .text	00000022 OD_readRGBMAP
0000262e l     F .text	0000001c OD_readDIN
0000264a l     F .text	00000046 OD_writeMenuSetup
00002690 l     F .text	00000078 OD_writeBoardSettings
00002708 l     F .text	00000010 CO_getUint16
00002718 l     F .text	00000044 OD_writeSEG
0000275c l     F .text	00000030 OD_writeBAR
0000278c l     F .text	00000036 OD_writeRPMConfig
000027c2 l     F .text	00000018 CO_getUint32
000027da l     F .text	00000030 OD_writeMenuMap
0000280a l     F .text	00000056 OD_writeV1_14
00002860 l     F .text	00000044 OD_writeDashParam
000028a4 l     F .text	0000003a WriteRGB.isra.2
000028de l     F .text	00000014 OD_writeRGB1
000028f2 l     F .text	00000016 OD_writeRGB2
00002908 l     F .text	00000016 OD_writeRGB3
0000291e l     F .text	00000016 OD_writeRGB4
00002934 l     F .text	00000016 OD_writeRGB5
0000294a l     F .text	00000016 OD_writeRGB6
00002960 l     F .text	00000016 OD_writeRGB7
00002976 l     F .text	00000016 OD_writeRGB8
0000298c l     F .text	00000016 OD_writeRGB9
000029a2 l     F .text	00000016 OD_writeRGB10
000029b8 l     F .text	00000016 OD_writeRGB11
000029ce l     F .text	00000016 OD_writeRGB12
000029e4 l     F .text	00000016 OD_writeRGB13
000029fa l     F .text	0000002c OD_readBoardSettings
00002a26 l     F .text	00000084 readADC.isra.6
00002aaa l     F .text	00000010 OD_readADC1
00002aba l     F .text	00000010 OD_readADC2
00002aca l     F .text	00000010 OD_readADC3
00002ada l     F .text	00000030 OD_readMenuSetup
00002b0a l     F .text	000000de writeADC.isra.9
00002be8 l     F .text	00000010 OD_writeADC1
00002bf8 l     F .text	00000010 OD_writeADC2
00002c08 l     F .text	00000010 OD_writeADC3
00002c18 l     F .text	00000022 OD_readRGB.isra.5
00002c3a l     F .text	00000010 OD_readRGB1
00002c4a l     F .text	00000012 OD_readRGB2
00002c5c l     F .text	00000012 OD_readRGB3
00002c6e l     F .text	00000012 OD_readRGB4
00002c80 l     F .text	00000012 OD_readRGB5
00002c92 l     F .text	00000012 OD_readRGB6
00002ca4 l     F .text	00000012 OD_readRGB7
00002cb6 l     F .text	00000012 OD_readRGB8
00002cc8 l     F .text	00000012 OD_readRGB9
00002cda l     F .text	00000012 OD_readRGB10
00002cec l     F .text	00000012 OD_readRGB11
00002cfe l     F .text	00000012 OD_readRGB12
00002d10 l     F .text	00000012 OD_readRGB13
00002d22 l     F .text	00000026 OD_readAIN_RPM
00002d48 l     F .text	0000002c OD_readMenuMap
00002d74 l     F .text	0000002a OD_readRPMConfig
00002d9e l     F .text	00000028 OD_readBar
00002dc6 l     F .text	0000004c OD_readDashParam
00002e12 l     F .text	00000034 OD_readSEG
00000000 l    df *ABS*	00000000 system_ch32v20x.c
00000000 l    df *ABS*	00000000 system_init.c
00003180 l     F .text	00000086 StartDefaultTask
20000e6c l     O .bss	00000c80 CanOpneProccesTaskBuffer
20000a14 l     O .bss	00000400 CanOpnePeriodicTaskBuffer
20000e14 l     O .bss	00000058 CanOpnePeriodicTaskControlBlock
20001aec l     O .bss	00000058 CanOpneProccesTaskControlBlock
20001b44 l     O .bss	00000200 InputsTaskBuffer
20001d44 l     O .bss	00000058 InputsTaskControlBlock
20001d9c l     O .bss	00000400 ProcessTaskBuffer
2000219c l     O .bss	00000058 ProcessTaskControlBlock
200021f4 l     O .bss	00000200 defaultTaskBuffer
200023f4 l     O .bss	00000058 defaultTaskControlBlock
2000244c l     O .bss	00000040 ucQueueStorageArea
2000248c l     O .bss	00000200 uxIdleTaskStack
2000268c l     O .bss	00000058 xIdleTaskTCB
200026e4 l     O .bss	00000048 xStaticQueue
20000678 l     O .bss	00000004 DeafaultTaskFSM
00000000 l    df *ABS*	00000000 ch32v20x_adc.c
00000000 l    df *ABS*	00000000 ch32v20x_dma.c
00000000 l    df *ABS*	00000000 ch32v20x_gpio.c
00000000 l    df *ABS*	00000000 ch32v20x_i2c.c
00000000 l    df *ABS*	00000000 ch32v20x_rcc.c
20000010 l     O .data	00000010 APBAHBPrescTable
200005ac l     O .data	00000004 ADCPrescTable
00000000 l    df *ABS*	00000000 ch32v20x_rtc.c
00000000 l    df *ABS*	00000000 ch32v20x_tim.c
00000000 l    df *ABS*	00000000 ch32v20x_usart.c
00000000 l    df *ABS*	00000000 hw_lib_adc.c
2000274c l     O .bss	0000000e muRawVData
2000275c l     O .bss	0000000a xAinData
20002768 l     O .bss	00000474 xKoofData
2000067c l     O .bss	00000002 usCurMaxIndex
00000000 l    df *ABS*	00000000 hw_lib_din.c
20002bdc l     O .bss	00000058 RPM
20002c34 l     O .bss	00000020 RPM_MIDIAN_FILTER_STRUC
20002c54 l     O .bss	00000070 xDinConfig
20000680 l     O .bss	00000008 xDoutConfig
00000000 l    df *ABS*	00000000 hw_lib_eeprom.c
20002cc4 l     O .bss	00000028 Dev
00000000 l    df *ABS*	00000000 hal_adc_ch32.c
0000cb80 l     O .text	00000012 ADC_chennel_ref
20000688 l     O .bss	00000002 Calibrattion_Val
20000604 l     O .data	00000008 ADCS
00000000 l    df *ABS*	00000000 hal_can_ch32.c
20002cec l     O .bss	0000000c CAN
00000000 l    df *ABS*	00000000 hal_dma_ch32.c
000048d6 l     F .text	0000003a DMA_IRQ
00000000 l    df *ABS*	00000000 hal_gpio_ch32.c
0000cb94 l     O .text	0000000c PERIPH_MASK
00000000 l    df *ABS*	00000000 hal_i2c.c
00004d32 l     F .text	00000014 EEPROM_I2C_ENABLE
00004d46 l     F .text	00000014 EEPROM_I2C_STOP
00004d5a l     F .text	00000014 EEPROM_I2C_START
00004d6e l     F .text	0000000e EEPROM_I2C_SEND
00004d7c l     F .text	00000096 I2C_Master_ReviceIT
00004e12 l     F .text	00000088 I2C_Master_TransmitIT
00004e9a l     F .text	00000098 I2C_Master_TransmitFast
00004f32 l     F .text	0000018e I2C_FSM
00000000 l    df *ABS*	00000000 hal_irq.c
00000000 l    df *ABS*	00000000 hal_rtc_ch32.c
20000690 l     O .bss	00000004 func
00000000 l    df *ABS*	00000000 hal_spi_ch32.c
00000000 l    df *ABS*	00000000 hal_timers_ch32.c
20002d14 l     O .bss	00000028 callback
0000cbd0 l     O .text	00000014 timers
00000000 l    df *ABS*	00000000 hal_wdt_ch32.c
00000000 l    df *ABS*	00000000 heap_4.c
000058d0 l     F .text	00000048 prvInsertBlockIntoFreeList
20002d3c l     O .bss	00000200 ucHeap
20000694 l     O .bss	00000004 pxEnd
20000698 l     O .bss	00000004 xBlockAllocatedBit
2000069c l     O .bss	00000004 xFreeBytesRemaining
200006a0 l     O .bss	00000004 xMinimumEverFreeBytesRemaining
200006a4 l     O .bss	00000004 xNumberOfSuccessfulAllocations
200006a8 l     O .bss	00000008 xStart
00000000 l    df *ABS*	00000000 port.c
200005b8 l     O .data	00000004 uxCriticalNesting
00000000 l    df *ABS*	00000000 list.c
00000000 l    df *ABS*	00000000 queue.c
00005cce l     F .text	0000001e prvIsQueueEmpty
00005cec l     F .text	00000072 prvCopyDataToQueue
00005d5e l     F .text	00000028 prvCopyDataFromQueue
00005d86 l     F .text	00000076 prvUnlockQueue
00000000 l    df *ABS*	00000000 tasks.c
00006540 l     F .text	00000002 prvIdleTask
00006542 l     F .text	000000f6 prvAddNewTaskToReadyList
00006638 l     F .text	0000001c prvResetNextTaskUnblockTime
00006654 l     F .text	00000050 prvTaskIsTaskSuspended
000066a4 l     F .text	000000c8 prvInitialiseNewTask.isra.2
0000676c l     F .text	00000098 prvAddCurrentTaskToDelayedList
20002f3c l     O .bss	0000012c pxReadyTasksLists
20003068 l     O .bss	00000014 xDelayedTaskList1
2000307c l     O .bss	00000014 xDelayedTaskList2
20003090 l     O .bss	00000014 xPendingReadyList
200030a4 l     O .bss	00000014 xSuspendedTaskList
200006b4 l     O .bss	00000004 pxDelayedTaskList
200006b8 l     O .bss	00000004 pxOverflowDelayedTaskList
200006bc l     O .bss	00000004 uxCurrentNumberOfTasks
200006c0 l     O .bss	00000004 uxSchedulerSuspended
200006c4 l     O .bss	00000004 uxTaskNumber
200006c8 l     O .bss	00000004 uxTopReadyPriority
200006cc l     O .bss	00000004 xNextTaskUnblockTime
200006d0 l     O .bss	00000004 xNumOfOverflows
200006d4 l     O .bss	00000004 xPendedTicks
200006d8 l     O .bss	00000004 xSchedulerRunning
200006dc l     O .bss	00000004 xTickCount
200006e0 l     O .bss	00000004 xYieldPending
00000000 l    df *ABS*	00000000 filters.c
00000000 l    df *ABS*	00000000 debug.c
200006e4 l     O .bss	00000002 p_ms
200006e6 l     O .bss	00000001 p_us
200005c0 l     O .data	00000004 curbrk.4668
00000000 l    df *ABS*	00000000 CO_driver_ST32F103.c
000079da l     F .text	0000002c prv_send_can_message.isra.0
200006e8 l     O .bss	00000004 CANModule_local
200006f4 l     O .bss	00000004 co_mutex
00000000 l    df *ABS*	00000000 CO_LSSslave.c
00007cfe l     F .text	000001a8 CO_LSSslave_receive
0000d824 l     O .text	00000014 CO_LSS_bitTimingTableLookup
00000000 l    df *ABS*	00000000 CO_Emergency.c
000080ec l     F .text	00000028 OD_write_1003
00008114 l     F .text	0000008c OD_read_1003
000081a0 l     F .text	00000050 OD_read_1014_default
00000000 l    df *ABS*	00000000 CO_NMT_Heartbeat.c
00008548 l     F .text	00000018 CO_NMT_receive
00008560 l     F .text	00000048 OD_write_1017
00000000 l    df *ABS*	00000000 CO_ODinterface.c
0000879a l     F .text	00000004 OD_readDisabled
00008842 l     F .text	00000004 OD_writeDisabled
0000d838 l     O .text	00000068 abortCodes.6833
00000000 l    df *ABS*	00000000 CO_PDO.c
00008a6a l     F .text	00000008 OD_write_dummy
00008a72 l     F .text	0000002e OD_read_dummy
00008aa0 l     F .text	00000100 PDOconfigMap
00008ba0 l     F .text	00000048 CO_PDO_receive
00008be8 l     F .text	00000070 OD_read_PDO_commParam
00008c58 l     F .text	000000e6 PDO_initMapping.constprop.3
00008d3e l     F .text	000000b4 OD_write_PDO_mapping
00008df2 l     F .text	00000184 OD_write_18xx
00008f76 l     F .text	0000015a OD_write_14xx
00000000 l    df *ABS*	00000000 CO_SDOserver.c
00009686 l     F .text	00000082 CO_SDOserver_init_canRxTx
00009708 l     F .text	00000038 CO_SDO_receive
00009740 l     F .text	000000e2 readFromOd.isra.1.constprop.5
00009822 l     F .text	00000158 OD_write_1201_additional
00000000 l    df *ABS*	00000000 CANopen.c
00000000 l    df *ABS*	00000000 addsf3.c
00000000 l    df *ABS*	00000000 divsf3.c
00000000 l    df *ABS*	00000000 gesf2.c
00000000 l    df *ABS*	00000000 lesf2.c
00000000 l    df *ABS*	00000000 mulsf3.c
00000000 l    df *ABS*	00000000 subsf3.c
00000000 l    df *ABS*	00000000 fixsfsi.c
00000000 l    df *ABS*	00000000 fixunssfsi.c
00000000 l    df *ABS*	00000000 floatsisf.c
00000000 l    df *ABS*	00000000 floatunsisf.c
00000000 l    df *ABS*	00000000 libgcc2.c
00000000 l    df *ABS*	00000000 calloc.c
00000000 l    df *ABS*	00000000 malloc.c
00000000 l    df *ABS*	00000000 memcpy.c
00000000 l    df *ABS*	00000000 memmove.c
00000000 l    df *ABS*	00000000 nano-mallocr.c
00000000 l    df *ABS*	00000000 nano-mallocr.c
00000000 l    df *ABS*	00000000 nano-mallocr.c
00000000 l    df *ABS*	00000000 printf.c
00000000 l    df *ABS*	00000000 sbrkr.c
00000000 l    df *ABS*	00000000 strlen.c
00000000 l    df *ABS*	00000000 findfp.c
0000b85c l     F .text	00000066 std
00000000 l    df *ABS*	00000000 fwalk.c
00000000 l    df *ABS*	00000000 mlock.c
00000000 l    df *ABS*	00000000 nano-vfprintf.c
0000ba8e l     F .text	00000026 __sfputc_r
00000000 l    df *ABS*	00000000 nano-vfprintf_i.c
00000000 l    df *ABS*	00000000 stdio.c
00000000 l    df *ABS*	00000000 wbuf.c
00000000 l    df *ABS*	00000000 writer.c
00000000 l    df *ABS*	00000000 wsetup.c
00000000 l    df *ABS*	00000000 closer.c
00000000 l    df *ABS*	00000000 fflush.c
00000000 l    df *ABS*	00000000 lseekr.c
00000000 l    df *ABS*	00000000 makebuf.c
00000000 l    df *ABS*	00000000 memchr.c
00000000 l    df *ABS*	00000000 readr.c
00000000 l    df *ABS*	00000000 fstatr.c
00000000 l    df *ABS*	00000000 isattyr.c
00000000 l    df *ABS*	00000000 close.c
00000000 l    df *ABS*	00000000 fstat.c
00000000 l    df *ABS*	00000000 isatty.c
00000000 l    df *ABS*	00000000 lseek.c
00000000 l    df *ABS*	00000000 read.c
00000000 l    df *ABS*	00000000 OD.c
2000003c l     O .data	00000288 ODList
0000ccb4 l     O .text	00000b70 ODObjs
200005d0 l     O .data	00000008 _OD
00000000 l    df *ABS*	00000000 libgcc2.c
00000000 l    df *ABS*	00000000 impure.c
20000544 l     O .data	00000060 impure_data
00000000 l    df *ABS*	00000000 reent.c
000024b4 g     F .text	0000001e vLedProcess
00003222 g     F .text	0000001c vSystemStopProcess
00003386  w      .text	00000000 EXTI2_IRQHandler
00009528 g     F .text	0000015e CO_TPDO_process
000090d0 g     F .text	00000172 CO_RPDO_init
0000cb10 g     O .text	00000010 OD_SEG_extension
0000ca90 g     O .text	00000010 OD_RGB4_extension
0000a4b4 g     F .text	00000040 CO_process_RPDO
0000ca50 g     O .text	00000010 OD_RGB13_extension
0000c732 g     F .text	00000030 _isatty_r
000057f8 g     F .text	00000088 HAL_TIMER_SetPWMPulse
0000a0d4 g     F .text	00000056 CO_delete
0000c598 g     F .text	00000034 _lseek_r
0000c9d0 g     O .text	00000010 OD_BOARD_SETTINGS_extension
0000323e g     F .text	00000100 vSYStaskInit
0000783a g     F .text	00000008 vInitRunAverga
0000cae0 g     O .text	00000010 OD_RGB9_extension
0000ca60 g     O .text	00000010 OD_RGB1_extension
00004942 g     F .text	000000b2 HAL_DMAInitIT
00005bfa g     F .text	00000042 vPortExitCritical
0000997a g     F .text	00000172 CO_SDOserver_init
0000b7da g     F .text	0000003e printf
20000da8 g       .data	00000000 __global_pointer$
000004f6 g     F .text	00000028 .hidden __riscv_save_8
00003692 g     F .text	0000000c DMA_GetITStatus
000033ac  w      .text	00000000 TIM1_CC_IRQHandler
200006f0 g     O .bss	00000004 co_drv_periodic_thread_sync_semaphore
0000c1a4 g     F .text	00000030 __sseek
0000b914 g     F .text	0000006c __sinit
0000c1da g     F .text	000000be __swbuf_r
00000e30 g     F .text	00000002 HardFault_Handler
000038d0 g     F .text	00000012 RTC_EnterConfigMode
0000b8cc g     F .text	00000048 __sfmoreglue
0000ba8c g     F .text	00000002 __malloc_unlock
00008a00 g     F .text	0000002e OD_set_value
00000880 g     F .text	0000000e setReg16
000011dc g     F .text	0000005e SetErrorRegiter
00000542 g     F .text	0000000c .hidden __riscv_restore_3
0000a89e g     F .text	000002b2 .hidden __divsf3
20000020 g     O .data	0000001c DMACH
00003b5c g     F .text	0000000e TIM_OC1PreloadConfig
00007a6c g     F .text	00000030 co_drv_create_os_objects
00005b68 g     F .text	0000007c SysTick_Handler
00007ea6 g     F .text	000000a4 CO_LSSslave_init
00003f0e g     F .text	00000074 GetRPM
00003378  w      .text	00000000 PVD_IRQHandler
00000d90 g     F .text	00000076 vIncrementSystemCounters
0000b5fc g     F .text	00000046 memmove
000077ae g     F .text	0000003a ulTaskGenericNotifyValueClear
0000052e g     F .text	00000020 .hidden __riscv_restore_10
00000e2e g     F .text	00000002 NMI_Handler
0000b27a g     F .text	00000062 .hidden __fixsfsi
00003388  w      .text	00000000 EXTI3_IRQHandler
000004f6 g     F .text	00000028 .hidden __riscv_save_11
000049f4 g     F .text	00000012 HAL_DMA_SetCounter
0000589a g     F .text	0000000e HAL_WDTReset
00006158 g     F .text	00000056 xQueueGiveMutexRecursive
200006b0 g     O .bss	00000004 pxCurrentTCB
2000272c g     O .bss	0000001e ADC1_IN_Buffer
00000fcc g     F .text	00000080 IncMenuIndex
0000c980 g     O .text	00000010 OD_ADC1_CAL_extension
00003bc4 g     F .text	0000000a USART_GetFlagStatus
0000c700 g     F .text	00000032 _fstat_r
00001c06 g     F .text	00000048 ADC1_Event
000088b6 g     F .text	000000f6 OD_getSub
200030b8 g     O .bss	00000004 errno
20000620 g       .bss	00000000 _sbss
00000be8 g       *ABS*	00000000 __stack_size
000081f0 g     F .text	00000112 CO_EM_init
00003e80 g     F .text	00000078 RMPDataConvert
0000cac0 g     O .text	00000010 OD_RGB7_extension
0000123a g     F .text	00000026 uGetCurrMenu
00004cbe g     F .text	00000034 HAL_InitGpioAF
0000c990 g     O .text	00000010 OD_ADC2_CAL_extension
0000aef2 g     F .text	00000388 .hidden __subsf3
0000ca00 g     O .text	00000010 OD_MENU_MAP_extension
00007ab4 g     F .text	00000016 co_drv_mutex_unlock
00006f6c g     F .text	0000000e vTaskInternalSetTimeOutState
00000542 g     F .text	0000000c .hidden __riscv_restore_2
00000614 g     F .text	00000192 vCanOpenProcess
0000230a g     F .text	00000120 SetSEG
200002c4 g     O .data	00000068 OD_
000041a8 g     F .text	00000034 eEEPROMRd
00004910 g     F .text	00000018 HAL_DMA_Enable
200006ec g     O .bss	00000004 co_drv_app_thread_sync_semaphore
0000ca30 g     O .text	00000010 OD_RGB11_extension
00005ad8 g     F .text	00000090 xPortStartScheduler
00001114 g     F .text	0000007e vDashDrawInit
0000b54a g     F .text	000000b2 memcpy
00006e4c g     F .text	00000044 vTaskPlaceOnEventList
0000434c g     F .text	00000042 HAL_ADC_StartDMA
00003466 g     F .text	00000010 ADC_Cmd
0000a294 g     F .text	000000b8 CO_CANopenInit
000052da g     F .text	000000ba HAL_RTC_IT_Init
000014b8 g     F .text	00000028 RedrawNotifyTaskToInit
0000b8c2 g     F .text	0000000a _cleanup_r
000036a6 g     F .text	000000f2 GPIO_PinRemapConfig
00005a9a  w    F .text	0000003e vPortSetupTimerInterrupt
000008d8 g     F .text	000003c2 DataModel_Init
00000600 g     F .text	0000000a xCanOpenPeriodicTaskHandle
00003382  w      .text	00000000 EXTI0_IRQHandler
000077e8 g     F .text	00000030 vRCFilter
000033b8  w      .text	00000000 I2C2_EV_IRQHandler
00003b8e g     F .text	00000016 TIM_OC4PreloadConfig
200005a8 g     O .data	00000004 SystemCoreClock
20005000 g       .stack	00000000 __freertos_irq_stack_top
00006314 g     F .text	0000018e xQueueSemaphoreTake
00009242 g     F .text	00000114 CO_RPDO_process
00000d8a g     F .text	00000006 vGetNodeId
0000c772 g     F .text	00000010 _fstat
00005880 g     F .text	0000001a HAL_TIMER_EnablePWMCH
00001c92 g     F .text	00000032 fDinStateCallback
00000038 g       .init	00000000 _einit
000085a8 g     F .text	000000ec CO_NMT_init
0000abd6 g     F .text	0000008c .hidden __lesf2
0000ca70 g     O .text	00000010 OD_RGB2_extension
000004ee g     F .text	00000030 .hidden __riscv_save_12
00005c68 g     F .text	00000018 vListInsertEnd
0000339a  w      .text	00000000 ADC1_2_IRQHandler
000014e0 g     F .text	00000572 vRedrawTask
00007290 g     F .text	000000b4 ulTaskGenericNotifyTake
0000ca20 g     O .text	00000010 OD_RGB10_extension
00003370  w      .text	00000000 Break_Point_Handler
0000052e g     F .text	00000020 .hidden __riscv_restore_11
000052a6 g     F .text	00000034 PFIC_IRQ_ENABLE_PG1
000033bc  w      .text	00000000 SPI1_IRQHandler
00001c70 g     F .text	00000022 CaptureDMACallBack_1
000005f6 g     F .text	0000000a xCanOpenProcessTaskHandle
0000b818 g     F .text	00000032 _sbrk_r
00001094 g     F .text	00000028 SetDefault
0000337a  w      .text	00000000 TAMPER_IRQHandler
0000051e g     F .text	0000000c .hidden __riscv_save_1
00002180 g     F .text	0000002e SPI2_DMA_Callback
00001a52 g     F .text	00000176 vInit_DeviceConfig
00000542 g     F .text	0000000c .hidden __riscv_restore_0
000044e6 g     F .text	00000030 HAL_CANToInitMode
00003a5c g     F .text	00000094 TIM_OC3Init
0000c6cc g     F .text	00000034 _read_r
0000060a g     F .text	0000000a vCanOpenInit
00005c62 g     F .text	00000006 vListInitialiseItem
00000d5a g     F .text	0000002a vGetBitrate
000037bc g     F .text	00000028 RCC_LSEConfig
00000504 g     F .text	0000001a .hidden __riscv_save_7
0000a262 g     F .text	00000032 CO_LSSinit
000061dc g     F .text	00000138 xQueueReceive
00005c48 g     F .text	00000006 vPortClearInterruptMask
0000caf0 g     O .text	00000010 OD_RGBMAP_extension
0000369e g     F .text	00000008 DMA_ClearITPendingBit
00003c04 g     F .text	000000a4 fGetAinCalData
000045ea g     F .text	000000c4 HAL_CANSetFiters
000050c0 g     F .text	0000014e InitI2CDMA
0000336c  w      .text	00000000 Ecall_M_Mode_Handler
00004a1c g     F .text	0000001a HAL_DMA_SetCouterAndEnable
20004418 g       .stack	00000000 _heap_end
000021ae g     F .text	00000050 SetBarState
0000ca80 g     O .text	00000010 OD_RGB3_extension
00002152 g     F .text	0000002e SPI1_DMA_Callback
0000c782 g     F .text	00000010 _isatty
00000c9a g     F .text	0000000a getReg8
20000610 g     O .data	00000004 _global_impure_ptr
00000538 g     F .text	00000016 .hidden __riscv_restore_5
00000866 g     F .text	0000001a setReg32
000041dc g     F .text	0000001a bReadEEPROM
00004ad2 g     F .text	0000004e DMA1_Channel4_IRQHandler
0000540c g     F .text	00000070 HAL_SPI_InitDMA
00007960 g     F .text	0000002a _sbrk
00005918 g     F .text	00000182 pvPortMalloc
00007c1a g     F .text	00000052 CO_CANrxBufferInit
00008694 g     F .text	00000106 CO_NMT_process
200005c8 g     O .data	00000008 OD_PERSIST_COMM
00007a9c g     F .text	00000018 co_drv_mutex_lock
00005c4e g     F .text	00000014 vListInitialise
0000c9b0 g     O .text	00000010 OD_AIN_RPM_extension
00001cec g     F .text	0000000a getInputsTaskHandle
00003d5a g     F .text	00000064 eSetAinCalPoint
000038fa g     F .text	0000002e RTC_SetPrescaler
00004224 g     F .text	00000046 HAL_ADC_RegularChannelConfig
00004a06 g     F .text	00000016 HAL_DMA_ITENABLE
00003684 g     F .text	0000000e DMA_GetFlagStatus
00007818 g     F .text	00000022 vInitABFilter
200005c4 g     O .data	00000004 OD
00000538 g     F .text	00000016 .hidden __riscv_restore_6
000033c4  w      .text	00000000 USART3_IRQHandler
000069b4 g     F .text	00000006 xTaskGetTickCount
00005fe0 g     F .text	00000178 xQueueGenericSend
000089cc g     F .text	00000034 OD_get_value
000010bc g     F .text	00000038 MenuBackHomeCheck
00005394 g     F .text	00000078 RTC_IRQHandler
00007cb8 g     F .text	00000046 CO_CANsend
0000347e g     F .text	00000008 ADC_GetCalibrationStatus
200030bc g       .bss	00000000 _ebss
00004b6e g     F .text	0000004e DMA1_Channel7_IRQHandler
0000395c g     F .text	0000006a TIM_OC1Init
0000408c g     F .text	0000000a xGetEEPROM
00003b80 g     F .text	0000000e TIM_OC3PreloadConfig
00003476 g     F .text	00000008 ADC_GetResetCalibrationStatus
00007ada g     F .text	0000001c CO_CANsetNormalMode
0000481c g     F .text	0000005e CAN1_RX1_IRQHandler
0000b534 g     F .text	0000000c calloc
000078c2 g     F .text	0000002a Delay_Init
00003938 g     F .text	00000024 RTC_WaitForSynchro
000070d8 g     F .text	000000c2 xTaskPriorityDisinherit
000038a2 g     F .text	0000002e RCC_GetFlagStatus
000022e8 g     F .text	00000022 SetSegPoint
00008846 g     F .text	00000070 OD_find
2000032c g     O .data	000000d4 OD_RAM
0000ab50 g     F .text	00000086 .hidden __gtsf2
00000d84 g     F .text	00000006 vFDGetNMTState
00006e90 g     F .text	000000dc xTaskRemoveFromEventList
00000832 g     F .text	00000034 vDataModelRegDelayWrite
0000549e g     F .text	00000070 TIM4_IRQHandler
000089ac g     F .text	00000020 OD_getSDOabCode
000004f6 g     F .text	00000028 .hidden __riscv_save_9
000012c4 g     F .text	00000072 vRGBMode
00003f82 g     F .text	00000072 xGetRPM
0000da60 g     O .text	00000020 __sf_fake_stderr
00000504 g     F .text	0000001a .hidden __riscv_save_4
00000ea0 g     F .text	0000012c getODValue
00002466 g     F .text	0000004e vLedDriverStart
00001e70 g     F .text	000002e2 vInputsTask
0000520e g     F .text	0000004c I2C1_EV_IRQHandler
2000060c g     O .data	00000004 xISRStackTop
00007c6c g     F .text	0000003a CO_CANtxBufferInit
000046ae g     F .text	000000b0 HAL_CANGetRXMessage
00003ba4 g     F .text	00000018 TIM_GetITStatus
0000879e g     F .text	00000050 OD_readOriginal
000033cc  w      .text	00000000 USBHD_IRQHandler
20000400 g     O .data	00000144 OD_ROM
000043ac g     F .text	0000013a HAL_CANIntIT
000037e4 g     F .text	000000be RCC_GetClocksFreq
00007278 g     F .text	00000018 pvTaskIncrementMutexHeldCount
00000828 g     F .text	0000000a xDataRegQueue
00003396  w      .text	00000000 DMA1_Channel6_IRQHandler
0000b4c6 g     F .text	0000006e .hidden __clzsi2
000087ee g     F .text	00000054 OD_writeOriginal
0000bab4 g     F .text	00000042 __sfputs_r
000033d0  w      .text	00000000 UART4_IRQHandler
0000c6b4 g     F .text	00000018 memchr
00006f7a g     F .text	000000aa xTaskCheckForTimeOut
0000b668 g     F .text	000000a4 _free_r
00007032 g     F .text	000000a6 xTaskPriorityInherit
000033b0  w      .text	00000000 TIM3_IRQHandler
00003380  w      .text	00000000 RCC_IRQHandler
0000a34c g     F .text	000000ea CO_CANopenInitPDO
00003bce g     F .text	00000036 vAINInit
0000051e g     F .text	0000000c .hidden __riscv_save_3
000033aa  w      .text	00000000 TIM1_TRG_COM_IRQHandler
00007344 g     F .text	000000e2 xTaskGenericNotifyWait
00004a36 g     F .text	0000004e DMA1_Channel1_IRQHandler
00000000 g       .init	00000000 _start
000069a8 g     F .text	0000000c vTaskSuspendAll
0000a4f4 g     F .text	00000040 CO_process_TPDO
20000000 g     O .data	00000010 AHBPrescTable
0000c792 g     F .text	00000010 _lseek
00000ca4 g     F .text	00000060 WriteRegAfterDelay
000058a8 g     F .text	00000028 HAL_WDT_Init1s
00003b6a g     F .text	00000016 TIM_OC2PreloadConfig
0000b332 g     F .text	000000c6 .hidden __floatsisf
00005cae g     F .text	00000020 uxListRemove
000033c6  w      .text	00000000 EXTI15_10_IRQHandler
000039c6 g     F .text	00000096 TIM_OC2Init
00005524 g     F .text	0000001c HAL_TiemrDisable
000007a6 g     F .text	00000082 vCanOpenPeriodicProcess
0000550e g     F .text	00000016 HAL_TiemrEneblae
00006804 g     F .text	000000a6 xTaskCreateStatic
00003dbe g     F .text	0000000a getADC1Buffer
000068aa g     F .text	000000a2 vTaskResume
000033d2  w      .text	00000000 DMA1_Channel8_IRQHandler
00001260 g     F .text	0000002a vGetEdgeData
00006ce4 g     F .text	0000008a vTaskSwitchContext
000025d2 g     F .text	00000002 vRestartNode
0000cad0 g     O .text	00000010 OD_RGB8_extension
00004c8e g     F .text	00000010 HAL_InitGpioOut
00005ec0 g     F .text	000000ae xQueueGenericCreateStatic
00007ca6 g     F .text	00000012 CO_CANmodule_process
00003ef8 g     F .text	00000016 getCaputreBuffer
00008a2e g     F .text	0000003c OD_getPtr
0000c3ce g     F .text	00000030 _close_r
000037b0 g     F .text	0000000c I2C_ClearFlag
20000000 g       .dalign	00000000 _data_vma
0000105e g     F .text	0000001e SetCurMenuHome
0000798a g     F .text	00000050 prv_read_can_received_msg
000008bc g     F .text	0000001c getReg32
200005b0 g     O .data	00000008 SPI
00003206 g     F .text	0000001c vApplicationGetIdleTaskMemory
00003af0 g     F .text	0000006c TIM_OC4Init
00003dc8 g     F .text	0000001a eDOUTConfigWtihStruct
00003e2a g     F .text	00000056 eRPMConfig
0000c2ce g     F .text	00000100 __swsetup_r
000033a4  w      .text	00000000 EXTI9_5_IRQHandler
00006d6e g     F .text	000000de vTaskSuspend
0000b980 g     F .text	000000a0 __sfp
0000a12a g     F .text	00000102 CO_new
00001082 g     F .text	00000012 SetCurrentMenu
000043a2 g     F .text	0000000a HAL_CANSetERRCallback
00005540 g     F .text	000000aa HW_TIMER_BaseTimerInit
000004f6 g     F .text	00000028 .hidden __riscv_save_10
0000c130 g     F .text	0000002c __sread
0000ba8a g     F .text	00000002 __malloc_lock
00000538 g     F .text	00000016 .hidden __riscv_restore_4
000064a2 g     F .text	0000005a xQueueTakeMutexRecursive
0000052e g     F .text	00000020 .hidden __riscv_restore_8
000041f6 g     F .text	0000002e Get_ConversionVal
0000cab0 g     O .text	00000010 OD_RGB6_extension
00008302 g     F .text	000000c4 CO_error
0000c9f0 g     O .text	00000010 OD_DIN_extension
0000c530 g     F .text	00000068 _fflush_r
00000504 g     F .text	0000001a .hidden __riscv_save_6
0000b642 g     F .text	00000026 _calloc_r
000033be  w      .text	00000000 SPI2_IRQHandler
000008ac g     F .text	00000010 getReg16
0000564a g     F .text	000000c2 HAL_TIMER_PWMTimersInit
0000da80 g     O .text	00000020 __sf_fake_stdin
00007426 g     F .text	000001a8 xTaskGenericNotify
00007842 g     F .text	00000012 vInitMedianFilter
0000547c g     F .text	00000012 HAL_SPI_RXOveleyClear
0000054e g     F .text	000000a8 memset
0000052e g     F .text	00000020 .hidden __riscv_restore_9
00000538 g     F .text	00000016 .hidden __riscv_restore_7
000025b4 g     F .text	0000001e main
0000548e g     F .text	00000010 HAL_SPI_GetBusy
0000104c g     F .text	00000012 GoToHome
00007854 g     F .text	0000006e MedianFilter
0000abd6 g     F .text	0000008c .hidden __ltsf2
00005c80 g     F .text	0000002e vListInsert
000055ea g     F .text	00000060 HAL_TIMER_InitIt
00007af6 g     F .text	00000110 CO_CANmodule_init
0000c1d4 g     F .text	00000006 __sclose
0000438e g     F .text	0000000a HAL_CANSetTXCallback
0000b70c g     F .text	000000ce _malloc_r
00001192 g     F .text	0000004a vMenuBlink
00003486 g     F .text	000001fe Get_CalibrationValue
00004b20 g     F .text	0000004e DMA1_Channel5_IRQHandler
0000702c g     F .text	00000006 xTaskGetCurrentTaskHandle
0000338a  w      .text	00000000 EXTI4_IRQHandler
000078ec g     F .text	00000036 Delay_Ms
00005f6e g     F .text	00000072 xQueueGenericCreate
000047be g     F .text	0000005e USB_LP_CAN1_RX0_IRQHandler
0000ac62 g     F .text	00000290 .hidden __mulsf3
00004096 g     F .text	00000080 eEEPROMWrFast
0000c9a0 g     O .text	00000010 OD_ADC3_CAL_extension
0000224c g     F .text	0000009c SetSegDirect
000013f8 g     F .text	0000005a vBarWindowMode
00003000 g     F .text	000000ee SystemInit
000075ce g     F .text	000001e0 xTaskGenericNotifyFromISR
000010f4 g     F .text	00000020 CheckMenuChannel
0000b7da g     F .text	0000003e iprintf
00001bc8 g     F .text	0000002a HardwareDeinit
00006b3a g     F .text	00000148 xTaskResumeAll
200005bc g     O .data	00000004 uxTopUsedPriority
0000475e g     F .text	00000060 USB_HP_CAN1_TX_IRQHandler
0000d960 g     O .text	00000100 .hidden __clz_tab
00005c3c g     F .text	0000000c xPortSetInterruptMask
0000694c g     F .text	0000005c vTaskStartScheduler
00000000 g       .init	00000000 _sinit
00000e06 g     F .text	00000014 vSaveData
000033ce  w      .text	00000000 USBHDWakeUp_IRQHandler
0000ab50 g     F .text	00000086 .hidden __gesf2
0000c298 g     F .text	00000036 _write_r
0000107c g     F .text	00000006 GetCurMenuHome
00000300 g       .text	00000000 xPortStartFirstTask
00004a84 g     F .text	0000004e DMA1_Channel3_IRQHandler
00000e1a g     F .text	00000014 getOdometr
00003cf0 g     F .text	0000006a vABLineKoofFinde
00007aca g     F .text	00000010 CO_CANsetConfigurationMode
00007a06 g     F .text	00000066 CAN_SendMessage
0000caa0 g     O .text	00000010 OD_RGB5_extension
0000bd82 g     F .text	0000010c _printf_common
200005d8 g     O .data	00000004 _impure_ptr
00009356 g     F .text	000001d2 CO_TPDO_init
000033a8  w      .text	00000000 TIM1_UP_IRQHandler
0000c3fe g     F .text	00000132 __sflush_r
00004cf2 g     F .text	0000000a HAL_GetBit
00001cc4 g     F .text	00000028 vSetDoutState
00003ca8 g     F .text	00000048 eAinCalDataConfig
000083c6 g     F .text	00000182 CO_EM_process
00003376  w      .text	00000000 WWDG_IRQHandler
00004cfc g     F .text	00000004 HAL_SetBit
00004cae g     F .text	00000010 HAL_InitGpioIn
0000336e  w      .text	00000000 Ecall_U_Mode_Handler
00007024 g     F .text	00000008 vTaskMissedYield
00009aec g     F .text	000005e8 CO_SDOserver_process
000033ae  w      .text	00000000 TIM2_IRQHandler
20005000 g       .stack	00000000 _eusrstack
0000051e g     F .text	0000000c .hidden __riscv_save_2
00000e96 g     F .text	0000000a vSetErrorReg
00000200 g       .text	00000000 SW_Handler
000064fc g     F .text	00000044 uxQueueMessagesWaiting
00001c4e g     F .text	00000022 CaptureDMACallBack
0000ca40 g     O .text	00000010 OD_RGB12_extension
00001d1e g     F .text	00000048 ADC1_Init
000069ba g     F .text	00000180 xTaskIncrementTick
00003e16 g     F .text	00000014 uGetDIN
00001452 g     F .text	00000066 vBarMode
00003de2 g     F .text	00000034 eDinConfigWtihStruct
000033a6  w      .text	00000000 TIM1_BRK_IRQHandler
0000c5cc g     F .text	00000056 __swhatbuf_r
00003bbc g     F .text	00000008 USART_SendData
00001d66 g     F .text	000000fe ADC_FSM
00003384  w      .text	00000000 EXTI1_IRQHandler
00003928 g     F .text	00000010 RTC_WaitForLastTask
00004398 g     F .text	0000000a HAL_CANSetRXCallback
00000504 g     F .text	0000001a .hidden __riscv_save_5
00007f4a g     F .text	000001a2 CO_LSSslave_process
00005dfc g     F .text	000000c4 xQueueGenericReset
00007922 g     F .text	0000003e _write
00002e46 g     F .text	000001ba vProceesInit
20000620 g       .data	00000000 _edata
200030bc g       .bss	00000000 _end
0000453c g     F .text	000000ae HAL_CANSend
000033c8  w      .text	00000000 RTCAlarm_IRQHandler
00001e64 g     F .text	0000000c GetAIN
00004116 g     F .text	00000092 eEEPROMWr
0000dafc g       .dlalign	00000000 _data_lma
00000d04 g     F .text	00000056 WriteReg
000021fe g     F .text	0000004e SetRGB
00001cf6 g     F .text	00000028 InputsNotifyTaskToInit
000033c2  w      .text	00000000 USART2_IRQHandler
0000c15c g     F .text	00000048 __swrite
0000c954 g     O .text	0000000a DigitMask
000038e2 g     F .text	00000018 RTC_ExitConfigMode
0000ca10 g     O .text	00000010 OD_MENU_SETUP_extension
0000baf6 g     F .text	0000028c _vfiprintf_r
0000ba20 g     F .text	0000006a _fwalk_reent
000030ee g     F .text	00000092 SystemCoreClockUpdate
0000b3f8 g     F .text	000000ce .hidden __floatunsisf
0000088e g     F .text	0000000a setReg8
2000068c g     O .bss	00000004 pEEPROM
000033ba  w      .text	00000000 I2C2_ER_IRQHandler
00006c82 g     F .text	00000062 vTaskDelay
00000898 g     F .text	00000014 SaveReg16
0000338e  w      .text	00000000 DMA1_Channel2_IRQHandler
0000243e g     F .text	00000028 vSetBrigth
0000daa0 g     O .text	00000020 __sf_fake_stdout
0000c9e0 g     O .text	00000010 OD_DASH_PARAM_extension
00003798 g     F .text	00000018 I2C_DualAddressCmd
0000a436 g     F .text	0000007e CO_process
0000052a g     F .text	00000024 .hidden __riscv_restore_12
0000242a g     F .text	00000014 SetBigSeg
0000719a g     F .text	000000de vTaskPriorityDisinheritAfterTimeout
0000c7a2 g     F .text	00000010 _read
000033d4  w      .text	00000000 handle_reset
0000c9c0 g     O .text	00000010 OD_BAR_extension
00004bbc g     F .text	000000d2 HAL_InitGPIO
0000487a g     F .text	0000005c CAN1_SCE_IRQHandler
0000b2dc g     F .text	00000056 .hidden __fixunssfsi
0000cb20 g     O .text	00000010 OD_VRegiters_extension
0000337e  w      .text	00000000 FLASH_IRQHandler
0000051e g     F .text	0000000c .hidden __riscv_save_0
0000333e g     F .text	0000002a vSYSqueueInit
00001336 g     F .text	000000c2 vBarColorMode
000033c0  w      .text	00000000 USART1_IRQHandler
0000c622 g     F .text	00000092 __smakebuf_r
00003ff4 g     F .text	00000098 vDinDoutProcess
0000b84a g     F .text	00000012 strlen
00000400 g       .text	00000000 pxPortInitialiseStack
0000be8e g     F .text	000002a2 _printf_i
200006fc g     O .bss	00000004 __malloc_sbrk_start
00000e8c g     F .text	0000000a xProcessTaskHandle
0000525a g     F .text	0000004c I2C1_ER_IRQHandler
00005be4 g     F .text	00000016 vPortEnterCritical
00004c9e g     F .text	00000010 HAL_InitGpioAIN
00004928 g     F .text	0000001a HAL_DMA_Disable
0000cb00 g     O .text	00000010 OD_RPMCONFIG_extension
200006f8 g     O .bss	00000004 __malloc_free_list
0000426a g     F .text	000000e2 HAL_ADC_ContiniusScanCinvertionDMA
00001bf2 g     F .text	00000014 SoftwareReset
00000542 g     F .text	0000000c .hidden __riscv_restore_1
0000baf6 g     F .text	0000028c _vfprintf_r
20000654 g     O .bss	00000008 BufAIN
0000a22c g     F .text	00000036 CO_CANinit
00004516 g     F .text	00000026 HAL_CANToOperatingMode
20002cf8 g     O .bss	0000001c DMA_CALLback
00004d00 g     F .text	00000004 HAL_ResetBit
0000570c g     F .text	000000ec HAL_TimeInitCaptureDMA
000061ae g     F .text	0000002e xQueueCreateMutex
0000a534 g     F .text	0000036a .hidden __addsf3
000024d2 g     F .text	000000e2 vRGBProcess
000033ca  w      .text	00000000 USBWakeUp_IRQHandler
00004d04 g     F .text	0000002e HAL_InitGPO
0000c762 g     F .text	00000010 _close
0000b540 g     F .text	0000000a free
000025d4 g     F .text	00000008 Error_Handler
00007c06 g     F .text	00000014 CO_CANmodule_disable



Disassembly of section .init:

00000000 <_sinit>:
   0:	3d40306f          	j	33d4 <handle_reset>
   4:	00000013          	nop
   8:	00000013          	nop
   c:	00000013          	nop
  10:	00000013          	nop
  14:	00000013          	nop
  18:	00000013          	nop
  1c:	00000013          	nop
  20:	00000013          	nop
  24:	00000013          	nop
  28:	00000013          	nop
  2c:	00000013          	nop
  30:	00000013          	nop
  34:	00100073          	ebreak

Disassembly of section .vector:

00000038 <_vector_base>:
	...
  40:	0e2e                	slli	t3,t3,0xb
  42:	0000                	unimp
  44:	0e30                	addi	a2,sp,792
  46:	0000                	unimp
  48:	0000                	unimp
  4a:	0000                	unimp
  4c:	336c                	lbu	a1,7(a4)
	...
  56:	0000                	unimp
  58:	336e                	lhu	a1,38(a4)
  5a:	0000                	unimp
  5c:	3370                	lbu	a2,7(a4)
	...
  66:	0000                	unimp
  68:	5b68                	lw	a0,116(a4)
  6a:	0000                	unimp
  6c:	0000                	unimp
  6e:	0000                	unimp
  70:	0200                	addi	s0,sp,256
  72:	0000                	unimp
  74:	0000                	unimp
  76:	0000                	unimp
  78:	3376                	lhu	a3,38(a4)
  7a:	0000                	unimp
  7c:	3378                	lbu	a4,7(a4)
  7e:	0000                	unimp
  80:	337a                	lhu	a4,38(a4)
  82:	0000                	unimp
  84:	5394                	lw	a3,32(a5)
  86:	0000                	unimp
  88:	337e                	lhu	a5,38(a4)
  8a:	0000                	unimp
  8c:	3380                	lbu	s0,1(a5)
  8e:	0000                	unimp
  90:	3382                	lhu	s0,32(a5)
  92:	0000                	unimp
  94:	3384                	lbu	s1,1(a5)
  96:	0000                	unimp
  98:	3386                	lhu	s1,32(a5)
  9a:	0000                	unimp
  9c:	3388                	lbu	a0,1(a5)
  9e:	0000                	unimp
  a0:	338a                	lhu	a0,32(a5)
  a2:	0000                	unimp
  a4:	4a36                	lw	s4,76(sp)
  a6:	0000                	unimp
  a8:	338e                	lhu	a1,32(a5)
  aa:	0000                	unimp
  ac:	4a84                	lw	s1,16(a3)
  ae:	0000                	unimp
  b0:	4ad2                	lw	s5,20(sp)
  b2:	0000                	unimp
  b4:	4b20                	lw	s0,80(a4)
  b6:	0000                	unimp
  b8:	3396                	lhu	a3,32(a5)
  ba:	0000                	unimp
  bc:	4b6e                	lw	s6,216(sp)
  be:	0000                	unimp
  c0:	339a                	lhu	a4,32(a5)
  c2:	0000                	unimp
  c4:	475e                	lw	a4,212(sp)
  c6:	0000                	unimp
  c8:	47be                	lw	a5,204(sp)
  ca:	0000                	unimp
  cc:	481c                	lw	a5,16(s0)
  ce:	0000                	unimp
  d0:	487a                	lw	a6,156(sp)
  d2:	0000                	unimp
  d4:	33a4                	lbu	s1,3(a5)
  d6:	0000                	unimp
  d8:	33a6                	lhu	s1,34(a5)
  da:	0000                	unimp
  dc:	33a8                	lbu	a0,3(a5)
  de:	0000                	unimp
  e0:	33aa                	lhu	a0,34(a5)
  e2:	0000                	unimp
  e4:	33ac                	lbu	a1,3(a5)
  e6:	0000                	unimp
  e8:	33ae                	lhu	a1,34(a5)
  ea:	0000                	unimp
  ec:	33b0                	lbu	a2,3(a5)
  ee:	0000                	unimp
  f0:	549e                	lw	s1,228(sp)
  f2:	0000                	unimp
  f4:	520e                	lw	tp,224(sp)
  f6:	0000                	unimp
  f8:	525a                	lw	tp,180(sp)
  fa:	0000                	unimp
  fc:	33b8                	lbu	a4,3(a5)
  fe:	0000                	unimp
 100:	33ba                	lhu	a4,34(a5)
 102:	0000                	unimp
 104:	33bc                	lbu	a5,3(a5)
 106:	0000                	unimp
 108:	33be                	lhu	a5,34(a5)
 10a:	0000                	unimp
 10c:	33c0                	lbu	s0,5(a5)
 10e:	0000                	unimp
 110:	33c2                	lhu	s0,36(a5)
 112:	0000                	unimp
 114:	33c4                	lbu	s1,5(a5)
 116:	0000                	unimp
 118:	33c6                	lhu	s1,36(a5)
 11a:	0000                	unimp
 11c:	33c8                	lbu	a0,5(a5)
 11e:	0000                	unimp
 120:	33ca                	lhu	a0,36(a5)
 122:	0000                	unimp
 124:	33cc                	lbu	a1,5(a5)
 126:	0000                	unimp
 128:	33ce                	lhu	a1,36(a5)
 12a:	0000                	unimp
 12c:	33d0                	lbu	a2,5(a5)
 12e:	0000                	unimp
 130:	33d2                	lhu	a2,36(a5)
	...

Disassembly of section .text:

00000200 <SW_Handler>:
     200:	f8810113          	addi	sp,sp,-120
     204:	c206                	sw	ra,4(sp)
     206:	c416                	sw	t0,8(sp)
     208:	c61a                	sw	t1,12(sp)
     20a:	c81e                	sw	t2,16(sp)
     20c:	ca22                	sw	s0,20(sp)
     20e:	cc26                	sw	s1,24(sp)
     210:	ce2a                	sw	a0,28(sp)
     212:	d02e                	sw	a1,32(sp)
     214:	d232                	sw	a2,36(sp)
     216:	d436                	sw	a3,40(sp)
     218:	d63a                	sw	a4,44(sp)
     21a:	d83e                	sw	a5,48(sp)
     21c:	da42                	sw	a6,52(sp)
     21e:	dc46                	sw	a7,56(sp)
     220:	de4a                	sw	s2,60(sp)
     222:	c0ce                	sw	s3,64(sp)
     224:	c2d2                	sw	s4,68(sp)
     226:	c4d6                	sw	s5,72(sp)
     228:	c6da                	sw	s6,76(sp)
     22a:	c8de                	sw	s7,80(sp)
     22c:	cae2                	sw	s8,84(sp)
     22e:	cce6                	sw	s9,88(sp)
     230:	ceea                	sw	s10,92(sp)
     232:	d0ee                	sw	s11,96(sp)
     234:	d2f2                	sw	t3,100(sp)
     236:	d4f6                	sw	t4,104(sp)
     238:	d6fa                	sw	t5,108(sp)
     23a:	d8fe                	sw	t6,112(sp)
     23c:	300022f3          	csrr	t0,mstatus
     240:	da96                	sw	t0,116(sp)
     242:	9081a283          	lw	t0,-1784(gp) # 200006b0 <pxCurrentTCB>
     246:	0022a023          	sw	sp,0(t0)
     24a:	341025f3          	csrr	a1,mepc
     24e:	c02e                	sw	a1,0(sp)
     250:	8641a103          	lw	sp,-1948(gp) # 2000060c <xISRStackTop>
     254:	291060ef          	jal	ra,6ce4 <vTaskSwitchContext>

00000258 <processed_source>:
     258:	9081a303          	lw	t1,-1784(gp) # 200006b0 <pxCurrentTCB>
     25c:	00032103          	lw	sp,0(t1)
     260:	4282                	lw	t0,0(sp)
     262:	34129073          	csrw	mepc,t0
     266:	52d6                	lw	t0,116(sp)
     268:	30029073          	csrw	mstatus,t0
     26c:	4092                	lw	ra,4(sp)
     26e:	42a2                	lw	t0,8(sp)
     270:	4332                	lw	t1,12(sp)
     272:	43c2                	lw	t2,16(sp)
     274:	4452                	lw	s0,20(sp)
     276:	44e2                	lw	s1,24(sp)
     278:	4572                	lw	a0,28(sp)
     27a:	5582                	lw	a1,32(sp)
     27c:	5612                	lw	a2,36(sp)
     27e:	56a2                	lw	a3,40(sp)
     280:	5732                	lw	a4,44(sp)
     282:	57c2                	lw	a5,48(sp)
     284:	5852                	lw	a6,52(sp)
     286:	58e2                	lw	a7,56(sp)
     288:	5972                	lw	s2,60(sp)
     28a:	4986                	lw	s3,64(sp)
     28c:	4a16                	lw	s4,68(sp)
     28e:	4aa6                	lw	s5,72(sp)
     290:	4b36                	lw	s6,76(sp)
     292:	4bc6                	lw	s7,80(sp)
     294:	4c56                	lw	s8,84(sp)
     296:	4ce6                	lw	s9,88(sp)
     298:	4d76                	lw	s10,92(sp)
     29a:	5d86                	lw	s11,96(sp)
     29c:	5e16                	lw	t3,100(sp)
     29e:	5ea6                	lw	t4,104(sp)
     2a0:	5f36                	lw	t5,108(sp)
     2a2:	5fc6                	lw	t6,112(sp)
     2a4:	07810113          	addi	sp,sp,120
     2a8:	30200073          	mret
     2ac:	00000013          	nop
     2b0:	00000013          	nop
     2b4:	00000013          	nop
     2b8:	00000013          	nop
     2bc:	00000013          	nop
     2c0:	00000013          	nop
     2c4:	00000013          	nop
     2c8:	00000013          	nop
     2cc:	00000013          	nop
     2d0:	00000013          	nop
     2d4:	00000013          	nop
     2d8:	00000013          	nop
     2dc:	00000013          	nop
     2e0:	00000013          	nop
     2e4:	00000013          	nop
     2e8:	00000013          	nop
     2ec:	00000013          	nop
     2f0:	00000013          	nop
     2f4:	00000013          	nop
     2f8:	00000013          	nop
     2fc:	00000013          	nop

00000300 <xPortStartFirstTask>:
     300:	8641a283          	lw	t0,-1948(gp) # 2000060c <xISRStackTop>
     304:	e0028293          	addi	t0,t0,-512
     308:	34029073          	csrw	mscratch,t0
     30c:	9081a103          	lw	sp,-1784(gp) # 200006b0 <pxCurrentTCB>
     310:	4102                	lw	sp,0(sp)
     312:	4082                	lw	ra,0(sp)
     314:	4332                	lw	t1,12(sp)
     316:	43c2                	lw	t2,16(sp)
     318:	4452                	lw	s0,20(sp)
     31a:	44e2                	lw	s1,24(sp)
     31c:	4572                	lw	a0,28(sp)
     31e:	5582                	lw	a1,32(sp)
     320:	5612                	lw	a2,36(sp)
     322:	56a2                	lw	a3,40(sp)
     324:	5732                	lw	a4,44(sp)
     326:	57c2                	lw	a5,48(sp)
     328:	5852                	lw	a6,52(sp)
     32a:	58e2                	lw	a7,56(sp)
     32c:	5972                	lw	s2,60(sp)
     32e:	4986                	lw	s3,64(sp)
     330:	4a16                	lw	s4,68(sp)
     332:	4aa6                	lw	s5,72(sp)
     334:	4b36                	lw	s6,76(sp)
     336:	4bc6                	lw	s7,80(sp)
     338:	4c56                	lw	s8,84(sp)
     33a:	4ce6                	lw	s9,88(sp)
     33c:	4d76                	lw	s10,92(sp)
     33e:	5d86                	lw	s11,96(sp)
     340:	5e16                	lw	t3,100(sp)
     342:	5ea6                	lw	t4,104(sp)
     344:	5f36                	lw	t5,108(sp)
     346:	5fc6                	lw	t6,112(sp)
     348:	52d6                	lw	t0,116(sp)
     34a:	02a1                	addi	t0,t0,8
     34c:	30029073          	csrw	mstatus,t0
     350:	42a2                	lw	t0,8(sp)
     352:	07810113          	addi	sp,sp,120
     356:	8082                	ret
     358:	00000013          	nop
     35c:	00000013          	nop
     360:	00000013          	nop
     364:	00000013          	nop
     368:	00000013          	nop
     36c:	00000013          	nop
     370:	00000013          	nop
     374:	00000013          	nop
     378:	00000013          	nop
     37c:	00000013          	nop
     380:	00000013          	nop
     384:	00000013          	nop
     388:	00000013          	nop
     38c:	00000013          	nop
     390:	00000013          	nop
     394:	00000013          	nop
     398:	00000013          	nop
     39c:	00000013          	nop
     3a0:	00000013          	nop
     3a4:	00000013          	nop
     3a8:	00000013          	nop
     3ac:	00000013          	nop
     3b0:	00000013          	nop
     3b4:	00000013          	nop
     3b8:	00000013          	nop
     3bc:	00000013          	nop
     3c0:	00000013          	nop
     3c4:	00000013          	nop
     3c8:	00000013          	nop
     3cc:	00000013          	nop
     3d0:	00000013          	nop
     3d4:	00000013          	nop
     3d8:	00000013          	nop
     3dc:	00000013          	nop
     3e0:	00000013          	nop
     3e4:	00000013          	nop
     3e8:	00000013          	nop
     3ec:	00000013          	nop
     3f0:	00000013          	nop
     3f4:	00000013          	nop
     3f8:	00000013          	nop
     3fc:	00000013          	nop

00000400 <pxPortInitialiseStack>:
     400:	300022f3          	csrr	t0,mstatus
     404:	ff72f293          	andi	t0,t0,-9
     408:	18800313          	li	t1,392
     40c:	0312                	slli	t1,t1,0x4
     40e:	0062e2b3          	or	t0,t0,t1
     412:	1571                	addi	a0,a0,-4
     414:	00552023          	sw	t0,0(a0)
     418:	fa850513          	addi	a0,a0,-88
     41c:	c110                	sw	a2,0(a0)
     41e:	1521                	addi	a0,a0,-24
     420:	00052023          	sw	zero,0(a0)
     424:	00000293          	li	t0,0

00000428 <chip_specific_stack_frame>:
     428:	00028763          	beqz	t0,436 <chip_specific_stack_frame+0xe>
     42c:	1571                	addi	a0,a0,-4
     42e:	00052023          	sw	zero,0(a0)
     432:	12fd                	addi	t0,t0,-1
     434:	bfd5                	j	428 <chip_specific_stack_frame>
     436:	1571                	addi	a0,a0,-4
     438:	c10c                	sw	a1,0(a0)
     43a:	8082                	ret
	...

000004ee <__riscv_save_12>:
     4ee:	7139                	addi	sp,sp,-64
     4f0:	4301                	li	t1,0
     4f2:	c66e                	sw	s11,12(sp)
     4f4:	a019                	j	4fa <__riscv_save_10+0x4>

000004f6 <__riscv_save_10>:
     4f6:	7139                	addi	sp,sp,-64
     4f8:	5341                	li	t1,-16
     4fa:	c86a                	sw	s10,16(sp)
     4fc:	ca66                	sw	s9,20(sp)
     4fe:	cc62                	sw	s8,24(sp)
     500:	ce5e                	sw	s7,28(sp)
     502:	a019                	j	508 <__riscv_save_4+0x4>

00000504 <__riscv_save_4>:
     504:	7139                	addi	sp,sp,-64
     506:	5301                	li	t1,-32
     508:	d05a                	sw	s6,32(sp)
     50a:	d256                	sw	s5,36(sp)
     50c:	d452                	sw	s4,40(sp)
     50e:	d64e                	sw	s3,44(sp)
     510:	d84a                	sw	s2,48(sp)
     512:	da26                	sw	s1,52(sp)
     514:	dc22                	sw	s0,56(sp)
     516:	de06                	sw	ra,60(sp)
     518:	40610133          	sub	sp,sp,t1
     51c:	8282                	jr	t0

0000051e <__riscv_save_0>:
     51e:	1141                	addi	sp,sp,-16
     520:	c04a                	sw	s2,0(sp)
     522:	c226                	sw	s1,4(sp)
     524:	c422                	sw	s0,8(sp)
     526:	c606                	sw	ra,12(sp)
     528:	8282                	jr	t0

0000052a <__riscv_restore_12>:
     52a:	4db2                	lw	s11,12(sp)
     52c:	0141                	addi	sp,sp,16

0000052e <__riscv_restore_10>:
     52e:	4d02                	lw	s10,0(sp)
     530:	4c92                	lw	s9,4(sp)
     532:	4c22                	lw	s8,8(sp)
     534:	4bb2                	lw	s7,12(sp)
     536:	0141                	addi	sp,sp,16

00000538 <__riscv_restore_4>:
     538:	4b02                	lw	s6,0(sp)
     53a:	4a92                	lw	s5,4(sp)
     53c:	4a22                	lw	s4,8(sp)
     53e:	49b2                	lw	s3,12(sp)
     540:	0141                	addi	sp,sp,16

00000542 <__riscv_restore_0>:
     542:	4902                	lw	s2,0(sp)
     544:	4492                	lw	s1,4(sp)
     546:	4422                	lw	s0,8(sp)
     548:	40b2                	lw	ra,12(sp)
     54a:	0141                	addi	sp,sp,16
     54c:	8082                	ret

0000054e <memset>:
     54e:	433d                	li	t1,15
     550:	872a                	mv	a4,a0
     552:	02c37363          	bgeu	t1,a2,578 <memset+0x2a>
     556:	00f77793          	andi	a5,a4,15
     55a:	efbd                	bnez	a5,5d8 <memset+0x8a>
     55c:	e5ad                	bnez	a1,5c6 <memset+0x78>
     55e:	ff067693          	andi	a3,a2,-16
     562:	8a3d                	andi	a2,a2,15
     564:	96ba                	add	a3,a3,a4
     566:	c30c                	sw	a1,0(a4)
     568:	c34c                	sw	a1,4(a4)
     56a:	c70c                	sw	a1,8(a4)
     56c:	c74c                	sw	a1,12(a4)
     56e:	0741                	addi	a4,a4,16
     570:	fed76be3          	bltu	a4,a3,566 <memset+0x18>
     574:	e211                	bnez	a2,578 <memset+0x2a>
     576:	8082                	ret
     578:	40c306b3          	sub	a3,t1,a2
     57c:	068a                	slli	a3,a3,0x2
     57e:	00000297          	auipc	t0,0x0
     582:	9696                	add	a3,a3,t0
     584:	00a68067          	jr	10(a3)
     588:	00b70723          	sb	a1,14(a4)
     58c:	00b706a3          	sb	a1,13(a4)
     590:	00b70623          	sb	a1,12(a4)
     594:	00b705a3          	sb	a1,11(a4)
     598:	00b70523          	sb	a1,10(a4)
     59c:	00b704a3          	sb	a1,9(a4)
     5a0:	00b70423          	sb	a1,8(a4)
     5a4:	00b703a3          	sb	a1,7(a4)
     5a8:	00b70323          	sb	a1,6(a4)
     5ac:	00b702a3          	sb	a1,5(a4)
     5b0:	00b70223          	sb	a1,4(a4)
     5b4:	00b701a3          	sb	a1,3(a4)
     5b8:	00b70123          	sb	a1,2(a4)
     5bc:	00b700a3          	sb	a1,1(a4)
     5c0:	00b70023          	sb	a1,0(a4)
     5c4:	8082                	ret
     5c6:	0ff5f593          	andi	a1,a1,255
     5ca:	00859693          	slli	a3,a1,0x8
     5ce:	8dd5                	or	a1,a1,a3
     5d0:	01059693          	slli	a3,a1,0x10
     5d4:	8dd5                	or	a1,a1,a3
     5d6:	b761                	j	55e <memset+0x10>
     5d8:	00279693          	slli	a3,a5,0x2
     5dc:	00000297          	auipc	t0,0x0
     5e0:	9696                	add	a3,a3,t0
     5e2:	8286                	mv	t0,ra
     5e4:	fa8680e7          	jalr	-88(a3)
     5e8:	8096                	mv	ra,t0
     5ea:	17c1                	addi	a5,a5,-16
     5ec:	8f1d                	sub	a4,a4,a5
     5ee:	963e                	add	a2,a2,a5
     5f0:	f8c374e3          	bgeu	t1,a2,578 <memset+0x2a>
     5f4:	b7a5                	j	55c <memset+0xe>

000005f6 <xCanOpenProcessTaskHandle>:
     5f6:	20000537          	lui	a0,0x20000
     5fa:	62c50513          	addi	a0,a0,1580 # 2000062c <pCanOpenProcessTaskHandle>
     5fe:	8082                	ret

00000600 <xCanOpenPeriodicTaskHandle>:
     600:	20000537          	lui	a0,0x20000
     604:	62850513          	addi	a0,a0,1576 # 20000628 <pCanOpenPeriodicTaskHandle>
     608:	8082                	ret

0000060a <vCanOpenInit>:
     60a:	200007b7          	lui	a5,0x20000
     60e:	62a7a823          	sw	a0,1584(a5) # 20000630 <pcan>
     612:	8082                	ret

00000614 <vCanOpenProcess>:
     614:	ee3ff2ef          	jal	t0,4f6 <__riscv_save_10>
     618:	200005b7          	lui	a1,0x20000
     61c:	7139                	addi	sp,sp,-64
     61e:	62458593          	addi	a1,a1,1572 # 20000624 <co_heap_used>
     622:	4501                	li	a0,0
     624:	20000437          	lui	s0,0x20000
     628:	303090ef          	jal	ra,a12a <CO_new>
     62c:	62a42023          	sw	a0,1568(s0) # 20000620 <_edata>
     630:	62040413          	addi	s0,s0,1568
     634:	e119                	bnez	a0,63a <vCanOpenProcess+0x26>
     636:	79f010ef          	jal	ra,25d4 <Error_Handler>
     63a:	401c                	lw	a5,0(s0)
     63c:	20000737          	lui	a4,0x20000
     640:	63072703          	lw	a4,1584(a4) # 20000630 <pcan>
     644:	43dc                	lw	a5,4(a5)
     646:	c398                	sw	a4,0(a5)
     648:	424070ef          	jal	ra,7a6c <co_drv_create_os_objects>
     64c:	450070ef          	jal	ra,7a9c <co_drv_mutex_lock>
     650:	70a000ef          	jal	ra,d5a <vGetBitrate>
     654:	02a11323          	sh	a0,38(sp)
     658:	d602                	sw	zero,44(sp)
     65a:	730000ef          	jal	ra,d8a <vGetNodeId>
     65e:	401c                	lw	a5,0(s0)
     660:	02a102a3          	sb	a0,37(sp)
     664:	43dc                	lw	a5,4(a5)
     666:	4388                	lw	a0,0(a5)
     668:	0007aa23          	sw	zero,20(a5)
     66c:	45e070ef          	jal	ra,7aca <CO_CANsetConfigurationMode>
     670:	401c                	lw	a5,0(s0)
     672:	43c8                	lw	a0,4(a5)
     674:	592070ef          	jal	ra,7c06 <CO_CANmodule_disable>
     678:	4008                	lw	a0,0(s0)
     67a:	02615603          	lhu	a2,38(sp)
     67e:	415c                	lw	a5,4(a0)
     680:	438c                	lw	a1,0(a5)
     682:	3ab090ef          	jal	ra,a22c <CO_CANinit>
     686:	c119                	beqz	a0,68c <vCanOpenProcess+0x78>
     688:	74d010ef          	jal	ra,25d4 <Error_Handler>
     68c:	200007b7          	lui	a5,0x20000
     690:	40078793          	addi	a5,a5,1024 # 20000400 <OD_ROM>
     694:	5398                	lw	a4,32(a5)
     696:	4008                	lw	a0,0(s0)
     698:	02610693          	addi	a3,sp,38
     69c:	d83a                	sw	a4,48(sp)
     69e:	53d8                	lw	a4,36(a5)
     6a0:	02510613          	addi	a2,sp,37
     6a4:	180c                	addi	a1,sp,48
     6a6:	da3a                	sw	a4,52(sp)
     6a8:	5798                	lw	a4,40(a5)
     6aa:	57dc                	lw	a5,44(a5)
     6ac:	dc3a                	sw	a4,56(sp)
     6ae:	de3e                	sw	a5,60(sp)
     6b0:	3b3090ef          	jal	ra,a262 <CO_LSSinit>
     6b4:	c119                	beqz	a0,6ba <vCanOpenProcess+0xa6>
     6b6:	71f010ef          	jal	ra,25d4 <Error_Handler>
     6ba:	81c1a683          	lw	a3,-2020(gp) # 200005c4 <OD>
     6be:	02514903          	lbu	s2,37(sp)
     6c2:	00042a03          	lw	s4,0(s0)
     6c6:	ce36                	sw	a3,28(sp)
     6c8:	6bc000ef          	jal	ra,d84 <vFDGetNMTState>
     6cc:	1f400793          	li	a5,500
     6d0:	c03e                	sw	a5,0(sp)
     6d2:	46f2                	lw	a3,28(sp)
     6d4:	6789                	lui	a5,0x2
     6d6:	02c10993          	addi	s3,sp,44
     6da:	07c5                	addi	a5,a5,17
     6dc:	8fc9                	or	a5,a5,a0
     6de:	c64e                	sw	s3,12(sp)
     6e0:	c44a                	sw	s2,8(sp)
     6e2:	c202                	sw	zero,4(sp)
     6e4:	3e800893          	li	a7,1000
     6e8:	1f400813          	li	a6,500
     6ec:	4701                	li	a4,0
     6ee:	4601                	li	a2,0
     6f0:	4581                	li	a1,0
     6f2:	8552                	mv	a0,s4
     6f4:	3a1090ef          	jal	ra,a294 <CO_CANopenInit>
     6f8:	c511                	beqz	a0,704 <vCanOpenProcess+0xf0>
     6fa:	57b5                	li	a5,-19
     6fc:	00f50463          	beq	a0,a5,704 <vCanOpenProcess+0xf0>
     700:	6d5010ef          	jal	ra,25d4 <Error_Handler>
     704:	4008                	lw	a0,0(s0)
     706:	81c1a603          	lw	a2,-2020(gp) # 200005c4 <OD>
     70a:	874e                	mv	a4,s3
     70c:	494c                	lw	a1,20(a0)
     70e:	86ca                	mv	a3,s2
     710:	43d090ef          	jal	ra,a34c <CO_CANopenInitPDO>
     714:	c119                	beqz	a0,71a <vCanOpenProcess+0x106>
     716:	6bf010ef          	jal	ra,25d4 <Error_Handler>
     71a:	401c                	lw	a5,0(s0)
     71c:	439c                	lw	a5,0(a5)
     71e:	c399                	beqz	a5,724 <vCanOpenProcess+0x110>
     720:	6b5010ef          	jal	ra,25d4 <Error_Handler>
     724:	401c                	lw	a5,0(s0)
     726:	200004b7          	lui	s1,0x20000
     72a:	6989                	lui	s3,0x2
     72c:	43c8                	lw	a0,4(a5)
     72e:	3e800a13          	li	s4,1000
     732:	3a8070ef          	jal	ra,7ada <CO_CANsetNormalMode>
     736:	6204aa23          	sw	zero,1588(s1) # 20000634 <reset>
     73a:	37a070ef          	jal	ra,7ab4 <co_drv_mutex_unlock>
     73e:	276060ef          	jal	ra,69b4 <xTaskGetTickCount>
     742:	892a                	mv	s2,a0
     744:	d402                	sw	zero,40(sp)
     746:	63448493          	addi	s1,s1,1588
     74a:	71098993          	addi	s3,s3,1808 # 2710 <CO_getUint16+0x8>
     74e:	409c                	lw	a5,0(s1)
     750:	cb89                	beqz	a5,762 <vCanOpenProcess+0x14e>
     752:	beef07b7          	lui	a5,0xbeef0
     756:	e000e737          	lui	a4,0xe000e
     75a:	08078793          	addi	a5,a5,128 # beef0080 <__freertos_irq_stack_top+0x9eeeb080>
     75e:	c73c                	sw	a5,72(a4)
     760:	bffd                	j	75e <vCanOpenProcess+0x14a>
     762:	55a2                	lw	a1,40(sp)
     764:	9441a503          	lw	a0,-1724(gp) # 200006ec <co_drv_app_thread_sync_semaphore>
     768:	0345d5b3          	divu	a1,a1,s4
     76c:	3a9050ef          	jal	ra,6314 <xQueueSemaphoreTake>
     770:	32c070ef          	jal	ra,7a9c <co_drv_mutex_lock>
     774:	d44e                	sw	s3,40(sp)
     776:	23e060ef          	jal	ra,69b4 <xTaskGetTickCount>
     77a:	41250633          	sub	a2,a0,s2
     77e:	03460633          	mul	a2,a2,s4
     782:	8aaa                	mv	s5,a0
     784:	4008                	lw	a0,0(s0)
     786:	1034                	addi	a3,sp,40
     788:	4581                	li	a1,0
     78a:	8956                	mv	s2,s5
     78c:	4ab090ef          	jal	ra,a436 <CO_process>
     790:	c088                	sw	a0,0(s1)
     792:	9481a503          	lw	a0,-1720(gp) # 200006f0 <co_drv_periodic_thread_sync_semaphore>
     796:	4681                	li	a3,0
     798:	4601                	li	a2,0
     79a:	4581                	li	a1,0
     79c:	045050ef          	jal	ra,5fe0 <xQueueGenericSend>
     7a0:	314070ef          	jal	ra,7ab4 <co_drv_mutex_unlock>
     7a4:	b76d                	j	74e <vCanOpenProcess+0x13a>

000007a6 <vCanOpenPeriodicProcess>:
     7a6:	d5fff2ef          	jal	t0,504 <__riscv_save_4>
     7aa:	1141                	addi	sp,sp,-16
     7ac:	2f0070ef          	jal	ra,7a9c <co_drv_mutex_lock>
     7b0:	204060ef          	jal	ra,69b4 <xTaskGetTickCount>
     7b4:	6989                	lui	s3,0x2
     7b6:	842a                	mv	s0,a0
     7b8:	c602                	sw	zero,12(sp)
     7ba:	3e800a13          	li	s4,1000
     7be:	71098993          	addi	s3,s3,1808 # 2710 <CO_getUint16+0x8>
     7c2:	20000b37          	lui	s6,0x20000
     7c6:	2ee070ef          	jal	ra,7ab4 <co_drv_mutex_unlock>
     7ca:	45b2                	lw	a1,12(sp)
     7cc:	9481a503          	lw	a0,-1720(gp) # 200006f0 <co_drv_periodic_thread_sync_semaphore>
     7d0:	620b0913          	addi	s2,s6,1568 # 20000620 <_edata>
     7d4:	0345d5b3          	divu	a1,a1,s4
     7d8:	84a2                	mv	s1,s0
     7da:	33b050ef          	jal	ra,6314 <xQueueSemaphoreTake>
     7de:	2be070ef          	jal	ra,7a9c <co_drv_mutex_lock>
     7e2:	00092783          	lw	a5,0(s2)
     7e6:	c64e                	sw	s3,12(sp)
     7e8:	cf95                	beqz	a5,824 <vCanOpenPeriodicProcess+0x7e>
     7ea:	43dc                	lw	a5,4(a5)
     7ec:	4bdc                	lw	a5,20(a5)
     7ee:	cb9d                	beqz	a5,824 <vCanOpenPeriodicProcess+0x7e>
     7f0:	1c4060ef          	jal	ra,69b4 <xTaskGetTickCount>
     7f4:	84aa                	mv	s1,a0
     7f6:	00092503          	lw	a0,0(s2)
     7fa:	411c                	lw	a5,0(a0)
     7fc:	e785                	bnez	a5,824 <vCanOpenPeriodicProcess+0x7e>
     7fe:	415c                	lw	a5,4(a0)
     800:	4bdc                	lw	a5,20(a5)
     802:	c38d                	beqz	a5,824 <vCanOpenPeriodicProcess+0x7e>
     804:	40848433          	sub	s0,s1,s0
     808:	03440433          	mul	s0,s0,s4
     80c:	0074                	addi	a3,sp,12
     80e:	4581                	li	a1,0
     810:	8622                	mv	a2,s0
     812:	4a3090ef          	jal	ra,a4b4 <CO_process_RPDO>
     816:	00092503          	lw	a0,0(s2)
     81a:	0074                	addi	a3,sp,12
     81c:	8622                	mv	a2,s0
     81e:	4581                	li	a1,0
     820:	4d5090ef          	jal	ra,a4f4 <CO_process_TPDO>
     824:	8426                	mv	s0,s1
     826:	b745                	j	7c6 <vCanOpenPeriodicProcess+0x20>

00000828 <xDataRegQueue>:
     828:	20000537          	lui	a0,0x20000
     82c:	63850513          	addi	a0,a0,1592 # 20000638 <pDataRegQueue>
     830:	8082                	ret

00000832 <vDataModelRegDelayWrite>:
     832:	cedff2ef          	jal	t0,51e <__riscv_save_0>
     836:	20000437          	lui	s0,0x20000
     83a:	63840413          	addi	s0,s0,1592 # 20000638 <pDataRegQueue>
     83e:	4008                	lw	a0,0(s0)
     840:	1141                	addi	sp,sp,-16
     842:	4bb050ef          	jal	ra,64fc <uxQueueMessagesWaiting>
     846:	cd11                	beqz	a0,862 <vDataModelRegDelayWrite+0x30>
     848:	4008                	lw	a0,0(s0)
     84a:	567d                	li	a2,-1
     84c:	006c                	addi	a1,sp,12
     84e:	18f050ef          	jal	ra,61dc <xQueueReceive>
     852:	8728                	lhu	a0,14(sp)
     854:	8610                	lbu	a2,12(sp)
     856:	95818593          	addi	a1,gp,-1704 # 20000700 <DATA_MODEL_REGISTER>
     85a:	4689                	li	a3,2
     85c:	95aa                	add	a1,a1,a0
     85e:	0b9030ef          	jal	ra,4116 <eEEPROMWr>
     862:	0141                	addi	sp,sp,16
     864:	b9f9                	j	542 <__riscv_restore_0>

00000866 <setReg32>:
     866:	95818793          	addi	a5,gp,-1704 # 20000700 <DATA_MODEL_REGISTER>
     86a:	953e                	add	a0,a0,a5
     86c:	0085d793          	srli	a5,a1,0x8
     870:	a10c                	sb	a1,0(a0)
     872:	b11c                	sb	a5,1(a0)
     874:	0105d793          	srli	a5,a1,0x10
     878:	81e1                	srli	a1,a1,0x18
     87a:	a13c                	sb	a5,2(a0)
     87c:	b12c                	sb	a1,3(a0)
     87e:	8082                	ret

00000880 <setReg16>:
     880:	95818793          	addi	a5,gp,-1704 # 20000700 <DATA_MODEL_REGISTER>
     884:	953e                	add	a0,a0,a5
     886:	a10c                	sb	a1,0(a0)
     888:	81a1                	srli	a1,a1,0x8
     88a:	b10c                	sb	a1,1(a0)
     88c:	8082                	ret

0000088e <setReg8>:
     88e:	95818793          	addi	a5,gp,-1704 # 20000700 <DATA_MODEL_REGISTER>
     892:	953e                	add	a0,a0,a5
     894:	a10c                	sb	a1,0(a0)
     896:	8082                	ret

00000898 <SaveReg16>:
     898:	c87ff2ef          	jal	t0,51e <__riscv_save_0>
     89c:	86ae                	mv	a3,a1
     89e:	95818593          	addi	a1,gp,-1704 # 20000700 <DATA_MODEL_REGISTER>
     8a2:	4609                	li	a2,2
     8a4:	95aa                	add	a1,a1,a0
     8a6:	071030ef          	jal	ra,4116 <eEEPROMWr>
     8aa:	b961                	j	542 <__riscv_restore_0>

000008ac <getReg16>:
     8ac:	95818793          	addi	a5,gp,-1704 # 20000700 <DATA_MODEL_REGISTER>
     8b0:	97aa                	add	a5,a5,a0
     8b2:	3398                	lbu	a4,1(a5)
     8b4:	2388                	lbu	a0,0(a5)
     8b6:	0722                	slli	a4,a4,0x8
     8b8:	8d59                	or	a0,a0,a4
     8ba:	8082                	ret

000008bc <getReg32>:
     8bc:	95818793          	addi	a5,gp,-1704 # 20000700 <DATA_MODEL_REGISTER>
     8c0:	97aa                	add	a5,a5,a0
     8c2:	3398                	lbu	a4,1(a5)
     8c4:	23a8                	lbu	a0,2(a5)
     8c6:	0722                	slli	a4,a4,0x8
     8c8:	0542                	slli	a0,a0,0x10
     8ca:	8f49                	or	a4,a4,a0
     8cc:	2388                	lbu	a0,0(a5)
     8ce:	8f49                	or	a4,a4,a0
     8d0:	33a8                	lbu	a0,3(a5)
     8d2:	0562                	slli	a0,a0,0x18
     8d4:	8d59                	or	a0,a0,a4
     8d6:	8082                	ret

000008d8 <DataModel_Init>:
     8d8:	c2dff2ef          	jal	t0,504 <__riscv_save_4>
     8dc:	1101                	addi	sp,sp,-32
     8de:	22600613          	li	a2,550
     8e2:	4581                	li	a1,0
     8e4:	95818513          	addi	a0,gp,-1704 # 20000700 <DATA_MODEL_REGISTER>
     8e8:	319d                	jal	54e <memset>
     8ea:	4689                	li	a3,2
     8ec:	21000613          	li	a2,528
     8f0:	95818593          	addi	a1,gp,-1704 # 20000700 <DATA_MODEL_REGISTER>
     8f4:	4501                	li	a0,0
     8f6:	0b3030ef          	jal	ra,41a8 <eEEPROMRd>
     8fa:	32051163          	bnez	a0,c1c <__stack_size+0x34>
     8fe:	95818413          	addi	s0,gp,-1704 # 20000700 <DATA_MODEL_REGISTER>
     902:	2018                	lbu	a4,0(s0)
     904:	07700793          	li	a5,119
     908:	2ef70863          	beq	a4,a5,bf8 <__stack_size+0x10>
     90c:	83c18793          	addi	a5,gp,-1988 # 200005e4 <default_data>
     910:	4398                	lw	a4,0(a5)
     912:	23de                	lhu	a5,4(a5)
     914:	010006b7          	lui	a3,0x1000
     918:	c018                	sw	a4,0(s0)
     91a:	a05e                	sh	a5,4(s0)
     91c:	4799                	li	a5,6
     91e:	08f40fa3          	sb	a5,159(s0)
     922:	010027b7          	lui	a5,0x1002
     926:	40078793          	addi	a5,a5,1024 # 1002400 <_data_lma+0xff4904>
     92a:	0af42023          	sw	a5,160(s0)
     92e:	060027b7          	lui	a5,0x6002
     932:	40078793          	addi	a5,a5,1024 # 6002400 <_data_lma+0x5ff4904>
     936:	0af42223          	sw	a5,164(s0)
     93a:	6789                	lui	a5,0x2
     93c:	03000737          	lui	a4,0x3000
     940:	40078793          	addi	a5,a5,1024 # 2400 <SetSEG+0xf6>
     944:	10070593          	addi	a1,a4,256 # 3000100 <_data_lma+0x2ff2604>
     948:	0af41423          	sh	a5,168(s0)
     94c:	02400793          	li	a5,36
     950:	b47c                	sb	a5,15(s0)
     952:	d44c                	sw	a1,44(s0)
     954:	050007b7          	lui	a5,0x5000
     958:	780005b7          	lui	a1,0x78000
     95c:	c81c                	sw	a5,16(s0)
     95e:	c46c                	sw	a1,76(s0)
     960:	240007b7          	lui	a5,0x24000
     964:	d02c                	sw	a1,96(s0)
     966:	010545b7          	lui	a1,0x1054
     96a:	c85c                	sw	a5,20(s0)
     96c:	60558593          	addi	a1,a1,1541 # 1054605 <_data_lma+0x1046b09>
     970:	50000793          	li	a5,1280
     974:	10068613          	addi	a2,a3,256 # 1000100 <_data_lma+0xff2604>
     978:	cc1c                	sw	a5,24(s0)
     97a:	d06c                	sw	a1,100(s0)
     97c:	10000793          	li	a5,256
     980:	6529                	lui	a0,0xa
     982:	000585b7          	lui	a1,0x58
     986:	cc54                	sw	a3,28(s0)
     988:	d01c                	sw	a5,32(s0)
     98a:	d054                	sw	a3,36(s0)
     98c:	d81c                	sw	a5,48(s0)
     98e:	c874                	sw	a3,84(s0)
     990:	cc7c                	sw	a5,92(s0)
     992:	0a040523          	sb	zero,170(s0)
     996:	d410                	sw	a2,40(s0)
     998:	02042a23          	sw	zero,52(s0)
     99c:	02042c23          	sw	zero,56(s0)
     9a0:	02042e23          	sw	zero,60(s0)
     9a4:	04042023          	sw	zero,64(s0)
     9a8:	04042223          	sw	zero,68(s0)
     9ac:	04042423          	sw	zero,72(s0)
     9b0:	c828                	sw	a0,80(s0)
     9b2:	cc30                	sw	a2,88(s0)
     9b4:	80058593          	addi	a1,a1,-2048 # 57800 <_data_lma+0x49d04>
     9b8:	d42c                	sw	a1,104(s0)
     9ba:	d87c                	sw	a5,116(s0)
     9bc:	0af41623          	sh	a5,172(s0)
     9c0:	0af41c23          	sh	a5,184(s0)
     9c4:	47d1                	li	a5,20
     9c6:	dc38                	sw	a4,120(s0)
     9c8:	0cf40723          	sb	a5,206(s0)
     9cc:	20070713          	addi	a4,a4,512
     9d0:	47e1                	li	a5,24
     9d2:	dc78                	sw	a4,124(s0)
     9d4:	0cf401a3          	sb	a5,195(s0)
     9d8:	1a000737          	lui	a4,0x1a000
     9dc:	150007b7          	lui	a5,0x15000
     9e0:	0789                	addi	a5,a5,2
     9e2:	08e42223          	sw	a4,132(s0)
     9e6:	0103f737          	lui	a4,0x103f
     9ea:	80470713          	addi	a4,a4,-2044 # 103e804 <_data_lma+0x1030d08>
     9ee:	0cf42223          	sw	a5,196(s0)
     9f2:	030517b7          	lui	a5,0x3051
     9f6:	20178793          	addi	a5,a5,513 # 3051201 <_data_lma+0x3043705>
     9fa:	08e42423          	sw	a4,136(s0)
     9fe:	00042737          	lui	a4,0x42
     a02:	a0070713          	addi	a4,a4,-1536 # 41a00 <_data_lma+0x33f04>
     a06:	0cf42423          	sw	a5,200(s0)
     a0a:	51300793          	li	a5,1299
     a0e:	08e42623          	sw	a4,140(s0)
     a12:	0cf41623          	sh	a5,204(s0)
     a16:	02000737          	lui	a4,0x2000
     a1a:	4791                	li	a5,4
     a1c:	08e42823          	sw	a4,144(s0)
     a20:	0cf407a3          	sb	a5,207(s0)
     a24:	20070713          	addi	a4,a4,512 # 2000200 <_data_lma+0x1ff2704>
     a28:	6785                	lui	a5,0x1
     a2a:	d474                	sw	a3,108(s0)
     a2c:	08e42a23          	sw	a4,148(s0)
     a30:	20000693          	li	a3,512
     a34:	4705                	li	a4,1
     a36:	40378793          	addi	a5,a5,1027 # 1403 <vBarWindowMode+0xb>
     a3a:	69b5                	lui	s3,0xd
     a3c:	d830                	sw	a2,112(s0)
     a3e:	08d42023          	sw	a3,128(s0)
     a42:	08d42c23          	sw	a3,152(s0)
     a46:	08041e23          	sh	zero,156(s0)
     a4a:	08040f23          	sb	zero,158(s0)
     a4e:	0ae405a3          	sb	a4,171(s0)
     a52:	0a040723          	sb	zero,174(s0)
     a56:	0ae40ba3          	sb	a4,183(s0)
     a5a:	0a040d23          	sb	zero,186(s0)
     a5e:	0cf41823          	sh	a5,208(s0)
     a62:	80c98993          	addi	s3,s3,-2036 # c80c <seg_const>
     a66:	0d200493          	li	s1,210
     a6a:	0e400a13          	li	s4,228
     a6e:	0009d583          	lhu	a1,0(s3)
     a72:	8526                	mv	a0,s1
     a74:	0489                	addi	s1,s1,2
     a76:	04c2                	slli	s1,s1,0x10
     a78:	80c1                	srli	s1,s1,0x10
     a7a:	3519                	jal	880 <setReg16>
     a7c:	0989                	addi	s3,s3,2
     a7e:	ff4498e3          	bne	s1,s4,a6e <DataModel_Init+0x196>
     a82:	47dd                	li	a5,23
     a84:	6585                	lui	a1,0x1
     a86:	4529                	li	a0,10
     a88:	a47c                	sb	a5,14(s0)
     a8a:	3bf1                	jal	866 <setReg32>
     a8c:	120197b7          	lui	a5,0x12019
     a90:	07c9                	addi	a5,a5,18
     a92:	0ef42223          	sw	a5,228(s0)
     a96:	19000793          	li	a5,400
     a9a:	0ef41423          	sh	a5,232(s0)
     a9e:	69b1                	lui	s3,0xc
     aa0:	4791                	li	a5,4
     aa2:	0ef40523          	sb	a5,234(s0)
     aa6:	7b498993          	addi	s3,s3,1972 # c7b4 <CalPoint>
     aaa:	0ed00493          	li	s1,237
     aae:	13500b13          	li	s6,309
     ab2:	0009da83          	lhu	s5,0(s3)
     ab6:	8526                	mv	a0,s1
     ab8:	0991                	addi	s3,s3,4
     aba:	85d6                	mv	a1,s5
     abc:	33d1                	jal	880 <setReg16>
     abe:	ffe9da03          	lhu	s4,-2(s3)
     ac2:	00248513          	addi	a0,s1,2
     ac6:	0542                	slli	a0,a0,0x10
     ac8:	85d2                	mv	a1,s4
     aca:	8141                	srli	a0,a0,0x10
     acc:	3b55                	jal	880 <setReg16>
     ace:	05048513          	addi	a0,s1,80
     ad2:	0542                	slli	a0,a0,0x10
     ad4:	85d6                	mv	a1,s5
     ad6:	8141                	srli	a0,a0,0x10
     ad8:	3365                	jal	880 <setReg16>
     ada:	05248513          	addi	a0,s1,82
     ade:	0491                	addi	s1,s1,4
     ae0:	0542                	slli	a0,a0,0x10
     ae2:	04c2                	slli	s1,s1,0x10
     ae4:	85d2                	mv	a1,s4
     ae6:	8141                	srli	a0,a0,0x10
     ae8:	80c1                	srli	s1,s1,0x10
     aea:	3b59                	jal	880 <setReg16>
     aec:	fd6493e3          	bne	s1,s6,ab2 <DataModel_Init+0x1da>
     af0:	4581                	li	a1,0
     af2:	18d00513          	li	a0,397
     af6:	3369                	jal	880 <setReg16>
     af8:	4581                	li	a1,0
     afa:	18f00513          	li	a0,399
     afe:	3349                	jal	880 <setReg16>
     b00:	45d1                	li	a1,20
     b02:	19100513          	li	a0,401
     b06:	3bad                	jal	880 <setReg16>
     b08:	45e5                	li	a1,25
     b0a:	19300513          	li	a0,403
     b0e:	3b8d                	jal	880 <setReg16>
     b10:	45e5                	li	a1,25
     b12:	19500513          	li	a0,405
     b16:	33ad                	jal	880 <setReg16>
     b18:	03200593          	li	a1,50
     b1c:	19700513          	li	a0,407
     b20:	3385                	jal	880 <setReg16>
     b22:	45f9                	li	a1,30
     b24:	19900513          	li	a0,409
     b28:	3ba1                	jal	880 <setReg16>
     b2a:	08700593          	li	a1,135
     b2e:	19b00513          	li	a0,411
     b32:	33b9                	jal	880 <setReg16>
     b34:	02800793          	li	a5,40
     b38:	1cf40ea3          	sb	a5,477(s0)
     b3c:	3e0005b7          	lui	a1,0x3e000
     b40:	6785                	lui	a5,0x1
     b42:	a0078793          	addi	a5,a5,-1536 # a00 <DataModel_Init+0x128>
     b46:	05d5                	addi	a1,a1,21
     b48:	1e500513          	li	a0,485
     b4c:	1cf41f23          	sh	a5,478(s0)
     b50:	1e040023          	sb	zero,480(s0)
     b54:	3b09                	jal	866 <setReg32>
     b56:	760005b7          	lui	a1,0x76000
     b5a:	05ed                	addi	a1,a1,27
     b5c:	1e900513          	li	a0,489
     b60:	3319                	jal	866 <setReg32>
     b62:	783f05b7          	lui	a1,0x783f0
     b66:	05cd                	addi	a1,a1,19
     b68:	1ed00513          	li	a0,493
     b6c:	39ed                	jal	866 <setReg32>
     b6e:	710005b7          	lui	a1,0x71000
     b72:	05d1                	addi	a1,a1,20
     b74:	1f100513          	li	a0,497
     b78:	31fd                	jal	866 <setReg32>
     b7a:	787905b7          	lui	a1,0x78790
     b7e:	05c9                	addi	a1,a1,18
     b80:	1f500513          	li	a0,501
     b84:	31cd                	jal	866 <setReg32>
     b86:	507305b7          	lui	a1,0x50730
     b8a:	05d9                	addi	a1,a1,22
     b8c:	1e100513          	li	a0,481
     b90:	39d9                	jal	866 <setReg32>
     b92:	6d0005b7          	lui	a1,0x6d000
     b96:	05dd                	addi	a1,a1,23
     b98:	1f900513          	li	a0,505
     b9c:	31e9                	jal	866 <setReg32>
     b9e:	3f0005b7          	lui	a1,0x3f000
     ba2:	05e9                	addi	a1,a1,26
     ba4:	1fd00513          	li	a0,509
     ba8:	397d                	jal	866 <setReg32>
     baa:	45f1                	li	a1,28
     bac:	20100513          	li	a0,513
     bb0:	395d                	jal	866 <setReg32>
     bb2:	4581                	li	a1,0
     bb4:	20500513          	li	a0,517
     bb8:	317d                	jal	866 <setReg32>
     bba:	479d                	li	a5,7
     bbc:	4689                	li	a3,2
     bbe:	20f404a3          	sb	a5,521(s0)
     bc2:	21000613          	li	a2,528
     bc6:	4795                	li	a5,5
     bc8:	95818593          	addi	a1,gp,-1704 # 20000700 <DATA_MODEL_REGISTER>
     bcc:	4501                	li	a0,0
     bce:	20f41523          	sh	a5,522(s0)
     bd2:	544030ef          	jal	ra,4116 <eEEPROMWr>
     bd6:	21000613          	li	a2,528
     bda:	4581                	li	a1,0
     bdc:	95818513          	addi	a0,gp,-1704 # 20000700 <DATA_MODEL_REGISTER>
     be0:	32bd                	jal	54e <memset>
     be2:	4529                	li	a0,10
     be4:	09e060ef          	jal	ra,6c82 <vTaskDelay>
     be8:	4689                	li	a3,2
     bea:	21000613          	li	a2,528
     bee:	95818593          	addi	a1,gp,-1704 # 20000700 <DATA_MODEL_REGISTER>
     bf2:	4501                	li	a0,0
     bf4:	5b4030ef          	jal	ra,41a8 <eEEPROMRd>
     bf8:	83418a13          	addi	s4,gp,-1996 # 200005dc <cal_point_index>
     bfc:	4981                	li	s3,0
     bfe:	4b0d                	li	s6,3
     c00:	0e444a83          	lbu	s5,228(s0)
     c04:	854e                	mv	a0,s3
     c06:	1afd                	addi	s5,s5,-1
     c08:	0ffaf593          	andi	a1,s5,255
     c0c:	09c030ef          	jal	ra,3ca8 <eAinCalDataConfig>
     c10:	c159                	beqz	a0,c96 <__stack_size+0xae>
     c12:	0985                	addi	s3,s3,1
     c14:	040d                	addi	s0,s0,3
     c16:	0a09                	addi	s4,s4,2
     c18:	ff6994e3          	bne	s3,s6,c00 <__stack_size+0x18>
     c1c:	200007b7          	lui	a5,0x20000
     c20:	62079e23          	sh	zero,1596(a5) # 2000063c <secondcounter>
     c24:	6105                	addi	sp,sp,32
     c26:	ba09                	j	538 <__riscv_restore_4>
     c28:	000a5503          	lhu	a0,0(s4)
     c2c:	01091613          	slli	a2,s2,0x10
     c30:	8241                	srli	a2,a2,0x10
     c32:	00261493          	slli	s1,a2,0x2
     c36:	94aa                	add	s1,s1,a0
     c38:	04c2                	slli	s1,s1,0x10
     c3a:	80c1                	srli	s1,s1,0x10
     c3c:	8526                	mv	a0,s1
     c3e:	c632                	sw	a2,12(sp)
     c40:	31b5                	jal	8ac <getReg16>
     c42:	0542                	slli	a0,a0,0x10
     c44:	8541                	srai	a0,a0,0x10
     c46:	6ec0a0ef          	jal	ra,b332 <__floatsisf>
     c4a:	c82a                	sw	a0,16(sp)
     c4c:	00248513          	addi	a0,s1,2
     c50:	0542                	slli	a0,a0,0x10
     c52:	8141                	srli	a0,a0,0x10
     c54:	39a1                	jal	8ac <getReg16>
     c56:	7a20a0ef          	jal	ra,b3f8 <__floatunsisf>
     c5a:	ca2a                	sw	a0,20(sp)
     c5c:	00448513          	addi	a0,s1,4
     c60:	0542                	slli	a0,a0,0x10
     c62:	8141                	srli	a0,a0,0x10
     c64:	31a1                	jal	8ac <getReg16>
     c66:	0542                	slli	a0,a0,0x10
     c68:	8541                	srai	a0,a0,0x10
     c6a:	6c80a0ef          	jal	ra,b332 <__floatsisf>
     c6e:	cc2a                	sw	a0,24(sp)
     c70:	00648513          	addi	a0,s1,6
     c74:	0542                	slli	a0,a0,0x10
     c76:	8141                	srli	a0,a0,0x10
     c78:	3915                	jal	8ac <getReg16>
     c7a:	77e0a0ef          	jal	ra,b3f8 <__floatunsisf>
     c7e:	4632                	lw	a2,12(sp)
     c80:	ce2a                	sw	a0,28(sp)
     c82:	080c                	addi	a1,sp,16
     c84:	854e                	mv	a0,s3
     c86:	0905                	addi	s2,s2,1
     c88:	0d2030ef          	jal	ra,3d5a <eSetAinCalPoint>
     c8c:	0ff97913          	andi	s2,s2,255
     c90:	f9594ce3          	blt	s2,s5,c28 <__stack_size+0x40>
     c94:	bfbd                	j	c12 <__stack_size+0x2a>
     c96:	4901                	li	s2,0
     c98:	bfe5                	j	c90 <__stack_size+0xa8>

00000c9a <getReg8>:
     c9a:	95818793          	addi	a5,gp,-1704 # 20000700 <DATA_MODEL_REGISTER>
     c9e:	953e                	add	a0,a0,a5
     ca0:	2108                	lbu	a0,0(a0)
     ca2:	8082                	ret

00000ca4 <WriteRegAfterDelay>:
     ca4:	87bff2ef          	jal	t0,51e <__riscv_save_0>
     ca8:	1141                	addi	sp,sp,-16
     caa:	842a                	mv	s0,a0
     cac:	0028                	addi	a0,sp,8
     cae:	84b2                	mv	s1,a2
     cb0:	09b0a0ef          	jal	ra,b54a <memcpy>
     cb4:	4789                	li	a5,2
     cb6:	02f48f63          	beq	s1,a5,cf4 <WriteRegAfterDelay+0x50>
     cba:	4791                	li	a5,4
     cbc:	04f48063          	beq	s1,a5,cfc <WriteRegAfterDelay+0x58>
     cc0:	4785                	li	a5,1
     cc2:	00f49763          	bne	s1,a5,cd0 <WriteRegAfterDelay+0x2c>
     cc6:	8418                	lbu	a4,8(sp)
     cc8:	95818793          	addi	a5,gp,-1704 # 20000700 <DATA_MODEL_REGISTER>
     ccc:	97a2                	add	a5,a5,s0
     cce:	a398                	sb	a4,0(a5)
     cd0:	20f00793          	li	a5,527
     cd4:	0087ed63          	bltu	a5,s0,cee <WriteRegAfterDelay+0x4a>
     cd8:	200007b7          	lui	a5,0x20000
     cdc:	6387a503          	lw	a0,1592(a5) # 20000638 <pDataRegQueue>
     ce0:	4681                	li	a3,0
     ce2:	567d                	li	a2,-1
     ce4:	006c                	addi	a1,sp,12
     ce6:	8760                	sh	s0,14(sp)
     ce8:	8644                	sb	s1,12(sp)
     cea:	2f6050ef          	jal	ra,5fe0 <xQueueGenericSend>
     cee:	0141                	addi	sp,sp,16
     cf0:	853ff06f          	j	542 <__riscv_restore_0>
     cf4:	842c                	lhu	a1,8(sp)
     cf6:	8522                	mv	a0,s0
     cf8:	3661                	jal	880 <setReg16>
     cfa:	bfd9                	j	cd0 <WriteRegAfterDelay+0x2c>
     cfc:	45a2                	lw	a1,8(sp)
     cfe:	8522                	mv	a0,s0
     d00:	369d                	jal	866 <setReg32>
     d02:	b7f9                	j	cd0 <WriteRegAfterDelay+0x2c>

00000d04 <WriteReg>:
     d04:	81bff2ef          	jal	t0,51e <__riscv_save_0>
     d08:	1141                	addi	sp,sp,-16
     d0a:	842a                	mv	s0,a0
     d0c:	0068                	addi	a0,sp,12
     d0e:	84b2                	mv	s1,a2
     d10:	03b0a0ef          	jal	ra,b54a <memcpy>
     d14:	4789                	li	a5,2
     d16:	02f48a63          	beq	s1,a5,d4a <WriteReg+0x46>
     d1a:	4791                	li	a5,4
     d1c:	02f48b63          	beq	s1,a5,d52 <WriteReg+0x4e>
     d20:	4785                	li	a5,1
     d22:	00f49763          	bne	s1,a5,d30 <WriteReg+0x2c>
     d26:	8618                	lbu	a4,12(sp)
     d28:	95818793          	addi	a5,gp,-1704 # 20000700 <DATA_MODEL_REGISTER>
     d2c:	97a2                	add	a5,a5,s0
     d2e:	a398                	sb	a4,0(a5)
     d30:	20f00793          	li	a5,527
     d34:	0087e863          	bltu	a5,s0,d44 <WriteReg+0x40>
     d38:	4689                	li	a3,2
     d3a:	8626                	mv	a2,s1
     d3c:	006c                	addi	a1,sp,12
     d3e:	8522                	mv	a0,s0
     d40:	3d6030ef          	jal	ra,4116 <eEEPROMWr>
     d44:	0141                	addi	sp,sp,16
     d46:	ffcff06f          	j	542 <__riscv_restore_0>
     d4a:	862c                	lhu	a1,12(sp)
     d4c:	8522                	mv	a0,s0
     d4e:	3e0d                	jal	880 <setReg16>
     d50:	b7c5                	j	d30 <WriteReg+0x2c>
     d52:	45b2                	lw	a1,12(sp)
     d54:	8522                	mv	a0,s0
     d56:	3e01                	jal	866 <setReg32>
     d58:	bfe1                	j	d30 <WriteReg+0x2c>

00000d5a <vGetBitrate>:
     d5a:	fc4ff2ef          	jal	t0,51e <__riscv_save_0>
     d5e:	4589                	li	a1,2
     d60:	4505                	li	a0,1
     d62:	47a030ef          	jal	ra,41dc <bReadEEPROM>
     d66:	4721                	li	a4,8
     d68:	1f400793          	li	a5,500
     d6c:	00a76963          	bltu	a4,a0,d7e <vGetBitrate+0x24>
     d70:	00151793          	slli	a5,a0,0x1
     d74:	6531                	lui	a0,0xc
     d76:	7fc50513          	addi	a0,a0,2044 # c7fc <bitrate_table>
     d7a:	953e                	add	a0,a0,a5
     d7c:	211e                	lhu	a5,0(a0)
     d7e:	853e                	mv	a0,a5
     d80:	fc2ff06f          	j	542 <__riscv_restore_0>

00000d84 <vFDGetNMTState>:
     d84:	10000513          	li	a0,256
     d88:	8082                	ret

00000d8a <vGetNodeId>:
     d8a:	95c1c503          	lbu	a0,-1700(gp) # 20000704 <DATA_MODEL_REGISTER+0x4>
     d8e:	8082                	ret

00000d90 <vIncrementSystemCounters>:
     d90:	f8eff2ef          	jal	t0,51e <__riscv_save_0>
     d94:	20000437          	lui	s0,0x20000
     d98:	63c40413          	addi	s0,s0,1596 # 2000063c <secondcounter>
     d9c:	201e                	lhu	a5,0(s0)
     d9e:	16700713          	li	a4,359
     da2:	0785                	addi	a5,a5,1
     da4:	07c2                	slli	a5,a5,0x10
     da6:	83c1                	srli	a5,a5,0x10
     da8:	a01e                	sh	a5,0(s0)
     daa:	00f77a63          	bgeu	a4,a5,dbe <vIncrementSystemCounters+0x2e>
     dae:	4519                	li	a0,6
     db0:	3631                	jal	8bc <getReg32>
     db2:	00150593          	addi	a1,a0,1
     db6:	4519                	li	a0,6
     db8:	347d                	jal	866 <setReg32>
     dba:	00041023          	sh	zero,0(s0)
     dbe:	4529                	li	a0,10
     dc0:	3cf5                	jal	8bc <getReg32>
     dc2:	84aa                	mv	s1,a0
     dc4:	9661c503          	lbu	a0,-1690(gp) # 2000070e <DATA_MODEL_REGISTER+0xe>
     dc8:	4581                	li	a1,0
     dca:	28d9                	jal	ea0 <getODValue>
     dcc:	5660a0ef          	jal	ra,b332 <__floatsisf>
     dd0:	0000d7b7          	lui	a5,0xd
     dd4:	8207a583          	lw	a1,-2016(a5) # c820 <seg_const+0x14>
     dd8:	2c7090ef          	jal	ra,a89e <__divsf3>
     ddc:	0000d7b7          	lui	a5,0xd
     de0:	8247a583          	lw	a1,-2012(a5) # c824 <seg_const+0x18>
     de4:	2bb090ef          	jal	ra,a89e <__divsf3>
     de8:	842a                	mv	s0,a0
     dea:	8526                	mv	a0,s1
     dec:	60c0a0ef          	jal	ra,b3f8 <__floatunsisf>
     df0:	85aa                	mv	a1,a0
     df2:	8522                	mv	a0,s0
     df4:	740090ef          	jal	ra,a534 <__addsf3>
     df8:	4e40a0ef          	jal	ra,b2dc <__fixunssfsi>
     dfc:	85aa                	mv	a1,a0
     dfe:	4529                	li	a0,10
     e00:	349d                	jal	866 <setReg32>
     e02:	f40ff06f          	j	542 <__riscv_restore_0>

00000e06 <vSaveData>:
     e06:	f18ff2ef          	jal	t0,51e <__riscv_save_0>
     e0a:	4621                	li	a2,8
     e0c:	95e18593          	addi	a1,gp,-1698 # 20000706 <DATA_MODEL_REGISTER+0x6>
     e10:	4519                	li	a0,6
     e12:	284030ef          	jal	ra,4096 <eEEPROMWrFast>
     e16:	f2cff06f          	j	542 <__riscv_restore_0>

00000e1a <getOdometr>:
     e1a:	f04ff2ef          	jal	t0,51e <__riscv_save_0>
     e1e:	4529                	li	a0,10
     e20:	3c71                	jal	8bc <getReg32>
     e22:	06400793          	li	a5,100
     e26:	02f55533          	divu	a0,a0,a5
     e2a:	f18ff06f          	j	542 <__riscv_restore_0>

00000e2e <NMI_Handler>:
     e2e:	a001                	j	e2e <NMI_Handler>

00000e30 <HardFault_Handler>:
     e30:	a001                	j	e30 <HardFault_Handler>

00000e32 <SegPrint>:
     e32:	eecff2ef          	jal	t0,51e <__riscv_save_0>
     e36:	1101                	addi	sp,sp,-32
     e38:	842e                	mv	s0,a1
     e3a:	85aa                	mv	a1,a0
     e3c:	4519                	li	a0,6
     e3e:	c642                	sw	a6,12(sp)
     e40:	c83e                	sw	a5,16(sp)
     e42:	ca3a                	sw	a4,20(sp)
     e44:	cc36                	sw	a3,24(sp)
     e46:	ce32                	sw	a2,28(sp)
     e48:	404010ef          	jal	ra,224c <SetSegDirect>
     e4c:	85a2                	mv	a1,s0
     e4e:	4515                	li	a0,5
     e50:	3fc010ef          	jal	ra,224c <SetSegDirect>
     e54:	4672                	lw	a2,28(sp)
     e56:	4511                	li	a0,4
     e58:	85b2                	mv	a1,a2
     e5a:	3f2010ef          	jal	ra,224c <SetSegDirect>
     e5e:	46e2                	lw	a3,24(sp)
     e60:	450d                	li	a0,3
     e62:	85b6                	mv	a1,a3
     e64:	3e8010ef          	jal	ra,224c <SetSegDirect>
     e68:	4752                	lw	a4,20(sp)
     e6a:	4509                	li	a0,2
     e6c:	85ba                	mv	a1,a4
     e6e:	3de010ef          	jal	ra,224c <SetSegDirect>
     e72:	47c2                	lw	a5,16(sp)
     e74:	4505                	li	a0,1
     e76:	85be                	mv	a1,a5
     e78:	3d4010ef          	jal	ra,224c <SetSegDirect>
     e7c:	4832                	lw	a6,12(sp)
     e7e:	4501                	li	a0,0
     e80:	85c2                	mv	a1,a6
     e82:	3ca010ef          	jal	ra,224c <SetSegDirect>
     e86:	6105                	addi	sp,sp,32
     e88:	ebaff06f          	j	542 <__riscv_restore_0>

00000e8c <xProcessTaskHandle>:
     e8c:	20000537          	lui	a0,0x20000
     e90:	64c50513          	addi	a0,a0,1612 # 2000064c <pProcessTaskHandle>
     e94:	8082                	ret

00000e96 <vSetErrorReg>:
     e96:	200007b7          	lui	a5,0x20000
     e9a:	64a7a023          	sw	a0,1600(a5) # 20000640 <ErrorRegister>
     e9e:	8082                	ret

00000ea0 <getODValue>:
     ea0:	e7eff2ef          	jal	t0,51e <__riscv_save_0>
     ea4:	fff50793          	addi	a5,a0,-1
     ea8:	4771                	li	a4,28
     eaa:	10f76f63          	bltu	a4,a5,fc8 <getODValue+0x128>
     eae:	6735                	lui	a4,0xd
     eb0:	078a                	slli	a5,a5,0x2
     eb2:	82870713          	addi	a4,a4,-2008 # c828 <seg_const+0x1c>
     eb6:	97ba                	add	a5,a5,a4
     eb8:	439c                	lw	a5,0(a5)
     eba:	892e                	mv	s2,a1
     ebc:	8782                	jr	a5
     ebe:	21150513          	addi	a0,a0,529
     ec2:	0542                	slli	a0,a0,0x10
     ec4:	8141                	srli	a0,a0,0x10
     ec6:	3bd1                	jal	c9a <getReg8>
     ec8:	842a                	mv	s0,a0
     eca:	8522                	mv	a0,s0
     ecc:	e76ff06f          	j	542 <__riscv_restore_0>
     ed0:	21150513          	addi	a0,a0,529
     ed4:	0542                	slli	a0,a0,0x10
     ed6:	8141                	srli	a0,a0,0x10
     ed8:	9d5ff0ef          	jal	ra,8ac <getReg16>
     edc:	b7f5                	j	ec8 <getODValue+0x28>
     ede:	1539                	addi	a0,a0,-18
     ee0:	0ff57493          	andi	s1,a0,255
     ee4:	8526                	mv	a0,s1
     ee6:	77f000ef          	jal	ra,1e64 <GetAIN>
     eea:	85aa                	mv	a1,a0
     eec:	8526                	mv	a0,s1
     eee:	517020ef          	jal	ra,3c04 <fGetAinCalData>
     ef2:	0000d7b7          	lui	a5,0xd
     ef6:	8207a583          	lw	a1,-2016(a5) # c820 <seg_const+0x14>
     efa:	569090ef          	jal	ra,ac62 <__mulsf3>
     efe:	37c0a0ef          	jal	ra,b27a <__fixsfsi>
     f02:	842a                	mv	s0,a0
     f04:	fc0903e3          	beqz	s2,eca <getODValue+0x2a>
     f08:	450d                	li	a0,3
     f0a:	02a48533          	mul	a0,s1,a0
     f0e:	0e550513          	addi	a0,a0,229
     f12:	99bff0ef          	jal	ra,8ac <getReg16>
     f16:	942a                	add	s0,s0,a0
     f18:	bf4d                	j	eca <getODValue+0x2a>
     f1a:	450d                	li	a0,3
     f1c:	749000ef          	jal	ra,1e64 <GetAIN>
     f20:	0000d7b7          	lui	a5,0xd
     f24:	8207a583          	lw	a1,-2016(a5) # c820 <seg_const+0x14>
     f28:	53b090ef          	jal	ra,ac62 <__mulsf3>
     f2c:	34e0a0ef          	jal	ra,b27a <__fixsfsi>
     f30:	bf61                	j	ec8 <getODValue+0x28>
     f32:	4501                	li	a0,0
     f34:	7db020ef          	jal	ra,3f0e <GetRPM>
     f38:	84aa                	mv	s1,a0
     f3a:	1dd00513          	li	a0,477
     f3e:	96fff0ef          	jal	ra,8ac <getReg16>
     f42:	4b60a0ef          	jal	ra,b3f8 <__floatunsisf>
     f46:	0000d7b7          	lui	a5,0xd
     f4a:	8f07a583          	lw	a1,-1808(a5) # c8f0 <dm+0x40>
     f4e:	151090ef          	jal	ra,a89e <__divsf3>
     f52:	842a                	mv	s0,a0
     f54:	8526                	mv	a0,s1
     f56:	3dc0a0ef          	jal	ra,b332 <__floatsisf>
     f5a:	85aa                	mv	a1,a0
     f5c:	8522                	mv	a0,s0
     f5e:	505090ef          	jal	ra,ac62 <__mulsf3>
     f62:	37a0a0ef          	jal	ra,b2dc <__fixunssfsi>
     f66:	4920a0ef          	jal	ra,b3f8 <__floatunsisf>
     f6a:	bf5d                	j	f20 <getODValue+0x80>
     f6c:	4505                	li	a0,1
     f6e:	7a1020ef          	jal	ra,3f0e <GetRPM>
     f72:	84aa                	mv	s1,a0
     f74:	1df00513          	li	a0,479
     f78:	b7d9                	j	f3e <getODValue+0x9e>
     f7a:	4509                	li	a0,2
     f7c:	69b020ef          	jal	ra,3e16 <uGetDIN>
     f80:	b7a1                	j	ec8 <getODValue+0x28>
     f82:	3d61                	jal	e1a <getOdometr>
     f84:	b791                	j	ec8 <getODValue+0x28>
     f86:	4519                	li	a0,6
     f88:	935ff0ef          	jal	ra,8bc <getReg32>
     f8c:	bf35                	j	ec8 <getODValue+0x28>
     f8e:	200007b7          	lui	a5,0x20000
     f92:	6407a403          	lw	s0,1600(a5) # 20000640 <ErrorRegister>
     f96:	bf15                	j	eca <getODValue+0x2a>
     f98:	20c00513          	li	a0,524
     f9c:	921ff0ef          	jal	ra,8bc <getReg32>
     fa0:	40855413          	srai	s0,a0,0x8
     fa4:	06400793          	li	a5,100
     fa8:	0ff47413          	andi	s0,s0,255
     fac:	02f40433          	mul	s0,s0,a5
     fb0:	0ff57793          	andi	a5,a0,255
     fb4:	8541                	srai	a0,a0,0x10
     fb6:	0ff57513          	andi	a0,a0,255
     fba:	943e                	add	s0,s0,a5
     fbc:	6789                	lui	a5,0x2
     fbe:	71078793          	addi	a5,a5,1808 # 2710 <CO_getUint16+0x8>
     fc2:	02f50533          	mul	a0,a0,a5
     fc6:	bf81                	j	f16 <getODValue+0x76>
     fc8:	4401                	li	s0,0
     fca:	b701                	j	eca <getODValue+0x2a>

00000fcc <IncMenuIndex>:
     fcc:	ba018713          	addi	a4,gp,-1120 # 20000948 <menu>
     fd0:	02874683          	lbu	a3,40(a4)
     fd4:	ba018793          	addi	a5,gp,-1120 # 20000948 <menu>
     fd8:	00269613          	slli	a2,a3,0x2
     fdc:	9732                	add	a4,a4,a2
     fde:	4310                	lw	a2,0(a4)
     fe0:	4771                	li	a4,28
     fe2:	02e61e63          	bne	a2,a4,101e <IncMenuIndex+0x52>
     fe6:	0397c703          	lbu	a4,57(a5)
     fea:	cb15                	beqz	a4,101e <IncMenuIndex+0x52>
     fec:	5bc8                	lw	a0,52(a5)
     fee:	c905                	beqz	a0,101e <IncMenuIndex+0x52>
     ff0:	0317c703          	lbu	a4,49(a5)
     ff4:	c709                	beqz	a4,ffe <IncMenuIndex+0x32>
     ff6:	02078ca3          	sb	zero,57(a5)
     ffa:	020788a3          	sb	zero,49(a5)
     ffe:	0397c703          	lbu	a4,57(a5)
    1002:	02000893          	li	a7,32
    1006:	4805                	li	a6,1
    1008:	0705                	addi	a4,a4,1
    100a:	0ff77713          	andi	a4,a4,255
    100e:	0ff77593          	andi	a1,a4,255
    1012:	02b8f563          	bgeu	a7,a1,103c <IncMenuIndex+0x70>
    1016:	02078ca3          	sb	zero,57(a5)
    101a:	020788a3          	sb	zero,49(a5)
    101e:	00168713          	addi	a4,a3,1
    1022:	0387c683          	lbu	a3,56(a5)
    1026:	0ff77713          	andi	a4,a4,255
    102a:	02e78423          	sb	a4,40(a5)
    102e:	00d76463          	bltu	a4,a3,1036 <IncMenuIndex+0x6a>
    1032:	02078423          	sb	zero,40(a5)
    1036:	0207a623          	sw	zero,44(a5)
    103a:	8082                	ret
    103c:	00e81633          	sll	a2,a6,a4
    1040:	8e69                	and	a2,a2,a0
    1042:	0705                	addi	a4,a4,1
    1044:	d669                	beqz	a2,100e <IncMenuIndex+0x42>
    1046:	02b78ca3          	sb	a1,57(a5)
    104a:	8082                	ret

0000104c <GoToHome>:
    104c:	ba018793          	addi	a5,gp,-1120 # 20000948 <menu>
    1050:	0297c703          	lbu	a4,41(a5)
    1054:	0207a623          	sw	zero,44(a5)
    1058:	02e78423          	sb	a4,40(a5)
    105c:	8082                	ret

0000105e <SetCurMenuHome>:
    105e:	cc0ff2ef          	jal	t0,51e <__riscv_save_0>
    1062:	ba018593          	addi	a1,gp,-1120 # 20000948 <menu>
    1066:	0285c783          	lbu	a5,40(a1) # 3f000028 <__freertos_irq_stack_top+0x1effb028>
    106a:	4605                	li	a2,1
    106c:	02958593          	addi	a1,a1,41
    1070:	a19c                	sb	a5,0(a1)
    1072:	20900513          	li	a0,521
    1076:	3179                	jal	d04 <WriteReg>
    1078:	ccaff06f          	j	542 <__riscv_restore_0>

0000107c <GetCurMenuHome>:
    107c:	bc81c503          	lbu	a0,-1080(gp) # 20000970 <menu+0x28>
    1080:	8082                	ret

00001082 <SetCurrentMenu>:
    1082:	47a9                	li	a5,10
    1084:	00a7e663          	bltu	a5,a0,1090 <SetCurrentMenu+0xe>
    1088:	bca18423          	sb	a0,-1080(gp) # 20000970 <menu+0x28>
    108c:	4501                	li	a0,0
    108e:	8082                	ret
    1090:	4505                	li	a0,1
    1092:	8082                	ret

00001094 <SetDefault>:
    1094:	47a9                	li	a5,10
    1096:	02a7e163          	bltu	a5,a0,10b8 <SetDefault+0x24>
    109a:	c84ff2ef          	jal	t0,51e <__riscv_save_0>
    109e:	ba018593          	addi	a1,gp,-1120 # 20000948 <menu>
    10a2:	02a584a3          	sb	a0,41(a1)
    10a6:	4605                	li	a2,1
    10a8:	02958593          	addi	a1,a1,41
    10ac:	20900513          	li	a0,521
    10b0:	3ed5                	jal	ca4 <WriteRegAfterDelay>
    10b2:	4501                	li	a0,0
    10b4:	c8eff06f          	j	542 <__riscv_restore_0>
    10b8:	4505                	li	a0,1
    10ba:	8082                	ret

000010bc <MenuBackHomeCheck>:
    10bc:	ba018793          	addi	a5,gp,-1120 # 20000948 <menu>
    10c0:	0287c683          	lbu	a3,40(a5)
    10c4:	0297c703          	lbu	a4,41(a5)
    10c8:	02e68563          	beq	a3,a4,10f2 <MenuBackHomeCheck+0x36>
    10cc:	0317c703          	lbu	a4,49(a5)
    10d0:	e30d                	bnez	a4,10f2 <MenuBackHomeCheck+0x36>
    10d2:	57d8                	lw	a4,44(a5)
    10d4:	953a                	add	a0,a0,a4
    10d6:	d7c8                	sw	a0,44(a5)
    10d8:	02a7c783          	lbu	a5,42(a5)
    10dc:	3e800713          	li	a4,1000
    10e0:	02e787b3          	mul	a5,a5,a4
    10e4:	00f56763          	bltu	a0,a5,10f2 <MenuBackHomeCheck+0x36>
    10e8:	c36ff2ef          	jal	t0,51e <__riscv_save_0>
    10ec:	3785                	jal	104c <GoToHome>
    10ee:	c54ff06f          	j	542 <__riscv_restore_0>
    10f2:	8082                	ret

000010f4 <CheckMenuChannel>:
    10f4:	c901                	beqz	a0,1104 <CheckMenuChannel+0x10>
    10f6:	47f1                	li	a5,28
    10f8:	00f50a63          	beq	a0,a5,110c <CheckMenuChannel+0x18>
    10fc:	47a1                	li	a5,8
    10fe:	4501                	li	a0,0
    1100:	00b7f563          	bgeu	a5,a1,110a <CheckMenuChannel+0x16>
    1104:	bcb18c23          	sb	a1,-1064(gp) # 20000980 <menu+0x38>
    1108:	4505                	li	a0,1
    110a:	8082                	ret
    110c:	bcb18823          	sb	a1,-1072(gp) # 20000978 <menu+0x30>
    1110:	4501                	li	a0,0
    1112:	8082                	ret

00001114 <vDashDrawInit>:
    1114:	bf0ff2ef          	jal	t0,504 <__riscv_save_4>
    1118:	b8018513          	addi	a0,gp,-1152 # 20000928 <AIN_MIDIAN_FILTER_STRUC>
    111c:	726060ef          	jal	ra,7842 <vInitMedianFilter>
    1120:	20900513          	li	a0,521
    1124:	ba018493          	addi	s1,gp,-1120 # 20000948 <menu>
    1128:	3e8d                	jal	c9a <getReg8>
    112a:	02a484a3          	sb	a0,41(s1)
    112e:	20a00513          	li	a0,522
    1132:	b69ff0ef          	jal	ra,c9a <getReg8>
    1136:	0294c783          	lbu	a5,41(s1)
    113a:	02a48523          	sb	a0,42(s1)
    113e:	02048c23          	sb	zero,56(s1)
    1142:	02f48423          	sb	a5,40(s1)
    1146:	ba018913          	addi	s2,gp,-1120 # 20000948 <menu>
    114a:	4481                	li	s1,0
    114c:	ba018413          	addi	s0,gp,-1120 # 20000948 <menu>
    1150:	4a05                	li	s4,1
    1152:	49a9                	li	s3,10
    1154:	00249513          	slli	a0,s1,0x2
    1158:	1e150513          	addi	a0,a0,481
    115c:	0542                	slli	a0,a0,0x10
    115e:	8141                	srli	a0,a0,0x10
    1160:	f5cff0ef          	jal	ra,8bc <getReg32>
    1164:	00a92023          	sw	a0,0(s2)
    1168:	0ff4f593          	andi	a1,s1,255
    116c:	0ff57513          	andi	a0,a0,255
    1170:	3751                	jal	10f4 <CheckMenuChannel>
    1172:	01450663          	beq	a0,s4,117e <vDashDrawInit+0x6a>
    1176:	0485                	addi	s1,s1,1
    1178:	0911                	addi	s2,s2,4
    117a:	fd349de3          	bne	s1,s3,1154 <vDashDrawInit+0x40>
    117e:	02042a23          	sw	zero,52(s0)
    1182:	02040ca3          	sb	zero,57(s0)
    1186:	02042e23          	sw	zero,60(s0)
    118a:	04040023          	sb	zero,64(s0)
    118e:	baaff06f          	j	538 <__riscv_restore_4>

00001192 <vMenuBlink>:
    1192:	ba018713          	addi	a4,gp,-1120 # 20000948 <menu>
    1196:	5f5c                	lw	a5,60(a4)
    1198:	c3a9                	beqz	a5,11da <vMenuBlink+0x48>
    119a:	04074783          	lbu	a5,64(a4)
    119e:	02800693          	li	a3,40
    11a2:	0785                	addi	a5,a5,1
    11a4:	0ff7f793          	andi	a5,a5,255
    11a8:	04f70023          	sb	a5,64(a4)
    11ac:	00f6f563          	bgeu	a3,a5,11b6 <vMenuBlink+0x24>
    11b0:	04070023          	sb	zero,64(a4)
    11b4:	8082                	ret
    11b6:	4755                	li	a4,21
    11b8:	02f77163          	bgeu	a4,a5,11da <vMenuBlink+0x48>
    11bc:	b62ff2ef          	jal	t0,51e <__riscv_save_0>
    11c0:	4401                	li	s0,0
    11c2:	449d                	li	s1,7
    11c4:	8522                	mv	a0,s0
    11c6:	0405                	addi	s0,s0,1
    11c8:	4581                	li	a1,0
    11ca:	0ff47413          	andi	s0,s0,255
    11ce:	07e010ef          	jal	ra,224c <SetSegDirect>
    11d2:	fe9419e3          	bne	s0,s1,11c4 <vMenuBlink+0x32>
    11d6:	b6cff06f          	j	542 <__riscv_restore_0>
    11da:	8082                	ret

000011dc <SetErrorRegiter>:
    11dc:	ba018713          	addi	a4,gp,-1120 # 20000948 <menu>
    11e0:	5b58                	lw	a4,52(a4)
    11e2:	ba018793          	addi	a5,gp,-1120 # 20000948 <menu>
    11e6:	04a70963          	beq	a4,a0,1238 <SetErrorRegiter+0x5c>
    11ea:	0307c683          	lbu	a3,48(a5)
    11ee:	c6a9                	beqz	a3,1238 <SetErrorRegiter+0x5c>
    11f0:	fff74713          	not	a4,a4
    11f4:	8f69                	and	a4,a4,a0
    11f6:	dbc8                	sw	a0,52(a5)
    11f8:	02078ca3          	sb	zero,57(a5)
    11fc:	4601                	li	a2,0
    11fe:	4501                	li	a0,0
    1200:	4885                	li	a7,1
    1202:	02000813          	li	a6,32
    1206:	00c895b3          	sll	a1,a7,a2
    120a:	8df9                	and	a1,a1,a4
    120c:	0ff67693          	andi	a3,a2,255
    1210:	c981                	beqz	a1,1220 <SetErrorRegiter+0x44>
    1212:	c119                	beqz	a0,1218 <SetErrorRegiter+0x3c>
    1214:	02d78ca3          	sb	a3,57(a5)
    1218:	4705                	li	a4,1
    121a:	02e788a3          	sb	a4,49(a5)
    121e:	8082                	ret
    1220:	0685                	addi	a3,a3,1
    1222:	0605                	addi	a2,a2,1
    1224:	0ff6f693          	andi	a3,a3,255
    1228:	4505                	li	a0,1
    122a:	fd061ee3          	bne	a2,a6,1206 <SetErrorRegiter+0x2a>
    122e:	02d78ca3          	sb	a3,57(a5)
    1232:	f37d                	bnez	a4,1218 <SetErrorRegiter+0x3c>
    1234:	020788a3          	sb	zero,49(a5)
    1238:	8082                	ret

0000123a <uGetCurrMenu>:
    123a:	ba018713          	addi	a4,gp,-1120 # 20000948 <menu>
    123e:	03174683          	lbu	a3,49(a4)
    1242:	4705                	li	a4,1
    1244:	ba018793          	addi	a5,gp,-1120 # 20000948 <menu>
    1248:	00e69663          	bne	a3,a4,1254 <uGetCurrMenu+0x1a>
    124c:	0307c703          	lbu	a4,48(a5)
    1250:	02e78423          	sb	a4,40(a5)
    1254:	0287c703          	lbu	a4,40(a5)
    1258:	070a                	slli	a4,a4,0x2
    125a:	97ba                	add	a5,a5,a4
    125c:	4388                	lw	a0,0(a5)
    125e:	8082                	ret

00001260 <vGetEdgeData>:
    1260:	abeff2ef          	jal	t0,51e <__riscv_save_0>
    1264:	1141                	addi	sp,sp,-16
    1266:	842a                	mv	s0,a0
    1268:	c432                	sw	a2,8(sp)
    126a:	c62e                	sw	a1,12(sp)
    126c:	e40ff0ef          	jal	ra,8ac <getReg16>
    1270:	45b2                	lw	a1,12(sp)
    1272:	a18a                	sh	a0,0(a1)
    1274:	00240513          	addi	a0,s0,2
    1278:	0542                	slli	a0,a0,0x10
    127a:	8141                	srli	a0,a0,0x10
    127c:	e30ff0ef          	jal	ra,8ac <getReg16>
    1280:	4622                	lw	a2,8(sp)
    1282:	a20a                	sh	a0,0(a2)
    1284:	0141                	addi	sp,sp,16
    1286:	abcff06f          	j	542 <__riscv_restore_0>

0000128a <checkLedState>:
    128a:	a94ff2ef          	jal	t0,51e <__riscv_save_0>
    128e:	1141                	addi	sp,sp,-16
    1290:	842e                	mv	s0,a1
    1292:	00e10613          	addi	a2,sp,14
    1296:	006c                	addi	a1,sp,12
    1298:	37e1                	jal	1260 <vGetEdgeData>
    129a:	8738                	lhu	a4,14(sp)
    129c:	4501                	li	a0,0
    129e:	c305                	beqz	a4,12be <checkLedState+0x34>
    12a0:	863c                	lhu	a5,12(sp)
    12a2:	4501                	li	a0,0
    12a4:	cf89                	beqz	a5,12be <checkLedState+0x34>
    12a6:	00e7e963          	bltu	a5,a4,12b8 <checkLedState+0x2e>
    12aa:	00e46a63          	bltu	s0,a4,12be <checkLedState+0x34>
    12ae:	0087b7b3          	sltu	a5,a5,s0
    12b2:	0017c513          	xori	a0,a5,1
    12b6:	a021                	j	12be <checkLedState+0x34>
    12b8:	4505                	li	a0,1
    12ba:	fee46ae3          	bltu	s0,a4,12ae <checkLedState+0x24>
    12be:	0141                	addi	sp,sp,16
    12c0:	a82ff06f          	j	542 <__riscv_restore_0>

000012c4 <vRGBMode>:
    12c4:	a5aff2ef          	jal	t0,51e <__riscv_save_0>
    12c8:	842a                	mv	s0,a0
    12ca:	e18d                	bnez	a1,12ec <vRGBMode+0x28>
    12cc:	4601                	li	a2,0
    12ce:	4589                	li	a1,2
    12d0:	72f000ef          	jal	ra,21fe <SetRGB>
    12d4:	4601                	li	a2,0
    12d6:	458d                	li	a1,3
    12d8:	8522                	mv	a0,s0
    12da:	725000ef          	jal	ra,21fe <SetRGB>
    12de:	4601                	li	a2,0
    12e0:	4585                	li	a1,1
    12e2:	8522                	mv	a0,s0
    12e4:	71b000ef          	jal	ra,21fe <SetRGB>
    12e8:	a5aff06f          	j	542 <__riscv_restore_0>
    12ec:	44b1                	li	s1,12
    12ee:	029404b3          	mul	s1,s0,s1
    12f2:	87ae                	mv	a5,a1
    12f4:	853e                	mv	a0,a5
    12f6:	4585                	li	a1,1
    12f8:	ba9ff0ef          	jal	ra,ea0 <getODValue>
    12fc:	01051913          	slli	s2,a0,0x10
    1300:	01095913          	srli	s2,s2,0x10
    1304:	85ca                	mv	a1,s2
    1306:	01b48513          	addi	a0,s1,27
    130a:	3741                	jal	128a <checkLedState>
    130c:	862a                	mv	a2,a0
    130e:	4589                	li	a1,2
    1310:	8522                	mv	a0,s0
    1312:	6ed000ef          	jal	ra,21fe <SetRGB>
    1316:	85ca                	mv	a1,s2
    1318:	01f48513          	addi	a0,s1,31
    131c:	37bd                	jal	128a <checkLedState>
    131e:	862a                	mv	a2,a0
    1320:	4585                	li	a1,1
    1322:	8522                	mv	a0,s0
    1324:	6db000ef          	jal	ra,21fe <SetRGB>
    1328:	85ca                	mv	a1,s2
    132a:	02348513          	addi	a0,s1,35
    132e:	3fb1                	jal	128a <checkLedState>
    1330:	862a                	mv	a2,a0
    1332:	458d                	li	a1,3
    1334:	b77d                	j	12e2 <vRGBMode+0x1e>

00001336 <vBarColorMode>:
    1336:	9c0ff2ef          	jal	t0,4f6 <__riscv_save_10>
    133a:	1141                	addi	sp,sp,-16
    133c:	8aaa                	mv	s5,a0
    133e:	84ae                	mv	s1,a1
    1340:	453d                	li	a0,15
    1342:	006c                	addi	a1,sp,12
    1344:	89b2                	mv	s3,a2
    1346:	00e10613          	addi	a2,sp,14
    134a:	8936                	mv	s2,a3
    134c:	8c3a                	mv	s8,a4
    134e:	8b3e                	mv	s6,a5
    1350:	8d42                	mv	s10,a6
    1352:	8cc6                	mv	s9,a7
    1354:	04415403          	lhu	s0,68(sp)
    1358:	3721                	jal	1260 <vGetEdgeData>
    135a:	8628                	lhu	a0,12(sp)
    135c:	00e15b83          	lhu	s7,14(sp)
    1360:	41750533          	sub	a0,a0,s7
    1364:	7cf090ef          	jal	ra,b332 <__floatsisf>
    1368:	0000d7b7          	lui	a5,0xd
    136c:	8f47a583          	lw	a1,-1804(a5) # c8f4 <dm+0x44>
    1370:	0f3090ef          	jal	ra,ac62 <__mulsf3>
    1374:	8a2a                	mv	s4,a0
    1376:	03346e63          	bltu	s0,s3,13b2 <vBarColorMode+0x7c>
    137a:	41798533          	sub	a0,s3,s7
    137e:	7b5090ef          	jal	ra,b332 <__floatsisf>
    1382:	85d2                	mv	a1,s4
    1384:	51a090ef          	jal	ra,a89e <__divsf3>
    1388:	755090ef          	jal	ra,b2dc <__fixunssfsi>
    138c:	00ad0023          	sb	a0,0(s10)
    1390:	41340533          	sub	a0,s0,s3
    1394:	00897463          	bgeu	s2,s0,139c <vBarColorMode+0x66>
    1398:	41390533          	sub	a0,s2,s3
    139c:	0542                	slli	a0,a0,0x10
    139e:	8141                	srli	a0,a0,0x10
    13a0:	0580a0ef          	jal	ra,b3f8 <__floatunsisf>
    13a4:	85d2                	mv	a1,s4
    13a6:	4f8090ef          	jal	ra,a89e <__divsf3>
    13aa:	733090ef          	jal	ra,b2dc <__fixunssfsi>
    13ae:	00ac8023          	sb	a0,0(s9)
    13b2:	03546d63          	bltu	s0,s5,13ec <vBarColorMode+0xb6>
    13b6:	417a8533          	sub	a0,s5,s7
    13ba:	779090ef          	jal	ra,b332 <__floatsisf>
    13be:	85d2                	mv	a1,s4
    13c0:	4de090ef          	jal	ra,a89e <__divsf3>
    13c4:	719090ef          	jal	ra,b2dc <__fixunssfsi>
    13c8:	00ac0023          	sb	a0,0(s8)
    13cc:	0284e363          	bltu	s1,s0,13f2 <vBarColorMode+0xbc>
    13d0:	41540433          	sub	s0,s0,s5
    13d4:	01041513          	slli	a0,s0,0x10
    13d8:	8141                	srli	a0,a0,0x10
    13da:	01e0a0ef          	jal	ra,b3f8 <__floatunsisf>
    13de:	85d2                	mv	a1,s4
    13e0:	4be090ef          	jal	ra,a89e <__divsf3>
    13e4:	6f9090ef          	jal	ra,b2dc <__fixunssfsi>
    13e8:	00ab0023          	sb	a0,0(s6)
    13ec:	0141                	addi	sp,sp,16
    13ee:	940ff06f          	j	52e <__riscv_restore_10>
    13f2:	41548433          	sub	s0,s1,s5
    13f6:	bff9                	j	13d4 <vBarColorMode+0x9e>

000013f8 <vBarWindowMode>:
    13f8:	00014803          	lbu	a6,0(sp)
    13fc:	8238                	lhu	a4,4(sp)
    13fe:	02a5f663          	bgeu	a1,a0,142a <vBarWindowMode+0x32>
    1402:	00a77463          	bgeu	a4,a0,140a <vBarWindowMode+0x12>
    1406:	00e6e663          	bltu	a3,a4,1412 <vBarWindowMode+0x1a>
    140a:	00b77963          	bgeu	a4,a1,141c <vBarWindowMode+0x24>
    140e:	02e67f63          	bgeu	a2,a4,144c <vBarWindowMode+0x54>
    1412:	01088023          	sb	a6,0(a7)
    1416:	01078023          	sb	a6,0(a5)
    141a:	8082                	ret
    141c:	00d76463          	bltu	a4,a3,1424 <vBarWindowMode+0x2c>
    1420:	fee67be3          	bgeu	a2,a4,1416 <vBarWindowMode+0x1e>
    1424:	01088023          	sb	a6,0(a7)
    1428:	8082                	ret
    142a:	00e67763          	bgeu	a2,a4,1438 <vBarWindowMode+0x40>
    142e:	feb762e3          	bltu	a4,a1,1412 <vBarWindowMode+0x1a>
    1432:	fed779e3          	bgeu	a4,a3,1424 <vBarWindowMode+0x2c>
    1436:	a019                	j	143c <vBarWindowMode+0x44>
    1438:	00d77563          	bgeu	a4,a3,1442 <vBarWindowMode+0x4a>
    143c:	fce56be3          	bltu	a0,a4,1412 <vBarWindowMode+0x1a>
    1440:	b7d5                	j	1424 <vBarWindowMode+0x2c>
    1442:	feb771e3          	bgeu	a4,a1,1424 <vBarWindowMode+0x2c>
    1446:	fce568e3          	bltu	a0,a4,1416 <vBarWindowMode+0x1e>
    144a:	bfe9                	j	1424 <vBarWindowMode+0x2c>
    144c:	fcd76ce3          	bltu	a4,a3,1424 <vBarWindowMode+0x2c>
    1450:	b7d9                	j	1416 <vBarWindowMode+0x1e>

00001452 <vBarMode>:
    1452:	8ccff2ef          	jal	t0,51e <__riscv_save_0>
    1456:	7179                	addi	sp,sp,-48
    1458:	892a                	mv	s2,a0
    145a:	842e                	mv	s0,a1
    145c:	84b2                	mv	s1,a2
    145e:	106c                	addi	a1,sp,44
    1460:	02e10613          	addi	a2,sp,46
    1464:	453d                	li	a0,15
    1466:	ce36                	sw	a3,28(sp)
    1468:	cc3a                	sw	a4,24(sp)
    146a:	ca3e                	sw	a5,20(sp)
    146c:	c842                	sw	a6,16(sp)
    146e:	c646                	sw	a7,12(sp)
    1470:	3bc5                	jal	1260 <vGetEdgeData>
    1472:	46f2                	lw	a3,28(sp)
    1474:	48b2                	lw	a7,12(sp)
    1476:	4842                	lw	a6,16(sp)
    1478:	47d2                	lw	a5,20(sp)
    147a:	4762                	lw	a4,24(sp)
    147c:	0286f463          	bgeu	a3,s0,14a4 <vBarMode+0x52>
    1480:	0126eb63          	bltu	a3,s2,1496 <vBarMode+0x44>
    1484:	0128e963          	bltu	a7,s2,1496 <vBarMode+0x44>
    1488:	0116e963          	bltu	a3,a7,149a <vBarMode+0x48>
    148c:	01070023          	sb	a6,0(a4)
    1490:	01078023          	sb	a6,0(a5)
    1494:	a029                	j	149e <vBarMode+0x4c>
    1496:	ff16fde3          	bgeu	a3,a7,1490 <vBarMode+0x3e>
    149a:	01070023          	sb	a6,0(a4)
    149e:	6145                	addi	sp,sp,48
    14a0:	8a2ff06f          	j	542 <__riscv_restore_0>
    14a4:	00946763          	bltu	s0,s1,14b2 <vBarMode+0x60>
    14a8:	0098e563          	bltu	a7,s1,14b2 <vBarMode+0x60>
    14ac:	ff1462e3          	bltu	s0,a7,1490 <vBarMode+0x3e>
    14b0:	bff1                	j	148c <vBarMode+0x3a>
    14b2:	ff1474e3          	bgeu	s0,a7,149a <vBarMode+0x48>
    14b6:	bfe9                	j	1490 <vBarMode+0x3e>

000014b8 <RedrawNotifyTaskToInit>:
    14b8:	866ff2ef          	jal	t0,51e <__riscv_save_0>
    14bc:	371050ef          	jal	ra,702c <xTaskGetCurrentTaskHandle>
    14c0:	200007b7          	lui	a5,0x20000
    14c4:	64a7a823          	sw	a0,1616(a5) # 20000650 <pTaskToNotifykHandle>
    14c8:	200007b7          	lui	a5,0x20000
    14cc:	64c7a503          	lw	a0,1612(a5) # 2000064c <pProcessTaskHandle>
    14d0:	4701                	li	a4,0
    14d2:	468d                	li	a3,3
    14d4:	4611                	li	a2,4
    14d6:	4581                	li	a1,0
    14d8:	74f050ef          	jal	ra,7426 <xTaskGenericNotify>
    14dc:	866ff06f          	j	542 <__riscv_restore_0>

000014e0 <vRedrawTask>:
    14e0:	816ff2ef          	jal	t0,4f6 <__riscv_save_10>
    14e4:	7139                	addi	sp,sp,-64
    14e6:	577d                	li	a4,-1
    14e8:	1874                	addi	a3,sp,60
    14ea:	0ff00613          	li	a2,255
    14ee:	4581                	li	a1,0
    14f0:	4501                	li	a0,0
    14f2:	653050ef          	jal	ra,7344 <xTaskGenericNotifyWait>
    14f6:	57f2                	lw	a5,60(sp)
    14f8:	8b91                	andi	a5,a5,4
    14fa:	d7f5                	beqz	a5,14e6 <vRedrawTask+0x6>
    14fc:	c19ff0ef          	jal	ra,1114 <vDashDrawInit>
    1500:	b9018793          	addi	a5,gp,-1136 # 20000938 <Keys>
    1504:	0007a023          	sw	zero,0(a5)
    1508:	0007a223          	sw	zero,4(a5)
    150c:	00079423          	sh	zero,8(a5)
    1510:	0007a623          	sw	zero,12(a5)
    1514:	200007b7          	lui	a5,0x20000
    1518:	6507a503          	lw	a0,1616(a5) # 20000650 <pTaskToNotifykHandle>
    151c:	4701                	li	a4,0
    151e:	4689                	li	a3,2
    1520:	4601                	li	a2,0
    1522:	4581                	li	a1,0
    1524:	703050ef          	jal	ra,7426 <xTaskGenericNotify>
    1528:	0000d7b7          	lui	a5,0xd
    152c:	8f47ab83          	lw	s7,-1804(a5) # c8f4 <dm+0x44>
    1530:	4981                	li	s3,0
    1532:	b9018413          	addi	s0,gp,-1136 # 20000938 <Keys>
    1536:	20000b37          	lui	s6,0x20000
    153a:	ba018913          	addi	s2,gp,-1120 # 20000948 <menu>
    153e:	84418a13          	addi	s4,gp,-1980 # 200005ec <RMPMADOWN>
    1542:	84818a93          	addi	s5,gp,-1976 # 200005f0 <RMPMAUP>
    1546:	4529                	li	a0,10
    1548:	73a050ef          	jal	ra,6c82 <vTaskDelay>
    154c:	6585                	lui	a1,0x1
    154e:	40011537          	lui	a0,0x40011
    1552:	80058593          	addi	a1,a1,-2048 # 800 <vCanOpenPeriodicProcess+0x5a>
    1556:	c0050513          	addi	a0,a0,-1024 # 40010c00 <__freertos_irq_stack_top+0x2000bc00>
    155a:	798030ef          	jal	ra,4cf2 <HAL_GetBit>
    155e:	4705                	li	a4,1
    1560:	0ce51063          	bne	a0,a4,1620 <vRedrawTask+0x140>
    1564:	405c                	lw	a5,4(s0)
    1566:	c791                	beqz	a5,1572 <vRedrawTask+0x92>
    1568:	c008                	sw	a0,0(s0)
    156a:	00042223          	sw	zero,4(s0)
    156e:	00041423          	sh	zero,8(s0)
    1572:	644b0c93          	addi	s9,s6,1604 # 20000644 <MenuSatate>
    1576:	000ca503          	lw	a0,0(s9)
    157a:	4444                	lw	s1,12(s0)
    157c:	644b0c13          	addi	s8,s6,1604
    1580:	24051663          	bnez	a0,17cc <vRedrawTask+0x2ec>
    1584:	4785                	li	a5,1
    1586:	e489                	bnez	s1,1590 <vRedrawTask+0xb0>
    1588:	03194783          	lbu	a5,49(s2)
    158c:	00f037b3          	snez	a5,a5
    1590:	4529                	li	a0,10
    1592:	02f92e23          	sw	a5,60(s2)
    1596:	b27ff0ef          	jal	ra,10bc <MenuBackHomeCheck>
    159a:	401c                	lw	a5,0(s0)
    159c:	4705                	li	a4,1
    159e:	00e79563          	bne	a5,a4,15a8 <vRedrawTask+0xc8>
    15a2:	e4e9                	bnez	s1,166c <vRedrawTask+0x18c>
    15a4:	a29ff0ef          	jal	ra,fcc <IncMenuIndex>
    15a8:	200007b7          	lui	a5,0x20000
    15ac:	6407ac03          	lw	s8,1600(a5) # 20000640 <ErrorRegister>
    15b0:	8562                	mv	a0,s8
    15b2:	c2bff0ef          	jal	ra,11dc <SetErrorRegiter>
    15b6:	3151                	jal	123a <uGetCurrMenu>
    15b8:	84aa                	mv	s1,a0
    15ba:	47f1                	li	a5,28
    15bc:	0ff57513          	andi	a0,a0,255
    15c0:	1ef51c63          	bne	a0,a5,17b8 <vRedrawTask+0x2d8>
    15c4:	0c0c0663          	beqz	s8,1690 <vRedrawTask+0x1b0>
    15c8:	03492683          	lw	a3,52(s2)
    15cc:	03994783          	lbu	a5,57(s2)
    15d0:	4601                	li	a2,0
    15d2:	4585                	li	a1,1
    15d4:	02000513          	li	a0,32
    15d8:	00f59733          	sll	a4,a1,a5
    15dc:	8f75                	and	a4,a4,a3
    15de:	c345                	beqz	a4,167e <vRedrawTask+0x19e>
    15e0:	c219                	beqz	a2,15e6 <vRedrawTask+0x106>
    15e2:	02f90ca3          	sb	a5,57(s2)
    15e6:	03994783          	lbu	a5,57(s2)
    15ea:	4629                	li	a2,10
    15ec:	6735                	lui	a4,0xd
    15ee:	0785                	addi	a5,a5,1
    15f0:	0ff7f793          	andi	a5,a5,255
    15f4:	02c7f6b3          	remu	a3,a5,a2
    15f8:	95470713          	addi	a4,a4,-1708 # c954 <DigitMask>
    15fc:	05000593          	li	a1,80
    1600:	07900513          	li	a0,121
    1604:	02c7d7b3          	divu	a5,a5,a2
    1608:	96ba                	add	a3,a3,a4
    160a:	0006c803          	lbu	a6,0(a3)
    160e:	05000613          	li	a2,80
    1612:	4681                	li	a3,0
    1614:	97ba                	add	a5,a5,a4
    1616:	239c                	lbu	a5,0(a5)
    1618:	4701                	li	a4,0
    161a:	819ff0ef          	jal	ra,e32 <SegPrint>
    161e:	a2dd                	j	1804 <vRedrawTask+0x324>
    1620:	241e                	lhu	a5,8(s0)
    1622:	4054                	lw	a3,4(s0)
    1624:	0785                	addi	a5,a5,1
    1626:	07c2                	slli	a5,a5,0x10
    1628:	83c1                	srli	a5,a5,0x10
    162a:	a41e                	sh	a5,8(s0)
    162c:	e285                	bnez	a3,164c <vRedrawTask+0x16c>
    162e:	4691                	li	a3,4
    1630:	f4f6f1e3          	bgeu	a3,a5,1572 <vRedrawTask+0x92>
    1634:	c058                	sw	a4,4(s0)
    1636:	25700713          	li	a4,599
    163a:	00f77c63          	bgeu	a4,a5,1652 <vRedrawTask+0x172>
    163e:	478d                	li	a5,3
    1640:	c45c                	sw	a5,12(s0)
    1642:	4785                	li	a5,1
    1644:	c01c                	sw	a5,0(s0)
    1646:	4789                	li	a5,2
    1648:	c05c                	sw	a5,4(s0)
    164a:	b725                	j	1572 <vRedrawTask+0x92>
    164c:	f2e693e3          	bne	a3,a4,1572 <vRedrawTask+0x92>
    1650:	b7dd                	j	1636 <vRedrawTask+0x156>
    1652:	18f00713          	li	a4,399
    1656:	00f77563          	bgeu	a4,a5,1660 <vRedrawTask+0x180>
    165a:	4789                	li	a5,2
    165c:	c45c                	sw	a5,12(s0)
    165e:	bf11                	j	1572 <vRedrawTask+0x92>
    1660:	0c700713          	li	a4,199
    1664:	f0f777e3          	bgeu	a4,a5,1572 <vRedrawTask+0x92>
    1668:	4785                	li	a5,1
    166a:	bfcd                	j	165c <vRedrawTask+0x17c>
    166c:	470d                	li	a4,3
    166e:	00e49563          	bne	s1,a4,1678 <vRedrawTask+0x198>
    1672:	00fc2023          	sw	a5,0(s8)
    1676:	bf0d                	j	15a8 <vRedrawTask+0xc8>
    1678:	9e7ff0ef          	jal	ra,105e <SetCurMenuHome>
    167c:	b735                	j	15a8 <vRedrawTask+0xc8>
    167e:	0785                	addi	a5,a5,1
    1680:	0ff7f793          	andi	a5,a5,255
    1684:	00f57363          	bgeu	a0,a5,168a <vRedrawTask+0x1aa>
    1688:	4781                	li	a5,0
    168a:	4605                	li	a2,1
    168c:	f6b1                	bnez	a3,15d8 <vRedrawTask+0xf8>
    168e:	bf91                	j	15e2 <vRedrawTask+0x102>
    1690:	93dff0ef          	jal	ra,fcc <IncMenuIndex>
    1694:	affff0ef          	jal	ra,1192 <vMenuBlink>
    1698:	4018                	lw	a4,0(s0)
    169a:	4785                	li	a5,1
    169c:	00f71663          	bne	a4,a5,16a8 <vRedrawTask+0x1c8>
    16a0:	00042023          	sw	zero,0(s0)
    16a4:	00042623          	sw	zero,12(s0)
    16a8:	0985                	addi	s3,s3,1
    16aa:	0ff9f993          	andi	s3,s3,255
    16ae:	47cd                	li	a5,19
    16b0:	e937fbe3          	bgeu	a5,s3,1546 <vRedrawTask+0x66>
    16b4:	4481                	li	s1,0
    16b6:	49b9                	li	s3,14
    16b8:	0c348513          	addi	a0,s1,195
    16bc:	0542                	slli	a0,a0,0x10
    16be:	8141                	srli	a0,a0,0x10
    16c0:	ddaff0ef          	jal	ra,c9a <getReg8>
    16c4:	85aa                	mv	a1,a0
    16c6:	0ff4f513          	andi	a0,s1,255
    16ca:	0485                	addi	s1,s1,1
    16cc:	bf9ff0ef          	jal	ra,12c4 <vRGBMode>
    16d0:	ff3494e3          	bne	s1,s3,16b8 <vRedrawTask+0x1d8>
    16d4:	0d100513          	li	a0,209
    16d8:	dc2ff0ef          	jal	ra,c9a <getReg8>
    16dc:	02010623          	sb	zero,44(sp)
    16e0:	020106a3          	sb	zero,45(sp)
    16e4:	02010723          	sb	zero,46(sp)
    16e8:	020107a3          	sb	zero,47(sp)
    16ec:	c549                	beqz	a0,1776 <vRedrawTask+0x296>
    16ee:	4585                	li	a1,1
    16f0:	fb0ff0ef          	jal	ra,ea0 <getODValue>
    16f4:	01051c13          	slli	s8,a0,0x10
    16f8:	03a10613          	addi	a2,sp,58
    16fc:	182c                	addi	a1,sp,56
    16fe:	8d2a                	mv	s10,a0
    1700:	453d                	li	a0,15
    1702:	b5fff0ef          	jal	ra,1260 <vGetEdgeData>
    1706:	1850                	addi	a2,sp,52
    1708:	03610593          	addi	a1,sp,54
    170c:	454d                	li	a0,19
    170e:	b53ff0ef          	jal	ra,1260 <vGetEdgeData>
    1712:	1810                	addi	a2,sp,48
    1714:	03210593          	addi	a1,sp,50
    1718:	455d                	li	a0,23
    171a:	b47ff0ef          	jal	ra,1260 <vGetEdgeData>
    171e:	03a15783          	lhu	a5,58(sp)
    1722:	03815503          	lhu	a0,56(sp)
    1726:	010c5c13          	srli	s8,s8,0x10
    172a:	8d1d                	sub	a0,a0,a5
    172c:	407090ef          	jal	ra,b332 <__floatsisf>
    1730:	85de                	mv	a1,s7
    1732:	530090ef          	jal	ra,ac62 <__mulsf3>
    1736:	8caa                	mv	s9,a0
    1738:	4515                	li	a0,5
    173a:	d60ff0ef          	jal	ra,c9a <getReg8>
    173e:	03415603          	lhu	a2,52(sp)
    1742:	03015483          	lhu	s1,48(sp)
    1746:	03215983          	lhu	s3,50(sp)
    174a:	03615683          	lhu	a3,54(sp)
    174e:	2a051563          	bnez	a0,19f8 <vRedrawTask+0x518>
    1752:	0099e463          	bltu	s3,s1,175a <vRedrawTask+0x27a>
    1756:	02c6f063          	bgeu	a3,a2,1776 <vRedrawTask+0x296>
    175a:	c262                	sw	s8,4(sp)
    175c:	c066                	sw	s9,0(sp)
    175e:	02d10893          	addi	a7,sp,45
    1762:	02c10813          	addi	a6,sp,44
    1766:	02f10793          	addi	a5,sp,47
    176a:	02e10713          	addi	a4,sp,46
    176e:	85ce                	mv	a1,s3
    1770:	8526                	mv	a0,s1
    1772:	bc5ff0ef          	jal	ra,1336 <vBarColorMode>
    1776:	02d14683          	lbu	a3,45(sp)
    177a:	02c14603          	lbu	a2,44(sp)
    177e:	02f14583          	lbu	a1,47(sp)
    1782:	02e14503          	lbu	a0,46(sp)
    1786:	229000ef          	jal	ra,21ae <SetBarState>
    178a:	21000513          	li	a0,528
    178e:	91eff0ef          	jal	ra,8ac <getReg16>
    1792:	0ff57793          	andi	a5,a0,255
    1796:	4501                	li	a0,0
    1798:	cb91                	beqz	a5,17ac <vRedrawTask+0x2cc>
    179a:	fff78513          	addi	a0,a5,-1
    179e:	0ff57513          	andi	a0,a0,255
    17a2:	06950513          	addi	a0,a0,105
    17a6:	0506                	slli	a0,a0,0x1
    17a8:	904ff0ef          	jal	ra,8ac <getReg16>
    17ac:	47f000ef          	jal	ra,242a <SetBigSeg>
    17b0:	4981                	li	s3,0
    17b2:	503000ef          	jal	ra,24b4 <vLedProcess>
    17b6:	bb41                	j	1546 <vRedrawTask+0x66>
    17b8:	4581                	li	a1,0
    17ba:	ee6ff0ef          	jal	ra,ea0 <getODValue>
    17be:	85aa                	mv	a1,a0
    17c0:	4605                	li	a2,1
    17c2:	0104d513          	srli	a0,s1,0x10
    17c6:	345000ef          	jal	ra,230a <SetSEG>
    17ca:	b5e9                	j	1694 <vRedrawTask+0x1b4>
    17cc:	4d05                	li	s10,1
    17ce:	0da51063          	bne	a0,s10,188e <vRedrawTask+0x3ae>
    17d2:	0014b793          	seqz	a5,s1
    17d6:	02f92e23          	sw	a5,60(s2)
    17da:	401c                	lw	a5,0(s0)
    17dc:	20000c37          	lui	s8,0x20000
    17e0:	648c0c13          	addi	s8,s8,1608 # 20000648 <ServieModeFSM>
    17e4:	00a79863          	bne	a5,a0,17f4 <vRedrawTask+0x314>
    17e8:	000c4783          	lbu	a5,0(s8)
    17ec:	e085                	bnez	s1,180c <vRedrawTask+0x32c>
    17ee:	0785                	addi	a5,a5,1
    17f0:	00fc0023          	sb	a5,0(s8)
    17f4:	000c4503          	lbu	a0,0(s8)
    17f8:	47a1                	li	a5,8
    17fa:	04a7fe63          	bgeu	a5,a0,1856 <vRedrawTask+0x376>
    17fe:	4785                	li	a5,1
    1800:	00fc0023          	sb	a5,0(s8)
    1804:	4501                	li	a0,0
    1806:	2e3000ef          	jal	ra,22e8 <SetSegPoint>
    180a:	b569                	j	1694 <vRedrawTask+0x1b4>
    180c:	4719                	li	a4,6
    180e:	02e78763          	beq	a5,a4,183c <vRedrawTask+0x35c>
    1812:	00f76d63          	bltu	a4,a5,182c <vRedrawTask+0x34c>
    1816:	dff9                	beqz	a5,17f4 <vRedrawTask+0x314>
    1818:	17fd                	addi	a5,a5,-1
    181a:	6735                	lui	a4,0xd
    181c:	078a                	slli	a5,a5,0x2
    181e:	89c70713          	addi	a4,a4,-1892 # c89c <MenuStateCross>
    1822:	97ba                	add	a5,a5,a4
    1824:	439c                	lw	a5,0(a5)
    1826:	00fca023          	sw	a5,0(s9)
    182a:	b7e9                	j	17f4 <vRedrawTask+0x314>
    182c:	4721                	li	a4,8
    182e:	fce793e3          	bne	a5,a4,17f4 <vRedrawTask+0x314>
    1832:	81bff0ef          	jal	ra,104c <GoToHome>
    1836:	000ca023          	sw	zero,0(s9)
    183a:	bf6d                	j	17f4 <vRedrawTask+0x314>
    183c:	4589                	li	a1,2
    183e:	1dd00513          	li	a0,477
    1842:	856ff0ef          	jal	ra,898 <SaveReg16>
    1846:	4589                	li	a1,2
    1848:	1df00513          	li	a0,479
    184c:	84cff0ef          	jal	ra,898 <SaveReg16>
    1850:	000c0023          	sb	zero,0(s8)
    1854:	b745                	j	17f4 <vRedrawTask+0x314>
    1856:	479d                	li	a5,7
    1858:	00f51c63          	bne	a0,a5,1870 <vRedrawTask+0x390>
    185c:	4581                	li	a1,0
    185e:	4575                	li	a0,29
    1860:	e40ff0ef          	jal	ra,ea0 <getODValue>
    1864:	85aa                	mv	a1,a0
    1866:	4601                	li	a2,0
    1868:	6515                	lui	a0,0x5
    186a:	2a1000ef          	jal	ra,230a <SetSEG>
    186e:	bf59                	j	1804 <vRedrawTask+0x324>
    1870:	02f507b3          	mul	a5,a0,a5
    1874:	6535                	lui	a0,0xd
    1876:	8b050513          	addi	a0,a0,-1872 # c8b0 <dm>
    187a:	953e                	add	a0,a0,a5
    187c:	00654803          	lbu	a6,6(a0)
    1880:	315c                	lbu	a5,5(a0)
    1882:	2158                	lbu	a4,4(a0)
    1884:	3134                	lbu	a3,3(a0)
    1886:	2130                	lbu	a2,2(a0)
    1888:	310c                	lbu	a1,1(a0)
    188a:	2108                	lbu	a0,0(a0)
    188c:	b379                	j	161a <vRedrawTask+0x13a>
    188e:	fff48793          	addi	a5,s1,-1
    1892:	0017b793          	seqz	a5,a5
    1896:	02f92e23          	sw	a5,60(s2)
    189a:	4799                	li	a5,6
    189c:	02a7fc63          	bgeu	a5,a0,18d4 <vRedrawTask+0x3f4>
    18a0:	1565                	addi	a0,a0,-7
    18a2:	0ff57513          	andi	a0,a0,255
    18a6:	00151713          	slli	a4,a0,0x1
    18aa:	84c18793          	addi	a5,gp,-1972 # 200005f4 <ain_view_mask>
    18ae:	97ba                	add	a5,a5,a4
    18b0:	2386                	lhu	s1,0(a5)
    18b2:	5b2000ef          	jal	ra,1e64 <GetAIN>
    18b6:	1c5090ef          	jal	ra,b27a <__fixsfsi>
    18ba:	45a9                	li	a1,10
    18bc:	02b505b3          	mul	a1,a0,a1
    18c0:	4605                	li	a2,1
    18c2:	8526                	mv	a0,s1
    18c4:	247000ef          	jal	ra,230a <SetSEG>
    18c8:	401c                	lw	a5,0(s0)
    18ca:	dc0785e3          	beqz	a5,1694 <vRedrawTask+0x1b4>
    18ce:	01aca023          	sw	s10,0(s9)
    18d2:	b3c9                	j	1694 <vRedrawTask+0x1b4>
    18d4:	20000cb7          	lui	s9,0x20000
    18d8:	649cc703          	lbu	a4,1609(s9) # 20000649 <coof_view_flag>
    18dc:	401c                	lw	a5,0(s0)
    18de:	649c8c93          	addi	s9,s9,1609
    18e2:	05a71c63          	bne	a4,s10,193a <vRedrawTask+0x45a>
    18e6:	da0787e3          	beqz	a5,1694 <vRedrawTask+0x1b4>
    18ea:	00ec2023          	sw	a4,0(s8)
    18ee:	000c8023          	sb	zero,0(s9)
    18f2:	478d                	li	a5,3
    18f4:	04f49463          	bne	s1,a5,193c <vRedrawTask+0x45c>
    18f8:	000c2683          	lw	a3,0(s8)
    18fc:	4785                	li	a5,1
    18fe:	00fc8023          	sb	a5,0(s9)
    1902:	16f5                	addi	a3,a3,-3
    1904:	0026b793          	sltiu	a5,a3,2
    1908:	0017c793          	xori	a5,a5,1
    190c:	00179713          	slli	a4,a5,0x1
    1910:	85418793          	addi	a5,gp,-1964 # 200005fc <rpm_view_mask>
    1914:	97ba                	add	a5,a5,a4
    1916:	2386                	lhu	s1,0(a5)
    1918:	4785                	li	a5,1
    191a:	4501                	li	a0,0
    191c:	00d7f363          	bgeu	a5,a3,1922 <vRedrawTask+0x442>
    1920:	4509                	li	a0,2
    1922:	1dd50513          	addi	a0,a0,477
    1926:	0542                	slli	a0,a0,0x10
    1928:	8141                	srli	a0,a0,0x10
    192a:	f83fe0ef          	jal	ra,8ac <getReg16>
    192e:	85aa                	mv	a1,a0
    1930:	4601                	li	a2,0
    1932:	8526                	mv	a0,s1
    1934:	1d7000ef          	jal	ra,230a <SetSEG>
    1938:	a011                	j	193c <vRedrawTask+0x45c>
    193a:	ffc5                	bnez	a5,18f2 <vRedrawTask+0x412>
    193c:	000cc783          	lbu	a5,0(s9)
    1940:	d4079ae3          	bnez	a5,1694 <vRedrawTask+0x1b4>
    1944:	000c2483          	lw	s1,0(s8)
    1948:	0014f793          	andi	a5,s1,1
    194c:	cfb9                	beqz	a5,19aa <vRedrawTask+0x4ca>
    194e:	14f5                	addi	s1,s1,-3
    1950:	00903533          	snez	a0,s1
    1954:	00151493          	slli	s1,a0,0x1
    1958:	009a87b3          	add	a5,s5,s1
    195c:	0007dc83          	lhu	s9,0(a5)
    1960:	4581                	li	a1,0
    1962:	0559                	addi	a0,a0,22
    1964:	d3cff0ef          	jal	ra,ea0 <getODValue>
    1968:	85aa                	mv	a1,a0
    196a:	4605                	li	a2,1
    196c:	8566                	mv	a0,s9
    196e:	19d000ef          	jal	ra,230a <SetSEG>
    1972:	401c                	lw	a5,0(s0)
    1974:	d20780e3          	beqz	a5,1694 <vRedrawTask+0x1b4>
    1978:	445c                	lw	a5,12(s0)
    197a:	4705                	li	a4,1
    197c:	00e79863          	bne	a5,a4,198c <vRedrawTask+0x4ac>
    1980:	000c2783          	lw	a5,0(s8)
    1984:	0785                	addi	a5,a5,1
    1986:	00fc2023          	sw	a5,0(s8)
    198a:	b329                	j	1694 <vRedrawTask+0x1b4>
    198c:	d00794e3          	bnez	a5,1694 <vRedrawTask+0x1b4>
    1990:	1dd48493          	addi	s1,s1,477
    1994:	8526                	mv	a0,s1
    1996:	f17fe0ef          	jal	ra,8ac <getReg16>
    199a:	00150593          	addi	a1,a0,1
    199e:	05c2                	slli	a1,a1,0x10
    19a0:	81c1                	srli	a1,a1,0x10
    19a2:	8526                	mv	a0,s1
    19a4:	eddfe0ef          	jal	ra,880 <setReg16>
    19a8:	b1f5                	j	1694 <vRedrawTask+0x1b4>
    19aa:	14f1                	addi	s1,s1,-4
    19ac:	009034b3          	snez	s1,s1
    19b0:	00149793          	slli	a5,s1,0x1
    19b4:	97d2                	add	a5,a5,s4
    19b6:	0007dc83          	lhu	s9,0(a5)
    19ba:	4581                	li	a1,0
    19bc:	01648513          	addi	a0,s1,22
    19c0:	ce0ff0ef          	jal	ra,ea0 <getODValue>
    19c4:	85aa                	mv	a1,a0
    19c6:	4605                	li	a2,1
    19c8:	8566                	mv	a0,s9
    19ca:	141000ef          	jal	ra,230a <SetSEG>
    19ce:	401c                	lw	a5,0(s0)
    19d0:	cc0782e3          	beqz	a5,1694 <vRedrawTask+0x1b4>
    19d4:	445c                	lw	a5,12(s0)
    19d6:	4705                	li	a4,1
    19d8:	00e79663          	bne	a5,a4,19e4 <vRedrawTask+0x504>
    19dc:	000c2783          	lw	a5,0(s8)
    19e0:	17fd                	addi	a5,a5,-1
    19e2:	b755                	j	1986 <vRedrawTask+0x4a6>
    19e4:	ca0798e3          	bnez	a5,1694 <vRedrawTask+0x1b4>
    19e8:	1dd48493          	addi	s1,s1,477
    19ec:	8526                	mv	a0,s1
    19ee:	ebffe0ef          	jal	ra,8ac <getReg16>
    19f2:	fff50593          	addi	a1,a0,-1
    19f6:	b765                	j	199e <vRedrawTask+0x4be>
    19f8:	010d1513          	slli	a0,s10,0x10
    19fc:	8141                	srli	a0,a0,0x10
    19fe:	ce36                	sw	a3,28(sp)
    1a00:	cc32                	sw	a2,24(sp)
    1a02:	131090ef          	jal	ra,b332 <__floatsisf>
    1a06:	85e6                	mv	a1,s9
    1a08:	697080ef          	jal	ra,a89e <__divsf3>
    1a0c:	0d1090ef          	jal	ra,b2dc <__fixunssfsi>
    1a10:	0ff57813          	andi	a6,a0,255
    1a14:	4662                	lw	a2,24(sp)
    1a16:	46f2                	lw	a3,28(sp)
    1a18:	0099e463          	bltu	s3,s1,1a20 <vRedrawTask+0x540>
    1a1c:	02c6f163          	bgeu	a3,a2,1a3e <vRedrawTask+0x55e>
    1a20:	c042                	sw	a6,0(sp)
    1a22:	c262                	sw	s8,4(sp)
    1a24:	02d10893          	addi	a7,sp,45
    1a28:	02c10813          	addi	a6,sp,44
    1a2c:	02f10793          	addi	a5,sp,47
    1a30:	02e10713          	addi	a4,sp,46
    1a34:	85ce                	mv	a1,s3
    1a36:	8526                	mv	a0,s1
    1a38:	9c1ff0ef          	jal	ra,13f8 <vBarWindowMode>
    1a3c:	bb2d                	j	1776 <vRedrawTask+0x296>
    1a3e:	88e2                	mv	a7,s8
    1a40:	02d10793          	addi	a5,sp,45
    1a44:	02f10713          	addi	a4,sp,47
    1a48:	85ce                	mv	a1,s3
    1a4a:	8526                	mv	a0,s1
    1a4c:	a07ff0ef          	jal	ra,1452 <vBarMode>
    1a50:	b31d                	j	1776 <vRedrawTask+0x296>

00001a52 <vInit_DeviceConfig>:
    1a52:	acdfe2ef          	jal	t0,51e <__riscv_save_0>
    1a56:	00001537          	lui	a0,0x1
    1a5a:	4615                	li	a2,5
    1a5c:	4585                	li	a1,1
    1a5e:	d9050513          	addi	a0,a0,-624 # d90 <vIncrementSystemCounters>
    1a62:	079030ef          	jal	ra,52da <HAL_RTC_IT_Init>
    1a66:	29e030ef          	jal	ra,4d04 <HAL_InitGPO>
    1a6a:	6589                	lui	a1,0x2
    1a6c:	40011537          	lui	a0,0x40011
    1a70:	40011437          	lui	s0,0x40011
    1a74:	23a030ef          	jal	ra,4cae <HAL_InitGpioIn>
    1a78:	6485                	lui	s1,0x1
    1a7a:	c2048593          	addi	a1,s1,-992 # c20 <__stack_size+0x38>
    1a7e:	c0040513          	addi	a0,s0,-1024 # 40010c00 <__freertos_irq_stack_top+0x2000bc00>
    1a82:	22c030ef          	jal	ra,4cae <HAL_InitGpioIn>
    1a86:	00180637          	lui	a2,0x180
    1a8a:	4691                	li	a3,4
    1a8c:	10060613          	addi	a2,a2,256 # 180100 <_data_lma+0x172604>
    1a90:	45a1                	li	a1,8
    1a92:	c0040513          	addi	a0,s0,-1024
    1a96:	228030ef          	jal	ra,4cbe <HAL_InitGpioAF>
    1a9a:	4691                	li	a3,4
    1a9c:	4601                	li	a2,0
    1a9e:	80048593          	addi	a1,s1,-2048
    1aa2:	80040513          	addi	a0,s0,-2048
    1aa6:	218030ef          	jal	ra,4cbe <HAL_InitGpioAF>
    1aaa:	04f00593          	li	a1,79
    1aae:	80040513          	addi	a0,s0,-2048
    1ab2:	1ec030ef          	jal	ra,4c9e <HAL_InitGpioAIN>
    1ab6:	46e1                	li	a3,24
    1ab8:	4601                	li	a2,0
    1aba:	0a000593          	li	a1,160
    1abe:	80040513          	addi	a0,s0,-2048
    1ac2:	1fc030ef          	jal	ra,4cbe <HAL_InitGpioAF>
    1ac6:	65a9                	lui	a1,0xa
    1ac8:	46e1                	li	a3,24
    1aca:	4601                	li	a2,0
    1acc:	058d                	addi	a1,a1,3
    1ace:	c0040513          	addi	a0,s0,-1024
    1ad2:	1ec030ef          	jal	ra,4cbe <HAL_InitGpioAF>
    1ad6:	45c1                	li	a1,16
    1ad8:	80040513          	addi	a0,s0,-2048
    1adc:	1b2030ef          	jal	ra,4c8e <HAL_InitGpioOut>
    1ae0:	01048593          	addi	a1,s1,16
    1ae4:	c0040513          	addi	a0,s0,-1024
    1ae8:	1a6030ef          	jal	ra,4c8e <HAL_InitGpioOut>
    1aec:	46e1                	li	a3,24
    1aee:	001d4637          	lui	a2,0x1d4
    1af2:	20000593          	li	a1,512
    1af6:	c0040513          	addi	a0,s0,-1024
    1afa:	1c4030ef          	jal	ra,4cbe <HAL_InitGpioAF>
    1afe:	04800693          	li	a3,72
    1b02:	001d4637          	lui	a2,0x1d4
    1b06:	10000593          	li	a1,256
    1b0a:	c0040513          	addi	a0,s0,-1024
    1b0e:	1b0030ef          	jal	ra,4cbe <HAL_InitGpioAF>
    1b12:	46f1                	li	a3,28
    1b14:	4601                	li	a2,0
    1b16:	0c000593          	li	a1,192
    1b1a:	c0040513          	addi	a0,s0,-1024
    1b1e:	1a0030ef          	jal	ra,4cbe <HAL_InitGpioAF>
    1b22:	000f45b7          	lui	a1,0xf4
    1b26:	46b1                	li	a3,12
    1b28:	3e800613          	li	a2,1000
    1b2c:	24058593          	addi	a1,a1,576 # f4240 <_data_lma+0xe6744>
    1b30:	4509                	li	a0,2
    1b32:	319030ef          	jal	ra,564a <HAL_TIMER_PWMTimersInit>
    1b36:	4509                	li	a0,2
    1b38:	1d7030ef          	jal	ra,550e <HAL_TiemrEneblae>
    1b3c:	4581                	li	a1,0
    1b3e:	4501                	li	a0,0
    1b40:	0ff000ef          	jal	ra,243e <vSetBrigth>
    1b44:	4581                	li	a1,0
    1b46:	4505                	li	a0,1
    1b48:	0f7000ef          	jal	ra,243e <vSetBrigth>
    1b4c:	c0040493          	addi	s1,s0,-1024
    1b50:	02000593          	li	a1,32
    1b54:	8526                	mv	a0,s1
    1b56:	19c030ef          	jal	ra,4cf2 <HAL_GetBit>
    1b5a:	d97d                	beqz	a0,1b50 <vInit_DeviceConfig+0xfe>
    1b5c:	072020ef          	jal	ra,3bce <vAINInit>
    1b60:	6485                	lui	s1,0x1
    1b62:	80048593          	addi	a1,s1,-2048 # 800 <vCanOpenPeriodicProcess+0x5a>
    1b66:	4501                	li	a0,0
    1b68:	0a5030ef          	jal	ra,540c <HAL_SPI_InitDMA>
    1b6c:	80048593          	addi	a1,s1,-2048
    1b70:	4505                	li	a0,1
    1b72:	09b030ef          	jal	ra,540c <HAL_SPI_InitDMA>
    1b76:	000026b7          	lui	a3,0x2
    1b7a:	0016e5b7          	lui	a1,0x16e
    1b7e:	478d                	li	a5,3
    1b80:	4705                	li	a4,1
    1b82:	4d268693          	addi	a3,a3,1234 # 24d2 <vRGBProcess>
    1b86:	06400613          	li	a2,100
    1b8a:	36058593          	addi	a1,a1,864 # 16e360 <_data_lma+0x160864>
    1b8e:	450d                	li	a0,3
    1b90:	25b030ef          	jal	ra,55ea <HAL_TIMER_InitIt>
    1b94:	450d                	li	a0,3
    1b96:	179030ef          	jal	ra,550e <HAL_TiemrEneblae>
    1b9a:	50f030ef          	jal	ra,58a8 <HAL_WDT_Init1s>
    1b9e:	40005537          	lui	a0,0x40005
    1ba2:	4605                	li	a2,1
    1ba4:	4585                	li	a1,1
    1ba6:	40050513          	addi	a0,a0,1024 # 40005400 <__freertos_irq_stack_top+0x20000400>
    1baa:	516030ef          	jal	ra,50c0 <InitI2CDMA>
    1bae:	45c1                	li	a1,16
    1bb0:	c0040513          	addi	a0,s0,-1024
    1bb4:	148030ef          	jal	ra,4cfc <HAL_SetBit>
    1bb8:	40006537          	lui	a0,0x40006
    1bbc:	40050513          	addi	a0,a0,1024 # 40006400 <__freertos_irq_stack_top+0x20001400>
    1bc0:	a4bfe0ef          	jal	ra,60a <vCanOpenInit>
    1bc4:	97ffe06f          	j	542 <__riscv_restore_0>

00001bc8 <HardwareDeinit>:
    1bc8:	957fe2ef          	jal	t0,51e <__riscv_save_0>
    1bcc:	4581                	li	a1,0
    1bce:	4501                	li	a0,0
    1bd0:	06f000ef          	jal	ra,243e <vSetBrigth>
    1bd4:	4581                	li	a1,0
    1bd6:	4505                	li	a0,1
    1bd8:	067000ef          	jal	ra,243e <vSetBrigth>
    1bdc:	450d                	li	a0,3
    1bde:	147030ef          	jal	ra,5524 <HAL_TiemrDisable>
    1be2:	4505                	li	a0,1
    1be4:	12b030ef          	jal	ra,550e <HAL_TiemrEneblae>
    1be8:	4501                	li	a0,0
    1bea:	125030ef          	jal	ra,550e <HAL_TiemrEneblae>
    1bee:	955fe06f          	j	542 <__riscv_restore_0>

00001bf2 <SoftwareReset>:
    1bf2:	e000f737          	lui	a4,0xe000f
    1bf6:	d1072783          	lw	a5,-752(a4) # e000ed10 <__freertos_irq_stack_top+0xc0009d10>
    1bfa:	800006b7          	lui	a3,0x80000
    1bfe:	8fd5                	or	a5,a5,a3
    1c00:	d0f72823          	sw	a5,-752(a4)
    1c04:	8082                	ret

00001c06 <ADC1_Event>:
    1c06:	919fe2ef          	jal	t0,51e <__riscv_save_0>
    1c0a:	40012537          	lui	a0,0x40012
    1c0e:	4581                	li	a1,0
    1c10:	40050513          	addi	a0,a0,1024 # 40012400 <__freertos_irq_stack_top+0x2000d400>
    1c14:	053010ef          	jal	ra,3466 <ADC_Cmd>
    1c18:	20000537          	lui	a0,0x20000
    1c1c:	66052503          	lw	a0,1632(a0) # 20000660 <pInputsTaskHandle>
    1c20:	200007b7          	lui	a5,0x20000
    1c24:	66878413          	addi	s0,a5,1640 # 20000668 <xHigherPriorityTaskWoken.7385>
    1c28:	4701                	li	a4,0
    1c2a:	66878793          	addi	a5,a5,1640
    1c2e:	468d                	li	a3,3
    1c30:	4605                	li	a2,1
    1c32:	4589                	li	a1,2
    1c34:	00042023          	sw	zero,0(s0)
    1c38:	197050ef          	jal	ra,75ce <xTaskGenericNotifyFromISR>
    1c3c:	401c                	lw	a5,0(s0)
    1c3e:	c791                	beqz	a5,1c4a <ADC1_Event+0x44>
    1c40:	e000e7b7          	lui	a5,0xe000e
    1c44:	6711                	lui	a4,0x4
    1c46:	20e7a023          	sw	a4,512(a5) # e000e200 <__freertos_irq_stack_top+0xc0009200>
    1c4a:	8f9fe06f          	j	542 <__riscv_restore_0>

00001c4e <CaptureDMACallBack>:
    1c4e:	8d1fe2ef          	jal	t0,51e <__riscv_save_0>
    1c52:	450d                	li	a0,3
    1c54:	4d5020ef          	jal	ra,4928 <HAL_DMA_Disable>
    1c58:	45bd                	li	a1,15
    1c5a:	450d                	li	a0,3
    1c5c:	599020ef          	jal	ra,49f4 <HAL_DMA_SetCounter>
    1c60:	4501                	li	a0,0
    1c62:	21e020ef          	jal	ra,3e80 <RMPDataConvert>
    1c66:	450d                	li	a0,3
    1c68:	4a9020ef          	jal	ra,4910 <HAL_DMA_Enable>
    1c6c:	8d7fe06f          	j	542 <__riscv_restore_0>

00001c70 <CaptureDMACallBack_1>:
    1c70:	8affe2ef          	jal	t0,51e <__riscv_save_0>
    1c74:	4519                	li	a0,6
    1c76:	4b3020ef          	jal	ra,4928 <HAL_DMA_Disable>
    1c7a:	45bd                	li	a1,15
    1c7c:	4519                	li	a0,6
    1c7e:	577020ef          	jal	ra,49f4 <HAL_DMA_SetCounter>
    1c82:	4505                	li	a0,1
    1c84:	1fc020ef          	jal	ra,3e80 <RMPDataConvert>
    1c88:	4519                	li	a0,6
    1c8a:	487020ef          	jal	ra,4910 <HAL_DMA_Enable>
    1c8e:	8b5fe06f          	j	542 <__riscv_restore_0>

00001c92 <fDinStateCallback>:
    1c92:	88dfe2ef          	jal	t0,51e <__riscv_save_0>
    1c96:	4789                	li	a5,2
    1c98:	00f50863          	beq	a0,a5,1ca8 <fDinStateCallback+0x16>
    1c9c:	478d                	li	a5,3
    1c9e:	02f50063          	beq	a0,a5,1cbe <fDinStateCallback+0x2c>
    1ca2:	4501                	li	a0,0
    1ca4:	89ffe06f          	j	542 <__riscv_restore_0>
    1ca8:	40000593          	li	a1,1024
    1cac:	40011537          	lui	a0,0x40011
    1cb0:	c0050513          	addi	a0,a0,-1024 # 40010c00 <__freertos_irq_stack_top+0x2000bc00>
    1cb4:	03e030ef          	jal	ra,4cf2 <HAL_GetBit>
    1cb8:	0ff57513          	andi	a0,a0,255
    1cbc:	b7e5                	j	1ca4 <fDinStateCallback+0x12>
    1cbe:	02000593          	li	a1,32
    1cc2:	b7ed                	j	1cac <fDinStateCallback+0x1a>

00001cc4 <vSetDoutState>:
    1cc4:	85bfe2ef          	jal	t0,51e <__riscv_save_0>
    1cc8:	e991                	bnez	a1,1cdc <vSetDoutState+0x18>
    1cca:	40011537          	lui	a0,0x40011
    1cce:	45c1                	li	a1,16
    1cd0:	c0050513          	addi	a0,a0,-1024 # 40010c00 <__freertos_irq_stack_top+0x2000bc00>
    1cd4:	028030ef          	jal	ra,4cfc <HAL_SetBit>
    1cd8:	86bfe06f          	j	542 <__riscv_restore_0>
    1cdc:	40011537          	lui	a0,0x40011
    1ce0:	45c1                	li	a1,16
    1ce2:	c0050513          	addi	a0,a0,-1024 # 40010c00 <__freertos_irq_stack_top+0x2000bc00>
    1ce6:	01a030ef          	jal	ra,4d00 <HAL_ResetBit>
    1cea:	b7fd                	j	1cd8 <vSetDoutState+0x14>

00001cec <getInputsTaskHandle>:
    1cec:	20000537          	lui	a0,0x20000
    1cf0:	66050513          	addi	a0,a0,1632 # 20000660 <pInputsTaskHandle>
    1cf4:	8082                	ret

00001cf6 <InputsNotifyTaskToInit>:
    1cf6:	829fe2ef          	jal	t0,51e <__riscv_save_0>
    1cfa:	332050ef          	jal	ra,702c <xTaskGetCurrentTaskHandle>
    1cfe:	200007b7          	lui	a5,0x20000
    1d02:	66a7a223          	sw	a0,1636(a5) # 20000664 <pTaskToNotifykHandle>
    1d06:	200007b7          	lui	a5,0x20000
    1d0a:	6607a503          	lw	a0,1632(a5) # 20000660 <pInputsTaskHandle>
    1d0e:	4701                	li	a4,0
    1d10:	468d                	li	a3,3
    1d12:	4611                	li	a2,4
    1d14:	4581                	li	a1,0
    1d16:	710050ef          	jal	ra,7426 <xTaskGenericNotify>
    1d1a:	829fe06f          	j	542 <__riscv_restore_0>

00001d1e <ADC1_Init>:
    1d1e:	801fe2ef          	jal	t0,51e <__riscv_save_0>
    1d22:	8701a703          	lw	a4,-1936(gp) # 20000618 <_global_impure_ptr+0x8>
    1d26:	87018793          	addi	a5,gp,-1936 # 20000618 <_global_impure_ptr+0x8>
    1d2a:	23dc                	lbu	a5,4(a5)
    1d2c:	1141                	addi	sp,sp,-16
    1d2e:	0030                	addi	a2,sp,8
    1d30:	4595                	li	a1,5
    1d32:	4501                	li	a0,0
    1d34:	c43a                	sw	a4,8(sp)
    1d36:	865c                	sb	a5,12(sp)
    1d38:	532020ef          	jal	ra,426a <HAL_ADC_ContiniusScanCinvertionDMA>
    1d3c:	082020ef          	jal	ra,3dbe <getADC1Buffer>
    1d40:	000028b7          	lui	a7,0x2
    1d44:	400126b7          	lui	a3,0x40012
    1d48:	872a                	mv	a4,a0
    1d4a:	c0688893          	addi	a7,a7,-1018 # 1c06 <ADC1_Event>
    1d4e:	480d                	li	a6,3
    1d50:	4785                	li	a5,1
    1d52:	44c68693          	addi	a3,a3,1100 # 4001244c <__freertos_irq_stack_top+0x2000d44c>
    1d56:	4605                	li	a2,1
    1d58:	4581                	li	a1,0
    1d5a:	4501                	li	a0,0
    1d5c:	3e7020ef          	jal	ra,4942 <HAL_DMAInitIT>
    1d60:	0141                	addi	sp,sp,16
    1d62:	fe0fe06f          	j	542 <__riscv_restore_0>

00001d66 <ADC_FSM>:
    1d66:	f88fe2ef          	jal	t0,4ee <__riscv_save_12>
    1d6a:	1141                	addi	sp,sp,-16
    1d6c:	052020ef          	jal	ra,3dbe <getADC1Buffer>
    1d70:	842a                	mv	s0,a0
    1d72:	01e50913          	addi	s2,a0,30
    1d76:	84aa                	mv	s1,a0
    1d78:	00049503          	lh	a0,0(s1)
    1d7c:	0489                	addi	s1,s1,2
    1d7e:	478020ef          	jal	ra,41f6 <Get_ConversionVal>
    1d82:	fea49f23          	sh	a0,-2(s1)
    1d86:	ff2499e3          	bne	s1,s2,1d78 <ADC_FSM+0x12>
    1d8a:	0000d7b7          	lui	a5,0xd
    1d8e:	0000d9b7          	lui	s3,0xd
    1d92:	0000da37          	lui	s4,0xd
    1d96:	9007ab83          	lw	s7,-1792(a5) # c900 <dm+0x50>
    1d9a:	0000d7b7          	lui	a5,0xd
    1d9e:	8f8a2a83          	lw	s5,-1800(s4) # c8f8 <dm+0x48>
    1da2:	8fc9ab03          	lw	s6,-1796(s3) # c8fc <dm+0x4c>
    1da6:	9047ac03          	lw	s8,-1788(a5) # c904 <dm+0x54>
    1daa:	be418493          	addi	s1,gp,-1052 # 2000098c <ADC_OLD_RAW>
    1dae:	4901                	li	s2,0
    1db0:	243e                	lhu	a5,10(s0)
    1db2:	284a                	lhu	a0,20(s0)
    1db4:	4d8d                	li	s11,3
    1db6:	85a6                	mv	a1,s1
    1db8:	953e                	add	a0,a0,a5
    1dba:	201e                	lhu	a5,0(s0)
    1dbc:	0ff97d13          	andi	s10,s2,255
    1dc0:	953e                	add	a0,a0,a5
    1dc2:	03b55533          	divu	a0,a0,s11
    1dc6:	bf018c93          	addi	s9,gp,-1040 # 20000998 <OurVData>
    1dca:	0542                	slli	a0,a0,0x10
    1dcc:	8141                	srli	a0,a0,0x10
    1dce:	21b050ef          	jal	ra,77e8 <vRCFilter>
    1dd2:	07bd0763          	beq	s10,s11,1e40 <ADC_FSM+0xda>
    1dd6:	4791                	li	a5,4
    1dd8:	04fd0963          	beq	s10,a5,1e2a <ADC_FSM+0xc4>
    1ddc:	61c090ef          	jal	ra,b3f8 <__floatunsisf>
    1de0:	8f8a2583          	lw	a1,-1800(s4)
    1de4:	00291d13          	slli	s10,s2,0x2
    1de8:	9d66                	add	s10,s10,s9
    1dea:	679080ef          	jal	ra,ac62 <__mulsf3>
    1dee:	8fc9a583          	lw	a1,-1796(s3)
    1df2:	671080ef          	jal	ra,ac62 <__mulsf3>
    1df6:	85de                	mv	a1,s7
    1df8:	c62a                	sw	a0,12(sp)
    1dfa:	669080ef          	jal	ra,ac62 <__mulsf3>
    1dfe:	47b2                	lw	a5,12(sp)
    1e00:	8daa                	mv	s11,a0
    1e02:	010ca503          	lw	a0,16(s9)
    1e06:	85be                	mv	a1,a5
    1e08:	0ea090ef          	jal	ra,aef2 <__subsf3>
    1e0c:	85aa                	mv	a1,a0
    1e0e:	856e                	mv	a0,s11
    1e10:	28f080ef          	jal	ra,a89e <__divsf3>
    1e14:	00ad2023          	sw	a0,0(s10)
    1e18:	0905                	addi	s2,s2,1
    1e1a:	4795                	li	a5,5
    1e1c:	0409                	addi	s0,s0,2
    1e1e:	0489                	addi	s1,s1,2
    1e20:	f8f918e3          	bne	s2,a5,1db0 <ADC_FSM+0x4a>
    1e24:	0141                	addi	sp,sp,16
    1e26:	f04fe06f          	j	52a <__riscv_restore_12>
    1e2a:	5ce090ef          	jal	ra,b3f8 <__floatunsisf>
    1e2e:	85d6                	mv	a1,s5
    1e30:	633080ef          	jal	ra,ac62 <__mulsf3>
    1e34:	85da                	mv	a1,s6
    1e36:	62d080ef          	jal	ra,ac62 <__mulsf3>
    1e3a:	00aca823          	sw	a0,16(s9)
    1e3e:	bfe9                	j	1e18 <ADC_FSM+0xb2>
    1e40:	5b8090ef          	jal	ra,b3f8 <__floatunsisf>
    1e44:	85e2                	mv	a1,s8
    1e46:	61d080ef          	jal	ra,ac62 <__mulsf3>
    1e4a:	8fc9a583          	lw	a1,-1796(s3)
    1e4e:	615080ef          	jal	ra,ac62 <__mulsf3>
    1e52:	0000d7b7          	lui	a5,0xd
    1e56:	9087a583          	lw	a1,-1784(a5) # c908 <dm+0x58>
    1e5a:	6da080ef          	jal	ra,a534 <__addsf3>
    1e5e:	00aca623          	sw	a0,12(s9)
    1e62:	bf5d                	j	1e18 <ADC_FSM+0xb2>

00001e64 <GetAIN>:
    1e64:	050a                	slli	a0,a0,0x2
    1e66:	bf018793          	addi	a5,gp,-1040 # 20000998 <OurVData>
    1e6a:	97aa                	add	a5,a5,a0
    1e6c:	4388                	lw	a0,0(a5)
    1e6e:	8082                	ret

00001e70 <vInputsTask>:
    1e70:	e7efe2ef          	jal	t0,4ee <__riscv_save_12>
    1e74:	81c1a783          	lw	a5,-2020(gp) # 200005c4 <OD>
    1e78:	7179                	addi	sp,sp,-48
    1e7a:	4981                	li	s3,0
    1e7c:	43d8                	lw	a4,4(a5)
    1e7e:	4781                	li	a5,0
    1e80:	14470693          	addi	a3,a4,324 # 4144 <eEEPROMWr+0x2e>
    1e84:	c691                	beqz	a3,1e90 <vInputsTask+0x20>
    1e86:	14c72703          	lw	a4,332(a4)
    1e8a:	c319                	beqz	a4,1e90 <vInputsTask+0x20>
    1e8c:	00c70793          	addi	a5,a4,12
    1e90:	20000a37          	lui	s4,0x20000
    1e94:	64fa2e23          	sw	a5,1628(s4) # 2000065c <OD_AIN_flagsPDO>
    1e98:	0000d7b7          	lui	a5,0xd
    1e9c:	90c7ab03          	lw	s6,-1780(a5) # c90c <dm+0x5c>
    1ea0:	0000d7b7          	lui	a5,0xd
    1ea4:	9107ab83          	lw	s7,-1776(a5) # c910 <dm+0x60>
    1ea8:	0000d7b7          	lui	a5,0xd
    1eac:	9147ac03          	lw	s8,-1772(a5) # c914 <dm+0x64>
    1eb0:	4481                	li	s1,0
    1eb2:	4405                	li	s0,1
    1eb4:	65ca0a13          	addi	s4,s4,1628
    1eb8:	00002cb7          	lui	s9,0x2
    1ebc:	8d62                	mv	s10,s8
    1ebe:	4905                	li	s2,1
    1ec0:	4709                	li	a4,2
    1ec2:	4791                	li	a5,4
    1ec4:	03240e63          	beq	s0,s2,1f00 <vInputsTask+0x90>
    1ec8:	16040b63          	beqz	s0,203e <vInputsTask+0x1ce>
    1ecc:	18e40563          	beq	s0,a4,2056 <vInputsTask+0x1e6>
    1ed0:	fef41ae3          	bne	s0,a5,1ec4 <vInputsTask+0x54>
    1ed4:	cf5ff0ef          	jal	ra,1bc8 <HardwareDeinit>
    1ed8:	34a010ef          	jal	ra,3222 <vSystemStopProcess>
    1edc:	f2bfe0ef          	jal	ra,e06 <vSaveData>
    1ee0:	4529                	li	a0,10
    1ee2:	5a1040ef          	jal	ra,6c82 <vTaskDelay>
    1ee6:	40011537          	lui	a0,0x40011
    1eea:	45c1                	li	a1,16
    1eec:	c0050513          	addi	a0,a0,-1024 # 40010c00 <__freertos_irq_stack_top+0x2000bc00>
    1ef0:	611020ef          	jal	ra,4d00 <HAL_ResetBit>
    1ef4:	4405                	li	s0,1
    1ef6:	cfdff0ef          	jal	ra,1bf2 <SoftwareReset>
    1efa:	b7d1                	j	1ebe <vInputsTask+0x4e>
    1efc:	4411                	li	s0,4
    1efe:	b7c1                	j	1ebe <vInputsTask+0x4e>
    1f00:	577d                	li	a4,-1
    1f02:	0034                	addi	a3,sp,8
    1f04:	0ff00613          	li	a2,255
    1f08:	4581                	li	a1,0
    1f0a:	4501                	li	a0,0
    1f0c:	438050ef          	jal	ra,7344 <xTaskGenericNotifyWait>
    1f10:	47a2                	lw	a5,8(sp)
    1f12:	8b91                	andi	a5,a5,4
    1f14:	d7cd                	beqz	a5,1ebe <vInputsTask+0x4e>
    1f16:	e09ff0ef          	jal	ra,1d1e <ADC1_Init>
    1f1a:	47a9                	li	a5,10
    1f1c:	084c                	addi	a1,sp,20
    1f1e:	d23e                	sw	a5,36(sp)
    1f20:	d03e                	sw	a5,32(sp)
    1f22:	450d                	li	a0,3
    1f24:	c92c8793          	addi	a5,s9,-878 # 1c92 <fDinStateCallback>
    1f28:	d63e                	sw	a5,44(sp)
    1f2a:	cc22                	sw	s0,24(sp)
    1f2c:	6b7010ef          	jal	ra,3de2 <eDinConfigWtihStruct>
    1f30:	20b00513          	li	a0,523
    1f34:	d67fe0ef          	jal	ra,c9a <getReg8>
    1f38:	157d                	addi	a0,a0,-1
    1f3a:	00153513          	seqz	a0,a0
    1f3e:	cc2a                	sw	a0,24(sp)
    1f40:	084c                	addi	a1,sp,20
    1f42:	4509                	li	a0,2
    1f44:	69f010ef          	jal	ra,3de2 <eDinConfigWtihStruct>
    1f48:	000027b7          	lui	a5,0x2
    1f4c:	cc478793          	addi	a5,a5,-828 # 1cc4 <vSetDoutState>
    1f50:	006c                	addi	a1,sp,12
    1f52:	4501                	li	a0,0
    1f54:	c83e                	sw	a5,16(sp)
    1f56:	cc22                	sw	s0,24(sp)
    1f58:	671010ef          	jal	ra,3dc8 <eDOUTConfigWtihStruct>
    1f5c:	c3418413          	addi	s0,gp,-972 # 200009dc <RPM_MIDIAN_FILTER_STRUC>
    1f60:	c3418513          	addi	a0,gp,-972 # 200009dc <RPM_MIDIAN_FILTER_STRUC>
    1f64:	0df050ef          	jal	ra,7842 <vInitMedianFilter>
    1f68:	01040513          	addi	a0,s0,16
    1f6c:	0d7050ef          	jal	ra,7842 <vInitMedianFilter>
    1f70:	c0418413          	addi	s0,gp,-1020 # 200009ac <RPM_AB_FILTER_STRUC>
    1f74:	85da                	mv	a1,s6
    1f76:	c0418513          	addi	a0,gp,-1020 # 200009ac <RPM_AB_FILTER_STRUC>
    1f7a:	09f050ef          	jal	ra,7818 <vInitABFilter>
    1f7e:	00840513          	addi	a0,s0,8
    1f82:	85da                	mv	a1,s6
    1f84:	095050ef          	jal	ra,7818 <vInitABFilter>
    1f88:	c1418413          	addi	s0,gp,-1004 # 200009bc <RPM_AVER_FILTER_STRUC>
    1f8c:	85de                	mv	a1,s7
    1f8e:	c1418513          	addi	a0,gp,-1004 # 200009bc <RPM_AVER_FILTER_STRUC>
    1f92:	0a9050ef          	jal	ra,783a <vInitRunAverga>
    1f96:	01040513          	addi	a0,s0,16
    1f9a:	85de                	mv	a1,s7
    1f9c:	09f050ef          	jal	ra,783a <vInitRunAverga>
    1fa0:	4581                	li	a1,0
    1fa2:	4501                	li	a0,0
    1fa4:	687010ef          	jal	ra,3e2a <eRPMConfig>
    1fa8:	4585                	li	a1,1
    1faa:	4505                	li	a0,1
    1fac:	67f010ef          	jal	ra,3e2a <eRPMConfig>
    1fb0:	643d                	lui	s0,0xf
    1fb2:	a6040613          	addi	a2,s0,-1440 # ea60 <_data_lma+0xf64>
    1fb6:	46a1                	li	a3,8
    1fb8:	7d000593          	li	a1,2000
    1fbc:	4501                	li	a0,0
    1fbe:	74e030ef          	jal	ra,570c <HAL_TimeInitCaptureDMA>
    1fc2:	a6040613          	addi	a2,s0,-1440
    1fc6:	4689                	li	a3,2
    1fc8:	7d000593          	li	a1,2000
    1fcc:	4505                	li	a0,1
    1fce:	73e030ef          	jal	ra,570c <HAL_TimeInitCaptureDMA>
    1fd2:	4501                	li	a0,0
    1fd4:	725010ef          	jal	ra,3ef8 <getCaputreBuffer>
    1fd8:	000028b7          	lui	a7,0x2
    1fdc:	400136b7          	lui	a3,0x40013
    1fe0:	872a                	mv	a4,a0
    1fe2:	c4e88893          	addi	a7,a7,-946 # 1c4e <CaptureDMACallBack>
    1fe6:	480d                	li	a6,3
    1fe8:	4785                	li	a5,1
    1fea:	c4068693          	addi	a3,a3,-960 # 40012c40 <__freertos_irq_stack_top+0x2000dc40>
    1fee:	4605                	li	a2,1
    1ff0:	4581                	li	a1,0
    1ff2:	450d                	li	a0,3
    1ff4:	14f020ef          	jal	ra,4942 <HAL_DMAInitIT>
    1ff8:	4505                	li	a0,1
    1ffa:	6ff010ef          	jal	ra,3ef8 <getCaputreBuffer>
    1ffe:	000028b7          	lui	a7,0x2
    2002:	400006b7          	lui	a3,0x40000
    2006:	872a                	mv	a4,a0
    2008:	c7088893          	addi	a7,a7,-912 # 1c70 <CaptureDMACallBack_1>
    200c:	480d                	li	a6,3
    200e:	4785                	li	a5,1
    2010:	03868693          	addi	a3,a3,56 # 40000038 <__freertos_irq_stack_top+0x1fffb038>
    2014:	4605                	li	a2,1
    2016:	4581                	li	a1,0
    2018:	4519                	li	a0,6
    201a:	129020ef          	jal	ra,4942 <HAL_DMAInitIT>
    201e:	45bd                	li	a1,15
    2020:	4519                	li	a0,6
    2022:	1fb020ef          	jal	ra,4a1c <HAL_DMA_SetCouterAndEnable>
    2026:	45bd                	li	a1,15
    2028:	450d                	li	a0,3
    202a:	1f3020ef          	jal	ra,4a1c <HAL_DMA_SetCouterAndEnable>
    202e:	4501                	li	a0,0
    2030:	4de030ef          	jal	ra,550e <HAL_TiemrEneblae>
    2034:	4505                	li	a0,1
    2036:	4d8030ef          	jal	ra,550e <HAL_TiemrEneblae>
    203a:	4401                	li	s0,0
    203c:	b549                	j	1ebe <vInputsTask+0x4e>
    203e:	200007b7          	lui	a5,0x20000
    2042:	6647a503          	lw	a0,1636(a5) # 20000664 <pTaskToNotifykHandle>
    2046:	4701                	li	a4,0
    2048:	4689                	li	a3,2
    204a:	4601                	li	a2,0
    204c:	4581                	li	a1,0
    204e:	3d8050ef          	jal	ra,7426 <xTaskGenericNotify>
    2052:	4409                	li	s0,2
    2054:	b5ad                	j	1ebe <vInputsTask+0x4e>
    2056:	45bd                	li	a1,15
    2058:	4501                	li	a0,0
    205a:	2f2020ef          	jal	ra,434c <HAL_ADC_StartDMA>
    205e:	fd4fe0ef          	jal	ra,832 <vDataModelRegDelayWrite>
    2062:	4505                	li	a0,1
    2064:	41f040ef          	jal	ra,6c82 <vTaskDelay>
    2068:	4701                	li	a4,0
    206a:	0034                	addi	a3,sp,8
    206c:	0ff00613          	li	a2,255
    2070:	4581                	li	a1,0
    2072:	4509                	li	a0,2
    2074:	2d0050ef          	jal	ra,7344 <xTaskGenericNotifyWait>
    2078:	8905                	andi	a0,a0,1
    207a:	e40502e3          	beqz	a0,1ebe <vInputsTask+0x4e>
    207e:	ce9ff0ef          	jal	ra,1d66 <ADC_FSM>
    2082:	773010ef          	jal	ra,3ff4 <vDinDoutProcess>
    2086:	09248a63          	beq	s1,s2,211a <vInputsTask+0x2aa>
    208a:	c8ad                	beqz	s1,20fc <vInputsTask+0x28c>
    208c:	e28499e3          	bne	s1,s0,1ebe <vInputsTask+0x4e>
    2090:	20000937          	lui	s2,0x20000
    2094:	65490913          	addi	s2,s2,1620 # 20000654 <BufAIN>
    2098:	4ac9                	li	s5,18
    209a:	4dd9                	li	s11,22
    209c:	4585                	li	a1,1
    209e:	8556                	mv	a0,s5
    20a0:	e01fe0ef          	jal	ra,ea0 <getODValue>
    20a4:	00095783          	lhu	a5,0(s2)
    20a8:	0542                	slli	a0,a0,0x10
    20aa:	8141                	srli	a0,a0,0x10
    20ac:	00a78563          	beq	a5,a0,20b6 <vInputsTask+0x246>
    20b0:	00a91023          	sh	a0,0(s2)
    20b4:	4985                	li	s3,1
    20b6:	0a85                	addi	s5,s5,1
    20b8:	0909                	addi	s2,s2,2
    20ba:	ffba91e3          	bne	s5,s11,209c <vInputsTask+0x22c>
    20be:	bfc1a503          	lw	a0,-1028(gp) # 200009a4 <OurVData+0xc>
    20c2:	85ea                	mv	a1,s10
    20c4:	28d080ef          	jal	ra,ab50 <__gesf2>
    20c8:	e2a05ae3          	blez	a0,1efc <vInputsTask+0x8c>
    20cc:	450d                	li	a0,3
    20ce:	549010ef          	jal	ra,3e16 <uGetDIN>
    20d2:	e20505e3          	beqz	a0,1efc <vInputsTask+0x8c>
    20d6:	084c                	addi	a1,sp,20
    20d8:	4501                	li	a0,0
    20da:	6a9010ef          	jal	ra,3f82 <xGetRPM>
    20de:	4789                	li	a5,2
    20e0:	00f51363          	bne	a0,a5,20e6 <vInputsTask+0x276>
    20e4:	4985                	li	s3,1
    20e6:	084c                	addi	a1,sp,20
    20e8:	4505                	li	a0,1
    20ea:	699010ef          	jal	ra,3f82 <xGetRPM>
    20ee:	4789                	li	a5,2
    20f0:	04f50a63          	beq	a0,a5,2144 <vInputsTask+0x2d4>
    20f4:	04099863          	bnez	s3,2144 <vInputsTask+0x2d4>
    20f8:	4981                	li	s3,0
    20fa:	b3d1                	j	1ebe <vInputsTask+0x4e>
    20fc:	450d                	li	a0,3
    20fe:	519010ef          	jal	ra,3e16 <uGetDIN>
    2102:	da050ee3          	beqz	a0,1ebe <vInputsTask+0x4e>
    2106:	bfc1a503          	lw	a0,-1028(gp) # 200009a4 <OurVData+0xc>
    210a:	85e2                	mv	a1,s8
    210c:	245080ef          	jal	ra,ab50 <__gesf2>
    2110:	fff54513          	not	a0,a0
    2114:	01f55493          	srli	s1,a0,0x1f
    2118:	b35d                	j	1ebe <vInputsTask+0x4e>
    211a:	4509                	li	a0,2
    211c:	b7ffe0ef          	jal	ra,c9a <getReg8>
    2120:	85aa                	mv	a1,a0
    2122:	4501                	li	a0,0
    2124:	2e29                	jal	243e <vSetBrigth>
    2126:	450d                	li	a0,3
    2128:	b73fe0ef          	jal	ra,c9a <getReg8>
    212c:	85aa                	mv	a1,a0
    212e:	4505                	li	a0,1
    2130:	2639                	jal	243e <vSetBrigth>
    2132:	40011537          	lui	a0,0x40011
    2136:	45c1                	li	a1,16
    2138:	c0050513          	addi	a0,a0,-1024 # 40010c00 <__freertos_irq_stack_top+0x2000bc00>
    213c:	3c1020ef          	jal	ra,4cfc <HAL_SetBit>
    2140:	4489                	li	s1,2
    2142:	bbb5                	j	1ebe <vInputsTask+0x4e>
    2144:	000a2783          	lw	a5,0(s4)
    2148:	dbc5                	beqz	a5,20f8 <vInputsTask+0x288>
    214a:	2398                	lbu	a4,0(a5)
    214c:	9b75                	andi	a4,a4,-3
    214e:	a398                	sb	a4,0(a5)
    2150:	b765                	j	20f8 <vInputsTask+0x288>

00002152 <SPI1_DMA_Callback>:
    2152:	bccfe2ef          	jal	t0,51e <__riscv_save_0>
    2156:	4509                	li	a0,2
    2158:	7d0020ef          	jal	ra,4928 <HAL_DMA_Disable>
    215c:	4501                	li	a0,0
    215e:	31e030ef          	jal	ra,547c <HAL_SPI_RXOveleyClear>
    2162:	4405                	li	s0,1
    2164:	4501                	li	a0,0
    2166:	328030ef          	jal	ra,548e <HAL_SPI_GetBusy>
    216a:	fe850de3          	beq	a0,s0,2164 <SPI1_DMA_Callback+0x12>
    216e:	40011537          	lui	a0,0x40011
    2172:	45c1                	li	a1,16
    2174:	80050513          	addi	a0,a0,-2048 # 40010800 <__freertos_irq_stack_top+0x2000b800>
    2178:	385020ef          	jal	ra,4cfc <HAL_SetBit>
    217c:	bc6fe06f          	j	542 <__riscv_restore_0>

00002180 <SPI2_DMA_Callback>:
    2180:	b9efe2ef          	jal	t0,51e <__riscv_save_0>
    2184:	4511                	li	a0,4
    2186:	7a2020ef          	jal	ra,4928 <HAL_DMA_Disable>
    218a:	4505                	li	a0,1
    218c:	2f0030ef          	jal	ra,547c <HAL_SPI_RXOveleyClear>
    2190:	4505                	li	a0,1
    2192:	2fc030ef          	jal	ra,548e <HAL_SPI_GetBusy>
    2196:	4785                	li	a5,1
    2198:	fef50ce3          	beq	a0,a5,2190 <SPI2_DMA_Callback+0x10>
    219c:	40011537          	lui	a0,0x40011
    21a0:	6585                	lui	a1,0x1
    21a2:	c0050513          	addi	a0,a0,-1024 # 40010c00 <__freertos_irq_stack_top+0x2000bc00>
    21a6:	357020ef          	jal	ra,4cfc <HAL_SetBit>
    21aa:	b98fe06f          	j	542 <__riscv_restore_0>

000021ae <SetBarState>:
    21ae:	4785                	li	a5,1
    21b0:	0606                	slli	a2,a2,0x1
    21b2:	00c79633          	sll	a2,a5,a2
    21b6:	0506                	slli	a0,a0,0x1
    21b8:	4789                	li	a5,2
    21ba:	00a79533          	sll	a0,a5,a0
    21be:	4701                	li	a4,0
    21c0:	4781                	li	a5,0
    21c2:	02b71263          	bne	a4,a1,21e6 <SetBarState+0x38>
    21c6:	01079513          	slli	a0,a5,0x10
    21ca:	8141                	srli	a0,a0,0x10
    21cc:	83c1                	srli	a5,a5,0x10
    21ce:	4581                	li	a1,0
    21d0:	4701                	li	a4,0
    21d2:	02d59063          	bne	a1,a3,21f2 <SetBarState+0x44>
    21d6:	8d59                	or	a0,a0,a4
    21d8:	8341                	srli	a4,a4,0x10
    21da:	c5418693          	addi	a3,gp,-940 # 200009fc <SPI1_DATA>
    21de:	8fd9                	or	a5,a5,a4
    21e0:	a2ea                	sh	a0,6(a3)
    21e2:	a69e                	sh	a5,8(a3)
    21e4:	8082                	ret
    21e6:	0705                	addi	a4,a4,1
    21e8:	8fc9                	or	a5,a5,a0
    21ea:	0ff77713          	andi	a4,a4,255
    21ee:	050a                	slli	a0,a0,0x2
    21f0:	bfc9                	j	21c2 <SetBarState+0x14>
    21f2:	0585                	addi	a1,a1,1
    21f4:	8f51                	or	a4,a4,a2
    21f6:	0ff5f593          	andi	a1,a1,255
    21fa:	060a                	slli	a2,a2,0x2
    21fc:	bfd9                	j	21d2 <SetBarState+0x24>

000021fe <SetRGB>:
    21fe:	6735                	lui	a4,0xd
    2200:	96070713          	addi	a4,a4,-1696 # c960 <offset_mask>
    2204:	972a                	add	a4,a4,a0
    2206:	2314                	lbu	a3,0(a4)
    2208:	67b5                	lui	a5,0xd
    220a:	97078793          	addi	a5,a5,-1680 # c970 <step_mask>
    220e:	00169713          	slli	a4,a3,0x1
    2212:	c5418693          	addi	a3,gp,-940 # 200009fc <SPI1_DATA>
    2216:	96ba                	add	a3,a3,a4
    2218:	85818713          	addi	a4,gp,-1960 # 20000600 <color_mask>
    221c:	95ba                	add	a1,a1,a4
    221e:	97aa                	add	a5,a5,a0
    2220:	239c                	lbu	a5,0(a5)
    2222:	fff5c703          	lbu	a4,-1(a1) # fff <IncMenuIndex+0x33>
    2226:	00069803          	lh	a6,0(a3)
    222a:	00f71733          	sll	a4,a4,a5
    222e:	01071793          	slli	a5,a4,0x10
    2232:	4705                	li	a4,1
    2234:	87c1                	srai	a5,a5,0x10
    2236:	00e61663          	bne	a2,a4,2242 <SetRGB+0x44>
    223a:	00f867b3          	or	a5,a6,a5
    223e:	a29e                	sh	a5,0(a3)
    2240:	8082                	ret
    2242:	fff7c793          	not	a5,a5
    2246:	00f877b3          	and	a5,a6,a5
    224a:	bfd5                	j	223e <SetRGB+0x40>

0000224c <SetSegDirect>:
    224c:	4799                	li	a5,6
    224e:	08a7ec63          	bltu	a5,a0,22e6 <SetSegDirect+0x9a>
    2252:	67b5                	lui	a5,0xd
    2254:	91878793          	addi	a5,a5,-1768 # c918 <dm+0x68>
    2258:	050a                	slli	a0,a0,0x2
    225a:	953e                	add	a0,a0,a5
    225c:	4118                	lw	a4,0(a0)
    225e:	200007b7          	lui	a5,0x20000
    2262:	66c78793          	addi	a5,a5,1644 # 2000066c <SPI2_DATA>
    2266:	8702                	jr	a4
    2268:	239a                	lhu	a4,0(a5)
    226a:	0055d693          	srli	a3,a1,0x5
    226e:	05ae                	slli	a1,a1,0xb
    2270:	9b71                	andi	a4,a4,-4
    2272:	8f55                	or	a4,a4,a3
    2274:	a39a                	sh	a4,0(a5)
    2276:	23ba                	lhu	a4,2(a5)
    2278:	7ff77713          	andi	a4,a4,2047
    227c:	8f4d                	or	a4,a4,a1
    227e:	a3ba                	sh	a4,2(a5)
    2280:	8082                	ret
    2282:	23ba                	lhu	a4,2(a5)
    2284:	058e                	slli	a1,a1,0x3
    2286:	c0377713          	andi	a4,a4,-1021
    228a:	bfcd                	j	227c <SetSegDirect+0x30>
    228c:	23ba                	lhu	a4,2(a5)
    228e:	0045d693          	srli	a3,a1,0x4
    2292:	05b2                	slli	a1,a1,0xc
    2294:	9b61                	andi	a4,a4,-8
    2296:	8f55                	or	a4,a4,a3
    2298:	a3ba                	sh	a4,2(a5)
    229a:	23da                	lhu	a4,4(a5)
    229c:	0752                	slli	a4,a4,0x14
    229e:	8351                	srli	a4,a4,0x14
    22a0:	8f4d                	or	a4,a4,a1
    22a2:	a3da                	sh	a4,4(a5)
    22a4:	8082                	ret
    22a6:	23da                	lhu	a4,4(a5)
    22a8:	76fd                	lui	a3,0xfffff
    22aa:	06fd                	addi	a3,a3,31
    22ac:	8f75                	and	a4,a4,a3
    22ae:	0596                	slli	a1,a1,0x5
    22b0:	bfc5                	j	22a0 <SetSegDirect+0x54>
    22b2:	23da                	lhu	a4,4(a5)
    22b4:	0025d693          	srli	a3,a1,0x2
    22b8:	8afd                	andi	a3,a3,31
    22ba:	9b01                	andi	a4,a4,-32
    22bc:	8f55                	or	a4,a4,a3
    22be:	a3da                	sh	a4,4(a5)
    22c0:	23fa                	lhu	a4,6(a5)
    22c2:	05ba                	slli	a1,a1,0xe
    22c4:	074a                	slli	a4,a4,0x12
    22c6:	8349                	srli	a4,a4,0x12
    22c8:	8f4d                	or	a4,a4,a1
    22ca:	a3fa                	sh	a4,6(a5)
    22cc:	8082                	ret
    22ce:	23fa                	lhu	a4,6(a5)
    22d0:	76f1                	lui	a3,0xffffc
    22d2:	07f68693          	addi	a3,a3,127 # ffffc07f <__freertos_irq_stack_top+0xdfff707f>
    22d6:	8f75                	and	a4,a4,a3
    22d8:	059e                	slli	a1,a1,0x7
    22da:	b7fd                	j	22c8 <SetSegDirect+0x7c>
    22dc:	23fa                	lhu	a4,6(a5)
    22de:	f8077713          	andi	a4,a4,-128
    22e2:	8dd9                	or	a1,a1,a4
    22e4:	a3ee                	sh	a1,6(a5)
    22e6:	8082                	ret

000022e8 <SetSegPoint>:
    22e8:	20000737          	lui	a4,0x20000
    22ec:	66c70793          	addi	a5,a4,1644 # 2000066c <SPI2_DATA>
    22f0:	23be                	lhu	a5,2(a5)
    22f2:	66c70713          	addi	a4,a4,1644
    22f6:	c509                	beqz	a0,2300 <SetSegPoint+0x18>
    22f8:	4007e793          	ori	a5,a5,1024
    22fc:	a33e                	sh	a5,2(a4)
    22fe:	8082                	ret
    2300:	bff7f793          	andi	a5,a5,-1025
    2304:	07c2                	slli	a5,a5,0x10
    2306:	83c1                	srli	a5,a5,0x10
    2308:	bfd5                	j	22fc <SetSegPoint+0x14>

0000230a <SetSEG>:
    230a:	9ecfe2ef          	jal	t0,4f6 <__riscv_save_10>
    230e:	1141                	addi	sp,sp,-16
    2310:	892a                	mv	s2,a0
    2312:	84ae                	mv	s1,a1
    2314:	4b01                	li	s6,0
    2316:	0005d563          	bgez	a1,2320 <SetSEG+0x16>
    231a:	40b004b3          	neg	s1,a1
    231e:	4b05                	li	s6,1
    2320:	000f47b7          	lui	a5,0xf4
    2324:	23f78793          	addi	a5,a5,575 # f423f <_data_lma+0xe6743>
    2328:	001e8737          	lui	a4,0x1e8
    232c:	97a6                	add	a5,a5,s1
    232e:	47e70713          	addi	a4,a4,1150 # 1e847e <_data_lma+0x1da982>
    2332:	04f76563          	bltu	a4,a5,237c <SetSEG+0x72>
    2336:	67e1                	lui	a5,0x18
    2338:	69f78793          	addi	a5,a5,1695 # 1869f <_data_lma+0xaba3>
    233c:	00031737          	lui	a4,0x31
    2340:	97a6                	add	a5,a5,s1
    2342:	d3e70713          	addi	a4,a4,-706 # 30d3e <_data_lma+0x23242>
    2346:	0af76f63          	bltu	a4,a5,2404 <SetSEG+0xfa>
    234a:	6789                	lui	a5,0x2
    234c:	70f78793          	addi	a5,a5,1807 # 270f <CO_getUint16+0x7>
    2350:	6715                	lui	a4,0x5
    2352:	97a6                	add	a5,a5,s1
    2354:	e1e70713          	addi	a4,a4,-482 # 4e1e <I2C_Master_TransmitIT+0xc>
    2358:	0af76963          	bltu	a4,a5,240a <SetSEG+0x100>
    235c:	3e748793          	addi	a5,s1,999
    2360:	7ce00713          	li	a4,1998
    2364:	0af76663          	bltu	a4,a5,2410 <SetSEG+0x106>
    2368:	06348793          	addi	a5,s1,99
    236c:	0c600713          	li	a4,198
    2370:	4989                	li	s3,2
    2372:	4a8d                	li	s5,3
    2374:	00f76663          	bltu	a4,a5,2380 <SetSEG+0x76>
    2378:	4a89                	li	s5,2
    237a:	a019                	j	2380 <SetSEG+0x76>
    237c:	4981                	li	s3,0
    237e:	4a9d                	li	s5,7
    2380:	6bb5                	lui	s7,0xd
    2382:	4a01                	li	s4,0
    2384:	954b8b93          	addi	s7,s7,-1708 # c954 <DigitMask>
    2388:	4c29                	li	s8,10
    238a:	0384e7b3          	rem	a5,s1,s8
    238e:	8552                	mv	a0,s4
    2390:	001a0413          	addi	s0,s4,1
    2394:	c632                	sw	a2,12(sp)
    2396:	0ff47413          	andi	s0,s0,255
    239a:	97de                	add	a5,a5,s7
    239c:	238c                	lbu	a1,0(a5)
    239e:	eafff0ef          	jal	ra,224c <SetSegDirect>
    23a2:	4632                	lw	a2,12(sp)
    23a4:	0384c4b3          	div	s1,s1,s8
    23a8:	068a9763          	bne	s5,s0,2416 <SetSEG+0x10c>
    23ac:	8532                	mv	a0,a2
    23ae:	f3bff0ef          	jal	ra,22e8 <SetSegPoint>
    23b2:	000b0b63          	beqz	s6,23c8 <SetSEG+0xbe>
    23b6:	8522                	mv	a0,s0
    23b8:	04000593          	li	a1,64
    23bc:	002a0413          	addi	s0,s4,2
    23c0:	e8dff0ef          	jal	ra,224c <SetSegDirect>
    23c4:	0ff47413          	andi	s0,s0,255
    23c8:	4499                	li	s1,6
    23ca:	0484f863          	bgeu	s1,s0,241a <SetSEG+0x110>
    23ce:	4789                	li	a5,2
    23d0:	02f99763          	bne	s3,a5,23fe <SetSEG+0xf4>
    23d4:	200007b7          	lui	a5,0x20000
    23d8:	66c78793          	addi	a5,a5,1644 # 2000066c <SPI2_DATA>
    23dc:	23ea                	lhu	a0,6(a5)
    23de:	7771                	lui	a4,0xffffc
    23e0:	8d79                	and	a0,a0,a4
    23e2:	00895713          	srli	a4,s2,0x8
    23e6:	07f77713          	andi	a4,a4,127
    23ea:	8d59                	or	a0,a0,a4
    23ec:	6711                	lui	a4,0x4
    23ee:	091e                	slli	s2,s2,0x7
    23f0:	f8070713          	addi	a4,a4,-128 # 3f80 <GetRPM+0x72>
    23f4:	00e97933          	and	s2,s2,a4
    23f8:	01256533          	or	a0,a0,s2
    23fc:	a3ea                	sh	a0,6(a5)
    23fe:	0141                	addi	sp,sp,16
    2400:	92efe06f          	j	52e <__riscv_restore_10>
    2404:	4985                	li	s3,1
    2406:	4a99                	li	s5,6
    2408:	bfa5                	j	2380 <SetSEG+0x76>
    240a:	4989                	li	s3,2
    240c:	4a95                	li	s5,5
    240e:	bf8d                	j	2380 <SetSEG+0x76>
    2410:	4989                	li	s3,2
    2412:	4a91                	li	s5,4
    2414:	b7b5                	j	2380 <SetSEG+0x76>
    2416:	8a22                	mv	s4,s0
    2418:	bf8d                	j	238a <SetSEG+0x80>
    241a:	8522                	mv	a0,s0
    241c:	4581                	li	a1,0
    241e:	0405                	addi	s0,s0,1
    2420:	e2dff0ef          	jal	ra,224c <SetSegDirect>
    2424:	0ff47413          	andi	s0,s0,255
    2428:	b74d                	j	23ca <SetSEG+0xc0>

0000242a <SetBigSeg>:
    242a:	20000737          	lui	a4,0x20000
    242e:	66c70713          	addi	a4,a4,1644 # 2000066c <SPI2_DATA>
    2432:	231e                	lhu	a5,0(a4)
    2434:	050a                	slli	a0,a0,0x2
    2436:	8b8d                	andi	a5,a5,3
    2438:	8fc9                	or	a5,a5,a0
    243a:	a31e                	sh	a5,0(a4)
    243c:	8082                	ret

0000243e <vSetBrigth>:
    243e:	8e0fe2ef          	jal	t0,51e <__riscv_save_0>
    2442:	872e                	mv	a4,a1
    2444:	45a1                	li	a1,8
    2446:	e111                	bnez	a0,244a <vSetBrigth+0xc>
    2448:	4591                	li	a1,4
    244a:	67b5                	lui	a5,0xd
    244c:	0706                	slli	a4,a4,0x1
    244e:	93478793          	addi	a5,a5,-1740 # c934 <Brigth>
    2452:	97ba                	add	a5,a5,a4
    2454:	2392                	lhu	a2,0(a5)
    2456:	4509                	li	a0,2
    2458:	3a0030ef          	jal	ra,57f8 <HAL_TIMER_SetPWMPulse>
    245c:	4509                	li	a0,2
    245e:	422030ef          	jal	ra,5880 <HAL_TIMER_EnablePWMCH>
    2462:	8e0fe06f          	j	542 <__riscv_restore_0>

00002466 <vLedDriverStart>:
    2466:	8b8fe2ef          	jal	t0,51e <__riscv_save_0>
    246a:	000028b7          	lui	a7,0x2
    246e:	20000737          	lui	a4,0x20000
    2472:	400046b7          	lui	a3,0x40004
    2476:	18088893          	addi	a7,a7,384 # 2180 <SPI2_DMA_Callback>
    247a:	4809                	li	a6,2
    247c:	4785                	li	a5,1
    247e:	66c70713          	addi	a4,a4,1644 # 2000066c <SPI2_DATA>
    2482:	80c68693          	addi	a3,a3,-2036 # 4000380c <__freertos_irq_stack_top+0x1fffe80c>
    2486:	4605                	li	a2,1
    2488:	45c1                	li	a1,16
    248a:	4511                	li	a0,4
    248c:	4b6020ef          	jal	ra,4942 <HAL_DMAInitIT>
    2490:	000028b7          	lui	a7,0x2
    2494:	400136b7          	lui	a3,0x40013
    2498:	15288893          	addi	a7,a7,338 # 2152 <SPI1_DMA_Callback>
    249c:	4809                	li	a6,2
    249e:	4785                	li	a5,1
    24a0:	c6018713          	addi	a4,gp,-928 # 20000a08 <data>
    24a4:	06b1                	addi	a3,a3,12
    24a6:	4605                	li	a2,1
    24a8:	45c1                	li	a1,16
    24aa:	4509                	li	a0,2
    24ac:	496020ef          	jal	ra,4942 <HAL_DMAInitIT>
    24b0:	892fe06f          	j	542 <__riscv_restore_0>

000024b4 <vLedProcess>:
    24b4:	86afe2ef          	jal	t0,51e <__riscv_save_0>
    24b8:	40011537          	lui	a0,0x40011
    24bc:	6585                	lui	a1,0x1
    24be:	c0050513          	addi	a0,a0,-1024 # 40010c00 <__freertos_irq_stack_top+0x2000bc00>
    24c2:	03f020ef          	jal	ra,4d00 <HAL_ResetBit>
    24c6:	4591                	li	a1,4
    24c8:	4511                	li	a0,4
    24ca:	552020ef          	jal	ra,4a1c <HAL_DMA_SetCouterAndEnable>
    24ce:	874fe06f          	j	542 <__riscv_restore_0>

000024d2 <vRGBProcess>:
    24d2:	84cfe2ef          	jal	t0,51e <__riscv_save_0>
    24d6:	4629                	li	a2,10
    24d8:	c5418593          	addi	a1,gp,-940 # 200009fc <SPI1_DATA>
    24dc:	c6018513          	addi	a0,gp,-928 # 20000a08 <data>
    24e0:	06a090ef          	jal	ra,b54a <memcpy>
    24e4:	200007b7          	lui	a5,0x20000
    24e8:	6747d703          	lhu	a4,1652(a5) # 20000674 <counterRGB>
    24ec:	0c700693          	li	a3,199
    24f0:	67478793          	addi	a5,a5,1652
    24f4:	0705                	addi	a4,a4,1
    24f6:	0742                	slli	a4,a4,0x10
    24f8:	8341                	srli	a4,a4,0x10
    24fa:	08e6e963          	bltu	a3,a4,258c <vRGBProcess+0xba>
    24fe:	a39a                	sh	a4,0(a5)
    2500:	238a                	lhu	a0,0(a5)
    2502:	0c700793          	li	a5,199
    2506:	08a7f663          	bgeu	a5,a0,2592 <vRGBProcess+0xc0>
    250a:	c6018793          	addi	a5,gp,-928 # 20000a08 <data>
    250e:	2796                	lhu	a3,8(a5)
    2510:	776d                	lui	a4,0xffffb
    2512:	aaa70713          	addi	a4,a4,-1366 # ffffaaaa <__freertos_irq_stack_top+0xdfff5aaa>
    2516:	8f75                	and	a4,a4,a3
    2518:	4394                	lw	a3,0(a5)
    251a:	dbf67637          	lui	a2,0xdbf67
    251e:	db660613          	addi	a2,a2,-586 # dbf66db6 <__freertos_irq_stack_top+0xbbf61db6>
    2522:	8ef1                	and	a3,a3,a2
    2524:	c394                	sw	a3,0(a5)
    2526:	43d4                	lw	a3,4(a5)
    2528:	aaaa7637          	lui	a2,0xaaaa7
    252c:	db660613          	addi	a2,a2,-586 # aaaa6db6 <__freertos_irq_stack_top+0x8aaa1db6>
    2530:	8ef1                	and	a3,a3,a2
    2532:	c3d4                	sw	a3,4(a5)
    2534:	a79a                	sh	a4,8(a5)
    2536:	c6018793          	addi	a5,gp,-928 # 20000a08 <data>
    253a:	0087d883          	lhu	a7,8(a5)
    253e:	6695                	lui	a3,0x5
    2540:	4390                	lw	a2,0(a5)
    2542:	55568813          	addi	a6,a3,1365 # 5555 <HW_TIMER_BaseTimerInit+0x15>
    2546:	01187833          	and	a6,a6,a7
    254a:	27c91737          	lui	a4,0x27c91
    254e:	b7ed68b7          	lui	a7,0xb7ed6
    2552:	b6d88893          	addi	a7,a7,-1171 # b7ed5b6d <__freertos_irq_stack_top+0x97ed0b6d>
    2556:	24970713          	addi	a4,a4,585 # 27c91249 <__freertos_irq_stack_top+0x7c8c249>
    255a:	8f71                	and	a4,a4,a2
    255c:	01167633          	and	a2,a2,a7
    2560:	c390                	sw	a2,0(a5)
    2562:	43d0                	lw	a2,4(a5)
    2564:	555568b7          	lui	a7,0x55556
    2568:	b6d88893          	addi	a7,a7,-1171 # 55555b6d <__freertos_irq_stack_top+0x35550b6d>
    256c:	01167633          	and	a2,a2,a7
    2570:	23ce                	lhu	a1,4(a5)
    2572:	01079423          	sh	a6,8(a5)
    2576:	c3d0                	sw	a2,4(a5)
    2578:	09500613          	li	a2,149
    257c:	00a67f63          	bgeu	a2,a0,259a <vRGBProcess+0xc8>
    2580:	24968693          	addi	a3,a3,585
    2584:	8eed                	and	a3,a3,a1
    2586:	c398                	sw	a4,0(a5)
    2588:	a3d6                	sh	a3,4(a5)
    258a:	a801                	j	259a <vRGBProcess+0xc8>
    258c:	00079023          	sh	zero,0(a5)
    2590:	bf85                	j	2500 <vRGBProcess+0x2e>
    2592:	04f00793          	li	a5,79
    2596:	faa7e0e3          	bltu	a5,a0,2536 <vRGBProcess+0x64>
    259a:	40011537          	lui	a0,0x40011
    259e:	45c1                	li	a1,16
    25a0:	80050513          	addi	a0,a0,-2048 # 40010800 <__freertos_irq_stack_top+0x2000b800>
    25a4:	75c020ef          	jal	ra,4d00 <HAL_ResetBit>
    25a8:	4595                	li	a1,5
    25aa:	4509                	li	a0,2
    25ac:	470020ef          	jal	ra,4a1c <HAL_DMA_SetCouterAndEnable>
    25b0:	f93fd06f          	j	542 <__riscv_restore_0>

000025b4 <main>:
    25b4:	f6bfd2ef          	jal	t0,51e <__riscv_save_0>
    25b8:	337000ef          	jal	ra,30ee <SystemCoreClockUpdate>
    25bc:	306050ef          	jal	ra,78c2 <Delay_Init>
    25c0:	c92ff0ef          	jal	ra,1a52 <vInit_DeviceConfig>
    25c4:	57b000ef          	jal	ra,333e <vSYSqueueInit>
    25c8:	477000ef          	jal	ra,323e <vSYStaskInit>
    25cc:	380040ef          	jal	ra,694c <vTaskStartScheduler>
    25d0:	a001                	j	25d0 <main+0x1c>

000025d2 <vRestartNode>:
    25d2:	8082                	ret

000025d4 <Error_Handler>:
    25d4:	6799                	lui	a5,0x6
    25d6:	80079073          	csrw	0x800,a5
    25da:	a001                	j	25da <Error_Handler+0x6>

000025dc <OD_writeRGBMAP>:
    25dc:	f43fd2ef          	jal	t0,51e <__riscv_save_0>
    25e0:	219c                	lbu	a5,0(a1)
    25e2:	1141                	addi	sp,sp,-16
    25e4:	4761                	li	a4,24
    25e6:	87dc                	sb	a5,15(sp)
    25e8:	02f76063          	bltu	a4,a5,2608 <OD_writeRGBMAP+0x2c>
    25ec:	4785                	li	a5,1
    25ee:	c29c                	sw	a5,0(a3)
    25f0:	2948                	lbu	a0,20(a0)
    25f2:	4605                	li	a2,1
    25f4:	00f10593          	addi	a1,sp,15
    25f8:	0c250513          	addi	a0,a0,194
    25fc:	ea8fe0ef          	jal	ra,ca4 <WriteRegAfterDelay>
    2600:	4501                	li	a0,0
    2602:	0141                	addi	sp,sp,16
    2604:	f3ffd06f          	j	542 <__riscv_restore_0>
    2608:	4541                	li	a0,16
    260a:	bfe5                	j	2602 <OD_writeRGBMAP+0x26>

0000260c <OD_readRGBMAP>:
    260c:	f13fd2ef          	jal	t0,51e <__riscv_save_0>
    2610:	4785                	li	a5,1
    2612:	c29c                	sw	a5,0(a3)
    2614:	29c8                	lbu	a0,20(a1)
    2616:	1141                	addi	sp,sp,-16
    2618:	c632                	sw	a2,12(sp)
    261a:	0c250513          	addi	a0,a0,194
    261e:	e7cfe0ef          	jal	ra,c9a <getReg8>
    2622:	4632                	lw	a2,12(sp)
    2624:	a208                	sb	a0,0(a2)
    2626:	4501                	li	a0,0
    2628:	0141                	addi	sp,sp,16
    262a:	f19fd06f          	j	542 <__riscv_restore_0>

0000262e <OD_readDIN>:
    262e:	ef1fd2ef          	jal	t0,51e <__riscv_save_0>
    2632:	4785                	li	a5,1
    2634:	c29c                	sw	a5,0(a3)
    2636:	2948                	lbu	a0,20(a0)
    2638:	842e                	mv	s0,a1
    263a:	4581                	li	a1,0
    263c:	0561                	addi	a0,a0,24
    263e:	863fe0ef          	jal	ra,ea0 <getODValue>
    2642:	a008                	sb	a0,0(s0)
    2644:	4501                	li	a0,0
    2646:	efdfd06f          	j	542 <__riscv_restore_0>

0000264a <OD_writeMenuSetup>:
    264a:	ed5fd2ef          	jal	t0,51e <__riscv_save_0>
    264e:	4605                	li	a2,1
    2650:	219c                	lbu	a5,0(a1)
    2652:	c290                	sw	a2,0(a3)
    2654:	2958                	lbu	a4,20(a0)
    2656:	1141                	addi	sp,sp,-16
    2658:	87dc                	sb	a5,15(sp)
    265a:	00c70d63          	beq	a4,a2,2674 <OD_writeMenuSetup+0x2a>
    265e:	4689                	li	a3,2
    2660:	02d70463          	beq	a4,a3,2688 <OD_writeMenuSetup+0x3e>
    2664:	4605                	li	a2,1
    2666:	00f10593          	addi	a1,sp,15
    266a:	20a00513          	li	a0,522
    266e:	e36fe0ef          	jal	ra,ca4 <WriteRegAfterDelay>
    2672:	a029                	j	267c <OD_writeMenuSetup+0x32>
    2674:	853e                	mv	a0,a5
    2676:	a0dfe0ef          	jal	ra,1082 <SetCurrentMenu>
    267a:	e119                	bnez	a0,2680 <OD_writeMenuSetup+0x36>
    267c:	4501                	li	a0,0
    267e:	a011                	j	2682 <OD_writeMenuSetup+0x38>
    2680:	4541                	li	a0,16
    2682:	0141                	addi	sp,sp,16
    2684:	ebffd06f          	j	542 <__riscv_restore_0>
    2688:	853e                	mv	a0,a5
    268a:	a0bfe0ef          	jal	ra,1094 <SetDefault>
    268e:	b7f5                	j	267a <OD_writeMenuSetup+0x30>

00002690 <OD_writeBoardSettings>:
    2690:	e75fd2ef          	jal	t0,504 <__riscv_save_4>
    2694:	219c                	lbu	a5,0(a1)
    2696:	0006a023          	sw	zero,0(a3)
    269a:	2940                	lbu	s0,20(a0)
    269c:	1141                	addi	sp,sp,-16
    269e:	87dc                	sb	a5,15(sp)
    26a0:	4905                	li	s2,1
    26a2:	84b6                	mv	s1,a3
    26a4:	03240c63          	beq	s0,s2,26dc <OD_writeBoardSettings+0x4c>
    26a8:	c431                	beqz	s0,26f4 <OD_writeBoardSettings+0x64>
    26aa:	470d                	li	a4,3
    26ac:	04876463          	bltu	a4,s0,26f4 <OD_writeBoardSettings+0x64>
    26b0:	89aa                	mv	s3,a0
    26b2:	453d                	li	a0,15
    26b4:	02f56163          	bltu	a0,a5,26d6 <OD_writeBoardSettings+0x46>
    26b8:	4585                	li	a1,1
    26ba:	ffe40513          	addi	a0,s0,-2
    26be:	d81ff0ef          	jal	ra,243e <vSetBrigth>
    26c2:	0149c503          	lbu	a0,20(s3)
    26c6:	4605                	li	a2,1
    26c8:	00f10593          	addi	a1,sp,15
    26cc:	dd8fe0ef          	jal	ra,ca4 <WriteRegAfterDelay>
    26d0:	0124a023          	sw	s2,0(s1)
    26d4:	4501                	li	a0,0
    26d6:	0141                	addi	sp,sp,16
    26d8:	e61fd06f          	j	538 <__riscv_restore_4>
    26dc:	471d                	li	a4,7
    26de:	453d                	li	a0,15
    26e0:	fef76be3          	bltu	a4,a5,26d6 <OD_writeBoardSettings+0x46>
    26e4:	4605                	li	a2,1
    26e6:	00f10593          	addi	a1,sp,15
    26ea:	4505                	li	a0,1
    26ec:	db8fe0ef          	jal	ra,ca4 <WriteRegAfterDelay>
    26f0:	c080                	sw	s0,0(s1)
    26f2:	b7cd                	j	26d4 <OD_writeBoardSettings+0x44>
    26f4:	4405                	li	s0,1
    26f6:	453d                	li	a0,15
    26f8:	fcf46fe3          	bltu	s0,a5,26d6 <OD_writeBoardSettings+0x46>
    26fc:	4605                	li	a2,1
    26fe:	00f10593          	addi	a1,sp,15
    2702:	20b00513          	li	a0,523
    2706:	b7dd                	j	26ec <OD_writeBoardSettings+0x5c>

00002708 <CO_getUint16>:
    2708:	211c                	lbu	a5,0(a0)
    270a:	1141                	addi	sp,sp,-16
    270c:	875c                	sb	a5,14(sp)
    270e:	311c                	lbu	a5,1(a0)
    2710:	87dc                	sb	a5,15(sp)
    2712:	8728                	lhu	a0,14(sp)
    2714:	0141                	addi	sp,sp,16
    2716:	8082                	ret

00002718 <OD_writeSEG>:
    2718:	e07fd2ef          	jal	t0,51e <__riscv_save_0>
    271c:	1101                	addi	sp,sp,-32
    271e:	842a                	mv	s0,a0
    2720:	852e                	mv	a0,a1
    2722:	c636                	sw	a3,12(sp)
    2724:	fe5ff0ef          	jal	ra,2708 <CO_getUint16>
    2728:	46b2                	lw	a3,12(sp)
    272a:	4789                	li	a5,2
    272c:	87e8                	sh	a0,30(sp)
    272e:	c29c                	sw	a5,0(a3)
    2730:	285c                	lbu	a5,20(s0)
    2732:	4705                	li	a4,1
    2734:	00e79b63          	bne	a5,a4,274a <OD_writeSEG+0x32>
    2738:	85aa                	mv	a1,a0
    273a:	21000513          	li	a0,528
    273e:	942fe0ef          	jal	ra,880 <setReg16>
    2742:	4501                	li	a0,0
    2744:	6105                	addi	sp,sp,32
    2746:	dfdfd06f          	j	542 <__riscv_restore_0>
    274a:	06778513          	addi	a0,a5,103 # 6067 <xQueueGenericSend+0x87>
    274e:	4609                	li	a2,2
    2750:	01e10593          	addi	a1,sp,30
    2754:	0506                	slli	a0,a0,0x1
    2756:	d4efe0ef          	jal	ra,ca4 <WriteRegAfterDelay>
    275a:	b7e5                	j	2742 <OD_writeSEG+0x2a>

0000275c <OD_writeBAR>:
    275c:	dc3fd2ef          	jal	t0,51e <__riscv_save_0>
    2760:	1101                	addi	sp,sp,-32
    2762:	842a                	mv	s0,a0
    2764:	852e                	mv	a0,a1
    2766:	c636                	sw	a3,12(sp)
    2768:	fa1ff0ef          	jal	ra,2708 <CO_getUint16>
    276c:	46b2                	lw	a3,12(sp)
    276e:	4789                	li	a5,2
    2770:	87e8                	sh	a0,30(sp)
    2772:	c29c                	sw	a5,0(a3)
    2774:	2848                	lbu	a0,20(s0)
    2776:	01e10593          	addi	a1,sp,30
    277a:	4609                	li	a2,2
    277c:	0506                	slli	a0,a0,0x1
    277e:	0545                	addi	a0,a0,17
    2780:	d24fe0ef          	jal	ra,ca4 <WriteRegAfterDelay>
    2784:	4501                	li	a0,0
    2786:	6105                	addi	sp,sp,32
    2788:	dbbfd06f          	j	542 <__riscv_restore_0>

0000278c <OD_writeRPMConfig>:
    278c:	d93fd2ef          	jal	t0,51e <__riscv_save_0>
    2790:	1101                	addi	sp,sp,-32
    2792:	842a                	mv	s0,a0
    2794:	852e                	mv	a0,a1
    2796:	c636                	sw	a3,12(sp)
    2798:	f71ff0ef          	jal	ra,2708 <CO_getUint16>
    279c:	46b2                	lw	a3,12(sp)
    279e:	4789                	li	a5,2
    27a0:	0ff57513          	andi	a0,a0,255
    27a4:	c29c                	sw	a5,0(a3)
    27a6:	87e8                	sh	a0,30(sp)
    27a8:	2848                	lbu	a0,20(s0)
    27aa:	01e10593          	addi	a1,sp,30
    27ae:	4609                	li	a2,2
    27b0:	0506                	slli	a0,a0,0x1
    27b2:	1db50513          	addi	a0,a0,475
    27b6:	ceefe0ef          	jal	ra,ca4 <WriteRegAfterDelay>
    27ba:	4501                	li	a0,0
    27bc:	6105                	addi	sp,sp,32
    27be:	d85fd06f          	j	542 <__riscv_restore_0>

000027c2 <CO_getUint32>:
    27c2:	d5dfd2ef          	jal	t0,51e <__riscv_save_0>
    27c6:	1141                	addi	sp,sp,-16
    27c8:	85aa                	mv	a1,a0
    27ca:	4611                	li	a2,4
    27cc:	0068                	addi	a0,sp,12
    27ce:	57d080ef          	jal	ra,b54a <memcpy>
    27d2:	4532                	lw	a0,12(sp)
    27d4:	0141                	addi	sp,sp,16
    27d6:	d6dfd06f          	j	542 <__riscv_restore_0>

000027da <OD_writeMenuMap>:
    27da:	d45fd2ef          	jal	t0,51e <__riscv_save_0>
    27de:	1101                	addi	sp,sp,-32
    27e0:	842a                	mv	s0,a0
    27e2:	852e                	mv	a0,a1
    27e4:	c636                	sw	a3,12(sp)
    27e6:	fddff0ef          	jal	ra,27c2 <CO_getUint32>
    27ea:	46b2                	lw	a3,12(sp)
    27ec:	4791                	li	a5,4
    27ee:	ce2a                	sw	a0,28(sp)
    27f0:	c29c                	sw	a5,0(a3)
    27f2:	2848                	lbu	a0,20(s0)
    27f4:	086c                	addi	a1,sp,28
    27f6:	4611                	li	a2,4
    27f8:	07850513          	addi	a0,a0,120
    27fc:	050a                	slli	a0,a0,0x2
    27fe:	ca6fe0ef          	jal	ra,ca4 <WriteRegAfterDelay>
    2802:	4501                	li	a0,0
    2804:	6105                	addi	sp,sp,32
    2806:	d3dfd06f          	j	542 <__riscv_restore_0>

0000280a <OD_writeV1_14>:
    280a:	d15fd2ef          	jal	t0,51e <__riscv_save_0>
    280e:	84aa                	mv	s1,a0
    2810:	28dc                	lbu	a5,20(s1)
    2812:	473d                	li	a4,15
    2814:	852e                	mv	a0,a1
    2816:	8436                	mv	s0,a3
    2818:	00f76d63          	bltu	a4,a5,2832 <OD_writeV1_14+0x28>
    281c:	4785                	li	a5,1
    281e:	218c                	lbu	a1,0(a1)
    2820:	c29c                	sw	a5,0(a3)
    2822:	28c8                	lbu	a0,20(s1)
    2824:	21150513          	addi	a0,a0,529
    2828:	866fe0ef          	jal	ra,88e <setReg8>
    282c:	4501                	li	a0,0
    282e:	d15fd06f          	j	542 <__riscv_restore_0>
    2832:	4745                	li	a4,17
    2834:	00f76f63          	bltu	a4,a5,2852 <OD_writeV1_14+0x48>
    2838:	ed1ff0ef          	jal	ra,2708 <CO_getUint16>
    283c:	4789                	li	a5,2
    283e:	c01c                	sw	a5,0(s0)
    2840:	28dc                	lbu	a5,20(s1)
    2842:	85aa                	mv	a1,a0
    2844:	10f78793          	addi	a5,a5,271
    2848:	00179513          	slli	a0,a5,0x1
    284c:	834fe0ef          	jal	ra,880 <setReg16>
    2850:	bff1                	j	282c <OD_writeV1_14+0x22>
    2852:	f71ff0ef          	jal	ra,27c2 <CO_getUint32>
    2856:	4791                	li	a5,4
    2858:	c01c                	sw	a5,0(s0)
    285a:	e3cfe0ef          	jal	ra,e96 <vSetErrorReg>
    285e:	b7f9                	j	282c <OD_writeV1_14+0x22>

00002860 <OD_writeDashParam>:
    2860:	cbffd2ef          	jal	t0,51e <__riscv_save_0>
    2864:	4791                	li	a5,4
    2866:	c29c                	sw	a5,0(a3)
    2868:	295c                	lbu	a5,20(a0)
    286a:	470d                	li	a4,3
    286c:	1141                	addi	sp,sp,-16
    286e:	00e79f63          	bne	a5,a4,288c <OD_writeDashParam+0x2c>
    2872:	852e                	mv	a0,a1
    2874:	f4fff0ef          	jal	ra,27c2 <CO_getUint32>
    2878:	8648                	sb	a0,12(sp)
    287a:	4605                	li	a2,1
    287c:	006c                	addi	a1,sp,12
    287e:	4539                	li	a0,14
    2880:	c24fe0ef          	jal	ra,ca4 <WriteRegAfterDelay>
    2884:	4501                	li	a0,0
    2886:	0141                	addi	sp,sp,16
    2888:	cbbfd06f          	j	542 <__riscv_restore_0>
    288c:	4511                	li	a0,4
    288e:	fea79ce3          	bne	a5,a0,2886 <OD_writeDashParam+0x26>
    2892:	852e                	mv	a0,a1
    2894:	f2fff0ef          	jal	ra,27c2 <CO_getUint32>
    2898:	c62a                	sw	a0,12(sp)
    289a:	4611                	li	a2,4
    289c:	006c                	addi	a1,sp,12
    289e:	20c00513          	li	a0,524
    28a2:	bff9                	j	2880 <OD_writeDashParam+0x20>

000028a4 <WriteRGB.isra.2>:
    28a4:	c7bfd2ef          	jal	t0,51e <__riscv_save_0>
    28a8:	1101                	addi	sp,sp,-32
    28aa:	842a                	mv	s0,a0
    28ac:	8532                	mv	a0,a2
    28ae:	c62e                	sw	a1,12(sp)
    28b0:	c436                	sw	a3,8(sp)
    28b2:	e57ff0ef          	jal	ra,2708 <CO_getUint16>
    28b6:	46a2                	lw	a3,8(sp)
    28b8:	45b2                	lw	a1,12(sp)
    28ba:	4789                	li	a5,2
    28bc:	c29c                	sw	a5,0(a3)
    28be:	87e8                	sh	a0,30(sp)
    28c0:	2188                	lbu	a0,0(a1)
    28c2:	4609                	li	a2,2
    28c4:	01e10593          	addi	a1,sp,30
    28c8:	157d                	addi	a0,a0,-1
    28ca:	0506                	slli	a0,a0,0x1
    28cc:	9522                	add	a0,a0,s0
    28ce:	0542                	slli	a0,a0,0x10
    28d0:	8141                	srli	a0,a0,0x10
    28d2:	bd2fe0ef          	jal	ra,ca4 <WriteRegAfterDelay>
    28d6:	4501                	li	a0,0
    28d8:	6105                	addi	sp,sp,32
    28da:	c69fd06f          	j	542 <__riscv_restore_0>

000028de <OD_writeRGB1>:
    28de:	c41fd2ef          	jal	t0,51e <__riscv_save_0>
    28e2:	862e                	mv	a2,a1
    28e4:	01450593          	addi	a1,a0,20
    28e8:	456d                	li	a0,27
    28ea:	fbbff0ef          	jal	ra,28a4 <WriteRGB.isra.2>
    28ee:	c55fd06f          	j	542 <__riscv_restore_0>

000028f2 <OD_writeRGB2>:
    28f2:	c2dfd2ef          	jal	t0,51e <__riscv_save_0>
    28f6:	862e                	mv	a2,a1
    28f8:	01450593          	addi	a1,a0,20
    28fc:	02700513          	li	a0,39
    2900:	fa5ff0ef          	jal	ra,28a4 <WriteRGB.isra.2>
    2904:	c3ffd06f          	j	542 <__riscv_restore_0>

00002908 <OD_writeRGB3>:
    2908:	c17fd2ef          	jal	t0,51e <__riscv_save_0>
    290c:	862e                	mv	a2,a1
    290e:	01450593          	addi	a1,a0,20
    2912:	03300513          	li	a0,51
    2916:	f8fff0ef          	jal	ra,28a4 <WriteRGB.isra.2>
    291a:	c29fd06f          	j	542 <__riscv_restore_0>

0000291e <OD_writeRGB4>:
    291e:	c01fd2ef          	jal	t0,51e <__riscv_save_0>
    2922:	862e                	mv	a2,a1
    2924:	01450593          	addi	a1,a0,20
    2928:	03f00513          	li	a0,63
    292c:	f79ff0ef          	jal	ra,28a4 <WriteRGB.isra.2>
    2930:	c13fd06f          	j	542 <__riscv_restore_0>

00002934 <OD_writeRGB5>:
    2934:	bebfd2ef          	jal	t0,51e <__riscv_save_0>
    2938:	862e                	mv	a2,a1
    293a:	01450593          	addi	a1,a0,20
    293e:	04b00513          	li	a0,75
    2942:	f63ff0ef          	jal	ra,28a4 <WriteRGB.isra.2>
    2946:	bfdfd06f          	j	542 <__riscv_restore_0>

0000294a <OD_writeRGB6>:
    294a:	bd5fd2ef          	jal	t0,51e <__riscv_save_0>
    294e:	862e                	mv	a2,a1
    2950:	01450593          	addi	a1,a0,20
    2954:	05700513          	li	a0,87
    2958:	f4dff0ef          	jal	ra,28a4 <WriteRGB.isra.2>
    295c:	be7fd06f          	j	542 <__riscv_restore_0>

00002960 <OD_writeRGB7>:
    2960:	bbffd2ef          	jal	t0,51e <__riscv_save_0>
    2964:	862e                	mv	a2,a1
    2966:	01450593          	addi	a1,a0,20
    296a:	06300513          	li	a0,99
    296e:	f37ff0ef          	jal	ra,28a4 <WriteRGB.isra.2>
    2972:	bd1fd06f          	j	542 <__riscv_restore_0>

00002976 <OD_writeRGB8>:
    2976:	ba9fd2ef          	jal	t0,51e <__riscv_save_0>
    297a:	862e                	mv	a2,a1
    297c:	01450593          	addi	a1,a0,20
    2980:	06f00513          	li	a0,111
    2984:	f21ff0ef          	jal	ra,28a4 <WriteRGB.isra.2>
    2988:	bbbfd06f          	j	542 <__riscv_restore_0>

0000298c <OD_writeRGB9>:
    298c:	b93fd2ef          	jal	t0,51e <__riscv_save_0>
    2990:	862e                	mv	a2,a1
    2992:	01450593          	addi	a1,a0,20
    2996:	07b00513          	li	a0,123
    299a:	f0bff0ef          	jal	ra,28a4 <WriteRGB.isra.2>
    299e:	ba5fd06f          	j	542 <__riscv_restore_0>

000029a2 <OD_writeRGB10>:
    29a2:	b7dfd2ef          	jal	t0,51e <__riscv_save_0>
    29a6:	862e                	mv	a2,a1
    29a8:	01450593          	addi	a1,a0,20
    29ac:	08700513          	li	a0,135
    29b0:	ef5ff0ef          	jal	ra,28a4 <WriteRGB.isra.2>
    29b4:	b8ffd06f          	j	542 <__riscv_restore_0>

000029b8 <OD_writeRGB11>:
    29b8:	b67fd2ef          	jal	t0,51e <__riscv_save_0>
    29bc:	862e                	mv	a2,a1
    29be:	01450593          	addi	a1,a0,20
    29c2:	09300513          	li	a0,147
    29c6:	edfff0ef          	jal	ra,28a4 <WriteRGB.isra.2>
    29ca:	b79fd06f          	j	542 <__riscv_restore_0>

000029ce <OD_writeRGB12>:
    29ce:	b51fd2ef          	jal	t0,51e <__riscv_save_0>
    29d2:	862e                	mv	a2,a1
    29d4:	01450593          	addi	a1,a0,20
    29d8:	09f00513          	li	a0,159
    29dc:	ec9ff0ef          	jal	ra,28a4 <WriteRGB.isra.2>
    29e0:	b63fd06f          	j	542 <__riscv_restore_0>

000029e4 <OD_writeRGB13>:
    29e4:	b3bfd2ef          	jal	t0,51e <__riscv_save_0>
    29e8:	862e                	mv	a2,a1
    29ea:	01450593          	addi	a1,a0,20
    29ee:	0ab00513          	li	a0,171
    29f2:	eb3ff0ef          	jal	ra,28a4 <WriteRGB.isra.2>
    29f6:	b4dfd06f          	j	542 <__riscv_restore_0>

000029fa <OD_readBoardSettings>:
    29fa:	b25fd2ef          	jal	t0,51e <__riscv_save_0>
    29fe:	4785                	li	a5,1
    2a00:	c29c                	sw	a5,0(a3)
    2a02:	2948                	lbu	a0,20(a0)
    2a04:	4791                	li	a5,4
    2a06:	842e                	mv	s0,a1
    2a08:	00f51a63          	bne	a0,a5,2a1c <OD_readBoardSettings+0x22>
    2a0c:	20b00513          	li	a0,523
    2a10:	a8afe0ef          	jal	ra,c9a <getReg8>
    2a14:	a008                	sb	a0,0(s0)
    2a16:	4501                	li	a0,0
    2a18:	b2bfd06f          	j	542 <__riscv_restore_0>
    2a1c:	40a00533          	neg	a0,a0
    2a20:	0542                	slli	a0,a0,0x10
    2a22:	8141                	srli	a0,a0,0x10
    2a24:	b7f5                	j	2a10 <OD_readBoardSettings+0x16>

00002a26 <readADC.isra.6>:
    2a26:	af9fd2ef          	jal	t0,51e <__riscv_save_0>
    2a2a:	211c                	lbu	a5,0(a0)
    2a2c:	4705                	li	a4,1
    2a2e:	1141                	addi	sp,sp,-16
    2a30:	842e                	mv	s0,a1
    2a32:	02e79163          	bne	a5,a4,2a54 <readADC.isra.6+0x2e>
    2a36:	450d                	li	a0,3
    2a38:	02a60633          	mul	a2,a2,a0
    2a3c:	c29c                	sw	a5,0(a3)
    2a3e:	0e460513          	addi	a0,a2,228
    2a42:	0542                	slli	a0,a0,0x10
    2a44:	8141                	srli	a0,a0,0x10
    2a46:	a54fe0ef          	jal	ra,c9a <getReg8>
    2a4a:	a008                	sb	a0,0(s0)
    2a4c:	4501                	li	a0,0
    2a4e:	0141                	addi	sp,sp,16
    2a50:	af3fd06f          	j	542 <__riscv_restore_0>
    2a54:	4709                	li	a4,2
    2a56:	02e79163          	bne	a5,a4,2a78 <readADC.isra.6+0x52>
    2a5a:	450d                	li	a0,3
    2a5c:	02a60633          	mul	a2,a2,a0
    2a60:	c29c                	sw	a5,0(a3)
    2a62:	0e560513          	addi	a0,a2,229
    2a66:	0542                	slli	a0,a0,0x10
    2a68:	8141                	srli	a0,a0,0x10
    2a6a:	e43fd0ef          	jal	ra,8ac <getReg16>
    2a6e:	00855793          	srli	a5,a0,0x8
    2a72:	a008                	sb	a0,0(s0)
    2a74:	b01c                	sb	a5,1(s0)
    2a76:	bfd9                	j	2a4c <readADC.isra.6+0x26>
    2a78:	4791                	li	a5,4
    2a7a:	c29c                	sw	a5,0(a3)
    2a7c:	2108                	lbu	a0,0(a0)
    2a7e:	400007b7          	lui	a5,0x40000
    2a82:	17f5                	addi	a5,a5,-3
    2a84:	953e                	add	a0,a0,a5
    2a86:	47d1                	li	a5,20
    2a88:	02f60633          	mul	a2,a2,a5
    2a8c:	9532                	add	a0,a0,a2
    2a8e:	050a                	slli	a0,a0,0x2
    2a90:	0ed50513          	addi	a0,a0,237
    2a94:	0542                	slli	a0,a0,0x10
    2a96:	8141                	srli	a0,a0,0x10
    2a98:	e25fd0ef          	jal	ra,8bc <getReg32>
    2a9c:	c62a                	sw	a0,12(sp)
    2a9e:	4611                	li	a2,4
    2aa0:	006c                	addi	a1,sp,12
    2aa2:	8522                	mv	a0,s0
    2aa4:	2a7080ef          	jal	ra,b54a <memcpy>
    2aa8:	b755                	j	2a4c <readADC.isra.6+0x26>

00002aaa <OD_readADC1>:
    2aaa:	a75fd2ef          	jal	t0,51e <__riscv_save_0>
    2aae:	4601                	li	a2,0
    2ab0:	0551                	addi	a0,a0,20
    2ab2:	f75ff0ef          	jal	ra,2a26 <readADC.isra.6>
    2ab6:	a8dfd06f          	j	542 <__riscv_restore_0>

00002aba <OD_readADC2>:
    2aba:	a65fd2ef          	jal	t0,51e <__riscv_save_0>
    2abe:	4605                	li	a2,1
    2ac0:	0551                	addi	a0,a0,20
    2ac2:	f65ff0ef          	jal	ra,2a26 <readADC.isra.6>
    2ac6:	a7dfd06f          	j	542 <__riscv_restore_0>

00002aca <OD_readADC3>:
    2aca:	a55fd2ef          	jal	t0,51e <__riscv_save_0>
    2ace:	4609                	li	a2,2
    2ad0:	0551                	addi	a0,a0,20
    2ad2:	f55ff0ef          	jal	ra,2a26 <readADC.isra.6>
    2ad6:	a6dfd06f          	j	542 <__riscv_restore_0>

00002ada <OD_readMenuSetup>:
    2ada:	a45fd2ef          	jal	t0,51e <__riscv_save_0>
    2ade:	4705                	li	a4,1
    2ae0:	c298                	sw	a4,0(a3)
    2ae2:	295c                	lbu	a5,20(a0)
    2ae4:	842e                	mv	s0,a1
    2ae6:	00e78c63          	beq	a5,a4,2afe <OD_readMenuSetup+0x24>
    2aea:	4709                	li	a4,2
    2aec:	20900513          	li	a0,521
    2af0:	00e78463          	beq	a5,a4,2af8 <OD_readMenuSetup+0x1e>
    2af4:	20a00513          	li	a0,522
    2af8:	9a2fe0ef          	jal	ra,c9a <getReg8>
    2afc:	a019                	j	2b02 <OD_readMenuSetup+0x28>
    2afe:	d7efe0ef          	jal	ra,107c <GetCurMenuHome>
    2b02:	a008                	sb	a0,0(s0)
    2b04:	4501                	li	a0,0
    2b06:	a3dfd06f          	j	542 <__riscv_restore_0>

00002b0a <writeADC.isra.9>:
    2b0a:	9fbfd2ef          	jal	t0,504 <__riscv_save_4>
    2b0e:	00054903          	lbu	s2,0(a0)
    2b12:	4785                	li	a5,1
    2b14:	1141                	addi	sp,sp,-16
    2b16:	84ae                	mv	s1,a1
    2b18:	8432                	mv	s0,a2
    2b1a:	8a36                	mv	s4,a3
    2b1c:	02f91c63          	bne	s2,a5,2b54 <writeADC.isra.9+0x4a>
    2b20:	218c                	lbu	a1,0(a1)
    2b22:	8532                	mv	a0,a2
    2b24:	184010ef          	jal	ra,3ca8 <eAinCalDataConfig>
    2b28:	47bd                	li	a5,15
    2b2a:	e10d                	bnez	a0,2b4c <writeADC.isra.9+0x42>
    2b2c:	450d                	li	a0,3
    2b2e:	02a40533          	mul	a0,s0,a0
    2b32:	209c                	lbu	a5,0(s1)
    2b34:	4605                	li	a2,1
    2b36:	012a2023          	sw	s2,0(s4)
    2b3a:	845c                	sb	a5,8(sp)
    2b3c:	0e450513          	addi	a0,a0,228
    2b40:	0542                	slli	a0,a0,0x10
    2b42:	002c                	addi	a1,sp,8
    2b44:	8141                	srli	a0,a0,0x10
    2b46:	95efe0ef          	jal	ra,ca4 <WriteRegAfterDelay>
    2b4a:	4781                	li	a5,0
    2b4c:	853e                	mv	a0,a5
    2b4e:	0141                	addi	sp,sp,16
    2b50:	9e9fd06f          	j	538 <__riscv_restore_4>
    2b54:	4789                	li	a5,2
    2b56:	00f91f63          	bne	s2,a5,2b74 <writeADC.isra.9+0x6a>
    2b5a:	852e                	mv	a0,a1
    2b5c:	badff0ef          	jal	ra,2708 <CO_getUint16>
    2b60:	8468                	sh	a0,8(sp)
    2b62:	450d                	li	a0,3
    2b64:	02a40533          	mul	a0,s0,a0
    2b68:	012a2023          	sw	s2,0(s4)
    2b6c:	4609                	li	a2,2
    2b6e:	0e550513          	addi	a0,a0,229
    2b72:	b7f9                	j	2b40 <writeADC.isra.9+0x36>
    2b74:	89aa                	mv	s3,a0
    2b76:	852e                	mv	a0,a1
    2b78:	c4bff0ef          	jal	ra,27c2 <CO_getUint32>
    2b7c:	4791                	li	a5,4
    2b7e:	00fa2023          	sw	a5,0(s4)
    2b82:	c22a                	sw	a0,4(sp)
    2b84:	0009c503          	lbu	a0,0(s3)
    2b88:	400007b7          	lui	a5,0x40000
    2b8c:	17f5                	addi	a5,a5,-3
    2b8e:	953e                	add	a0,a0,a5
    2b90:	47d1                	li	a5,20
    2b92:	02f407b3          	mul	a5,s0,a5
    2b96:	4611                	li	a2,4
    2b98:	004c                	addi	a1,sp,4
    2b9a:	953e                	add	a0,a0,a5
    2b9c:	050a                	slli	a0,a0,0x2
    2b9e:	0ed50513          	addi	a0,a0,237
    2ba2:	0542                	slli	a0,a0,0x10
    2ba4:	8141                	srli	a0,a0,0x10
    2ba6:	8fefe0ef          	jal	ra,ca4 <WriteRegAfterDelay>
    2baa:	4492                	lw	s1,4(sp)
    2bac:	01049513          	slli	a0,s1,0x10
    2bb0:	8141                	srli	a0,a0,0x10
    2bb2:	047080ef          	jal	ra,b3f8 <__floatunsisf>
    2bb6:	c62a                	sw	a0,12(sp)
    2bb8:	0104d513          	srli	a0,s1,0x10
    2bbc:	03d080ef          	jal	ra,b3f8 <__floatunsisf>
    2bc0:	0000d7b7          	lui	a5,0xd
    2bc4:	8207a583          	lw	a1,-2016(a5) # c820 <seg_const+0x14>
    2bc8:	4d7070ef          	jal	ra,a89e <__divsf3>
    2bcc:	0009c603          	lbu	a2,0(s3)
    2bd0:	c42a                	sw	a0,8(sp)
    2bd2:	002c                	addi	a1,sp,8
    2bd4:	167d                	addi	a2,a2,-1
    2bd6:	0642                	slli	a2,a2,0x10
    2bd8:	8241                	srli	a2,a2,0x10
    2bda:	8522                	mv	a0,s0
    2bdc:	17e010ef          	jal	ra,3d5a <eSetAinCalPoint>
    2be0:	4781                	li	a5,0
    2be2:	d52d                	beqz	a0,2b4c <writeADC.isra.9+0x42>
    2be4:	47bd                	li	a5,15
    2be6:	b79d                	j	2b4c <writeADC.isra.9+0x42>

00002be8 <OD_writeADC1>:
    2be8:	937fd2ef          	jal	t0,51e <__riscv_save_0>
    2bec:	4601                	li	a2,0
    2bee:	0551                	addi	a0,a0,20
    2bf0:	f1bff0ef          	jal	ra,2b0a <writeADC.isra.9>
    2bf4:	94ffd06f          	j	542 <__riscv_restore_0>

00002bf8 <OD_writeADC2>:
    2bf8:	927fd2ef          	jal	t0,51e <__riscv_save_0>
    2bfc:	4605                	li	a2,1
    2bfe:	0551                	addi	a0,a0,20
    2c00:	f0bff0ef          	jal	ra,2b0a <writeADC.isra.9>
    2c04:	93ffd06f          	j	542 <__riscv_restore_0>

00002c08 <OD_writeADC3>:
    2c08:	917fd2ef          	jal	t0,51e <__riscv_save_0>
    2c0c:	4609                	li	a2,2
    2c0e:	0551                	addi	a0,a0,20
    2c10:	efbff0ef          	jal	ra,2b0a <writeADC.isra.9>
    2c14:	92ffd06f          	j	542 <__riscv_restore_0>

00002c18 <OD_readRGB.isra.5>:
    2c18:	907fd2ef          	jal	t0,51e <__riscv_save_0>
    2c1c:	4789                	li	a5,2
    2c1e:	1101                	addi	sp,sp,-32
    2c20:	c21c                	sw	a5,0(a2)
    2c22:	c62e                	sw	a1,12(sp)
    2c24:	c89fd0ef          	jal	ra,8ac <getReg16>
    2c28:	45b2                	lw	a1,12(sp)
    2c2a:	00855793          	srli	a5,a0,0x8
    2c2e:	a188                	sb	a0,0(a1)
    2c30:	b19c                	sb	a5,1(a1)
    2c32:	4501                	li	a0,0
    2c34:	6105                	addi	sp,sp,32
    2c36:	90dfd06f          	j	542 <__riscv_restore_0>

00002c3a <OD_readRGB1>:
    2c3a:	8e5fd2ef          	jal	t0,51e <__riscv_save_0>
    2c3e:	8636                	mv	a2,a3
    2c40:	456d                	li	a0,27
    2c42:	fd7ff0ef          	jal	ra,2c18 <OD_readRGB.isra.5>
    2c46:	8fdfd06f          	j	542 <__riscv_restore_0>

00002c4a <OD_readRGB2>:
    2c4a:	8d5fd2ef          	jal	t0,51e <__riscv_save_0>
    2c4e:	8636                	mv	a2,a3
    2c50:	02700513          	li	a0,39
    2c54:	fc5ff0ef          	jal	ra,2c18 <OD_readRGB.isra.5>
    2c58:	8ebfd06f          	j	542 <__riscv_restore_0>

00002c5c <OD_readRGB3>:
    2c5c:	8c3fd2ef          	jal	t0,51e <__riscv_save_0>
    2c60:	8636                	mv	a2,a3
    2c62:	03300513          	li	a0,51
    2c66:	fb3ff0ef          	jal	ra,2c18 <OD_readRGB.isra.5>
    2c6a:	8d9fd06f          	j	542 <__riscv_restore_0>

00002c6e <OD_readRGB4>:
    2c6e:	8b1fd2ef          	jal	t0,51e <__riscv_save_0>
    2c72:	8636                	mv	a2,a3
    2c74:	03f00513          	li	a0,63
    2c78:	fa1ff0ef          	jal	ra,2c18 <OD_readRGB.isra.5>
    2c7c:	8c7fd06f          	j	542 <__riscv_restore_0>

00002c80 <OD_readRGB5>:
    2c80:	89ffd2ef          	jal	t0,51e <__riscv_save_0>
    2c84:	8636                	mv	a2,a3
    2c86:	04b00513          	li	a0,75
    2c8a:	f8fff0ef          	jal	ra,2c18 <OD_readRGB.isra.5>
    2c8e:	8b5fd06f          	j	542 <__riscv_restore_0>

00002c92 <OD_readRGB6>:
    2c92:	88dfd2ef          	jal	t0,51e <__riscv_save_0>
    2c96:	8636                	mv	a2,a3
    2c98:	05700513          	li	a0,87
    2c9c:	f7dff0ef          	jal	ra,2c18 <OD_readRGB.isra.5>
    2ca0:	8a3fd06f          	j	542 <__riscv_restore_0>

00002ca4 <OD_readRGB7>:
    2ca4:	87bfd2ef          	jal	t0,51e <__riscv_save_0>
    2ca8:	8636                	mv	a2,a3
    2caa:	06300513          	li	a0,99
    2cae:	f6bff0ef          	jal	ra,2c18 <OD_readRGB.isra.5>
    2cb2:	891fd06f          	j	542 <__riscv_restore_0>

00002cb6 <OD_readRGB8>:
    2cb6:	869fd2ef          	jal	t0,51e <__riscv_save_0>
    2cba:	8636                	mv	a2,a3
    2cbc:	06f00513          	li	a0,111
    2cc0:	f59ff0ef          	jal	ra,2c18 <OD_readRGB.isra.5>
    2cc4:	87ffd06f          	j	542 <__riscv_restore_0>

00002cc8 <OD_readRGB9>:
    2cc8:	857fd2ef          	jal	t0,51e <__riscv_save_0>
    2ccc:	8636                	mv	a2,a3
    2cce:	07b00513          	li	a0,123
    2cd2:	f47ff0ef          	jal	ra,2c18 <OD_readRGB.isra.5>
    2cd6:	86dfd06f          	j	542 <__riscv_restore_0>

00002cda <OD_readRGB10>:
    2cda:	845fd2ef          	jal	t0,51e <__riscv_save_0>
    2cde:	8636                	mv	a2,a3
    2ce0:	08700513          	li	a0,135
    2ce4:	f35ff0ef          	jal	ra,2c18 <OD_readRGB.isra.5>
    2ce8:	85bfd06f          	j	542 <__riscv_restore_0>

00002cec <OD_readRGB11>:
    2cec:	833fd2ef          	jal	t0,51e <__riscv_save_0>
    2cf0:	8636                	mv	a2,a3
    2cf2:	09300513          	li	a0,147
    2cf6:	f23ff0ef          	jal	ra,2c18 <OD_readRGB.isra.5>
    2cfa:	849fd06f          	j	542 <__riscv_restore_0>

00002cfe <OD_readRGB12>:
    2cfe:	821fd2ef          	jal	t0,51e <__riscv_save_0>
    2d02:	8636                	mv	a2,a3
    2d04:	09f00513          	li	a0,159
    2d08:	f11ff0ef          	jal	ra,2c18 <OD_readRGB.isra.5>
    2d0c:	837fd06f          	j	542 <__riscv_restore_0>

00002d10 <OD_readRGB13>:
    2d10:	80ffd2ef          	jal	t0,51e <__riscv_save_0>
    2d14:	8636                	mv	a2,a3
    2d16:	0ab00513          	li	a0,171
    2d1a:	effff0ef          	jal	ra,2c18 <OD_readRGB.isra.5>
    2d1e:	825fd06f          	j	542 <__riscv_restore_0>

00002d22 <OD_readAIN_RPM>:
    2d22:	ffcfd2ef          	jal	t0,51e <__riscv_save_0>
    2d26:	4789                	li	a5,2
    2d28:	c29c                	sw	a5,0(a3)
    2d2a:	2948                	lbu	a0,20(a0)
    2d2c:	842e                	mv	s0,a1
    2d2e:	1141                	addi	sp,sp,-16
    2d30:	4585                	li	a1,1
    2d32:	0545                	addi	a0,a0,17
    2d34:	96cfe0ef          	jal	ra,ea0 <getODValue>
    2d38:	00855793          	srli	a5,a0,0x8
    2d3c:	a008                	sb	a0,0(s0)
    2d3e:	b01c                	sb	a5,1(s0)
    2d40:	4501                	li	a0,0
    2d42:	0141                	addi	sp,sp,16
    2d44:	ffefd06f          	j	542 <__riscv_restore_0>

00002d48 <OD_readMenuMap>:
    2d48:	fd6fd2ef          	jal	t0,51e <__riscv_save_0>
    2d4c:	4791                	li	a5,4
    2d4e:	c29c                	sw	a5,0(a3)
    2d50:	2948                	lbu	a0,20(a0)
    2d52:	1141                	addi	sp,sp,-16
    2d54:	842e                	mv	s0,a1
    2d56:	07850513          	addi	a0,a0,120
    2d5a:	050a                	slli	a0,a0,0x2
    2d5c:	b61fd0ef          	jal	ra,8bc <getReg32>
    2d60:	c62a                	sw	a0,12(sp)
    2d62:	006c                	addi	a1,sp,12
    2d64:	4611                	li	a2,4
    2d66:	8522                	mv	a0,s0
    2d68:	7e2080ef          	jal	ra,b54a <memcpy>
    2d6c:	4501                	li	a0,0
    2d6e:	0141                	addi	sp,sp,16
    2d70:	fd2fd06f          	j	542 <__riscv_restore_0>

00002d74 <OD_readRPMConfig>:
    2d74:	faafd2ef          	jal	t0,51e <__riscv_save_0>
    2d78:	4789                	li	a5,2
    2d7a:	c29c                	sw	a5,0(a3)
    2d7c:	2948                	lbu	a0,20(a0)
    2d7e:	1101                	addi	sp,sp,-32
    2d80:	c62e                	sw	a1,12(sp)
    2d82:	0506                	slli	a0,a0,0x1
    2d84:	1db50513          	addi	a0,a0,475
    2d88:	b25fd0ef          	jal	ra,8ac <getReg16>
    2d8c:	45b2                	lw	a1,12(sp)
    2d8e:	00855793          	srli	a5,a0,0x8
    2d92:	a188                	sb	a0,0(a1)
    2d94:	b19c                	sb	a5,1(a1)
    2d96:	4501                	li	a0,0
    2d98:	6105                	addi	sp,sp,32
    2d9a:	fa8fd06f          	j	542 <__riscv_restore_0>

00002d9e <OD_readBar>:
    2d9e:	f80fd2ef          	jal	t0,51e <__riscv_save_0>
    2da2:	4789                	li	a5,2
    2da4:	c29c                	sw	a5,0(a3)
    2da6:	2948                	lbu	a0,20(a0)
    2da8:	1101                	addi	sp,sp,-32
    2daa:	c62e                	sw	a1,12(sp)
    2dac:	0506                	slli	a0,a0,0x1
    2dae:	0545                	addi	a0,a0,17
    2db0:	afdfd0ef          	jal	ra,8ac <getReg16>
    2db4:	45b2                	lw	a1,12(sp)
    2db6:	00855793          	srli	a5,a0,0x8
    2dba:	a188                	sb	a0,0(a1)
    2dbc:	b19c                	sb	a5,1(a1)
    2dbe:	4501                	li	a0,0
    2dc0:	6105                	addi	sp,sp,32
    2dc2:	f80fd06f          	j	542 <__riscv_restore_0>

00002dc6 <OD_readDashParam>:
    2dc6:	f58fd2ef          	jal	t0,51e <__riscv_save_0>
    2dca:	4791                	li	a5,4
    2dcc:	c29c                	sw	a5,0(a3)
    2dce:	295c                	lbu	a5,20(a0)
    2dd0:	4709                	li	a4,2
    2dd2:	1141                	addi	sp,sp,-16
    2dd4:	842e                	mv	s0,a1
    2dd6:	02e78663          	beq	a5,a4,2e02 <OD_readDashParam+0x3c>
    2dda:	470d                	li	a4,3
    2ddc:	02e78763          	beq	a5,a4,2e0a <OD_readDashParam+0x44>
    2de0:	4705                	li	a4,1
    2de2:	20c00513          	li	a0,524
    2de6:	00e79f63          	bne	a5,a4,2e04 <OD_readDashParam+0x3e>
    2dea:	830fe0ef          	jal	ra,e1a <getOdometr>
    2dee:	c62a                	sw	a0,12(sp)
    2df0:	006c                	addi	a1,sp,12
    2df2:	4611                	li	a2,4
    2df4:	8522                	mv	a0,s0
    2df6:	754080ef          	jal	ra,b54a <memcpy>
    2dfa:	4501                	li	a0,0
    2dfc:	0141                	addi	sp,sp,16
    2dfe:	f44fd06f          	j	542 <__riscv_restore_0>
    2e02:	4519                	li	a0,6
    2e04:	ab9fd0ef          	jal	ra,8bc <getReg32>
    2e08:	b7dd                	j	2dee <OD_readDashParam+0x28>
    2e0a:	4539                	li	a0,14
    2e0c:	e8ffd0ef          	jal	ra,c9a <getReg8>
    2e10:	bff9                	j	2dee <OD_readDashParam+0x28>

00002e12 <OD_readSEG>:
    2e12:	f0cfd2ef          	jal	t0,51e <__riscv_save_0>
    2e16:	4789                	li	a5,2
    2e18:	c29c                	sw	a5,0(a3)
    2e1a:	2948                	lbu	a0,20(a0)
    2e1c:	4785                	li	a5,1
    2e1e:	1141                	addi	sp,sp,-16
    2e20:	842e                	mv	s0,a1
    2e22:	00f51e63          	bne	a0,a5,2e3e <OD_readSEG+0x2c>
    2e26:	21000513          	li	a0,528
    2e2a:	a83fd0ef          	jal	ra,8ac <getReg16>
    2e2e:	00855793          	srli	a5,a0,0x8
    2e32:	a008                	sb	a0,0(s0)
    2e34:	b01c                	sb	a5,1(s0)
    2e36:	4501                	li	a0,0
    2e38:	0141                	addi	sp,sp,16
    2e3a:	f08fd06f          	j	542 <__riscv_restore_0>
    2e3e:	06750513          	addi	a0,a0,103
    2e42:	0506                	slli	a0,a0,0x1
    2e44:	b7dd                	j	2e2a <OD_readSEG+0x18>

00002e46 <vProceesInit>:
    2e46:	81c1a783          	lw	a5,-2020(gp) # 200005c4 <OD>
    2e4a:	43dc                	lw	a5,4(a5)
    2e4c:	12c78713          	addi	a4,a5,300
    2e50:	eb71                	bnez	a4,2f24 <vProceesInit+0xde>
    2e52:	6735                	lui	a4,0xd
    2e54:	9e070713          	addi	a4,a4,-1568 # c9e0 <OD_DASH_PARAM_extension>
    2e58:	14e7a023          	sw	a4,320(a5)
    2e5c:	14478713          	addi	a4,a5,324
    2e60:	eb71                	bnez	a4,2f34 <vProceesInit+0xee>
    2e62:	6735                	lui	a4,0xd
    2e64:	9f070713          	addi	a4,a4,-1552 # c9f0 <OD_DIN_extension>
    2e68:	14e7ac23          	sw	a4,344(a5)
    2e6c:	15c78713          	addi	a4,a5,348
    2e70:	eb71                	bnez	a4,2f44 <vProceesInit+0xfe>
    2e72:	6735                	lui	a4,0xd
    2e74:	af070713          	addi	a4,a4,-1296 # caf0 <OD_RGBMAP_extension>
    2e78:	16e7a823          	sw	a4,368(a5)
    2e7c:	17478713          	addi	a4,a5,372
    2e80:	eb71                	bnez	a4,2f54 <vProceesInit+0x10e>
    2e82:	6735                	lui	a4,0xd
    2e84:	a7070713          	addi	a4,a4,-1424 # ca70 <OD_RGB2_extension>
    2e88:	18e7a423          	sw	a4,392(a5)
    2e8c:	18c78713          	addi	a4,a5,396
    2e90:	eb71                	bnez	a4,2f64 <vProceesInit+0x11e>
    2e92:	6735                	lui	a4,0xd
    2e94:	a9070713          	addi	a4,a4,-1392 # ca90 <OD_RGB4_extension>
    2e98:	1ae7a023          	sw	a4,416(a5)
    2e9c:	1a478713          	addi	a4,a5,420
    2ea0:	eb71                	bnez	a4,2f74 <vProceesInit+0x12e>
    2ea2:	6735                	lui	a4,0xd
    2ea4:	ab070713          	addi	a4,a4,-1360 # cab0 <OD_RGB6_extension>
    2ea8:	1ae7ac23          	sw	a4,440(a5)
    2eac:	1bc78713          	addi	a4,a5,444
    2eb0:	eb71                	bnez	a4,2f84 <vProceesInit+0x13e>
    2eb2:	6735                	lui	a4,0xd
    2eb4:	ad070713          	addi	a4,a4,-1328 # cad0 <OD_RGB8_extension>
    2eb8:	1ce7a823          	sw	a4,464(a5)
    2ebc:	1d478713          	addi	a4,a5,468
    2ec0:	eb71                	bnez	a4,2f94 <vProceesInit+0x14e>
    2ec2:	6735                	lui	a4,0xd
    2ec4:	a2070713          	addi	a4,a4,-1504 # ca20 <OD_RGB10_extension>
    2ec8:	1ee7a423          	sw	a4,488(a5)
    2ecc:	1ec78713          	addi	a4,a5,492
    2ed0:	eb71                	bnez	a4,2fa4 <vProceesInit+0x15e>
    2ed2:	6735                	lui	a4,0xd
    2ed4:	a4070713          	addi	a4,a4,-1472 # ca40 <OD_RGB12_extension>
    2ed8:	20e7a023          	sw	a4,512(a5)
    2edc:	20478713          	addi	a4,a5,516
    2ee0:	eb71                	bnez	a4,2fb4 <vProceesInit+0x16e>
    2ee2:	6735                	lui	a4,0xd
    2ee4:	9c070713          	addi	a4,a4,-1600 # c9c0 <OD_BAR_extension>
    2ee8:	22e7a223          	sw	a4,548(a5)
    2eec:	22878713          	addi	a4,a5,552
    2ef0:	eb71                	bnez	a4,2fc4 <vProceesInit+0x17e>
    2ef2:	6735                	lui	a4,0xd
    2ef4:	a1070713          	addi	a4,a4,-1520 # ca10 <OD_MENU_SETUP_extension>
    2ef8:	22e7ae23          	sw	a4,572(a5)
    2efc:	24078713          	addi	a4,a5,576
    2f00:	eb71                	bnez	a4,2fd4 <vProceesInit+0x18e>
    2f02:	6735                	lui	a4,0xd
    2f04:	98070713          	addi	a4,a4,-1664 # c980 <OD_ADC1_CAL_extension>
    2f08:	24e7aa23          	sw	a4,596(a5)
    2f0c:	25878713          	addi	a4,a5,600
    2f10:	eb71                	bnez	a4,2fe4 <vProceesInit+0x19e>
    2f12:	6735                	lui	a4,0xd
    2f14:	9a070713          	addi	a4,a4,-1632 # c9a0 <OD_ADC3_CAL_extension>
    2f18:	26e7a623          	sw	a4,620(a5)
    2f1c:	27078713          	addi	a4,a5,624
    2f20:	eb71                	bnez	a4,2ff4 <vProceesInit+0x1ae>
    2f22:	8082                	ret
    2f24:	6735                	lui	a4,0xd
    2f26:	b2070713          	addi	a4,a4,-1248 # cb20 <OD_VRegiters_extension>
    2f2a:	12e7aa23          	sw	a4,308(a5)
    2f2e:	13878713          	addi	a4,a5,312
    2f32:	f305                	bnez	a4,2e52 <vProceesInit+0xc>
    2f34:	6735                	lui	a4,0xd
    2f36:	9b070713          	addi	a4,a4,-1616 # c9b0 <OD_AIN_RPM_extension>
    2f3a:	14e7a623          	sw	a4,332(a5)
    2f3e:	15078713          	addi	a4,a5,336
    2f42:	f305                	bnez	a4,2e62 <vProceesInit+0x1c>
    2f44:	6735                	lui	a4,0xd
    2f46:	b1070713          	addi	a4,a4,-1264 # cb10 <OD_SEG_extension>
    2f4a:	16e7a223          	sw	a4,356(a5)
    2f4e:	16878713          	addi	a4,a5,360
    2f52:	f305                	bnez	a4,2e72 <vProceesInit+0x2c>
    2f54:	6735                	lui	a4,0xd
    2f56:	a6070713          	addi	a4,a4,-1440 # ca60 <OD_RGB1_extension>
    2f5a:	16e7ae23          	sw	a4,380(a5)
    2f5e:	18078713          	addi	a4,a5,384
    2f62:	f305                	bnez	a4,2e82 <vProceesInit+0x3c>
    2f64:	6735                	lui	a4,0xd
    2f66:	a8070713          	addi	a4,a4,-1408 # ca80 <OD_RGB3_extension>
    2f6a:	18e7aa23          	sw	a4,404(a5)
    2f6e:	19878713          	addi	a4,a5,408
    2f72:	f305                	bnez	a4,2e92 <vProceesInit+0x4c>
    2f74:	6735                	lui	a4,0xd
    2f76:	aa070713          	addi	a4,a4,-1376 # caa0 <OD_RGB5_extension>
    2f7a:	1ae7a623          	sw	a4,428(a5)
    2f7e:	1b078713          	addi	a4,a5,432
    2f82:	f305                	bnez	a4,2ea2 <vProceesInit+0x5c>
    2f84:	6735                	lui	a4,0xd
    2f86:	ac070713          	addi	a4,a4,-1344 # cac0 <OD_RGB7_extension>
    2f8a:	1ce7a223          	sw	a4,452(a5)
    2f8e:	1c878713          	addi	a4,a5,456
    2f92:	f305                	bnez	a4,2eb2 <vProceesInit+0x6c>
    2f94:	6735                	lui	a4,0xd
    2f96:	ae070713          	addi	a4,a4,-1312 # cae0 <OD_RGB9_extension>
    2f9a:	1ce7ae23          	sw	a4,476(a5)
    2f9e:	1e078713          	addi	a4,a5,480
    2fa2:	f305                	bnez	a4,2ec2 <vProceesInit+0x7c>
    2fa4:	6735                	lui	a4,0xd
    2fa6:	a3070713          	addi	a4,a4,-1488 # ca30 <OD_RGB11_extension>
    2faa:	1ee7aa23          	sw	a4,500(a5)
    2fae:	1f878713          	addi	a4,a5,504
    2fb2:	f305                	bnez	a4,2ed2 <vProceesInit+0x8c>
    2fb4:	6735                	lui	a4,0xd
    2fb6:	a5070713          	addi	a4,a4,-1456 # ca50 <OD_RGB13_extension>
    2fba:	20e7a623          	sw	a4,524(a5)
    2fbe:	21c78713          	addi	a4,a5,540
    2fc2:	f305                	bnez	a4,2ee2 <vProceesInit+0x9c>
    2fc4:	6735                	lui	a4,0xd
    2fc6:	a0070713          	addi	a4,a4,-1536 # ca00 <OD_MENU_MAP_extension>
    2fca:	22e7a823          	sw	a4,560(a5)
    2fce:	23478713          	addi	a4,a5,564
    2fd2:	f305                	bnez	a4,2ef2 <vProceesInit+0xac>
    2fd4:	6735                	lui	a4,0xd
    2fd6:	9d070713          	addi	a4,a4,-1584 # c9d0 <OD_BOARD_SETTINGS_extension>
    2fda:	24e7a423          	sw	a4,584(a5)
    2fde:	24c78713          	addi	a4,a5,588
    2fe2:	f305                	bnez	a4,2f02 <vProceesInit+0xbc>
    2fe4:	6735                	lui	a4,0xd
    2fe6:	99070713          	addi	a4,a4,-1648 # c990 <OD_ADC2_CAL_extension>
    2fea:	26e7a023          	sw	a4,608(a5)
    2fee:	26478713          	addi	a4,a5,612
    2ff2:	f305                	bnez	a4,2f12 <vProceesInit+0xcc>
    2ff4:	6735                	lui	a4,0xd
    2ff6:	b0070713          	addi	a4,a4,-1280 # cb00 <OD_RPMCONFIG_extension>
    2ffa:	26e7ac23          	sw	a4,632(a5)
    2ffe:	b715                	j	2f22 <vProceesInit+0xdc>

00003000 <SystemInit>:
    3000:	400217b7          	lui	a5,0x40021
    3004:	4398                	lw	a4,0(a5)
    3006:	f8ff06b7          	lui	a3,0xf8ff0
    300a:	1141                	addi	sp,sp,-16
    300c:	00176713          	ori	a4,a4,1
    3010:	c398                	sw	a4,0(a5)
    3012:	43d8                	lw	a4,4(a5)
    3014:	00020637          	lui	a2,0x20
    3018:	8f75                	and	a4,a4,a3
    301a:	c3d8                	sw	a4,4(a5)
    301c:	4398                	lw	a4,0(a5)
    301e:	fef706b7          	lui	a3,0xfef70
    3022:	16fd                	addi	a3,a3,-1
    3024:	8f75                	and	a4,a4,a3
    3026:	c398                	sw	a4,0(a5)
    3028:	4398                	lw	a4,0(a5)
    302a:	fffc06b7          	lui	a3,0xfffc0
    302e:	16fd                	addi	a3,a3,-1
    3030:	8f75                	and	a4,a4,a3
    3032:	c398                	sw	a4,0(a5)
    3034:	43d8                	lw	a4,4(a5)
    3036:	ff8106b7          	lui	a3,0xff810
    303a:	16fd                	addi	a3,a3,-1
    303c:	8f75                	and	a4,a4,a3
    303e:	c3d8                	sw	a4,4(a5)
    3040:	009f0737          	lui	a4,0x9f0
    3044:	c798                	sw	a4,8(a5)
    3046:	c402                	sw	zero,8(sp)
    3048:	c602                	sw	zero,12(sp)
    304a:	4398                	lw	a4,0(a5)
    304c:	66c1                	lui	a3,0x10
    304e:	8f55                	or	a4,a4,a3
    3050:	c398                	sw	a4,0(a5)
    3052:	400216b7          	lui	a3,0x40021
    3056:	6705                	lui	a4,0x1
    3058:	429c                	lw	a5,0(a3)
    305a:	8ff1                	and	a5,a5,a2
    305c:	c63e                	sw	a5,12(sp)
    305e:	47a2                	lw	a5,8(sp)
    3060:	0785                	addi	a5,a5,1
    3062:	c43e                	sw	a5,8(sp)
    3064:	47b2                	lw	a5,12(sp)
    3066:	e781                	bnez	a5,306e <SystemInit+0x6e>
    3068:	47a2                	lw	a5,8(sp)
    306a:	fee797e3          	bne	a5,a4,3058 <SystemInit+0x58>
    306e:	400217b7          	lui	a5,0x40021
    3072:	439c                	lw	a5,0(a5)
    3074:	00e79713          	slli	a4,a5,0xe
    3078:	06075963          	bgez	a4,30ea <SystemInit+0xea>
    307c:	4785                	li	a5,1
    307e:	c63e                	sw	a5,12(sp)
    3080:	4732                	lw	a4,12(sp)
    3082:	4785                	li	a5,1
    3084:	06f71163          	bne	a4,a5,30e6 <SystemInit+0xe6>
    3088:	400217b7          	lui	a5,0x40021
    308c:	43d8                	lw	a4,4(a5)
    308e:	ffc106b7          	lui	a3,0xffc10
    3092:	16fd                	addi	a3,a3,-1
    3094:	08076713          	ori	a4,a4,128
    3098:	c3d8                	sw	a4,4(a5)
    309a:	43d8                	lw	a4,4(a5)
    309c:	c3d8                	sw	a4,4(a5)
    309e:	43d8                	lw	a4,4(a5)
    30a0:	40076713          	ori	a4,a4,1024
    30a4:	c3d8                	sw	a4,4(a5)
    30a6:	43d8                	lw	a4,4(a5)
    30a8:	8f75                	and	a4,a4,a3
    30aa:	c3d8                	sw	a4,4(a5)
    30ac:	43d8                	lw	a4,4(a5)
    30ae:	003d06b7          	lui	a3,0x3d0
    30b2:	8f55                	or	a4,a4,a3
    30b4:	c3d8                	sw	a4,4(a5)
    30b6:	4398                	lw	a4,0(a5)
    30b8:	010006b7          	lui	a3,0x1000
    30bc:	8f55                	or	a4,a4,a3
    30be:	c398                	sw	a4,0(a5)
    30c0:	4398                	lw	a4,0(a5)
    30c2:	00671693          	slli	a3,a4,0x6
    30c6:	fe06dde3          	bgez	a3,30c0 <SystemInit+0xc0>
    30ca:	43d8                	lw	a4,4(a5)
    30cc:	400216b7          	lui	a3,0x40021
    30d0:	9b71                	andi	a4,a4,-4
    30d2:	c3d8                	sw	a4,4(a5)
    30d4:	43d8                	lw	a4,4(a5)
    30d6:	00276713          	ori	a4,a4,2
    30da:	c3d8                	sw	a4,4(a5)
    30dc:	4721                	li	a4,8
    30de:	42dc                	lw	a5,4(a3)
    30e0:	8bb1                	andi	a5,a5,12
    30e2:	fee79ee3          	bne	a5,a4,30de <SystemInit+0xde>
    30e6:	0141                	addi	sp,sp,16
    30e8:	8082                	ret
    30ea:	c602                	sw	zero,12(sp)
    30ec:	bf51                	j	3080 <SystemInit+0x80>

000030ee <SystemCoreClockUpdate>:
    30ee:	400216b7          	lui	a3,0x40021
    30f2:	42dc                	lw	a5,4(a3)
    30f4:	20000737          	lui	a4,0x20000
    30f8:	4611                	li	a2,4
    30fa:	8bb1                	andi	a5,a5,12
    30fc:	5a870713          	addi	a4,a4,1448 # 200005a8 <SystemCoreClock>
    3100:	00c78563          	beq	a5,a2,310a <SystemCoreClockUpdate+0x1c>
    3104:	4621                	li	a2,8
    3106:	02c78863          	beq	a5,a2,3136 <SystemCoreClockUpdate+0x48>
    310a:	007a17b7          	lui	a5,0x7a1
    310e:	20078793          	addi	a5,a5,512 # 7a1200 <_data_lma+0x793704>
    3112:	c31c                	sw	a5,0(a4)
    3114:	400217b7          	lui	a5,0x40021
    3118:	43dc                	lw	a5,4(a5)
    311a:	8391                	srli	a5,a5,0x4
    311c:	00f7f693          	andi	a3,a5,15
    3120:	200007b7          	lui	a5,0x20000
    3124:	00078793          	mv	a5,a5
    3128:	97b6                	add	a5,a5,a3
    312a:	2394                	lbu	a3,0(a5)
    312c:	431c                	lw	a5,0(a4)
    312e:	00d7d7b3          	srl	a5,a5,a3
    3132:	c31c                	sw	a5,0(a4)
    3134:	8082                	ret
    3136:	42dc                	lw	a5,4(a3)
    3138:	42d4                	lw	a3,4(a3)
    313a:	6641                	lui	a2,0x10
    313c:	83c9                	srli	a5,a5,0x12
    313e:	8bbd                	andi	a5,a5,15
    3140:	8ef1                	and	a3,a3,a2
    3142:	0789                	addi	a5,a5,2
    3144:	4645                	li	a2,17
    3146:	00c79363          	bne	a5,a2,314c <SystemCoreClockUpdate+0x5e>
    314a:	47c9                	li	a5,18
    314c:	ee81                	bnez	a3,3164 <SystemCoreClockUpdate+0x76>
    314e:	400246b7          	lui	a3,0x40024
    3152:	8006a683          	lw	a3,-2048(a3) # 40023800 <__freertos_irq_stack_top+0x2001e800>
    3156:	8ac1                	andi	a3,a3,16
    3158:	ce89                	beqz	a3,3172 <SystemCoreClockUpdate+0x84>
    315a:	007a16b7          	lui	a3,0x7a1
    315e:	20068693          	addi	a3,a3,512 # 7a1200 <_data_lma+0x793704>
    3162:	a821                	j	317a <SystemCoreClockUpdate+0x8c>
    3164:	400216b7          	lui	a3,0x40021
    3168:	42d4                	lw	a3,4(a3)
    316a:	00e69613          	slli	a2,a3,0xe
    316e:	fe0656e3          	bgez	a2,315a <SystemCoreClockUpdate+0x6c>
    3172:	003d16b7          	lui	a3,0x3d1
    3176:	90068693          	addi	a3,a3,-1792 # 3d0900 <_data_lma+0x3c2e04>
    317a:	02d787b3          	mul	a5,a5,a3
    317e:	bf51                	j	3112 <SystemCoreClockUpdate+0x24>

00003180 <StartDefaultTask>:
    3180:	b84fd2ef          	jal	t0,504 <__riscv_save_4>
    3184:	64c1                	lui	s1,0x10
    3186:	1141                	addi	sp,sp,-16
    3188:	20000937          	lui	s2,0x20000
    318c:	4409                	li	s0,2
    318e:	4a0d                	li	s4,3
    3190:	4a8d                	li	s5,3
    3192:	14fd                	addi	s1,s1,-1
    3194:	67892783          	lw	a5,1656(s2) # 20000678 <DeafaultTaskFSM>
    3198:	67890993          	addi	s3,s2,1656
    319c:	04878e63          	beq	a5,s0,31f8 <StartDefaultTask+0x78>
    31a0:	03478063          	beq	a5,s4,31c0 <StartDefaultTask+0x40>
    31a4:	ffe5                	bnez	a5,319c <StartDefaultTask+0x1c>
    31a6:	f32fd0ef          	jal	ra,8d8 <DataModel_Init>
    31aa:	abcff0ef          	jal	ra,2466 <vLedDriverStart>
    31ae:	b49fe0ef          	jal	ra,1cf6 <InputsNotifyTaskToInit>
    31b2:	b06fe0ef          	jal	ra,14b8 <RedrawNotifyTaskToInit>
    31b6:	c91ff0ef          	jal	ra,2e46 <vProceesInit>
    31ba:	0159a023          	sw	s5,0(s3)
    31be:	bfd9                	j	3194 <StartDefaultTask+0x14>
    31c0:	577d                	li	a4,-1
    31c2:	0074                	addi	a3,sp,12
    31c4:	4601                	li	a2,0
    31c6:	4581                	li	a1,0
    31c8:	4501                	li	a0,0
    31ca:	17a040ef          	jal	ra,7344 <xTaskGenericNotifyWait>
    31ce:	47b2                	lw	a5,12(sp)
    31d0:	fc8792e3          	bne	a5,s0,3194 <StartDefaultTask+0x14>
    31d4:	8626                	mv	a2,s1
    31d6:	4581                	li	a1,0
    31d8:	4501                	li	a0,0
    31da:	5d4040ef          	jal	ra,77ae <ulTaskGenericNotifyValueClear>
    31de:	c18fd0ef          	jal	ra,5f6 <xCanOpenProcessTaskHandle>
    31e2:	4108                	lw	a0,0(a0)
    31e4:	6c6030ef          	jal	ra,68aa <vTaskResume>
    31e8:	c18fd0ef          	jal	ra,600 <xCanOpenPeriodicTaskHandle>
    31ec:	4108                	lw	a0,0(a0)
    31ee:	6bc030ef          	jal	ra,68aa <vTaskResume>
    31f2:	0089a023          	sw	s0,0(s3)
    31f6:	bf79                	j	3194 <StartDefaultTask+0x14>
    31f8:	1f400513          	li	a0,500
    31fc:	287030ef          	jal	ra,6c82 <vTaskDelay>
    3200:	69a020ef          	jal	ra,589a <HAL_WDTReset>
    3204:	bf41                	j	3194 <StartDefaultTask+0x14>

00003206 <vApplicationGetIdleTaskMemory>:
    3206:	200027b7          	lui	a5,0x20002
    320a:	68c78793          	addi	a5,a5,1676 # 2000268c <xIdleTaskTCB>
    320e:	c11c                	sw	a5,0(a0)
    3210:	200027b7          	lui	a5,0x20002
    3214:	48c78793          	addi	a5,a5,1164 # 2000248c <uxIdleTaskStack>
    3218:	c19c                	sw	a5,0(a1)
    321a:	08000793          	li	a5,128
    321e:	c21c                	sw	a5,0(a2)
    3220:	8082                	ret

00003222 <vSystemStopProcess>:
    3222:	afcfd2ef          	jal	t0,51e <__riscv_save_0>
    3226:	bdafd0ef          	jal	ra,600 <xCanOpenPeriodicTaskHandle>
    322a:	4108                	lw	a0,0(a0)
    322c:	343030ef          	jal	ra,6d6e <vTaskSuspend>
    3230:	bc6fd0ef          	jal	ra,5f6 <xCanOpenProcessTaskHandle>
    3234:	4108                	lw	a0,0(a0)
    3236:	339030ef          	jal	ra,6d6e <vTaskSuspend>
    323a:	b08fd06f          	j	542 <__riscv_restore_0>

0000323e <vSYStaskInit>:
    323e:	ae0fd2ef          	jal	t0,51e <__riscv_save_0>
    3242:	c4bfd0ef          	jal	ra,e8c <xProcessTaskHandle>
    3246:	842a                	mv	s0,a0
    3248:	20002837          	lui	a6,0x20002
    324c:	200027b7          	lui	a5,0x20002
    3250:	0000d5b7          	lui	a1,0xd
    3254:	00001537          	lui	a0,0x1
    3258:	19c80813          	addi	a6,a6,412 # 2000219c <ProcessTaskControlBlock>
    325c:	d9c78793          	addi	a5,a5,-612 # 20001d9c <ProcessTaskBuffer>
    3260:	4719                	li	a4,6
    3262:	4685                	li	a3,1
    3264:	10000613          	li	a2,256
    3268:	b3058593          	addi	a1,a1,-1232 # cb30 <OD_VRegiters_extension+0x10>
    326c:	4e050513          	addi	a0,a0,1248 # 14e0 <vRedrawTask>
    3270:	594030ef          	jal	ra,6804 <xTaskCreateStatic>
    3274:	c008                	sw	a0,0(s0)
    3276:	b8afd0ef          	jal	ra,600 <xCanOpenPeriodicTaskHandle>
    327a:	842a                	mv	s0,a0
    327c:	0000d5b7          	lui	a1,0xd
    3280:	00000537          	lui	a0,0x0
    3284:	06c18813          	addi	a6,gp,108 # 20000e14 <CanOpnePeriodicTaskControlBlock>
    3288:	c6c18793          	addi	a5,gp,-916 # 20000a14 <CanOpnePeriodicTaskBuffer>
    328c:	4711                	li	a4,4
    328e:	4685                	li	a3,1
    3290:	10000613          	li	a2,256
    3294:	b3c58593          	addi	a1,a1,-1220 # cb3c <OD_VRegiters_extension+0x1c>
    3298:	7a650513          	addi	a0,a0,1958 # 7a6 <vCanOpenPeriodicProcess>
    329c:	568030ef          	jal	ra,6804 <xTaskCreateStatic>
    32a0:	c008                	sw	a0,0(s0)
    32a2:	b54fd0ef          	jal	ra,5f6 <xCanOpenProcessTaskHandle>
    32a6:	842a                	mv	s0,a0
    32a8:	20002837          	lui	a6,0x20002
    32ac:	200017b7          	lui	a5,0x20001
    32b0:	0000d5b7          	lui	a1,0xd
    32b4:	00000537          	lui	a0,0x0
    32b8:	aec80813          	addi	a6,a6,-1300 # 20001aec <CanOpneProccesTaskControlBlock>
    32bc:	e6c78793          	addi	a5,a5,-404 # 20000e6c <CanOpneProccesTaskBuffer>
    32c0:	4715                	li	a4,5
    32c2:	4685                	li	a3,1
    32c4:	32000613          	li	a2,800
    32c8:	b4c58593          	addi	a1,a1,-1204 # cb4c <OD_VRegiters_extension+0x2c>
    32cc:	61450513          	addi	a0,a0,1556 # 614 <vCanOpenProcess>
    32d0:	534030ef          	jal	ra,6804 <xTaskCreateStatic>
    32d4:	c008                	sw	a0,0(s0)
    32d6:	a17fe0ef          	jal	ra,1cec <getInputsTaskHandle>
    32da:	842a                	mv	s0,a0
    32dc:	20002837          	lui	a6,0x20002
    32e0:	200027b7          	lui	a5,0x20002
    32e4:	0000d5b7          	lui	a1,0xd
    32e8:	00002537          	lui	a0,0x2
    32ec:	d4480813          	addi	a6,a6,-700 # 20001d44 <InputsTaskControlBlock>
    32f0:	b4478793          	addi	a5,a5,-1212 # 20001b44 <InputsTaskBuffer>
    32f4:	4721                	li	a4,8
    32f6:	4685                	li	a3,1
    32f8:	08000613          	li	a2,128
    32fc:	b6058593          	addi	a1,a1,-1184 # cb60 <OD_VRegiters_extension+0x40>
    3300:	e7050513          	addi	a0,a0,-400 # 1e70 <vInputsTask>
    3304:	500030ef          	jal	ra,6804 <xTaskCreateStatic>
    3308:	c008                	sw	a0,0(s0)
    330a:	20002837          	lui	a6,0x20002
    330e:	200027b7          	lui	a5,0x20002
    3312:	0000d5b7          	lui	a1,0xd
    3316:	00003537          	lui	a0,0x3
    331a:	3f480813          	addi	a6,a6,1012 # 200023f4 <defaultTaskControlBlock>
    331e:	1f478793          	addi	a5,a5,500 # 200021f4 <defaultTaskBuffer>
    3322:	4725                	li	a4,9
    3324:	4685                	li	a3,1
    3326:	08000613          	li	a2,128
    332a:	b6c58593          	addi	a1,a1,-1172 # cb6c <OD_VRegiters_extension+0x4c>
    332e:	18050513          	addi	a0,a0,384 # 3180 <StartDefaultTask>
    3332:	4d2030ef          	jal	ra,6804 <xTaskCreateStatic>
    3336:	eedff0ef          	jal	ra,3222 <vSystemStopProcess>
    333a:	a08fd06f          	j	542 <__riscv_restore_0>

0000333e <vSYSqueueInit>:
    333e:	9e0fd2ef          	jal	t0,51e <__riscv_save_0>
    3342:	ce6fd0ef          	jal	ra,828 <xDataRegQueue>
    3346:	200026b7          	lui	a3,0x20002
    334a:	20002637          	lui	a2,0x20002
    334e:	842a                	mv	s0,a0
    3350:	4701                	li	a4,0
    3352:	6e468693          	addi	a3,a3,1764 # 200026e4 <xStaticQueue>
    3356:	44c60613          	addi	a2,a2,1100 # 2000244c <ucQueueStorageArea>
    335a:	4591                	li	a1,4
    335c:	4541                	li	a0,16
    335e:	363020ef          	jal	ra,5ec0 <xQueueGenericCreateStatic>
    3362:	c008                	sw	a0,0(s0)
    3364:	9defd06f          	j	542 <__riscv_restore_0>
    3368:	a001                	j	3368 <vSYSqueueInit+0x2a>
    336a:	a001                	j	336a <vSYSqueueInit+0x2c>

0000336c <Ecall_M_Mode_Handler>:
    336c:	a001                	j	336c <Ecall_M_Mode_Handler>

0000336e <Ecall_U_Mode_Handler>:
    336e:	a001                	j	336e <Ecall_U_Mode_Handler>

00003370 <Break_Point_Handler>:
    3370:	a001                	j	3370 <Break_Point_Handler>
    3372:	a001                	j	3372 <Break_Point_Handler+0x2>
    3374:	a001                	j	3374 <Break_Point_Handler+0x4>

00003376 <WWDG_IRQHandler>:
    3376:	a001                	j	3376 <WWDG_IRQHandler>

00003378 <PVD_IRQHandler>:
    3378:	a001                	j	3378 <PVD_IRQHandler>

0000337a <TAMPER_IRQHandler>:
    337a:	a001                	j	337a <TAMPER_IRQHandler>
    337c:	a001                	j	337c <TAMPER_IRQHandler+0x2>

0000337e <FLASH_IRQHandler>:
    337e:	a001                	j	337e <FLASH_IRQHandler>

00003380 <RCC_IRQHandler>:
    3380:	a001                	j	3380 <RCC_IRQHandler>

00003382 <EXTI0_IRQHandler>:
    3382:	a001                	j	3382 <EXTI0_IRQHandler>

00003384 <EXTI1_IRQHandler>:
    3384:	a001                	j	3384 <EXTI1_IRQHandler>

00003386 <EXTI2_IRQHandler>:
    3386:	a001                	j	3386 <EXTI2_IRQHandler>

00003388 <EXTI3_IRQHandler>:
    3388:	a001                	j	3388 <EXTI3_IRQHandler>

0000338a <EXTI4_IRQHandler>:
    338a:	a001                	j	338a <EXTI4_IRQHandler>
    338c:	a001                	j	338c <EXTI4_IRQHandler+0x2>

0000338e <DMA1_Channel2_IRQHandler>:
    338e:	a001                	j	338e <DMA1_Channel2_IRQHandler>
    3390:	a001                	j	3390 <DMA1_Channel2_IRQHandler+0x2>
    3392:	a001                	j	3392 <DMA1_Channel2_IRQHandler+0x4>
    3394:	a001                	j	3394 <DMA1_Channel2_IRQHandler+0x6>

00003396 <DMA1_Channel6_IRQHandler>:
    3396:	a001                	j	3396 <DMA1_Channel6_IRQHandler>
    3398:	a001                	j	3398 <DMA1_Channel6_IRQHandler+0x2>

0000339a <ADC1_2_IRQHandler>:
    339a:	a001                	j	339a <ADC1_2_IRQHandler>
    339c:	a001                	j	339c <ADC1_2_IRQHandler+0x2>
    339e:	a001                	j	339e <ADC1_2_IRQHandler+0x4>
    33a0:	a001                	j	33a0 <ADC1_2_IRQHandler+0x6>
    33a2:	a001                	j	33a2 <ADC1_2_IRQHandler+0x8>

000033a4 <EXTI9_5_IRQHandler>:
    33a4:	a001                	j	33a4 <EXTI9_5_IRQHandler>

000033a6 <TIM1_BRK_IRQHandler>:
    33a6:	a001                	j	33a6 <TIM1_BRK_IRQHandler>

000033a8 <TIM1_UP_IRQHandler>:
    33a8:	a001                	j	33a8 <TIM1_UP_IRQHandler>

000033aa <TIM1_TRG_COM_IRQHandler>:
    33aa:	a001                	j	33aa <TIM1_TRG_COM_IRQHandler>

000033ac <TIM1_CC_IRQHandler>:
    33ac:	a001                	j	33ac <TIM1_CC_IRQHandler>

000033ae <TIM2_IRQHandler>:
    33ae:	a001                	j	33ae <TIM2_IRQHandler>

000033b0 <TIM3_IRQHandler>:
    33b0:	a001                	j	33b0 <TIM3_IRQHandler>
    33b2:	a001                	j	33b2 <TIM3_IRQHandler+0x2>
    33b4:	a001                	j	33b4 <TIM3_IRQHandler+0x4>
    33b6:	a001                	j	33b6 <TIM3_IRQHandler+0x6>

000033b8 <I2C2_EV_IRQHandler>:
    33b8:	a001                	j	33b8 <I2C2_EV_IRQHandler>

000033ba <I2C2_ER_IRQHandler>:
    33ba:	a001                	j	33ba <I2C2_ER_IRQHandler>

000033bc <SPI1_IRQHandler>:
    33bc:	a001                	j	33bc <SPI1_IRQHandler>

000033be <SPI2_IRQHandler>:
    33be:	a001                	j	33be <SPI2_IRQHandler>

000033c0 <USART1_IRQHandler>:
    33c0:	a001                	j	33c0 <USART1_IRQHandler>

000033c2 <USART2_IRQHandler>:
    33c2:	a001                	j	33c2 <USART2_IRQHandler>

000033c4 <USART3_IRQHandler>:
    33c4:	a001                	j	33c4 <USART3_IRQHandler>

000033c6 <EXTI15_10_IRQHandler>:
    33c6:	a001                	j	33c6 <EXTI15_10_IRQHandler>

000033c8 <RTCAlarm_IRQHandler>:
    33c8:	a001                	j	33c8 <RTCAlarm_IRQHandler>

000033ca <USBWakeUp_IRQHandler>:
    33ca:	a001                	j	33ca <USBWakeUp_IRQHandler>

000033cc <USBHD_IRQHandler>:
    33cc:	a001                	j	33cc <USBHD_IRQHandler>

000033ce <USBHDWakeUp_IRQHandler>:
    33ce:	a001                	j	33ce <USBHDWakeUp_IRQHandler>

000033d0 <UART4_IRQHandler>:
    33d0:	a001                	j	33d0 <UART4_IRQHandler>

000033d2 <DMA1_Channel8_IRQHandler>:
    33d2:	a001                	j	33d2 <DMA1_Channel8_IRQHandler>

000033d4 <handle_reset>:
    33d4:	1fffe197          	auipc	gp,0x1fffe
    33d8:	9d418193          	addi	gp,gp,-1580 # 20000da8 <__global_pointer$>
    33dc:	20002117          	auipc	sp,0x20002
    33e0:	c2410113          	addi	sp,sp,-988 # 20005000 <__freertos_irq_stack_top>
    33e4:	0000a517          	auipc	a0,0xa
    33e8:	71850513          	addi	a0,a0,1816 # dafc <_data_lma>
    33ec:	1fffd597          	auipc	a1,0x1fffd
    33f0:	c1458593          	addi	a1,a1,-1004 # 20000000 <_data_vma>
    33f4:	87818613          	addi	a2,gp,-1928 # 20000620 <_edata>
    33f8:	00c5fa63          	bgeu	a1,a2,340c <handle_reset+0x38>
    33fc:	00052283          	lw	t0,0(a0)
    3400:	0055a023          	sw	t0,0(a1)
    3404:	0511                	addi	a0,a0,4
    3406:	0591                	addi	a1,a1,4
    3408:	fec5eae3          	bltu	a1,a2,33fc <handle_reset+0x28>
    340c:	1fffd517          	auipc	a0,0x1fffd
    3410:	21450513          	addi	a0,a0,532 # 20000620 <_edata>
    3414:	20000597          	auipc	a1,0x20000
    3418:	ca858593          	addi	a1,a1,-856 # 200030bc <_ebss>
    341c:	00b57763          	bgeu	a0,a1,342a <handle_reset+0x56>
    3420:	00052023          	sw	zero,0(a0)
    3424:	0511                	addi	a0,a0,4
    3426:	feb56de3          	bltu	a0,a1,3420 <handle_reset+0x4c>
    342a:	42fd                	li	t0,31
    342c:	bc029073          	csrw	0xbc0,t0
    3430:	4289                	li	t0,2
    3432:	80429073          	csrw	0x804,t0
    3436:	000022b7          	lui	t0,0x2
    343a:	80028293          	addi	t0,t0,-2048 # 1800 <vRedrawTask+0x320>
    343e:	3002a073          	csrs	mstatus,t0
    3442:	ffffd297          	auipc	t0,0xffffd
    3446:	bf628293          	addi	t0,t0,-1034 # 38 <_einit>
    344a:	0032e293          	ori	t0,t0,3
    344e:	30529073          	csrw	mtvec,t0
    3452:	bafff0ef          	jal	ra,3000 <SystemInit>
    3456:	fffff297          	auipc	t0,0xfffff
    345a:	15e28293          	addi	t0,t0,350 # 25b4 <main>
    345e:	34129073          	csrw	mepc,t0
    3462:	30200073          	mret

00003466 <ADC_Cmd>:
    3466:	451c                	lw	a5,8(a0)
    3468:	c589                	beqz	a1,3472 <ADC_Cmd+0xc>
    346a:	0017e793          	ori	a5,a5,1
    346e:	c51c                	sw	a5,8(a0)
    3470:	8082                	ret
    3472:	9bf9                	andi	a5,a5,-2
    3474:	bfed                	j	346e <ADC_Cmd+0x8>

00003476 <ADC_GetResetCalibrationStatus>:
    3476:	4508                	lw	a0,8(a0)
    3478:	810d                	srli	a0,a0,0x3
    347a:	8905                	andi	a0,a0,1
    347c:	8082                	ret

0000347e <ADC_GetCalibrationStatus>:
    347e:	4508                	lw	a0,8(a0)
    3480:	8109                	srli	a0,a0,0x2
    3482:	8905                	andi	a0,a0,1
    3484:	8082                	ret

00003486 <Get_CalibrationValue>:
    3486:	898fd2ef          	jal	t0,51e <__riscv_save_0>
    348a:	1101                	addi	sp,sp,-32
    348c:	842a                	mv	s0,a0
    348e:	00010323          	sb	zero,6(sp)
    3492:	44a5                	li	s1,9
    3494:	831c                	lbu	a5,6(sp)
    3496:	06f4fa63          	bgeu	s1,a5,350a <Get_CalibrationValue+0x84>
    349a:	00010323          	sb	zero,6(sp)
    349e:	46a5                	li	a3,9
    34a0:	4621                	li	a2,8
    34a2:	831c                	lbu	a5,6(sp)
    34a4:	0af6f063          	bgeu	a3,a5,3544 <Get_CalibrationValue+0xbe>
    34a8:	00011423          	sh	zero,8(sp)
    34ac:	00011523          	sh	zero,10(sp)
    34b0:	00010323          	sb	zero,6(sp)
    34b4:	4695                	li	a3,5
    34b6:	60000613          	li	a2,1536
    34ba:	831c                	lbu	a5,6(sp)
    34bc:	0ef6fe63          	bgeu	a3,a5,35b8 <Get_CalibrationValue+0x132>
    34c0:	831c                	lbu	a5,6(sp)
    34c2:	0ff7f793          	andi	a5,a5,255
    34c6:	12078463          	beqz	a5,35ee <Get_CalibrationValue+0x168>
    34ca:	8438                	lhu	a4,8(sp)
    34cc:	8314                	lbu	a3,6(sp)
    34ce:	843c                	lhu	a5,8(sp)
    34d0:	830c                	lbu	a1,6(sp)
    34d2:	8310                	lbu	a2,6(sp)
    34d4:	02d74733          	div	a4,a4,a3
    34d8:	02b7e7b3          	rem	a5,a5,a1
    34dc:	0786                	slli	a5,a5,0x1
    34de:	02c7c7b3          	div	a5,a5,a2
    34e2:	97ba                	add	a5,a5,a4
    34e4:	07c2                	slli	a5,a5,0x10
    34e6:	83c1                	srli	a5,a5,0x10
    34e8:	847c                	sh	a5,8(sp)
    34ea:	8318                	lbu	a4,6(sp)
    34ec:	4799                	li	a5,6
    34ee:	4695                	li	a3,5
    34f0:	8f99                	sub	a5,a5,a4
    34f2:	0ff7f793          	andi	a5,a5,255
    34f6:	83dc                	sb	a5,7(sp)
    34f8:	839c                	lbu	a5,7(sp)
    34fa:	0ff7f793          	andi	a5,a5,255
    34fe:	10079c63          	bnez	a5,3616 <Get_CalibrationValue+0x190>
    3502:	6785                	lui	a5,0x1
    3504:	80078793          	addi	a5,a5,-2048 # 800 <vCanOpenPeriodicProcess+0x5a>
    3508:	aa0d                	j	363a <Get_CalibrationValue+0x1b4>
    350a:	441c                	lw	a5,8(s0)
    350c:	0087e793          	ori	a5,a5,8
    3510:	c41c                	sw	a5,8(s0)
    3512:	8522                	mv	a0,s0
    3514:	f63ff0ef          	jal	ra,3476 <ADC_GetResetCalibrationStatus>
    3518:	fd6d                	bnez	a0,3512 <Get_CalibrationValue+0x8c>
    351a:	441c                	lw	a5,8(s0)
    351c:	0047e793          	ori	a5,a5,4
    3520:	c41c                	sw	a5,8(s0)
    3522:	8522                	mv	a0,s0
    3524:	f5bff0ef          	jal	ra,347e <ADC_GetCalibrationStatus>
    3528:	fd6d                	bnez	a0,3522 <Get_CalibrationValue+0x9c>
    352a:	4478                	lw	a4,76(s0)
    352c:	831c                	lbu	a5,6(sp)
    352e:	1014                	addi	a3,sp,32
    3530:	0786                	slli	a5,a5,0x1
    3532:	97b6                	add	a5,a5,a3
    3534:	fee79623          	sh	a4,-20(a5)
    3538:	831c                	lbu	a5,6(sp)
    353a:	0785                	addi	a5,a5,1
    353c:	0ff7f793          	andi	a5,a5,255
    3540:	835c                	sb	a5,6(sp)
    3542:	bf89                	j	3494 <Get_CalibrationValue+0xe>
    3544:	000103a3          	sb	zero,7(sp)
    3548:	839c                	lbu	a5,7(sp)
    354a:	00f67863          	bgeu	a2,a5,355a <Get_CalibrationValue+0xd4>
    354e:	831c                	lbu	a5,6(sp)
    3550:	0785                	addi	a5,a5,1
    3552:	0ff7f793          	andi	a5,a5,255
    3556:	835c                	sb	a5,6(sp)
    3558:	b7a9                	j	34a2 <Get_CalibrationValue+0x1c>
    355a:	8398                	lbu	a4,7(sp)
    355c:	839c                	lbu	a5,7(sp)
    355e:	100c                	addi	a1,sp,32
    3560:	0706                	slli	a4,a4,0x1
    3562:	0785                	addi	a5,a5,1
    3564:	0786                	slli	a5,a5,0x1
    3566:	972e                	add	a4,a4,a1
    3568:	97ae                	add	a5,a5,a1
    356a:	fec75703          	lhu	a4,-20(a4)
    356e:	fec7d783          	lhu	a5,-20(a5)
    3572:	02e7fd63          	bgeu	a5,a4,35ac <Get_CalibrationValue+0x126>
    3576:	839c                	lbu	a5,7(sp)
    3578:	0786                	slli	a5,a5,0x1
    357a:	97ae                	add	a5,a5,a1
    357c:	fec7d783          	lhu	a5,-20(a5)
    3580:	847c                	sh	a5,8(sp)
    3582:	839c                	lbu	a5,7(sp)
    3584:	8398                	lbu	a4,7(sp)
    3586:	0785                	addi	a5,a5,1
    3588:	0786                	slli	a5,a5,0x1
    358a:	97ae                	add	a5,a5,a1
    358c:	fec7d583          	lhu	a1,-20(a5)
    3590:	00171793          	slli	a5,a4,0x1
    3594:	1018                	addi	a4,sp,32
    3596:	97ba                	add	a5,a5,a4
    3598:	feb79623          	sh	a1,-20(a5)
    359c:	839c                	lbu	a5,7(sp)
    359e:	8438                	lhu	a4,8(sp)
    35a0:	100c                	addi	a1,sp,32
    35a2:	0785                	addi	a5,a5,1
    35a4:	0786                	slli	a5,a5,0x1
    35a6:	97ae                	add	a5,a5,a1
    35a8:	fee79623          	sh	a4,-20(a5)
    35ac:	839c                	lbu	a5,7(sp)
    35ae:	0785                	addi	a5,a5,1
    35b0:	0ff7f793          	andi	a5,a5,255
    35b4:	83dc                	sb	a5,7(sp)
    35b6:	bf49                	j	3548 <Get_CalibrationValue+0xc2>
    35b8:	831c                	lbu	a5,6(sp)
    35ba:	1018                	addi	a4,sp,32
    35bc:	0789                	addi	a5,a5,2
    35be:	0786                	slli	a5,a5,0x1
    35c0:	97ba                	add	a5,a5,a4
    35c2:	fec7d783          	lhu	a5,-20(a5)
    35c6:	eef66de3          	bltu	a2,a5,34c0 <Get_CalibrationValue+0x3a>
    35ca:	831c                	lbu	a5,6(sp)
    35cc:	100c                	addi	a1,sp,32
    35ce:	8438                	lhu	a4,8(sp)
    35d0:	0789                	addi	a5,a5,2
    35d2:	0786                	slli	a5,a5,0x1
    35d4:	97ae                	add	a5,a5,a1
    35d6:	fec7d783          	lhu	a5,-20(a5)
    35da:	97ba                	add	a5,a5,a4
    35dc:	07c2                	slli	a5,a5,0x10
    35de:	83c1                	srli	a5,a5,0x10
    35e0:	847c                	sh	a5,8(sp)
    35e2:	831c                	lbu	a5,6(sp)
    35e4:	0785                	addi	a5,a5,1
    35e6:	0ff7f793          	andi	a5,a5,255
    35ea:	835c                	sb	a5,6(sp)
    35ec:	b5f9                	j	34ba <Get_CalibrationValue+0x34>
    35ee:	40000793          	li	a5,1024
    35f2:	bddd                	j	34e8 <Get_CalibrationValue+0x62>
    35f4:	831c                	lbu	a5,6(sp)
    35f6:	1010                	addi	a2,sp,32
    35f8:	8538                	lhu	a4,10(sp)
    35fa:	0789                	addi	a5,a5,2
    35fc:	0786                	slli	a5,a5,0x1
    35fe:	97b2                	add	a5,a5,a2
    3600:	fec7d783          	lhu	a5,-20(a5)
    3604:	97ba                	add	a5,a5,a4
    3606:	07c2                	slli	a5,a5,0x10
    3608:	83c1                	srli	a5,a5,0x10
    360a:	857c                	sh	a5,10(sp)
    360c:	831c                	lbu	a5,6(sp)
    360e:	0785                	addi	a5,a5,1
    3610:	0ff7f793          	andi	a5,a5,255
    3614:	835c                	sb	a5,6(sp)
    3616:	831c                	lbu	a5,6(sp)
    3618:	fcf6fee3          	bgeu	a3,a5,35f4 <Get_CalibrationValue+0x16e>
    361c:	8538                	lhu	a4,10(sp)
    361e:	8394                	lbu	a3,7(sp)
    3620:	853c                	lhu	a5,10(sp)
    3622:	838c                	lbu	a1,7(sp)
    3624:	8390                	lbu	a2,7(sp)
    3626:	02d74733          	div	a4,a4,a3
    362a:	02b7e7b3          	rem	a5,a5,a1
    362e:	0786                	slli	a5,a5,0x1
    3630:	02c7c7b3          	div	a5,a5,a2
    3634:	97ba                	add	a5,a5,a4
    3636:	07c2                	slli	a5,a5,0x10
    3638:	83c1                	srli	a5,a5,0x10
    363a:	857c                	sh	a5,10(sp)
    363c:	8428                	lhu	a0,8(sp)
    363e:	8534                	lhu	a3,10(sp)
    3640:	842c                	lhu	a1,8(sp)
    3642:	8530                	lhu	a2,10(sp)
    3644:	6705                	lui	a4,0x1
    3646:	40000793          	li	a5,1024
    364a:	80070713          	addi	a4,a4,-2048 # 800 <vCanOpenPeriodicProcess+0x5a>
    364e:	40a78533          	sub	a0,a5,a0
    3652:	40d706b3          	sub	a3,a4,a3
    3656:	8f8d                	sub	a5,a5,a1
    3658:	8f11                	sub	a4,a4,a2
    365a:	0542                	slli	a0,a0,0x10
    365c:	06c2                	slli	a3,a3,0x10
    365e:	07c2                	slli	a5,a5,0x10
    3660:	0742                	slli	a4,a4,0x10
    3662:	86c1                	srai	a3,a3,0x10
    3664:	8741                	srai	a4,a4,0x10
    3666:	8541                	srai	a0,a0,0x10
    3668:	87c1                	srai	a5,a5,0x10
    366a:	9536                	add	a0,a0,a3
    366c:	97ba                	add	a5,a5,a4
    366e:	4689                	li	a3,2
    3670:	02d54533          	div	a0,a0,a3
    3674:	6105                	addi	sp,sp,32
    3676:	02d7e7b3          	rem	a5,a5,a3
    367a:	953e                	add	a0,a0,a5
    367c:	0542                	slli	a0,a0,0x10
    367e:	8541                	srai	a0,a0,0x10
    3680:	ec3fc06f          	j	542 <__riscv_restore_0>

00003684 <DMA_GetFlagStatus>:
    3684:	400207b7          	lui	a5,0x40020
    3688:	439c                	lw	a5,0(a5)
    368a:	8d7d                	and	a0,a0,a5
    368c:	00a03533          	snez	a0,a0
    3690:	8082                	ret

00003692 <DMA_GetITStatus>:
    3692:	e8dfc2ef          	jal	t0,51e <__riscv_save_0>
    3696:	fefff0ef          	jal	ra,3684 <DMA_GetFlagStatus>
    369a:	ea9fc06f          	j	542 <__riscv_restore_0>

0000369e <DMA_ClearITPendingBit>:
    369e:	400207b7          	lui	a5,0x40020
    36a2:	c3c8                	sw	a0,4(a5)
    36a4:	8082                	ret

000036a6 <GPIO_PinRemapConfig>:
    36a6:	400107b7          	lui	a5,0x40010
    36aa:	04055a63          	bgez	a0,36fe <GPIO_PinRemapConfig+0x58>
    36ae:	4fdc                	lw	a5,28(a5)
    36b0:	01055693          	srli	a3,a0,0x10
    36b4:	01051813          	slli	a6,a0,0x10
    36b8:	00300737          	lui	a4,0x300
    36bc:	00f6f613          	andi	a2,a3,15
    36c0:	01085813          	srli	a6,a6,0x10
    36c4:	00e576b3          	and	a3,a0,a4
    36c8:	06055e63          	bgez	a0,3744 <GPIO_PinRemapConfig+0x9e>
    36cc:	04e69963          	bne	a3,a4,371e <GPIO_PinRemapConfig+0x78>
    36d0:	01060693          	addi	a3,a2,16
    36d4:	460d                	li	a2,3
    36d6:	00d616b3          	sll	a3,a2,a3
    36da:	fff6c693          	not	a3,a3
    36de:	8ff5                	and	a5,a5,a3
    36e0:	c999                	beqz	a1,36f6 <GPIO_PinRemapConfig+0x50>
    36e2:	01555713          	srli	a4,a0,0x15
    36e6:	3ff77713          	andi	a4,a4,1023
    36ea:	0712                	slli	a4,a4,0x4
    36ec:	00e81733          	sll	a4,a6,a4
    36f0:	8fd9                	or	a5,a5,a4
    36f2:	06055563          	bgez	a0,375c <GPIO_PinRemapConfig+0xb6>
    36f6:	40010737          	lui	a4,0x40010
    36fa:	cf5c                	sw	a5,28(a4)
    36fc:	8082                	ret
    36fe:	40022737          	lui	a4,0x40022
    3702:	5b14                	lw	a3,48(a4)
    3704:	43dc                	lw	a5,4(a5)
    3706:	0f000737          	lui	a4,0xf000
    370a:	8f75                	and	a4,a4,a3
    370c:	f355                	bnez	a4,36b0 <GPIO_PinRemapConfig+0xa>
    370e:	0017d713          	srli	a4,a5,0x1
    3712:	76f9                	lui	a3,0xffffe
    3714:	07ce                	slli	a5,a5,0x13
    3716:	8f75                	and	a4,a4,a3
    3718:	83cd                	srli	a5,a5,0x13
    371a:	8fd9                	or	a5,a5,a4
    371c:	bf51                	j	36b0 <GPIO_PinRemapConfig+0xa>
    371e:	00b51713          	slli	a4,a0,0xb
    3722:	00075663          	bgez	a4,372e <GPIO_PinRemapConfig+0x88>
    3726:	468d                	li	a3,3
    3728:	00c696b3          	sll	a3,a3,a2
    372c:	b77d                	j	36da <GPIO_PinRemapConfig+0x34>
    372e:	01555713          	srli	a4,a0,0x15
    3732:	3ff77713          	andi	a4,a4,1023
    3736:	0712                	slli	a4,a4,0x4
    3738:	00e81733          	sll	a4,a6,a4
    373c:	fff74713          	not	a4,a4
    3740:	8ff9                	and	a5,a5,a4
    3742:	bf79                	j	36e0 <GPIO_PinRemapConfig+0x3a>
    3744:	02e69063          	bne	a3,a4,3764 <GPIO_PinRemapConfig+0xbe>
    3748:	40010637          	lui	a2,0x40010
    374c:	4254                	lw	a3,4(a2)
    374e:	f1000737          	lui	a4,0xf1000
    3752:	177d                	addi	a4,a4,-1
    3754:	8ff9                	and	a5,a5,a4
    3756:	8f75                	and	a4,a4,a3
    3758:	c258                	sw	a4,4(a2)
    375a:	f5c1                	bnez	a1,36e2 <GPIO_PinRemapConfig+0x3c>
    375c:	40010737          	lui	a4,0x40010
    3760:	c35c                	sw	a5,4(a4)
    3762:	8082                	ret
    3764:	00b51713          	slli	a4,a0,0xb
    3768:	00075c63          	bgez	a4,3780 <GPIO_PinRemapConfig+0xda>
    376c:	468d                	li	a3,3
    376e:	00c696b3          	sll	a3,a3,a2
    3772:	fff6c693          	not	a3,a3
    3776:	8efd                	and	a3,a3,a5
    3778:	0f0007b7          	lui	a5,0xf000
    377c:	8fd5                	or	a5,a5,a3
    377e:	bff1                	j	375a <GPIO_PinRemapConfig+0xb4>
    3780:	01555713          	srli	a4,a0,0x15
    3784:	0712                	slli	a4,a4,0x4
    3786:	00e81733          	sll	a4,a6,a4
    378a:	fff74713          	not	a4,a4
    378e:	8f7d                	and	a4,a4,a5
    3790:	0f0007b7          	lui	a5,0xf000
    3794:	8fd9                	or	a5,a5,a4
    3796:	b7d1                	j	375a <GPIO_PinRemapConfig+0xb4>

00003798 <I2C_DualAddressCmd>:
    3798:	255e                	lhu	a5,12(a0)
    379a:	c589                	beqz	a1,37a4 <I2C_DualAddressCmd+0xc>
    379c:	0017e793          	ori	a5,a5,1
    37a0:	a55e                	sh	a5,12(a0)
    37a2:	8082                	ret
    37a4:	07c2                	slli	a5,a5,0x10
    37a6:	83c1                	srli	a5,a5,0x10
    37a8:	9bf9                	andi	a5,a5,-2
    37aa:	07c2                	slli	a5,a5,0x10
    37ac:	83c1                	srli	a5,a5,0x10
    37ae:	bfcd                	j	37a0 <I2C_DualAddressCmd+0x8>

000037b0 <I2C_ClearFlag>:
    37b0:	fff5c593          	not	a1,a1
    37b4:	05c2                	slli	a1,a1,0x10
    37b6:	81c1                	srli	a1,a1,0x10
    37b8:	a94e                	sh	a1,20(a0)
    37ba:	8082                	ret

000037bc <RCC_LSEConfig>:
    37bc:	400217b7          	lui	a5,0x40021
    37c0:	02078023          	sb	zero,32(a5) # 40021020 <__freertos_irq_stack_top+0x2001c020>
    37c4:	02078023          	sb	zero,32(a5)
    37c8:	4705                	li	a4,1
    37ca:	00e50663          	beq	a0,a4,37d6 <RCC_LSEConfig+0x1a>
    37ce:	4711                	li	a4,4
    37d0:	00e50663          	beq	a0,a4,37dc <RCC_LSEConfig+0x20>
    37d4:	8082                	ret
    37d6:	02a78023          	sb	a0,32(a5)
    37da:	8082                	ret
    37dc:	4715                	li	a4,5
    37de:	02e78023          	sb	a4,32(a5)
    37e2:	8082                	ret

000037e4 <RCC_GetClocksFreq>:
    37e4:	40021737          	lui	a4,0x40021
    37e8:	435c                	lw	a5,4(a4)
    37ea:	4691                	li	a3,4
    37ec:	8bb1                	andi	a5,a5,12
    37ee:	00d78563          	beq	a5,a3,37f8 <RCC_GetClocksFreq+0x14>
    37f2:	46a1                	li	a3,8
    37f4:	06d78263          	beq	a5,a3,3858 <RCC_GetClocksFreq+0x74>
    37f8:	007a17b7          	lui	a5,0x7a1
    37fc:	20078793          	addi	a5,a5,512 # 7a1200 <_data_lma+0x793704>
    3800:	c11c                	sw	a5,0(a0)
    3802:	40021637          	lui	a2,0x40021
    3806:	425c                	lw	a5,4(a2)
    3808:	20000737          	lui	a4,0x20000
    380c:	01070713          	addi	a4,a4,16 # 20000010 <APBAHBPrescTable>
    3810:	8391                	srli	a5,a5,0x4
    3812:	8bbd                	andi	a5,a5,15
    3814:	97ba                	add	a5,a5,a4
    3816:	2394                	lbu	a3,0(a5)
    3818:	411c                	lw	a5,0(a0)
    381a:	00d7d7b3          	srl	a5,a5,a3
    381e:	c15c                	sw	a5,4(a0)
    3820:	4254                	lw	a3,4(a2)
    3822:	82a1                	srli	a3,a3,0x8
    3824:	8a9d                	andi	a3,a3,7
    3826:	96ba                	add	a3,a3,a4
    3828:	2294                	lbu	a3,0(a3)
    382a:	00d7d6b3          	srl	a3,a5,a3
    382e:	c514                	sw	a3,8(a0)
    3830:	4254                	lw	a3,4(a2)
    3832:	82ad                	srli	a3,a3,0xb
    3834:	8a9d                	andi	a3,a3,7
    3836:	9736                	add	a4,a4,a3
    3838:	2318                	lbu	a4,0(a4)
    383a:	00e7d7b3          	srl	a5,a5,a4
    383e:	c55c                	sw	a5,12(a0)
    3840:	4258                	lw	a4,4(a2)
    3842:	8339                	srli	a4,a4,0xe
    3844:	00377693          	andi	a3,a4,3
    3848:	80418713          	addi	a4,gp,-2044 # 200005ac <ADCPrescTable>
    384c:	9736                	add	a4,a4,a3
    384e:	2318                	lbu	a4,0(a4)
    3850:	02e7d7b3          	divu	a5,a5,a4
    3854:	c91c                	sw	a5,16(a0)
    3856:	8082                	ret
    3858:	435c                	lw	a5,4(a4)
    385a:	4358                	lw	a4,4(a4)
    385c:	66c1                	lui	a3,0x10
    385e:	83c9                	srli	a5,a5,0x12
    3860:	8bbd                	andi	a5,a5,15
    3862:	8f75                	and	a4,a4,a3
    3864:	0789                	addi	a5,a5,2
    3866:	46c5                	li	a3,17
    3868:	00d79363          	bne	a5,a3,386e <RCC_GetClocksFreq+0x8a>
    386c:	47c9                	li	a5,18
    386e:	ef01                	bnez	a4,3886 <RCC_GetClocksFreq+0xa2>
    3870:	40024737          	lui	a4,0x40024
    3874:	80072703          	lw	a4,-2048(a4) # 40023800 <__freertos_irq_stack_top+0x2001e800>
    3878:	8b41                	andi	a4,a4,16
    387a:	cf09                	beqz	a4,3894 <RCC_GetClocksFreq+0xb0>
    387c:	007a1737          	lui	a4,0x7a1
    3880:	20070713          	addi	a4,a4,512 # 7a1200 <_data_lma+0x793704>
    3884:	a821                	j	389c <RCC_GetClocksFreq+0xb8>
    3886:	40021737          	lui	a4,0x40021
    388a:	4358                	lw	a4,4(a4)
    388c:	00e71693          	slli	a3,a4,0xe
    3890:	fe06d6e3          	bgez	a3,387c <RCC_GetClocksFreq+0x98>
    3894:	003d1737          	lui	a4,0x3d1
    3898:	90070713          	addi	a4,a4,-1792 # 3d0900 <_data_lma+0x3c2e04>
    389c:	02e787b3          	mul	a5,a5,a4
    38a0:	b785                	j	3800 <RCC_GetClocksFreq+0x1c>

000038a2 <RCC_GetFlagStatus>:
    38a2:	00555793          	srli	a5,a0,0x5
    38a6:	4705                	li	a4,1
    38a8:	00e79963          	bne	a5,a4,38ba <RCC_GetFlagStatus+0x18>
    38ac:	400217b7          	lui	a5,0x40021
    38b0:	439c                	lw	a5,0(a5)
    38b2:	00a7d533          	srl	a0,a5,a0
    38b6:	8905                	andi	a0,a0,1
    38b8:	8082                	ret
    38ba:	4709                	li	a4,2
    38bc:	00e79663          	bne	a5,a4,38c8 <RCC_GetFlagStatus+0x26>
    38c0:	400217b7          	lui	a5,0x40021
    38c4:	539c                	lw	a5,32(a5)
    38c6:	b7f5                	j	38b2 <RCC_GetFlagStatus+0x10>
    38c8:	400217b7          	lui	a5,0x40021
    38cc:	53dc                	lw	a5,36(a5)
    38ce:	b7d5                	j	38b2 <RCC_GetFlagStatus+0x10>

000038d0 <RTC_EnterConfigMode>:
    38d0:	400037b7          	lui	a5,0x40003
    38d4:	8047d703          	lhu	a4,-2044(a5) # 40002804 <__freertos_irq_stack_top+0x1fffd804>
    38d8:	01076713          	ori	a4,a4,16
    38dc:	80e79223          	sh	a4,-2044(a5)
    38e0:	8082                	ret

000038e2 <RTC_ExitConfigMode>:
    38e2:	40003737          	lui	a4,0x40003
    38e6:	80475783          	lhu	a5,-2044(a4) # 40002804 <__freertos_irq_stack_top+0x1fffd804>
    38ea:	07c2                	slli	a5,a5,0x10
    38ec:	83c1                	srli	a5,a5,0x10
    38ee:	9bbd                	andi	a5,a5,-17
    38f0:	07c2                	slli	a5,a5,0x10
    38f2:	83c1                	srli	a5,a5,0x10
    38f4:	80f71223          	sh	a5,-2044(a4)
    38f8:	8082                	ret

000038fa <RTC_SetPrescaler>:
    38fa:	c25fc2ef          	jal	t0,51e <__riscv_save_0>
    38fe:	1141                	addi	sp,sp,-16
    3900:	c62a                	sw	a0,12(sp)
    3902:	fcfff0ef          	jal	ra,38d0 <RTC_EnterConfigMode>
    3906:	4532                	lw	a0,12(sp)
    3908:	400037b7          	lui	a5,0x40003
    390c:	01055713          	srli	a4,a0,0x10
    3910:	8b3d                	andi	a4,a4,15
    3912:	0542                	slli	a0,a0,0x10
    3914:	80e79423          	sh	a4,-2040(a5) # 40002808 <__freertos_irq_stack_top+0x1fffd808>
    3918:	8141                	srli	a0,a0,0x10
    391a:	80a79623          	sh	a0,-2036(a5)
    391e:	fc5ff0ef          	jal	ra,38e2 <RTC_ExitConfigMode>
    3922:	0141                	addi	sp,sp,16
    3924:	c1ffc06f          	j	542 <__riscv_restore_0>

00003928 <RTC_WaitForLastTask>:
    3928:	40003737          	lui	a4,0x40003
    392c:	80475783          	lhu	a5,-2044(a4) # 40002804 <__freertos_irq_stack_top+0x1fffd804>
    3930:	0207f793          	andi	a5,a5,32
    3934:	dfe5                	beqz	a5,392c <RTC_WaitForLastTask+0x4>
    3936:	8082                	ret

00003938 <RTC_WaitForSynchro>:
    3938:	40003737          	lui	a4,0x40003
    393c:	80475783          	lhu	a5,-2044(a4) # 40002804 <__freertos_irq_stack_top+0x1fffd804>
    3940:	07c2                	slli	a5,a5,0x10
    3942:	83c1                	srli	a5,a5,0x10
    3944:	9bdd                	andi	a5,a5,-9
    3946:	07c2                	slli	a5,a5,0x10
    3948:	83c1                	srli	a5,a5,0x10
    394a:	80f71223          	sh	a5,-2044(a4)
    394e:	40003737          	lui	a4,0x40003
    3952:	80475783          	lhu	a5,-2044(a4) # 40002804 <__freertos_irq_stack_top+0x1fffd804>
    3956:	8ba1                	andi	a5,a5,8
    3958:	dfed                	beqz	a5,3952 <RTC_WaitForSynchro+0x1a>
    395a:	8082                	ret

0000395c <TIM_OC1Init>:
    395c:	311e                	lhu	a5,32(a0)
    395e:	2192                	lhu	a2,0(a1)
    3960:	0025d803          	lhu	a6,2(a1)
    3964:	07c2                	slli	a5,a5,0x10
    3966:	83c1                	srli	a5,a5,0x10
    3968:	9bf9                	andi	a5,a5,-2
    396a:	07c2                	slli	a5,a5,0x10
    396c:	83c1                	srli	a5,a5,0x10
    396e:	b11e                	sh	a5,32(a0)
    3970:	311e                	lhu	a5,32(a0)
    3972:	2156                	lhu	a3,4(a0)
    3974:	2d1a                	lhu	a4,24(a0)
    3976:	07c2                	slli	a5,a5,0x10
    3978:	83c1                	srli	a5,a5,0x10
    397a:	0742                	slli	a4,a4,0x10
    397c:	8341                	srli	a4,a4,0x10
    397e:	f8c77713          	andi	a4,a4,-116
    3982:	8f51                	or	a4,a4,a2
    3984:	2592                	lhu	a2,8(a1)
    3986:	9bf5                	andi	a5,a5,-3
    3988:	06c2                	slli	a3,a3,0x10
    398a:	01066633          	or	a2,a2,a6
    398e:	8fd1                	or	a5,a5,a2
    3990:	40013637          	lui	a2,0x40013
    3994:	c0060613          	addi	a2,a2,-1024 # 40012c00 <__freertos_irq_stack_top+0x2000dc00>
    3998:	82c1                	srli	a3,a3,0x10
    399a:	02c51063          	bne	a0,a2,39ba <TIM_OC1Init+0x5e>
    399e:	25b2                	lhu	a2,10(a1)
    39a0:	9bdd                	andi	a5,a5,-9
    39a2:	00e5d803          	lhu	a6,14(a1)
    39a6:	8fd1                	or	a5,a5,a2
    39a8:	21d2                	lhu	a2,4(a1)
    39aa:	9bed                	andi	a5,a5,-5
    39ac:	cff6f693          	andi	a3,a3,-769
    39b0:	8fd1                	or	a5,a5,a2
    39b2:	25d2                	lhu	a2,12(a1)
    39b4:	01066633          	or	a2,a2,a6
    39b8:	8ed1                	or	a3,a3,a2
    39ba:	a156                	sh	a3,4(a0)
    39bc:	ad1a                	sh	a4,24(a0)
    39be:	21fa                	lhu	a4,6(a1)
    39c0:	b95a                	sh	a4,52(a0)
    39c2:	b11e                	sh	a5,32(a0)
    39c4:	8082                	ret

000039c6 <TIM_OC2Init>:
    39c6:	311e                	lhu	a5,32(a0)
    39c8:	7765                	lui	a4,0xffff9
    39ca:	cff70713          	addi	a4,a4,-769 # ffff8cff <__freertos_irq_stack_top+0xdfff3cff>
    39ce:	07c2                	slli	a5,a5,0x10
    39d0:	83c1                	srli	a5,a5,0x10
    39d2:	9bbd                	andi	a5,a5,-17
    39d4:	07c2                	slli	a5,a5,0x10
    39d6:	83c1                	srli	a5,a5,0x10
    39d8:	b11e                	sh	a5,32(a0)
    39da:	311e                	lhu	a5,32(a0)
    39dc:	2156                	lhu	a3,4(a0)
    39de:	0085d803          	lhu	a6,8(a1)
    39e2:	07c2                	slli	a5,a5,0x10
    39e4:	01069613          	slli	a2,a3,0x10
    39e8:	2d16                	lhu	a3,24(a0)
    39ea:	83c1                	srli	a5,a5,0x10
    39ec:	fdf7f793          	andi	a5,a5,-33
    39f0:	8f75                	and	a4,a4,a3
    39f2:	2196                	lhu	a3,0(a1)
    39f4:	8241                	srli	a2,a2,0x10
    39f6:	06a2                	slli	a3,a3,0x8
    39f8:	8f55                	or	a4,a4,a3
    39fa:	21b6                	lhu	a3,2(a1)
    39fc:	0742                	slli	a4,a4,0x10
    39fe:	8341                	srli	a4,a4,0x10
    3a00:	0106e6b3          	or	a3,a3,a6
    3a04:	0692                	slli	a3,a3,0x4
    3a06:	8fd5                	or	a5,a5,a3
    3a08:	400136b7          	lui	a3,0x40013
    3a0c:	07c2                	slli	a5,a5,0x10
    3a0e:	c0068693          	addi	a3,a3,-1024 # 40012c00 <__freertos_irq_stack_top+0x2000dc00>
    3a12:	83c1                	srli	a5,a5,0x10
    3a14:	02d51e63          	bne	a0,a3,3a50 <TIM_OC2Init+0x8a>
    3a18:	25b6                	lhu	a3,10(a1)
    3a1a:	f7f7f793          	andi	a5,a5,-129
    3a1e:	00c5d803          	lhu	a6,12(a1)
    3a22:	0692                	slli	a3,a3,0x4
    3a24:	8fd5                	or	a5,a5,a3
    3a26:	21d6                	lhu	a3,4(a1)
    3a28:	07c2                	slli	a5,a5,0x10
    3a2a:	83c1                	srli	a5,a5,0x10
    3a2c:	0692                	slli	a3,a3,0x4
    3a2e:	fbf7f793          	andi	a5,a5,-65
    3a32:	8fd5                	or	a5,a5,a3
    3a34:	76fd                	lui	a3,0xfffff
    3a36:	3ff68693          	addi	a3,a3,1023 # fffff3ff <__freertos_irq_stack_top+0xdfffa3ff>
    3a3a:	8ef1                	and	a3,a3,a2
    3a3c:	25f2                	lhu	a2,14(a1)
    3a3e:	07c2                	slli	a5,a5,0x10
    3a40:	83c1                	srli	a5,a5,0x10
    3a42:	01066633          	or	a2,a2,a6
    3a46:	060a                	slli	a2,a2,0x2
    3a48:	8ed1                	or	a3,a3,a2
    3a4a:	01069613          	slli	a2,a3,0x10
    3a4e:	8241                	srli	a2,a2,0x10
    3a50:	a152                	sh	a2,4(a0)
    3a52:	ad1a                	sh	a4,24(a0)
    3a54:	21fa                	lhu	a4,6(a1)
    3a56:	bd1a                	sh	a4,56(a0)
    3a58:	b11e                	sh	a5,32(a0)
    3a5a:	8082                	ret

00003a5c <TIM_OC3Init>:
    3a5c:	311e                	lhu	a5,32(a0)
    3a5e:	0085d803          	lhu	a6,8(a1)
    3a62:	07c2                	slli	a5,a5,0x10
    3a64:	83c1                	srli	a5,a5,0x10
    3a66:	eff7f793          	andi	a5,a5,-257
    3a6a:	07c2                	slli	a5,a5,0x10
    3a6c:	83c1                	srli	a5,a5,0x10
    3a6e:	b11e                	sh	a5,32(a0)
    3a70:	311e                	lhu	a5,32(a0)
    3a72:	2156                	lhu	a3,4(a0)
    3a74:	2d5a                	lhu	a4,28(a0)
    3a76:	07c2                	slli	a5,a5,0x10
    3a78:	01069613          	slli	a2,a3,0x10
    3a7c:	0742                	slli	a4,a4,0x10
    3a7e:	2196                	lhu	a3,0(a1)
    3a80:	8341                	srli	a4,a4,0x10
    3a82:	f8c77713          	andi	a4,a4,-116
    3a86:	8f55                	or	a4,a4,a3
    3a88:	21b6                	lhu	a3,2(a1)
    3a8a:	83c1                	srli	a5,a5,0x10
    3a8c:	dff7f793          	andi	a5,a5,-513
    3a90:	0106e6b3          	or	a3,a3,a6
    3a94:	06a2                	slli	a3,a3,0x8
    3a96:	8fd5                	or	a5,a5,a3
    3a98:	400136b7          	lui	a3,0x40013
    3a9c:	07c2                	slli	a5,a5,0x10
    3a9e:	c0068693          	addi	a3,a3,-1024 # 40012c00 <__freertos_irq_stack_top+0x2000dc00>
    3aa2:	8241                	srli	a2,a2,0x10
    3aa4:	83c1                	srli	a5,a5,0x10
    3aa6:	02d51f63          	bne	a0,a3,3ae4 <TIM_OC3Init+0x88>
    3aaa:	76fd                	lui	a3,0xfffff
    3aac:	7ff68693          	addi	a3,a3,2047 # fffff7ff <__freertos_irq_stack_top+0xdfffa7ff>
    3ab0:	8ff5                	and	a5,a5,a3
    3ab2:	25b6                	lhu	a3,10(a1)
    3ab4:	00c5d803          	lhu	a6,12(a1)
    3ab8:	06a2                	slli	a3,a3,0x8
    3aba:	8fd5                	or	a5,a5,a3
    3abc:	21d6                	lhu	a3,4(a1)
    3abe:	07c2                	slli	a5,a5,0x10
    3ac0:	83c1                	srli	a5,a5,0x10
    3ac2:	06a2                	slli	a3,a3,0x8
    3ac4:	bff7f793          	andi	a5,a5,-1025
    3ac8:	8fd5                	or	a5,a5,a3
    3aca:	76f5                	lui	a3,0xffffd
    3acc:	16fd                	addi	a3,a3,-1
    3ace:	8ef1                	and	a3,a3,a2
    3ad0:	25f2                	lhu	a2,14(a1)
    3ad2:	07c2                	slli	a5,a5,0x10
    3ad4:	83c1                	srli	a5,a5,0x10
    3ad6:	01066633          	or	a2,a2,a6
    3ada:	0612                	slli	a2,a2,0x4
    3adc:	8ed1                	or	a3,a3,a2
    3ade:	01069613          	slli	a2,a3,0x10
    3ae2:	8241                	srli	a2,a2,0x10
    3ae4:	a152                	sh	a2,4(a0)
    3ae6:	ad5a                	sh	a4,28(a0)
    3ae8:	21fa                	lhu	a4,6(a1)
    3aea:	bd5a                	sh	a4,60(a0)
    3aec:	b11e                	sh	a5,32(a0)
    3aee:	8082                	ret

00003af0 <TIM_OC4Init>:
    3af0:	311a                	lhu	a4,32(a0)
    3af2:	77fd                	lui	a5,0xfffff
    3af4:	17fd                	addi	a5,a5,-1
    3af6:	8ff9                	and	a5,a5,a4
    3af8:	b11e                	sh	a5,32(a0)
    3afa:	02055803          	lhu	a6,32(a0)
    3afe:	2156                	lhu	a3,4(a0)
    3b00:	2d5e                	lhu	a5,28(a0)
    3b02:	7765                	lui	a4,0xffff9
    3b04:	2192                	lhu	a2,0(a1)
    3b06:	cff70713          	addi	a4,a4,-769 # ffff8cff <__freertos_irq_stack_top+0xdfff3cff>
    3b0a:	8f7d                	and	a4,a4,a5
    3b0c:	77f9                	lui	a5,0xffffe
    3b0e:	0622                	slli	a2,a2,0x8
    3b10:	17fd                	addi	a5,a5,-1
    3b12:	8f51                	or	a4,a4,a2
    3b14:	0107f7b3          	and	a5,a5,a6
    3b18:	21b2                	lhu	a2,2(a1)
    3b1a:	0085d803          	lhu	a6,8(a1)
    3b1e:	06c2                	slli	a3,a3,0x10
    3b20:	0742                	slli	a4,a4,0x10
    3b22:	01066633          	or	a2,a2,a6
    3b26:	0632                	slli	a2,a2,0xc
    3b28:	8fd1                	or	a5,a5,a2
    3b2a:	40013637          	lui	a2,0x40013
    3b2e:	07c2                	slli	a5,a5,0x10
    3b30:	c0060613          	addi	a2,a2,-1024 # 40012c00 <__freertos_irq_stack_top+0x2000dc00>
    3b34:	82c1                	srli	a3,a3,0x10
    3b36:	8341                	srli	a4,a4,0x10
    3b38:	83c1                	srli	a5,a5,0x10
    3b3a:	00c51a63          	bne	a0,a2,3b4e <TIM_OC4Init+0x5e>
    3b3e:	7671                	lui	a2,0xffffc
    3b40:	167d                	addi	a2,a2,-1
    3b42:	8ef1                	and	a3,a3,a2
    3b44:	25d2                	lhu	a2,12(a1)
    3b46:	061a                	slli	a2,a2,0x6
    3b48:	8ed1                	or	a3,a3,a2
    3b4a:	06c2                	slli	a3,a3,0x10
    3b4c:	82c1                	srli	a3,a3,0x10
    3b4e:	a156                	sh	a3,4(a0)
    3b50:	ad5a                	sh	a4,28(a0)
    3b52:	21fa                	lhu	a4,6(a1)
    3b54:	04e51023          	sh	a4,64(a0)
    3b58:	b11e                	sh	a5,32(a0)
    3b5a:	8082                	ret

00003b5c <TIM_OC1PreloadConfig>:
    3b5c:	2d1e                	lhu	a5,24(a0)
    3b5e:	07c2                	slli	a5,a5,0x10
    3b60:	83c1                	srli	a5,a5,0x10
    3b62:	9bdd                	andi	a5,a5,-9
    3b64:	8ddd                	or	a1,a1,a5
    3b66:	ad0e                	sh	a1,24(a0)
    3b68:	8082                	ret

00003b6a <TIM_OC2PreloadConfig>:
    3b6a:	2d1a                	lhu	a4,24(a0)
    3b6c:	77fd                	lui	a5,0xfffff
    3b6e:	7ff78793          	addi	a5,a5,2047 # fffff7ff <__freertos_irq_stack_top+0xdfffa7ff>
    3b72:	8ff9                	and	a5,a5,a4
    3b74:	05a2                	slli	a1,a1,0x8
    3b76:	8fcd                	or	a5,a5,a1
    3b78:	07c2                	slli	a5,a5,0x10
    3b7a:	83c1                	srli	a5,a5,0x10
    3b7c:	ad1e                	sh	a5,24(a0)
    3b7e:	8082                	ret

00003b80 <TIM_OC3PreloadConfig>:
    3b80:	2d5e                	lhu	a5,28(a0)
    3b82:	07c2                	slli	a5,a5,0x10
    3b84:	83c1                	srli	a5,a5,0x10
    3b86:	9bdd                	andi	a5,a5,-9
    3b88:	8ddd                	or	a1,a1,a5
    3b8a:	ad4e                	sh	a1,28(a0)
    3b8c:	8082                	ret

00003b8e <TIM_OC4PreloadConfig>:
    3b8e:	2d5a                	lhu	a4,28(a0)
    3b90:	77fd                	lui	a5,0xfffff
    3b92:	7ff78793          	addi	a5,a5,2047 # fffff7ff <__freertos_irq_stack_top+0xdfffa7ff>
    3b96:	8ff9                	and	a5,a5,a4
    3b98:	05a2                	slli	a1,a1,0x8
    3b9a:	8fcd                	or	a5,a5,a1
    3b9c:	07c2                	slli	a5,a5,0x10
    3b9e:	83c1                	srli	a5,a5,0x10
    3ba0:	ad5e                	sh	a5,28(a0)
    3ba2:	8082                	ret

00003ba4 <TIM_GetITStatus>:
    3ba4:	291e                	lhu	a5,16(a0)
    3ba6:	254a                	lhu	a0,12(a0)
    3ba8:	8fed                	and	a5,a5,a1
    3baa:	0542                	slli	a0,a0,0x10
    3bac:	8141                	srli	a0,a0,0x10
    3bae:	c789                	beqz	a5,3bb8 <TIM_GetITStatus+0x14>
    3bb0:	8d6d                	and	a0,a0,a1
    3bb2:	00a03533          	snez	a0,a0
    3bb6:	8082                	ret
    3bb8:	4501                	li	a0,0
    3bba:	8082                	ret

00003bbc <USART_SendData>:
    3bbc:	1ff5f593          	andi	a1,a1,511
    3bc0:	a14e                	sh	a1,4(a0)
    3bc2:	8082                	ret

00003bc4 <USART_GetFlagStatus>:
    3bc4:	210a                	lhu	a0,0(a0)
    3bc6:	8d6d                	and	a0,a0,a1
    3bc8:	00a03533          	snez	a0,a0
    3bcc:	8082                	ret

00003bce <vAINInit>:
    3bce:	200027b7          	lui	a5,0x20002
    3bd2:	75c78793          	addi	a5,a5,1884 # 2000275c <xAinData>
    3bd6:	0007a023          	sw	zero,0(a5)
    3bda:	0007a223          	sw	zero,4(a5)
    3bde:	00079423          	sh	zero,8(a5)
    3be2:	200027b7          	lui	a5,0x20002
    3be6:	74c78793          	addi	a5,a5,1868 # 2000274c <muRawVData>
    3bea:	0007a023          	sw	zero,0(a5)
    3bee:	0007a223          	sw	zero,4(a5)
    3bf2:	0007a423          	sw	zero,8(a5)
    3bf6:	00079623          	sh	zero,12(a5)
    3bfa:	200007b7          	lui	a5,0x20000
    3bfe:	66079e23          	sh	zero,1660(a5) # 2000067c <usCurMaxIndex>
    3c02:	8082                	ret

00003c04 <fGetAinCalData>:
    3c04:	901fc2ef          	jal	t0,504 <__riscv_save_4>
    3c08:	00151793          	slli	a5,a0,0x1
    3c0c:	20002537          	lui	a0,0x20002
    3c10:	75c50513          	addi	a0,a0,1884 # 2000275c <xAinData>
    3c14:	953e                	add	a0,a0,a5
    3c16:	00054983          	lbu	s3,0(a0)
    3c1a:	892e                	mv	s2,a1
    3c1c:	06098663          	beqz	s3,3c88 <fGetAinCalData+0x84>
    3c20:	3100                	lbu	s0,1(a0)
    3c22:	200024b7          	lui	s1,0x20002
    3c26:	76848493          	addi	s1,s1,1896 # 20002768 <xKoofData>
    3c2a:	99a2                	add	s3,s3,s0
    3c2c:	01099a13          	slli	s4,s3,0x10
    3c30:	010a5a13          	srli	s4,s4,0x10
    3c34:	4ab1                	li	s5,12
    3c36:	01041793          	slli	a5,s0,0x10
    3c3a:	83c1                	srli	a5,a5,0x10
    3c3c:	0347e663          	bltu	a5,s4,3c68 <fGetAinCalData+0x64>
    3c40:	00000913          	li	s2,0
    3c44:	04fa1263          	bne	s4,a5,3c88 <fGetAinCalData+0x84>
    3c48:	fff78413          	addi	s0,a5,-1
    3c4c:	47b1                	li	a5,12
    3c4e:	02f40433          	mul	s0,s0,a5
    3c52:	200027b7          	lui	a5,0x20002
    3c56:	76878793          	addi	a5,a5,1896 # 20002768 <xKoofData>
    3c5a:	943e                	add	s0,s0,a5
    3c5c:	400c                	lw	a1,0(s0)
    3c5e:	4048                	lw	a0,4(s0)
    3c60:	002070ef          	jal	ra,ac62 <__mulsf3>
    3c64:	440c                	lw	a1,8(s0)
    3c66:	a831                	j	3c82 <fGetAinCalData+0x7e>
    3c68:	8b22                	mv	s6,s0
    3c6a:	87ce                	mv	a5,s3
    3c6c:	03341163          	bne	s0,s3,3c8e <fGetAinCalData+0x8a>
    3c70:	4731                	li	a4,12
    3c72:	02e787b3          	mul	a5,a5,a4
    3c76:	854a                	mv	a0,s2
    3c78:	94be                	add	s1,s1,a5
    3c7a:	40cc                	lw	a1,4(s1)
    3c7c:	7e7060ef          	jal	ra,ac62 <__mulsf3>
    3c80:	448c                	lw	a1,8(s1)
    3c82:	0b3060ef          	jal	ra,a534 <__addsf3>
    3c86:	892a                	mv	s2,a0
    3c88:	854a                	mv	a0,s2
    3c8a:	8affc06f          	j	538 <__riscv_restore_4>
    3c8e:	0405                	addi	s0,s0,1
    3c90:	035407b3          	mul	a5,s0,s5
    3c94:	854a                	mv	a0,s2
    3c96:	97a6                	add	a5,a5,s1
    3c98:	ff47a583          	lw	a1,-12(a5)
    3c9c:	73b060ef          	jal	ra,abd6 <__lesf2>
    3ca0:	f8a04be3          	bgtz	a0,3c36 <fGetAinCalData+0x32>
    3ca4:	87da                	mv	a5,s6
    3ca6:	b7e9                	j	3c70 <fGetAinCalData+0x6c>

00003ca8 <eAinCalDataConfig>:
    3ca8:	4785                	li	a5,1
    3caa:	04f58163          	beq	a1,a5,3cec <eAinCalDataConfig+0x44>
    3cae:	200027b7          	lui	a5,0x20002
    3cb2:	0506                	slli	a0,a0,0x1
    3cb4:	75c78793          	addi	a5,a5,1884 # 2000275c <xAinData>
    3cb8:	97aa                	add	a5,a5,a0
    3cba:	2398                	lbu	a4,0(a5)
    3cbc:	e315                	bnez	a4,3ce0 <eAinCalDataConfig+0x38>
    3cbe:	20000737          	lui	a4,0x20000
    3cc2:	67c70713          	addi	a4,a4,1660 # 2000067c <usCurMaxIndex>
    3cc6:	2312                	lhu	a2,0(a4)
    3cc8:	06400813          	li	a6,100
    3ccc:	4505                	li	a0,1
    3cce:	00b606b3          	add	a3,a2,a1
    3cd2:	00d84e63          	blt	a6,a3,3cee <eAinCalDataConfig+0x46>
    3cd6:	a38c                	sb	a1,0(a5)
    3cd8:	b390                	sb	a2,1(a5)
    3cda:	a316                	sh	a3,0(a4)
    3cdc:	4501                	li	a0,0
    3cde:	8082                	ret
    3ce0:	15fd                	addi	a1,a1,-1
    3ce2:	4501                	li	a0,0
    3ce4:	00b70563          	beq	a4,a1,3cee <eAinCalDataConfig+0x46>
    3ce8:	4509                	li	a0,2
    3cea:	8082                	ret
    3cec:	450d                	li	a0,3
    3cee:	8082                	ret

00003cf0 <vABLineKoofFinde>:
    3cf0:	815fc2ef          	jal	t0,504 <__riscv_save_4>
    3cf4:	1141                	addi	sp,sp,-16
    3cf6:	89aa                	mv	s3,a0
    3cf8:	892e                	mv	s2,a1
    3cfa:	853a                	mv	a0,a4
    3cfc:	85be                	mv	a1,a5
    3cfe:	8436                	mv	s0,a3
    3d00:	84b2                	mv	s1,a2
    3d02:	c63e                	sw	a5,12(sp)
    3d04:	c43a                	sw	a4,8(sp)
    3d06:	1ec070ef          	jal	ra,aef2 <__subsf3>
    3d0a:	8a2a                	mv	s4,a0
    3d0c:	85a2                	mv	a1,s0
    3d0e:	8526                	mv	a0,s1
    3d10:	1e2070ef          	jal	ra,aef2 <__subsf3>
    3d14:	85aa                	mv	a1,a0
    3d16:	8552                	mv	a0,s4
    3d18:	387060ef          	jal	ra,a89e <__divsf3>
    3d1c:	4722                	lw	a4,8(sp)
    3d1e:	00a9a023          	sw	a0,0(s3)
    3d22:	85a2                	mv	a1,s0
    3d24:	853a                	mv	a0,a4
    3d26:	73d060ef          	jal	ra,ac62 <__mulsf3>
    3d2a:	47b2                	lw	a5,12(sp)
    3d2c:	89aa                	mv	s3,a0
    3d2e:	85a6                	mv	a1,s1
    3d30:	853e                	mv	a0,a5
    3d32:	731060ef          	jal	ra,ac62 <__mulsf3>
    3d36:	85aa                	mv	a1,a0
    3d38:	854e                	mv	a0,s3
    3d3a:	1b8070ef          	jal	ra,aef2 <__subsf3>
    3d3e:	89aa                	mv	s3,a0
    3d40:	85a6                	mv	a1,s1
    3d42:	8522                	mv	a0,s0
    3d44:	1ae070ef          	jal	ra,aef2 <__subsf3>
    3d48:	85aa                	mv	a1,a0
    3d4a:	854e                	mv	a0,s3
    3d4c:	353060ef          	jal	ra,a89e <__divsf3>
    3d50:	00a92023          	sw	a0,0(s2)
    3d54:	0141                	addi	sp,sp,16
    3d56:	fe2fc06f          	j	538 <__riscv_restore_4>

00003d5a <eSetAinCalPoint>:
    3d5a:	00151793          	slli	a5,a0,0x1
    3d5e:	20002537          	lui	a0,0x20002
    3d62:	75c50513          	addi	a0,a0,1884 # 2000275c <xAinData>
    3d66:	953e                	add	a0,a0,a5
    3d68:	211c                	lbu	a5,0(a0)
    3d6a:	04f67863          	bgeu	a2,a5,3dba <eSetAinCalPoint+0x60>
    3d6e:	fb0fc2ef          	jal	t0,51e <__riscv_save_0>
    3d72:	3100                	lbu	s0,1(a0)
    3d74:	47b1                	li	a5,12
    3d76:	892e                	mv	s2,a1
    3d78:	9622                	add	a2,a2,s0
    3d7a:	01061413          	slli	s0,a2,0x10
    3d7e:	8041                	srli	s0,s0,0x10
    3d80:	02f40433          	mul	s0,s0,a5
    3d84:	00092703          	lw	a4,0(s2)
    3d88:	00892783          	lw	a5,8(s2)
    3d8c:	00c92683          	lw	a3,12(s2)
    3d90:	00492603          	lw	a2,4(s2)
    3d94:	200024b7          	lui	s1,0x20002
    3d98:	76848493          	addi	s1,s1,1896 # 20002768 <xKoofData>
    3d9c:	00840593          	addi	a1,s0,8
    3da0:	00440513          	addi	a0,s0,4
    3da4:	9526                	add	a0,a0,s1
    3da6:	95a6                	add	a1,a1,s1
    3da8:	f49ff0ef          	jal	ra,3cf0 <vABLineKoofFinde>
    3dac:	00c92783          	lw	a5,12(s2)
    3db0:	9426                	add	s0,s0,s1
    3db2:	4501                	li	a0,0
    3db4:	c01c                	sw	a5,0(s0)
    3db6:	f8cfc06f          	j	542 <__riscv_restore_0>
    3dba:	4509                	li	a0,2
    3dbc:	8082                	ret

00003dbe <getADC1Buffer>:
    3dbe:	20002537          	lui	a0,0x20002
    3dc2:	72c50513          	addi	a0,a0,1836 # 2000272c <ADC1_IN_Buffer>
    3dc6:	8082                	ret

00003dc8 <eDOUTConfigWtihStruct>:
    3dc8:	00351793          	slli	a5,a0,0x3
    3dcc:	20000537          	lui	a0,0x20000
    3dd0:	68050513          	addi	a0,a0,1664 # 20000680 <xDoutConfig>
    3dd4:	953e                	add	a0,a0,a5
    3dd6:	41dc                	lw	a5,4(a1)
    3dd8:	00050023          	sb	zero,0(a0)
    3ddc:	c15c                	sw	a5,4(a0)
    3dde:	4501                	li	a0,0
    3de0:	8082                	ret

00003de2 <eDinConfigWtihStruct>:
    3de2:	47f1                	li	a5,28
    3de4:	02f50533          	mul	a0,a0,a5
    3de8:	200037b7          	lui	a5,0x20003
    3dec:	c5478793          	addi	a5,a5,-940 # 20002c54 <xDinConfig>
    3df0:	41d8                	lw	a4,4(a1)
    3df2:	953e                	add	a0,a0,a5
    3df4:	499c                	lw	a5,16(a1)
    3df6:	c158                	sw	a4,4(a0)
    3df8:	177d                	addi	a4,a4,-1
    3dfa:	c91c                	sw	a5,16(a0)
    3dfc:	45dc                	lw	a5,12(a1)
    3dfe:	00e03733          	snez	a4,a4
    3e02:	a95a                	sh	a4,20(a0)
    3e04:	c55c                	sw	a5,12(a0)
    3e06:	4d9c                	lw	a5,24(a1)
    3e08:	00050ba3          	sb	zero,23(a0)
    3e0c:	00052423          	sw	zero,8(a0)
    3e10:	cd1c                	sw	a5,24(a0)
    3e12:	4501                	li	a0,0
    3e14:	8082                	ret

00003e16 <uGetDIN>:
    3e16:	47f1                	li	a5,28
    3e18:	02f50533          	mul	a0,a0,a5
    3e1c:	200037b7          	lui	a5,0x20003
    3e20:	c5478793          	addi	a5,a5,-940 # 20002c54 <xDinConfig>
    3e24:	97aa                	add	a5,a5,a0
    3e26:	2bc8                	lbu	a0,20(a5)
    3e28:	8082                	ret

00003e2a <eRPMConfig>:
    3e2a:	ef4fc2ef          	jal	t0,51e <__riscv_save_0>
    3e2e:	47f1                	li	a5,28
    3e30:	02f50533          	mul	a0,a0,a5
    3e34:	200037b7          	lui	a5,0x20003
    3e38:	c5478793          	addi	a5,a5,-940 # 20002c54 <xDinConfig>
    3e3c:	4709                	li	a4,2
    3e3e:	463d                	li	a2,15
    3e40:	97aa                	add	a5,a5,a0
    3e42:	02c00513          	li	a0,44
    3e46:	02a58533          	mul	a0,a1,a0
    3e4a:	c3d8                	sw	a4,4(a5)
    3e4c:	20003737          	lui	a4,0x20003
    3e50:	bdc70713          	addi	a4,a4,-1060 # 20002bdc <RPM>
    3e54:	0007aa23          	sw	zero,20(a5)
    3e58:	4581                	li	a1,0
    3e5a:	00a70433          	add	s0,a4,a0
    3e5e:	0509                	addi	a0,a0,2
    3e60:	c380                	sw	s0,0(a5)
    3e62:	02042223          	sw	zero,36(s0)
    3e66:	953a                	add	a0,a0,a4
    3e68:	ee6fc0ef          	jal	ra,54e <memset>
    3e6c:	0000d7b7          	lui	a5,0xd
    3e70:	b7c7a783          	lw	a5,-1156(a5) # cb7c <OD_VRegiters_extension+0x5c>
    3e74:	02042023          	sw	zero,32(s0)
    3e78:	4505                	li	a0,1
    3e7a:	d41c                	sw	a5,40(s0)
    3e7c:	ec6fc06f          	j	542 <__riscv_restore_0>

00003e80 <RMPDataConvert>:
    3e80:	e9efc2ef          	jal	t0,51e <__riscv_save_0>
    3e84:	46f1                	li	a3,28
    3e86:	02d506b3          	mul	a3,a0,a3
    3e8a:	200037b7          	lui	a5,0x20003
    3e8e:	c5478713          	addi	a4,a5,-940 # 20002c54 <xDinConfig>
    3e92:	84aa                	mv	s1,a0
    3e94:	653d                	lui	a0,0xf
    3e96:	4601                	li	a2,0
    3e98:	c5478413          	addi	s0,a5,-940
    3e9c:	a6050513          	addi	a0,a0,-1440 # ea60 <_data_lma+0xf64>
    3ea0:	9736                	add	a4,a4,a3
    3ea2:	4314                	lw	a3,0(a4)
    3ea4:	0206a023          	sw	zero,32(a3) # ffffd020 <__freertos_irq_stack_top+0xdfff8020>
    3ea8:	00268713          	addi	a4,a3,2
    3eac:	06f9                	addi	a3,a3,30
    3eae:	00275803          	lhu	a6,2(a4)
    3eb2:	231e                	lhu	a5,0(a4)
    3eb4:	40f805b3          	sub	a1,a6,a5
    3eb8:	0005d663          	bgez	a1,3ec4 <RMPDataConvert+0x44>
    3ebc:	40f507b3          	sub	a5,a0,a5
    3ec0:	010785b3          	add	a1,a5,a6
    3ec4:	0709                	addi	a4,a4,2
    3ec6:	962e                	add	a2,a2,a1
    3ec8:	fee693e3          	bne	a3,a4,3eae <RMPDataConvert+0x2e>
    3ecc:	453d                	li	a0,15
    3ece:	02a65533          	divu	a0,a2,a0
    3ed2:	200037b7          	lui	a5,0x20003
    3ed6:	c3478793          	addi	a5,a5,-972 # 20002c34 <RPM_MIDIAN_FILTER_STRUC>
    3eda:	00449593          	slli	a1,s1,0x4
    3ede:	95be                	add	a1,a1,a5
    3ee0:	175030ef          	jal	ra,7854 <MedianFilter>
    3ee4:	47f1                	li	a5,28
    3ee6:	02f487b3          	mul	a5,s1,a5
    3eea:	4705                	li	a4,1
    3eec:	97a2                	add	a5,a5,s0
    3eee:	439c                	lw	a5,0(a5)
    3ef0:	d388                	sw	a0,32(a5)
    3ef2:	d3d8                	sw	a4,36(a5)
    3ef4:	e4efc06f          	j	542 <__riscv_restore_0>

00003ef8 <getCaputreBuffer>:
    3ef8:	47f1                	li	a5,28
    3efa:	02f50533          	mul	a0,a0,a5
    3efe:	200037b7          	lui	a5,0x20003
    3f02:	c5478793          	addi	a5,a5,-940 # 20002c54 <xDinConfig>
    3f06:	97aa                	add	a5,a5,a0
    3f08:	4388                	lw	a0,0(a5)
    3f0a:	0509                	addi	a0,a0,2
    3f0c:	8082                	ret

00003f0e <GetRPM>:
    3f0e:	e10fc2ef          	jal	t0,51e <__riscv_save_0>
    3f12:	47f1                	li	a5,28
    3f14:	02f50533          	mul	a0,a0,a5
    3f18:	200037b7          	lui	a5,0x20003
    3f1c:	c5478793          	addi	a5,a5,-940 # 20002c54 <xDinConfig>
    3f20:	953e                	add	a0,a0,a5
    3f22:	4100                	lw	s0,0(a0)
    3f24:	cc29                	beqz	s0,3f7e <GetRPM+0x70>
    3f26:	4158                	lw	a4,4(a0)
    3f28:	4789                	li	a5,2
    3f2a:	4501                	li	a0,0
    3f2c:	04f71763          	bne	a4,a5,3f7a <GetRPM+0x6c>
    3f30:	501c                	lw	a5,32(s0)
    3f32:	c7a1                	beqz	a5,3f7a <GetRPM+0x6c>
    3f34:	853e                	mv	a0,a5
    3f36:	4c2070ef          	jal	ra,b3f8 <__floatunsisf>
    3f3a:	0000d7b7          	lui	a5,0xd
    3f3e:	b747a583          	lw	a1,-1164(a5) # cb74 <OD_VRegiters_extension+0x54>
    3f42:	521060ef          	jal	ra,ac62 <__mulsf3>
    3f46:	0000d7b7          	lui	a5,0xd
    3f4a:	85aa                	mv	a1,a0
    3f4c:	b7c7a503          	lw	a0,-1156(a5) # cb7c <OD_VRegiters_extension+0x5c>
    3f50:	14f060ef          	jal	ra,a89e <__divsf3>
    3f54:	0000d7b7          	lui	a5,0xd
    3f58:	b787a583          	lw	a1,-1160(a5) # cb78 <OD_VRegiters_extension+0x58>
    3f5c:	507060ef          	jal	ra,ac62 <__mulsf3>
    3f60:	37c070ef          	jal	ra,b2dc <__fixunssfsi>
    3f64:	0542                	slli	a0,a0,0x10
    3f66:	8141                	srli	a0,a0,0x10
    3f68:	3ca070ef          	jal	ra,b332 <__floatsisf>
    3f6c:	540c                	lw	a1,40(s0)
    3f6e:	4f5060ef          	jal	ra,ac62 <__mulsf3>
    3f72:	36a070ef          	jal	ra,b2dc <__fixunssfsi>
    3f76:	0542                	slli	a0,a0,0x10
    3f78:	8141                	srli	a0,a0,0x10
    3f7a:	dc8fc06f          	j	542 <__riscv_restore_0>
    3f7e:	4501                	li	a0,0
    3f80:	bfed                	j	3f7a <GetRPM+0x6c>

00003f82 <xGetRPM>:
    3f82:	d82fc2ef          	jal	t0,504 <__riscv_save_4>
    3f86:	4471                	li	s0,28
    3f88:	02850533          	mul	a0,a0,s0
    3f8c:	20003437          	lui	s0,0x20003
    3f90:	c5440413          	addi	s0,s0,-940 # 20002c54 <xDinConfig>
    3f94:	942a                	add	s0,s0,a0
    3f96:	00042983          	lw	s3,0(s0)
    3f9a:	481c                	lw	a5,16(s0)
    3f9c:	450d                	li	a0,3
    3f9e:	0209a483          	lw	s1,32(s3)
    3fa2:	04f48763          	beq	s1,a5,3ff0 <xGetRPM+0x6e>
    3fa6:	8526                	mv	a0,s1
    3fa8:	892e                	mv	s2,a1
    3faa:	44e070ef          	jal	ra,b3f8 <__floatunsisf>
    3fae:	0000d7b7          	lui	a5,0xd
    3fb2:	b747a583          	lw	a1,-1164(a5) # cb74 <OD_VRegiters_extension+0x54>
    3fb6:	4ad060ef          	jal	ra,ac62 <__mulsf3>
    3fba:	0000d7b7          	lui	a5,0xd
    3fbe:	85aa                	mv	a1,a0
    3fc0:	b7c7a503          	lw	a0,-1156(a5) # cb7c <OD_VRegiters_extension+0x5c>
    3fc4:	0db060ef          	jal	ra,a89e <__divsf3>
    3fc8:	314070ef          	jal	ra,b2dc <__fixunssfsi>
    3fcc:	03c00793          	li	a5,60
    3fd0:	02f50533          	mul	a0,a0,a5
    3fd4:	0542                	slli	a0,a0,0x10
    3fd6:	8141                	srli	a0,a0,0x10
    3fd8:	35a070ef          	jal	ra,b332 <__floatsisf>
    3fdc:	0289a583          	lw	a1,40(s3)
    3fe0:	483060ef          	jal	ra,ac62 <__mulsf3>
    3fe4:	2f8070ef          	jal	ra,b2dc <__fixunssfsi>
    3fe8:	00a91023          	sh	a0,0(s2)
    3fec:	c804                	sw	s1,16(s0)
    3fee:	4509                	li	a0,2
    3ff0:	d48fc06f          	j	538 <__riscv_restore_4>

00003ff4 <vDinDoutProcess>:
    3ff4:	d10fc2ef          	jal	t0,504 <__riscv_save_4>
    3ff8:	20003437          	lui	s0,0x20003
    3ffc:	c5440413          	addi	s0,s0,-940 # 20002c54 <xDinConfig>
    4000:	4481                	li	s1,0
    4002:	4989                	li	s3,2
    4004:	3e700a13          	li	s4,999
    4008:	4a85                	li	s5,1
    400a:	4911                	li	s2,4
    400c:	405c                	lw	a5,4(s0)
    400e:	05378b63          	beq	a5,s3,4064 <vDinDoutProcess+0x70>
    4012:	4c1c                	lw	a5,24(s0)
    4014:	8526                	mv	a0,s1
    4016:	9782                	jalr	a5
    4018:	3878                	lbu	a4,23(s0)
    401a:	04a70263          	beq	a4,a0,405e <vDinDoutProcess+0x6a>
    401e:	441c                	lw	a5,8(s0)
    4020:	0785                	addi	a5,a5,1
    4022:	c41c                	sw	a5,8(s0)
    4024:	eb1d                	bnez	a4,405a <vDinDoutProcess+0x66>
    4026:	4818                	lw	a4,16(s0)
    4028:	00f77963          	bgeu	a4,a5,403a <vDinDoutProcess+0x46>
    402c:	405c                	lw	a5,4(s0)
    402e:	b868                	sb	a0,23(s0)
    4030:	fff7c793          	not	a5,a5
    4034:	8b85                	andi	a5,a5,1
    4036:	8fa9                	xor	a5,a5,a0
    4038:	a85e                	sh	a5,20(s0)
    403a:	0485                	addi	s1,s1,1
    403c:	0ff4f493          	andi	s1,s1,255
    4040:	0471                	addi	s0,s0,28
    4042:	fd2495e3          	bne	s1,s2,400c <vDinDoutProcess+0x18>
    4046:	200007b7          	lui	a5,0x20000
    404a:	68078793          	addi	a5,a5,1664 # 20000680 <xDoutConfig>
    404e:	43d8                	lw	a4,4(a5)
    4050:	238c                	lbu	a1,0(a5)
    4052:	4501                	li	a0,0
    4054:	9702                	jalr	a4
    4056:	ce2fc06f          	j	538 <__riscv_restore_4>
    405a:	4458                	lw	a4,12(s0)
    405c:	b7f1                	j	4028 <vDinDoutProcess+0x34>
    405e:	00042423          	sw	zero,8(s0)
    4062:	bfe1                	j	403a <vDinDoutProcess+0x46>
    4064:	285e                	lhu	a5,20(s0)
    4066:	0785                	addi	a5,a5,1
    4068:	07c2                	slli	a5,a5,0x10
    406a:	83c1                	srli	a5,a5,0x10
    406c:	00fa6463          	bltu	s4,a5,4074 <vDinDoutProcess+0x80>
    4070:	a85e                	sh	a5,20(s0)
    4072:	b7e1                	j	403a <vDinDoutProcess+0x46>
    4074:	401c                	lw	a5,0(s0)
    4076:	00041a23          	sh	zero,20(s0)
    407a:	53d8                	lw	a4,36(a5)
    407c:	01571563          	bne	a4,s5,4086 <vDinDoutProcess+0x92>
    4080:	0207a223          	sw	zero,36(a5)
    4084:	bf5d                	j	403a <vDinDoutProcess+0x46>
    4086:	0207a023          	sw	zero,32(a5)
    408a:	bf45                	j	403a <vDinDoutProcess+0x46>

0000408c <xGetEEPROM>:
    408c:	20003537          	lui	a0,0x20003
    4090:	cc450513          	addi	a0,a0,-828 # 20002cc4 <Dev>
    4094:	8082                	ret

00004096 <eEEPROMWrFast>:
    4096:	6785                	lui	a5,0x1
    4098:	00c50733          	add	a4,a0,a2
    409c:	80078793          	addi	a5,a5,-2048 # 800 <vCanOpenPeriodicProcess+0x5a>
    40a0:	06e7c963          	blt	a5,a4,4112 <eEEPROMWrFast+0x7c>
    40a4:	c60fc2ef          	jal	t0,504 <__riscv_save_4>
    40a8:	84aa                	mv	s1,a0
    40aa:	8432                	mv	s0,a2
    40ac:	4509                	li	a0,2
    40ae:	c225                	beqz	a2,410e <eEEPROMWrFast+0x78>
    40b0:	20003a37          	lui	s4,0x20003
    40b4:	8aae                	mv	s5,a1
    40b6:	4981                	li	s3,0
    40b8:	4b41                	li	s6,16
    40ba:	cc4a0a13          	addi	s4,s4,-828 # 20002cc4 <Dev>
    40be:	00f4f793          	andi	a5,s1,15
    40c2:	40fb07b3          	sub	a5,s6,a5
    40c6:	07c2                	slli	a5,a5,0x10
    40c8:	83c1                	srli	a5,a5,0x10
    40ca:	8922                	mv	s2,s0
    40cc:	0087f363          	bgeu	a5,s0,40d2 <eEEPROMWrFast+0x3c>
    40d0:	893e                	mv	s2,a5
    40d2:	024a2783          	lw	a5,36(s4)
    40d6:	0942                	slli	s2,s2,0x10
    40d8:	01095913          	srli	s2,s2,0x10
    40dc:	013a8633          	add	a2,s5,s3
    40e0:	85a6                	mv	a1,s1
    40e2:	86ca                	mv	a3,s2
    40e4:	0a000513          	li	a0,160
    40e8:	41240433          	sub	s0,s0,s2
    40ec:	9782                	jalr	a5
    40ee:	99ca                	add	s3,s3,s2
    40f0:	0442                	slli	s0,s0,0x10
    40f2:	94ca                	add	s1,s1,s2
    40f4:	4515                	li	a0,5
    40f6:	09c2                	slli	s3,s3,0x10
    40f8:	04c2                	slli	s1,s1,0x10
    40fa:	8041                	srli	s0,s0,0x10
    40fc:	387020ef          	jal	ra,6c82 <vTaskDelay>
    4100:	0109d993          	srli	s3,s3,0x10
    4104:	796010ef          	jal	ra,589a <HAL_WDTReset>
    4108:	80c1                	srli	s1,s1,0x10
    410a:	f855                	bnez	s0,40be <eEEPROMWrFast+0x28>
    410c:	4501                	li	a0,0
    410e:	c2afc06f          	j	538 <__riscv_restore_4>
    4112:	4509                	li	a0,2
    4114:	8082                	ret

00004116 <eEEPROMWr>:
    4116:	6785                	lui	a5,0x1
    4118:	00c50733          	add	a4,a0,a2
    411c:	80078793          	addi	a5,a5,-2048 # 800 <vCanOpenPeriodicProcess+0x5a>
    4120:	08e7c263          	blt	a5,a4,41a4 <eEEPROMWr+0x8e>
    4124:	bd2fc2ef          	jal	t0,4f6 <__riscv_save_10>
    4128:	84aa                	mv	s1,a0
    412a:	1141                	addi	sp,sp,-16
    412c:	8432                	mv	s0,a2
    412e:	4509                	li	a0,2
    4130:	c63d                	beqz	a2,419e <eEEPROMWr+0x88>
    4132:	200039b7          	lui	s3,0x20003
    4136:	8a2e                	mv	s4,a1
    4138:	8ab6                	mv	s5,a3
    413a:	4b81                	li	s7,0
    413c:	4b41                	li	s6,16
    413e:	cc498993          	addi	s3,s3,-828 # 20002cc4 <Dev>
    4142:	00f4f793          	andi	a5,s1,15
    4146:	40fb07b3          	sub	a5,s6,a5
    414a:	07c2                	slli	a5,a5,0x10
    414c:	83c1                	srli	a5,a5,0x10
    414e:	8922                	mv	s2,s0
    4150:	0087f363          	bgeu	a5,s0,4156 <eEEPROMWr+0x40>
    4154:	893e                	mv	s2,a5
    4156:	0942                	slli	s2,s2,0x10
    4158:	01095913          	srli	s2,s2,0x10
    415c:	4c19                	li	s8,6
    415e:	017a0cb3          	add	s9,s4,s7
    4162:	0209a803          	lw	a6,32(s3)
    4166:	87d6                	mv	a5,s5
    4168:	4729                	li	a4,10
    416a:	86ca                	mv	a3,s2
    416c:	8666                	mv	a2,s9
    416e:	85a6                	mv	a1,s1
    4170:	0a000513          	li	a0,160
    4174:	9802                	jalr	a6
    4176:	c901                	beqz	a0,4186 <eEEPROMWr+0x70>
    4178:	c62a                	sw	a0,12(sp)
    417a:	1c7d                	addi	s8,s8,-1
    417c:	71e010ef          	jal	ra,589a <HAL_WDTReset>
    4180:	4532                	lw	a0,12(sp)
    4182:	fe0c10e3          	bnez	s8,4162 <eEEPROMWr+0x4c>
    4186:	41240433          	sub	s0,s0,s2
    418a:	9bca                	add	s7,s7,s2
    418c:	0442                	slli	s0,s0,0x10
    418e:	94ca                	add	s1,s1,s2
    4190:	0bc2                	slli	s7,s7,0x10
    4192:	04c2                	slli	s1,s1,0x10
    4194:	8041                	srli	s0,s0,0x10
    4196:	010bdb93          	srli	s7,s7,0x10
    419a:	80c1                	srli	s1,s1,0x10
    419c:	f05d                	bnez	s0,4142 <eEEPROMWr+0x2c>
    419e:	0141                	addi	sp,sp,16
    41a0:	b8efc06f          	j	52e <__riscv_restore_10>
    41a4:	4509                	li	a0,2
    41a6:	8082                	ret

000041a8 <eEEPROMRd>:
    41a8:	6785                	lui	a5,0x1
    41aa:	00c50733          	add	a4,a0,a2
    41ae:	80078793          	addi	a5,a5,-2048 # 800 <vCanOpenPeriodicProcess+0x5a>
    41b2:	02e7c363          	blt	a5,a4,41d8 <eEEPROMRd+0x30>
    41b6:	b68fc2ef          	jal	t0,51e <__riscv_save_0>
    41ba:	20003737          	lui	a4,0x20003
    41be:	ce072803          	lw	a6,-800(a4) # 20002ce0 <Dev+0x1c>
    41c2:	87b6                	mv	a5,a3
    41c4:	06400713          	li	a4,100
    41c8:	86b2                	mv	a3,a2
    41ca:	862e                	mv	a2,a1
    41cc:	85aa                	mv	a1,a0
    41ce:	0a000513          	li	a0,160
    41d2:	9802                	jalr	a6
    41d4:	b6efc06f          	j	542 <__riscv_restore_0>
    41d8:	4509                	li	a0,2
    41da:	8082                	ret

000041dc <bReadEEPROM>:
    41dc:	b42fc2ef          	jal	t0,51e <__riscv_save_0>
    41e0:	1141                	addi	sp,sp,-16
    41e2:	86ae                	mv	a3,a1
    41e4:	4605                	li	a2,1
    41e6:	00f10593          	addi	a1,sp,15
    41ea:	fbfff0ef          	jal	ra,41a8 <eEEPROMRd>
    41ee:	8788                	lbu	a0,15(sp)
    41f0:	0141                	addi	sp,sp,16
    41f2:	b50fc06f          	j	542 <__riscv_restore_0>

000041f6 <Get_ConversionVal>:
    41f6:	200007b7          	lui	a5,0x20000
    41fa:	68879703          	lh	a4,1672(a5) # 20000688 <Calibrattion_Val>
    41fe:	4781                	li	a5,0
    4200:	972a                	add	a4,a4,a0
    4202:	00074f63          	bltz	a4,4220 <Get_ConversionVal+0x2a>
    4206:	cd09                	beqz	a0,4220 <Get_ConversionVal+0x2a>
    4208:	6605                	lui	a2,0x1
    420a:	fff60693          	addi	a3,a2,-1 # fff <IncMenuIndex+0x33>
    420e:	87b6                	mv	a5,a3
    4210:	00c75863          	bge	a4,a2,4220 <Get_ConversionVal+0x2a>
    4214:	87aa                	mv	a5,a0
    4216:	00d50563          	beq	a0,a3,4220 <Get_ConversionVal+0x2a>
    421a:	01071793          	slli	a5,a4,0x10
    421e:	83c1                	srli	a5,a5,0x10
    4220:	853e                	mv	a0,a5
    4222:	8082                	ret

00004224 <HAL_ADC_RegularChannelConfig>:
    4224:	478d                	li	a5,3
    4226:	02f587b3          	mul	a5,a1,a5
    422a:	01052803          	lw	a6,16(a0)
    422e:	471d                	li	a4,7
    4230:	00f71733          	sll	a4,a4,a5
    4234:	fff74713          	not	a4,a4
    4238:	00f696b3          	sll	a3,a3,a5
    423c:	01077733          	and	a4,a4,a6
    4240:	8ed9                	or	a3,a3,a4
    4242:	c914                	sw	a3,16(a0)
    4244:	4799                	li	a5,6
    4246:	02c7e163          	bltu	a5,a2,4268 <HAL_ADC_RegularChannelConfig+0x44>
    424a:	4795                	li	a5,5
    424c:	167d                	addi	a2,a2,-1
    424e:	02f60633          	mul	a2,a2,a5
    4252:	5958                	lw	a4,52(a0)
    4254:	47fd                	li	a5,31
    4256:	00c797b3          	sll	a5,a5,a2
    425a:	fff7c793          	not	a5,a5
    425e:	8ff9                	and	a5,a5,a4
    4260:	00c59633          	sll	a2,a1,a2
    4264:	8fd1                	or	a5,a5,a2
    4266:	d95c                	sw	a5,52(a0)
    4268:	8082                	ret

0000426a <HAL_ADC_ContiniusScanCinvertionDMA>:
    426a:	a9afc2ef          	jal	t0,504 <__riscv_save_4>
    426e:	892e                	mv	s2,a1
    4270:	89b2                	mv	s3,a2
    4272:	ed19                	bnez	a0,4290 <HAL_ADC_ContiniusScanCinvertionDMA+0x26>
    4274:	400217b7          	lui	a5,0x40021
    4278:	4f98                	lw	a4,24(a5)
    427a:	20076713          	ori	a4,a4,512
    427e:	cf98                	sw	a4,24(a5)
    4280:	47d8                	lw	a4,12(a5)
    4282:	20076713          	ori	a4,a4,512
    4286:	c7d8                	sw	a4,12(a5)
    4288:	47d8                	lw	a4,12(a5)
    428a:	dff77713          	andi	a4,a4,-513
    428e:	c7d8                	sw	a4,12(a5)
    4290:	400216b7          	lui	a3,0x40021
    4294:	42dc                	lw	a5,4(a3)
    4296:	7751                	lui	a4,0xffff4
    4298:	177d                	addi	a4,a4,-1
    429a:	8ff9                	and	a5,a5,a4
    429c:	6731                	lui	a4,0xc
    429e:	8fd9                	or	a5,a5,a4
    42a0:	c2dc                	sw	a5,4(a3)
    42a2:	00251793          	slli	a5,a0,0x2
    42a6:	85c18513          	addi	a0,gp,-1956 # 20000604 <ADCS>
    42aa:	953e                	add	a0,a0,a5
    42ac:	4100                	lw	s0,0(a0)
    42ae:	10000793          	li	a5,256
    42b2:	64b5                	lui	s1,0xd
    42b4:	c05c                	sw	a5,4(s0)
    42b6:	000e07b7          	lui	a5,0xe0
    42ba:	0789                	addi	a5,a5,2
    42bc:	c41c                	sw	a5,8(s0)
    42be:	004007b7          	lui	a5,0x400
    42c2:	d45c                	sw	a5,44(s0)
    42c4:	b8048493          	addi	s1,s1,-1152 # cb80 <ADC_chennel_ref>
    42c8:	4781                	li	a5,0
    42ca:	06f91363          	bne	s2,a5,4330 <HAL_ADC_ContiniusScanCinvertionDMA+0xc6>
    42ce:	441c                	lw	a5,8(s0)
    42d0:	00100737          	lui	a4,0x100
    42d4:	8fd9                	or	a5,a5,a4
    42d6:	c41c                	sw	a5,8(s0)
    42d8:	441c                	lw	a5,8(s0)
    42da:	fc000737          	lui	a4,0xfc000
    42de:	177d                	addi	a4,a4,-1
    42e0:	1007e793          	ori	a5,a5,256
    42e4:	c41c                	sw	a5,8(s0)
    42e6:	441c                	lw	a5,8(s0)
    42e8:	0017e793          	ori	a5,a5,1
    42ec:	c41c                	sw	a5,8(s0)
    42ee:	405c                	lw	a5,4(s0)
    42f0:	8ff9                	and	a5,a5,a4
    42f2:	c05c                	sw	a5,4(s0)
    42f4:	441c                	lw	a5,8(s0)
    42f6:	0087e793          	ori	a5,a5,8
    42fa:	c41c                	sw	a5,8(s0)
    42fc:	8522                	mv	a0,s0
    42fe:	978ff0ef          	jal	ra,3476 <ADC_GetResetCalibrationStatus>
    4302:	fd6d                	bnez	a0,42fc <HAL_ADC_ContiniusScanCinvertionDMA+0x92>
    4304:	441c                	lw	a5,8(s0)
    4306:	0047e793          	ori	a5,a5,4
    430a:	c41c                	sw	a5,8(s0)
    430c:	8522                	mv	a0,s0
    430e:	970ff0ef          	jal	ra,347e <ADC_GetCalibrationStatus>
    4312:	fd6d                	bnez	a0,430c <HAL_ADC_ContiniusScanCinvertionDMA+0xa2>
    4314:	8522                	mv	a0,s0
    4316:	970ff0ef          	jal	ra,3486 <Get_CalibrationValue>
    431a:	200007b7          	lui	a5,0x20000
    431e:	68a79423          	sh	a0,1672(a5) # 20000688 <Calibrattion_Val>
    4322:	405c                	lw	a5,4(s0)
    4324:	04000737          	lui	a4,0x4000
    4328:	8fd9                	or	a5,a5,a4
    432a:	c05c                	sw	a5,4(s0)
    432c:	a0cfc06f          	j	538 <__riscv_restore_4>
    4330:	00178a13          	addi	s4,a5,1
    4334:	97ce                	add	a5,a5,s3
    4336:	239c                	lbu	a5,0(a5)
    4338:	469d                	li	a3,7
    433a:	0ffa7613          	andi	a2,s4,255
    433e:	97a6                	add	a5,a5,s1
    4340:	238c                	lbu	a1,0(a5)
    4342:	8522                	mv	a0,s0
    4344:	ee1ff0ef          	jal	ra,4224 <HAL_ADC_RegularChannelConfig>
    4348:	87d2                	mv	a5,s4
    434a:	b741                	j	42ca <HAL_ADC_ContiniusScanCinvertionDMA+0x60>

0000434c <HAL_ADC_StartDMA>:
    434c:	9d2fc2ef          	jal	t0,51e <__riscv_save_0>
    4350:	84aa                	mv	s1,a0
    4352:	254d                	jal	49f4 <HAL_DMA_SetCounter>
    4354:	40012737          	lui	a4,0x40012
    4358:	40872783          	lw	a5,1032(a4) # 40012408 <__freertos_irq_stack_top+0x2000d408>
    435c:	4589                	li	a1,2
    435e:	8526                	mv	a0,s1
    4360:	1007e793          	ori	a5,a5,256
    4364:	40f72423          	sw	a5,1032(a4)
    4368:	57f5                	li	a5,-3
    436a:	40f72023          	sw	a5,1024(a4)
    436e:	40070413          	addi	s0,a4,1024
    4372:	2d51                	jal	4a06 <HAL_DMA_ITENABLE>
    4374:	8526                	mv	a0,s1
    4376:	2b69                	jal	4910 <HAL_DMA_Enable>
    4378:	441c                	lw	a5,8(s0)
    437a:	00500737          	lui	a4,0x500
    437e:	0017e793          	ori	a5,a5,1
    4382:	c41c                	sw	a5,8(s0)
    4384:	441c                	lw	a5,8(s0)
    4386:	8fd9                	or	a5,a5,a4
    4388:	c41c                	sw	a5,8(s0)
    438a:	9b8fc06f          	j	542 <__riscv_restore_0>

0000438e <HAL_CANSetTXCallback>:
    438e:	200037b7          	lui	a5,0x20003
    4392:	cea7a823          	sw	a0,-784(a5) # 20002cf0 <CAN+0x4>
    4396:	8082                	ret

00004398 <HAL_CANSetRXCallback>:
    4398:	200037b7          	lui	a5,0x20003
    439c:	cea7a623          	sw	a0,-788(a5) # 20002cec <CAN>
    43a0:	8082                	ret

000043a2 <HAL_CANSetERRCallback>:
    43a2:	200037b7          	lui	a5,0x20003
    43a6:	cea7aa23          	sw	a0,-780(a5) # 20002cf4 <CAN+0x8>
    43aa:	8082                	ret

000043ac <HAL_CANIntIT>:
    43ac:	400217b7          	lui	a5,0x40021
    43b0:	4fd4                	lw	a3,28(a5)
    43b2:	02000837          	lui	a6,0x2000
    43b6:	0106e6b3          	or	a3,a3,a6
    43ba:	cfd4                	sw	a3,28(a5)
    43bc:	4b98                	lw	a4,16(a5)
    43be:	fe0006b7          	lui	a3,0xfe000
    43c2:	16fd                	addi	a3,a3,-1
    43c4:	01076733          	or	a4,a4,a6
    43c8:	cb98                	sw	a4,16(a5)
    43ca:	4b98                	lw	a4,16(a5)
    43cc:	8f75                	and	a4,a4,a3
    43ce:	cb98                	sw	a4,16(a5)
    43d0:	06400793          	li	a5,100
    43d4:	4751                	li	a4,20
    43d6:	02f50563          	beq	a0,a5,4400 <HAL_CANIntIT+0x54>
    43da:	0ea7e763          	bltu	a5,a0,44c8 <HAL_CANIntIT+0x11c>
    43de:	47d1                	li	a5,20
    43e0:	12c00713          	li	a4,300
    43e4:	00f50e63          	beq	a0,a5,4400 <HAL_CANIntIT+0x54>
    43e8:	03200793          	li	a5,50
    43ec:	07800713          	li	a4,120
    43f0:	00f50863          	beq	a0,a5,4400 <HAL_CANIntIT+0x54>
    43f4:	47a9                	li	a5,10
    43f6:	25800713          	li	a4,600
    43fa:	00f50363          	beq	a0,a5,4400 <HAL_CANIntIT+0x54>
    43fe:	4741                	li	a4,16
    4400:	400067b7          	lui	a5,0x40006
    4404:	4007a683          	lw	a3,1024(a5) # 40006400 <__freertos_irq_stack_top+0x20001400>
    4408:	6541                	lui	a0,0x10
    440a:	9af5                	andi	a3,a3,-3
    440c:	40d7a023          	sw	a3,1024(a5)
    4410:	4007a683          	lw	a3,1024(a5)
    4414:	0016e693          	ori	a3,a3,1
    4418:	40d7a023          	sw	a3,1024(a5)
    441c:	40078693          	addi	a3,a5,1024
    4420:	42dc                	lw	a5,4(a3)
    4422:	8b85                	andi	a5,a5,1
    4424:	e399                	bnez	a5,442a <HAL_CANIntIT+0x7e>
    4426:	157d                	addi	a0,a0,-1
    4428:	fd65                	bnez	a0,4420 <HAL_CANIntIT+0x74>
    442a:	42c8                	lw	a0,4(a3)
    442c:	400067b7          	lui	a5,0x40006
    4430:	8905                	andi	a0,a0,1
    4432:	c94d                	beqz	a0,44e4 <HAL_CANIntIT+0x138>
    4434:	4007a503          	lw	a0,1024(a5) # 40006400 <__freertos_irq_stack_top+0x20001400>
    4438:	177d                	addi	a4,a4,-1
    443a:	40078793          	addi	a5,a5,1024
    443e:	f7f57513          	andi	a0,a0,-129
    4442:	c388                	sw	a0,0(a5)
    4444:	4388                	lw	a0,0(a5)
    4446:	04056513          	ori	a0,a0,64
    444a:	c388                	sw	a0,0(a5)
    444c:	4388                	lw	a0,0(a5)
    444e:	fdf57513          	andi	a0,a0,-33
    4452:	c388                	sw	a0,0(a5)
    4454:	4388                	lw	a0,0(a5)
    4456:	01056513          	ori	a0,a0,16
    445a:	c388                	sw	a0,0(a5)
    445c:	4388                	lw	a0,0(a5)
    445e:	995d                	andi	a0,a0,-9
    4460:	c388                	sw	a0,0(a5)
    4462:	4388                	lw	a0,0(a5)
    4464:	996d                	andi	a0,a0,-5
    4466:	c388                	sw	a0,0(a5)
    4468:	034b0537          	lui	a0,0x34b0
    446c:	8f49                	or	a4,a4,a0
    446e:	ced8                	sw	a4,28(a3)
    4470:	4398                	lw	a4,0(a5)
    4472:	9b79                	andi	a4,a4,-2
    4474:	c398                	sw	a4,0(a5)
    4476:	6741                	lui	a4,0x10
    4478:	43d4                	lw	a3,4(a5)
    447a:	8a85                	andi	a3,a3,1
    447c:	c299                	beqz	a3,4482 <HAL_CANIntIT+0xd6>
    447e:	177d                	addi	a4,a4,-1
    4480:	ff65                	bnez	a4,4478 <HAL_CANIntIT+0xcc>
    4482:	43d8                	lw	a4,4(a5)
    4484:	8b05                	andi	a4,a4,1
    4486:	ef39                	bnez	a4,44e4 <HAL_CANIntIT+0x138>
    4488:	896fc2ef          	jal	t0,51e <__riscv_save_0>
    448c:	4bd8                	lw	a4,20(a5)
    448e:	02400513          	li	a0,36
    4492:	842e                	mv	s0,a1
    4494:	41376713          	ori	a4,a4,1043
    4498:	cbd8                	sw	a4,20(a5)
    449a:	84b2                	mv	s1,a2
    449c:	60b000ef          	jal	ra,52a6 <PFIC_IRQ_ENABLE_PG1>
    44a0:	8626                	mv	a2,s1
    44a2:	85a2                	mv	a1,s0
    44a4:	02500513          	li	a0,37
    44a8:	5ff000ef          	jal	ra,52a6 <PFIC_IRQ_ENABLE_PG1>
    44ac:	8626                	mv	a2,s1
    44ae:	85a2                	mv	a1,s0
    44b0:	02300513          	li	a0,35
    44b4:	5f3000ef          	jal	ra,52a6 <PFIC_IRQ_ENABLE_PG1>
    44b8:	8626                	mv	a2,s1
    44ba:	85a2                	mv	a1,s0
    44bc:	02600513          	li	a0,38
    44c0:	5e7000ef          	jal	ra,52a6 <PFIC_IRQ_ENABLE_PG1>
    44c4:	87efc06f          	j	542 <__riscv_restore_0>
    44c8:	1f400793          	li	a5,500
    44cc:	4711                	li	a4,4
    44ce:	f2f509e3          	beq	a0,a5,4400 <HAL_CANIntIT+0x54>
    44d2:	3e800793          	li	a5,1000
    44d6:	4709                	li	a4,2
    44d8:	f2f504e3          	beq	a0,a5,4400 <HAL_CANIntIT+0x54>
    44dc:	0fa00793          	li	a5,250
    44e0:	4721                	li	a4,8
    44e2:	bf21                	j	43fa <HAL_CANIntIT+0x4e>
    44e4:	8082                	ret

000044e6 <HAL_CANToInitMode>:
    44e6:	400067b7          	lui	a5,0x40006
    44ea:	4007a703          	lw	a4,1024(a5) # 40006400 <__freertos_irq_stack_top+0x20001400>
    44ee:	4605                	li	a2,1
    44f0:	40078793          	addi	a5,a5,1024
    44f4:	9b71                	andi	a4,a4,-4
    44f6:	00176713          	ori	a4,a4,1
    44fa:	c398                	sw	a4,0(a5)
    44fc:	6741                	lui	a4,0x10
    44fe:	43d4                	lw	a3,4(a5)
    4500:	8a8d                	andi	a3,a3,3
    4502:	00c68463          	beq	a3,a2,450a <HAL_CANToInitMode+0x24>
    4506:	177d                	addi	a4,a4,-1
    4508:	fb7d                	bnez	a4,44fe <HAL_CANToInitMode+0x18>
    450a:	43c8                	lw	a0,4(a5)
    450c:	890d                	andi	a0,a0,3
    450e:	157d                	addi	a0,a0,-1
    4510:	00153513          	seqz	a0,a0
    4514:	8082                	ret

00004516 <HAL_CANToOperatingMode>:
    4516:	400067b7          	lui	a5,0x40006
    451a:	4007a703          	lw	a4,1024(a5) # 40006400 <__freertos_irq_stack_top+0x20001400>
    451e:	40078793          	addi	a5,a5,1024
    4522:	9b71                	andi	a4,a4,-4
    4524:	c398                	sw	a4,0(a5)
    4526:	6741                	lui	a4,0x10
    4528:	43d4                	lw	a3,4(a5)
    452a:	8a8d                	andi	a3,a3,3
    452c:	c299                	beqz	a3,4532 <HAL_CANToOperatingMode+0x1c>
    452e:	177d                	addi	a4,a4,-1
    4530:	ff65                	bnez	a4,4528 <HAL_CANToOperatingMode+0x12>
    4532:	43c8                	lw	a0,4(a5)
    4534:	890d                	andi	a0,a0,3
    4536:	00153513          	seqz	a0,a0
    453a:	8082                	ret

0000453c <HAL_CANSend>:
    453c:	fe3fb2ef          	jal	t0,51e <__riscv_save_0>
    4540:	2144                	lbu	s1,4(a0)
    4542:	1141                	addi	sp,sp,-16
    4544:	4100                	lw	s0,0(a0)
    4546:	00550593          	addi	a1,a0,5 # 34b0005 <_data_lma+0x34a2509>
    454a:	8626                	mv	a2,s1
    454c:	0028                	addi	a0,sp,8
    454e:	7fd060ef          	jal	ra,b54a <memcpy>
    4552:	400067b7          	lui	a5,0x40006
    4556:	4087a703          	lw	a4,1032(a5) # 40006408 <__freertos_irq_stack_top+0x20001408>
    455a:	00e45913          	srli	s2,s0,0xe
    455e:	00297913          	andi	s2,s2,2
    4562:	00571693          	slli	a3,a4,0x5
    4566:	0606ce63          	bltz	a3,45e2 <HAL_CANSend+0xa6>
    456a:	40078793          	addi	a5,a5,1024
    456e:	4798                	lw	a4,8(a5)
    4570:	00471693          	slli	a3,a4,0x4
    4574:	0606c963          	bltz	a3,45e6 <HAL_CANSend+0xaa>
    4578:	479c                	lw	a5,8(a5)
    457a:	4511                	li	a0,4
    457c:	00379713          	slli	a4,a5,0x3
    4580:	04075e63          	bgez	a4,45dc <HAL_CANSend+0xa0>
    4584:	4509                	li	a0,2
    4586:	40006737          	lui	a4,0x40006
    458a:	40070713          	addi	a4,a4,1024 # 40006400 <__freertos_irq_stack_top+0x20001400>
    458e:	00451793          	slli	a5,a0,0x4
    4592:	97ba                	add	a5,a5,a4
    4594:	1807a703          	lw	a4,384(a5)
    4598:	0456                	slli	s0,s0,0x15
    459a:	01246433          	or	s0,s0,s2
    459e:	8b05                	andi	a4,a4,1
    45a0:	18e7a023          	sw	a4,384(a5)
    45a4:	1807a703          	lw	a4,384(a5)
    45a8:	88bd                	andi	s1,s1,15
    45aa:	8c59                	or	s0,s0,a4
    45ac:	1887a023          	sw	s0,384(a5)
    45b0:	1847a703          	lw	a4,388(a5)
    45b4:	9b41                	andi	a4,a4,-16
    45b6:	18e7a223          	sw	a4,388(a5)
    45ba:	1847a703          	lw	a4,388(a5)
    45be:	8cd9                	or	s1,s1,a4
    45c0:	4722                	lw	a4,8(sp)
    45c2:	1897a223          	sw	s1,388(a5)
    45c6:	18e7a423          	sw	a4,392(a5)
    45ca:	4732                	lw	a4,12(sp)
    45cc:	18e7a623          	sw	a4,396(a5)
    45d0:	1807a703          	lw	a4,384(a5)
    45d4:	00176713          	ori	a4,a4,1
    45d8:	18e7a023          	sw	a4,384(a5)
    45dc:	0141                	addi	sp,sp,16
    45de:	f65fb06f          	j	542 <__riscv_restore_0>
    45e2:	4501                	li	a0,0
    45e4:	b74d                	j	4586 <HAL_CANSend+0x4a>
    45e6:	4505                	li	a0,1
    45e8:	bf79                	j	4586 <HAL_CANSend+0x4a>

000045ea <HAL_CANSetFiters>:
    45ea:	400068b7          	lui	a7,0x40006
    45ee:	40088813          	addi	a6,a7,1024 # 40006400 <__freertos_irq_stack_top+0x20001400>
    45f2:	20082e03          	lw	t3,512(a6) # 2000200 <_data_lma+0x1ff2704>
    45f6:	4305                	li	t1,1
    45f8:	00a31333          	sll	t1,t1,a0
    45fc:	001e6e13          	ori	t3,t3,1
    4600:	21c82023          	sw	t3,512(a6)
    4604:	21c82e83          	lw	t4,540(a6)
    4608:	fff34e13          	not	t3,t1
    460c:	0596                	slli	a1,a1,0x5
    460e:	01cefeb3          	and	t4,t4,t3
    4612:	21d82e23          	sw	t4,540(a6)
    4616:	20c82e83          	lw	t4,524(a6)
    461a:	05c2                	slli	a1,a1,0x10
    461c:	0696                	slli	a3,a3,0x5
    461e:	01de7eb3          	and	t4,t3,t4
    4622:	0656                	slli	a2,a2,0x15
    4624:	81c1                	srli	a1,a1,0x10
    4626:	050e                	slli	a0,a0,0x3
    4628:	06c2                	slli	a3,a3,0x10
    462a:	21d82623          	sw	t4,524(a6)
    462e:	9542                	add	a0,a0,a6
    4630:	82c1                	srli	a3,a3,0x10
    4632:	8e4d                	or	a2,a2,a1
    4634:	0756                	slli	a4,a4,0x15
    4636:	8f55                	or	a4,a4,a3
    4638:	24c52023          	sw	a2,576(a0)
    463c:	24e52223          	sw	a4,580(a0)
    4640:	40022737          	lui	a4,0x40022
    4644:	5b14                	lw	a3,48(a4)
    4646:	0f000737          	lui	a4,0xf000
    464a:	8f75                	and	a4,a4,a3
    464c:	eb19                	bnez	a4,4662 <HAL_CANSetFiters+0x78>
    464e:	30088713          	addi	a4,a7,768
    4652:	2316                	lhu	a3,0(a4)
    4654:	0711                	addi	a4,a4,4
    4656:	06c2                	slli	a3,a3,0x10
    4658:	82c1                	srli	a3,a3,0x10
    465a:	eed71e23          	sh	a3,-260(a4) # efffefc <_data_lma+0xeff2400>
    465e:	ff071ae3          	bne	a4,a6,4652 <HAL_CANSetFiters+0x68>
    4662:	40006737          	lui	a4,0x40006
    4666:	40070713          	addi	a4,a4,1024 # 40006400 <__freertos_irq_stack_top+0x20001400>
    466a:	20472683          	lw	a3,516(a4)
    466e:	0066e6b3          	or	a3,a3,t1
    4672:	20d72223          	sw	a3,516(a4)
    4676:	e78d                	bnez	a5,46a0 <HAL_CANSetFiters+0xb6>
    4678:	21472783          	lw	a5,532(a4)
    467c:	00fe7e33          	and	t3,t3,a5
    4680:	21c72a23          	sw	t3,532(a4)
    4684:	400067b7          	lui	a5,0x40006
    4688:	61c7a703          	lw	a4,1564(a5) # 4000661c <__freertos_irq_stack_top+0x2000161c>
    468c:	00676333          	or	t1,a4,t1
    4690:	6067ae23          	sw	t1,1564(a5)
    4694:	6007a703          	lw	a4,1536(a5)
    4698:	9b79                	andi	a4,a4,-2
    469a:	60e7a023          	sw	a4,1536(a5)
    469e:	8082                	ret
    46a0:	21472783          	lw	a5,532(a4)
    46a4:	0067e7b3          	or	a5,a5,t1
    46a8:	20f72a23          	sw	a5,532(a4)
    46ac:	bfe1                	j	4684 <HAL_CANSetFiters+0x9a>

000046ae <HAL_CANGetRXMessage>:
    46ae:	40006737          	lui	a4,0x40006
    46b2:	00451793          	slli	a5,a0,0x4
    46b6:	40070713          	addi	a4,a4,1024 # 40006400 <__freertos_irq_stack_top+0x20001400>
    46ba:	97ba                	add	a5,a5,a4
    46bc:	1b07a683          	lw	a3,432(a5)
    46c0:	0046f613          	andi	a2,a3,4
    46c4:	ea59                	bnez	a2,475a <HAL_CANGetRXMessage+0xac>
    46c6:	1b07a683          	lw	a3,432(a5)
    46ca:	1b07a803          	lw	a6,432(a5)
    46ce:	1b47a883          	lw	a7,436(a5)
    46d2:	82d5                	srli	a3,a3,0x15
    46d4:	00287813          	andi	a6,a6,2
    46d8:	00f8f893          	andi	a7,a7,15
    46dc:	01158223          	sb	a7,4(a1)
    46e0:	1b87a883          	lw	a7,440(a5)
    46e4:	011582a3          	sb	a7,5(a1)
    46e8:	1b87a883          	lw	a7,440(a5)
    46ec:	0088d893          	srli	a7,a7,0x8
    46f0:	01158323          	sb	a7,6(a1)
    46f4:	1b87a883          	lw	a7,440(a5)
    46f8:	0108d893          	srli	a7,a7,0x10
    46fc:	011583a3          	sb	a7,7(a1)
    4700:	1b87a883          	lw	a7,440(a5)
    4704:	0188d893          	srli	a7,a7,0x18
    4708:	01158423          	sb	a7,8(a1)
    470c:	1bc7a883          	lw	a7,444(a5)
    4710:	011584a3          	sb	a7,9(a1)
    4714:	1bc7a883          	lw	a7,444(a5)
    4718:	0088d893          	srli	a7,a7,0x8
    471c:	01158523          	sb	a7,10(a1)
    4720:	1bc7a883          	lw	a7,444(a5)
    4724:	0108d893          	srli	a7,a7,0x10
    4728:	011585a3          	sb	a7,11(a1)
    472c:	1bc7a783          	lw	a5,444(a5)
    4730:	83e1                	srli	a5,a5,0x18
    4732:	a5dc                	sb	a5,12(a1)
    4734:	ed11                	bnez	a0,4750 <HAL_CANGetRXMessage+0xa2>
    4736:	475c                	lw	a5,12(a4)
    4738:	0207e793          	ori	a5,a5,32
    473c:	c75c                	sw	a5,12(a4)
    473e:	00080363          	beqz	a6,4744 <HAL_CANGetRXMessage+0x96>
    4742:	6621                	lui	a2,0x8
    4744:	8ed1                	or	a3,a3,a2
    4746:	c194                	sw	a3,0(a1)
    4748:	00059723          	sh	zero,14(a1)
    474c:	4501                	li	a0,0
    474e:	8082                	ret
    4750:	4b1c                	lw	a5,16(a4)
    4752:	0207e793          	ori	a5,a5,32
    4756:	cb1c                	sw	a5,16(a4)
    4758:	b7dd                	j	473e <HAL_CANGetRXMessage+0x90>
    475a:	4505                	li	a0,1
    475c:	8082                	ret

0000475e <USB_HP_CAN1_TX_IRQHandler>:
    475e:	7139                	addi	sp,sp,-64
    4760:	ce3a                	sw	a4,28(sp)
    4762:	6741                	lui	a4,0x10
    4764:	cc3e                	sw	a5,24(sp)
    4766:	de06                	sw	ra,60(sp)
    4768:	dc16                	sw	t0,56(sp)
    476a:	da1a                	sw	t1,52(sp)
    476c:	d81e                	sw	t2,48(sp)
    476e:	d62a                	sw	a0,44(sp)
    4770:	d42e                	sw	a1,40(sp)
    4772:	d232                	sw	a2,36(sp)
    4774:	d036                	sw	a3,32(sp)
    4776:	ca42                	sw	a6,20(sp)
    4778:	c846                	sw	a7,16(sp)
    477a:	c672                	sw	t3,12(sp)
    477c:	c476                	sw	t4,8(sp)
    477e:	c27a                	sw	t5,4(sp)
    4780:	c07e                	sw	t6,0(sp)
    4782:	10170713          	addi	a4,a4,257 # 10101 <_data_lma+0x2605>
    4786:	400067b7          	lui	a5,0x40006
    478a:	40e7a423          	sw	a4,1032(a5) # 40006408 <__freertos_irq_stack_top+0x20001408>
    478e:	200037b7          	lui	a5,0x20003
    4792:	cf07a783          	lw	a5,-784(a5) # 20002cf0 <CAN+0x4>
    4796:	9782                	jalr	a5
    4798:	50f2                	lw	ra,60(sp)
    479a:	52e2                	lw	t0,56(sp)
    479c:	5352                	lw	t1,52(sp)
    479e:	53c2                	lw	t2,48(sp)
    47a0:	5532                	lw	a0,44(sp)
    47a2:	55a2                	lw	a1,40(sp)
    47a4:	5612                	lw	a2,36(sp)
    47a6:	5682                	lw	a3,32(sp)
    47a8:	4772                	lw	a4,28(sp)
    47aa:	47e2                	lw	a5,24(sp)
    47ac:	4852                	lw	a6,20(sp)
    47ae:	48c2                	lw	a7,16(sp)
    47b0:	4e32                	lw	t3,12(sp)
    47b2:	4ea2                	lw	t4,8(sp)
    47b4:	4f12                	lw	t5,4(sp)
    47b6:	4f82                	lw	t6,0(sp)
    47b8:	6121                	addi	sp,sp,64
    47ba:	30200073          	mret

000047be <USB_LP_CAN1_RX0_IRQHandler>:
    47be:	7139                	addi	sp,sp,-64
    47c0:	cc3e                	sw	a5,24(sp)
    47c2:	200037b7          	lui	a5,0x20003
    47c6:	cec7a783          	lw	a5,-788(a5) # 20002cec <CAN>
    47ca:	d62a                	sw	a0,44(sp)
    47cc:	ce3a                	sw	a4,28(sp)
    47ce:	de06                	sw	ra,60(sp)
    47d0:	dc16                	sw	t0,56(sp)
    47d2:	da1a                	sw	t1,52(sp)
    47d4:	d81e                	sw	t2,48(sp)
    47d6:	d42e                	sw	a1,40(sp)
    47d8:	d232                	sw	a2,36(sp)
    47da:	d036                	sw	a3,32(sp)
    47dc:	ca42                	sw	a6,20(sp)
    47de:	c846                	sw	a7,16(sp)
    47e0:	c672                	sw	t3,12(sp)
    47e2:	c476                	sw	t4,8(sp)
    47e4:	c27a                	sw	t5,4(sp)
    47e6:	c07e                	sw	t6,0(sp)
    47e8:	4501                	li	a0,0
    47ea:	9782                	jalr	a5
    47ec:	400067b7          	lui	a5,0x40006
    47f0:	4721                	li	a4,8
    47f2:	40e7a623          	sw	a4,1036(a5) # 4000640c <__freertos_irq_stack_top+0x2000140c>
    47f6:	50f2                	lw	ra,60(sp)
    47f8:	52e2                	lw	t0,56(sp)
    47fa:	5352                	lw	t1,52(sp)
    47fc:	53c2                	lw	t2,48(sp)
    47fe:	5532                	lw	a0,44(sp)
    4800:	55a2                	lw	a1,40(sp)
    4802:	5612                	lw	a2,36(sp)
    4804:	5682                	lw	a3,32(sp)
    4806:	4772                	lw	a4,28(sp)
    4808:	47e2                	lw	a5,24(sp)
    480a:	4852                	lw	a6,20(sp)
    480c:	48c2                	lw	a7,16(sp)
    480e:	4e32                	lw	t3,12(sp)
    4810:	4ea2                	lw	t4,8(sp)
    4812:	4f12                	lw	t5,4(sp)
    4814:	4f82                	lw	t6,0(sp)
    4816:	6121                	addi	sp,sp,64
    4818:	30200073          	mret

0000481c <CAN1_RX1_IRQHandler>:
    481c:	7139                	addi	sp,sp,-64
    481e:	cc3e                	sw	a5,24(sp)
    4820:	200037b7          	lui	a5,0x20003
    4824:	cec7a783          	lw	a5,-788(a5) # 20002cec <CAN>
    4828:	d62a                	sw	a0,44(sp)
    482a:	ce3a                	sw	a4,28(sp)
    482c:	de06                	sw	ra,60(sp)
    482e:	dc16                	sw	t0,56(sp)
    4830:	da1a                	sw	t1,52(sp)
    4832:	d81e                	sw	t2,48(sp)
    4834:	d42e                	sw	a1,40(sp)
    4836:	d232                	sw	a2,36(sp)
    4838:	d036                	sw	a3,32(sp)
    483a:	ca42                	sw	a6,20(sp)
    483c:	c846                	sw	a7,16(sp)
    483e:	c672                	sw	t3,12(sp)
    4840:	c476                	sw	t4,8(sp)
    4842:	c27a                	sw	t5,4(sp)
    4844:	c07e                	sw	t6,0(sp)
    4846:	4505                	li	a0,1
    4848:	9782                	jalr	a5
    484a:	400067b7          	lui	a5,0x40006
    484e:	4721                	li	a4,8
    4850:	40e7a823          	sw	a4,1040(a5) # 40006410 <__freertos_irq_stack_top+0x20001410>
    4854:	50f2                	lw	ra,60(sp)
    4856:	52e2                	lw	t0,56(sp)
    4858:	5352                	lw	t1,52(sp)
    485a:	53c2                	lw	t2,48(sp)
    485c:	5532                	lw	a0,44(sp)
    485e:	55a2                	lw	a1,40(sp)
    4860:	5612                	lw	a2,36(sp)
    4862:	5682                	lw	a3,32(sp)
    4864:	4772                	lw	a4,28(sp)
    4866:	47e2                	lw	a5,24(sp)
    4868:	4852                	lw	a6,20(sp)
    486a:	48c2                	lw	a7,16(sp)
    486c:	4e32                	lw	t3,12(sp)
    486e:	4ea2                	lw	t4,8(sp)
    4870:	4f12                	lw	t5,4(sp)
    4872:	4f82                	lw	t6,0(sp)
    4874:	6121                	addi	sp,sp,64
    4876:	30200073          	mret

0000487a <CAN1_SCE_IRQHandler>:
    487a:	7139                	addi	sp,sp,-64
    487c:	ce3a                	sw	a4,28(sp)
    487e:	cc3e                	sw	a5,24(sp)
    4880:	de06                	sw	ra,60(sp)
    4882:	dc16                	sw	t0,56(sp)
    4884:	da1a                	sw	t1,52(sp)
    4886:	d81e                	sw	t2,48(sp)
    4888:	d62a                	sw	a0,44(sp)
    488a:	d42e                	sw	a1,40(sp)
    488c:	d232                	sw	a2,36(sp)
    488e:	d036                	sw	a3,32(sp)
    4890:	ca42                	sw	a6,20(sp)
    4892:	c846                	sw	a7,16(sp)
    4894:	c672                	sw	t3,12(sp)
    4896:	c476                	sw	t4,8(sp)
    4898:	c27a                	sw	t5,4(sp)
    489a:	c07e                	sw	t6,0(sp)
    489c:	4711                	li	a4,4
    489e:	400067b7          	lui	a5,0x40006
    48a2:	40e7a223          	sw	a4,1028(a5) # 40006404 <__freertos_irq_stack_top+0x20001404>
    48a6:	200037b7          	lui	a5,0x20003
    48aa:	cf47a783          	lw	a5,-780(a5) # 20002cf4 <CAN+0x8>
    48ae:	9782                	jalr	a5
    48b0:	50f2                	lw	ra,60(sp)
    48b2:	52e2                	lw	t0,56(sp)
    48b4:	5352                	lw	t1,52(sp)
    48b6:	53c2                	lw	t2,48(sp)
    48b8:	5532                	lw	a0,44(sp)
    48ba:	55a2                	lw	a1,40(sp)
    48bc:	5612                	lw	a2,36(sp)
    48be:	5682                	lw	a3,32(sp)
    48c0:	4772                	lw	a4,28(sp)
    48c2:	47e2                	lw	a5,24(sp)
    48c4:	4852                	lw	a6,20(sp)
    48c6:	48c2                	lw	a7,16(sp)
    48c8:	4e32                	lw	t3,12(sp)
    48ca:	4ea2                	lw	t4,8(sp)
    48cc:	4f12                	lw	t5,4(sp)
    48ce:	4f82                	lw	t6,0(sp)
    48d0:	6121                	addi	sp,sp,64
    48d2:	30200073          	mret

000048d6 <DMA_IRQ>:
    48d6:	c49fb2ef          	jal	t0,51e <__riscv_save_0>
    48da:	00251413          	slli	s0,a0,0x2
    48de:	4509                	li	a0,2
    48e0:	1141                	addi	sp,sp,-16
    48e2:	00851533          	sll	a0,a0,s0
    48e6:	dadfe0ef          	jal	ra,3692 <DMA_GetITStatus>
    48ea:	4785                	li	a5,1
    48ec:	00f51f63          	bne	a0,a5,490a <DMA_IRQ+0x34>
    48f0:	200037b7          	lui	a5,0x20003
    48f4:	cf878793          	addi	a5,a5,-776 # 20002cf8 <DMA_CALLback>
    48f8:	97a2                	add	a5,a5,s0
    48fa:	439c                	lw	a5,0(a5)
    48fc:	c62a                	sw	a0,12(sp)
    48fe:	9782                	jalr	a5
    4900:	4532                	lw	a0,12(sp)
    4902:	00851533          	sll	a0,a0,s0
    4906:	d99fe0ef          	jal	ra,369e <DMA_ClearITPendingBit>
    490a:	0141                	addi	sp,sp,16
    490c:	c37fb06f          	j	542 <__riscv_restore_0>

00004910 <HAL_DMA_Enable>:
    4910:	200007b7          	lui	a5,0x20000
    4914:	050a                	slli	a0,a0,0x2
    4916:	02078793          	addi	a5,a5,32 # 20000020 <DMACH>
    491a:	97aa                	add	a5,a5,a0
    491c:	4398                	lw	a4,0(a5)
    491e:	431c                	lw	a5,0(a4)
    4920:	0017e793          	ori	a5,a5,1
    4924:	c31c                	sw	a5,0(a4)
    4926:	8082                	ret

00004928 <HAL_DMA_Disable>:
    4928:	200007b7          	lui	a5,0x20000
    492c:	050a                	slli	a0,a0,0x2
    492e:	02078793          	addi	a5,a5,32 # 20000020 <DMACH>
    4932:	97aa                	add	a5,a5,a0
    4934:	4394                	lw	a3,0(a5)
    4936:	6741                	lui	a4,0x10
    4938:	1779                	addi	a4,a4,-2
    493a:	429c                	lw	a5,0(a3)
    493c:	8ff9                	and	a5,a5,a4
    493e:	c29c                	sw	a5,0(a3)
    4940:	8082                	ret

00004942 <HAL_DMAInitIT>:
    4942:	bddfb2ef          	jal	t0,51e <__riscv_save_0>
    4946:	40021e37          	lui	t3,0x40021
    494a:	014e2303          	lw	t1,20(t3) # 40021014 <__freertos_irq_stack_top+0x2001c014>
    494e:	1101                	addi	sp,sp,-32
    4950:	ce2e                	sw	a1,28(sp)
    4952:	cc32                	sw	a2,24(sp)
    4954:	ca36                	sw	a3,20(sp)
    4956:	c83a                	sw	a4,16(sp)
    4958:	c63e                	sw	a5,12(sp)
    495a:	c442                	sw	a6,8(sp)
    495c:	00136313          	ori	t1,t1,1
    4960:	006e2a23          	sw	t1,20(t3)
    4964:	20003337          	lui	t1,0x20003
    4968:	00251493          	slli	s1,a0,0x2
    496c:	cf830313          	addi	t1,t1,-776 # 20002cf8 <DMA_CALLback>
    4970:	9326                	add	t1,t1,s1
    4972:	01132023          	sw	a7,0(t1)
    4976:	842a                	mv	s0,a0
    4978:	fb1ff0ef          	jal	ra,4928 <HAL_DMA_Disable>
    497c:	20000537          	lui	a0,0x20000
    4980:	02050513          	addi	a0,a0,32 # 20000020 <DMACH>
    4984:	9526                	add	a0,a0,s1
    4986:	00052883          	lw	a7,0(a0)
    498a:	4662                	lw	a2,24(sp)
    498c:	7361                	lui	t1,0xffff8
    498e:	0008a503          	lw	a0,0(a7)
    4992:	033d                	addi	t1,t1,15
    4994:	4822                	lw	a6,8(sp)
    4996:	00657533          	and	a0,a0,t1
    499a:	47b2                	lw	a5,12(sp)
    499c:	4742                	lw	a4,16(sp)
    499e:	46d2                	lw	a3,20(sp)
    49a0:	45f2                	lw	a1,28(sp)
    49a2:	c611                	beqz	a2,49ae <HAL_DMAInitIT+0x6c>
    49a4:	4305                	li	t1,1
    49a6:	04661163          	bne	a2,t1,49e8 <HAL_DMAInitIT+0xa6>
    49aa:	50056513          	ori	a0,a0,1280
    49ae:	6305                	lui	t1,0x1
    49b0:	08030313          	addi	t1,t1,128 # 1080 <GetCurMenuHome+0x4>
    49b4:	8d4d                	or	a0,a0,a1
    49b6:	00656533          	or	a0,a0,t1
    49ba:	00a8a023          	sw	a0,0(a7)
    49be:	0008a223          	sw	zero,4(a7)
    49c2:	00d8a423          	sw	a3,8(a7)
    49c6:	00e8a623          	sw	a4,12(a7)
    49ca:	0008a703          	lw	a4,0(a7)
    49ce:	8642                	mv	a2,a6
    49d0:	85be                	mv	a1,a5
    49d2:	00276713          	ori	a4,a4,2
    49d6:	00e8a023          	sw	a4,0(a7)
    49da:	01b40513          	addi	a0,s0,27
    49de:	0c9000ef          	jal	ra,52a6 <PFIC_IRQ_ENABLE_PG1>
    49e2:	6105                	addi	sp,sp,32
    49e4:	b5ffb06f          	j	542 <__riscv_restore_0>
    49e8:	6305                	lui	t1,0x1
    49ea:	a0030313          	addi	t1,t1,-1536 # a00 <DataModel_Init+0x128>
    49ee:	00656533          	or	a0,a0,t1
    49f2:	bf75                	j	49ae <HAL_DMAInitIT+0x6c>

000049f4 <HAL_DMA_SetCounter>:
    49f4:	200007b7          	lui	a5,0x20000
    49f8:	050a                	slli	a0,a0,0x2
    49fa:	02078793          	addi	a5,a5,32 # 20000020 <DMACH>
    49fe:	97aa                	add	a5,a5,a0
    4a00:	439c                	lw	a5,0(a5)
    4a02:	c3cc                	sw	a1,4(a5)
    4a04:	8082                	ret

00004a06 <HAL_DMA_ITENABLE>:
    4a06:	200007b7          	lui	a5,0x20000
    4a0a:	050a                	slli	a0,a0,0x2
    4a0c:	02078793          	addi	a5,a5,32 # 20000020 <DMACH>
    4a10:	97aa                	add	a5,a5,a0
    4a12:	4398                	lw	a4,0(a5)
    4a14:	431c                	lw	a5,0(a4)
    4a16:	8ddd                	or	a1,a1,a5
    4a18:	c30c                	sw	a1,0(a4)
    4a1a:	8082                	ret

00004a1c <HAL_DMA_SetCouterAndEnable>:
    4a1c:	200007b7          	lui	a5,0x20000
    4a20:	050a                	slli	a0,a0,0x2
    4a22:	02078793          	addi	a5,a5,32 # 20000020 <DMACH>
    4a26:	97aa                	add	a5,a5,a0
    4a28:	439c                	lw	a5,0(a5)
    4a2a:	c3cc                	sw	a1,4(a5)
    4a2c:	4398                	lw	a4,0(a5)
    4a2e:	00176713          	ori	a4,a4,1
    4a32:	c398                	sw	a4,0(a5)
    4a34:	8082                	ret

00004a36 <DMA1_Channel1_IRQHandler>:
    4a36:	7139                	addi	sp,sp,-64
    4a38:	d62a                	sw	a0,44(sp)
    4a3a:	4501                	li	a0,0
    4a3c:	de06                	sw	ra,60(sp)
    4a3e:	dc16                	sw	t0,56(sp)
    4a40:	da1a                	sw	t1,52(sp)
    4a42:	d81e                	sw	t2,48(sp)
    4a44:	d42e                	sw	a1,40(sp)
    4a46:	d232                	sw	a2,36(sp)
    4a48:	d036                	sw	a3,32(sp)
    4a4a:	ce3a                	sw	a4,28(sp)
    4a4c:	cc3e                	sw	a5,24(sp)
    4a4e:	ca42                	sw	a6,20(sp)
    4a50:	c846                	sw	a7,16(sp)
    4a52:	c672                	sw	t3,12(sp)
    4a54:	c476                	sw	t4,8(sp)
    4a56:	c27a                	sw	t5,4(sp)
    4a58:	c07e                	sw	t6,0(sp)
    4a5a:	e7dff0ef          	jal	ra,48d6 <DMA_IRQ>
    4a5e:	50f2                	lw	ra,60(sp)
    4a60:	52e2                	lw	t0,56(sp)
    4a62:	5352                	lw	t1,52(sp)
    4a64:	53c2                	lw	t2,48(sp)
    4a66:	5532                	lw	a0,44(sp)
    4a68:	55a2                	lw	a1,40(sp)
    4a6a:	5612                	lw	a2,36(sp)
    4a6c:	5682                	lw	a3,32(sp)
    4a6e:	4772                	lw	a4,28(sp)
    4a70:	47e2                	lw	a5,24(sp)
    4a72:	4852                	lw	a6,20(sp)
    4a74:	48c2                	lw	a7,16(sp)
    4a76:	4e32                	lw	t3,12(sp)
    4a78:	4ea2                	lw	t4,8(sp)
    4a7a:	4f12                	lw	t5,4(sp)
    4a7c:	4f82                	lw	t6,0(sp)
    4a7e:	6121                	addi	sp,sp,64
    4a80:	30200073          	mret

00004a84 <DMA1_Channel3_IRQHandler>:
    4a84:	7139                	addi	sp,sp,-64
    4a86:	d62a                	sw	a0,44(sp)
    4a88:	4509                	li	a0,2
    4a8a:	de06                	sw	ra,60(sp)
    4a8c:	dc16                	sw	t0,56(sp)
    4a8e:	da1a                	sw	t1,52(sp)
    4a90:	d81e                	sw	t2,48(sp)
    4a92:	d42e                	sw	a1,40(sp)
    4a94:	d232                	sw	a2,36(sp)
    4a96:	d036                	sw	a3,32(sp)
    4a98:	ce3a                	sw	a4,28(sp)
    4a9a:	cc3e                	sw	a5,24(sp)
    4a9c:	ca42                	sw	a6,20(sp)
    4a9e:	c846                	sw	a7,16(sp)
    4aa0:	c672                	sw	t3,12(sp)
    4aa2:	c476                	sw	t4,8(sp)
    4aa4:	c27a                	sw	t5,4(sp)
    4aa6:	c07e                	sw	t6,0(sp)
    4aa8:	e2fff0ef          	jal	ra,48d6 <DMA_IRQ>
    4aac:	50f2                	lw	ra,60(sp)
    4aae:	52e2                	lw	t0,56(sp)
    4ab0:	5352                	lw	t1,52(sp)
    4ab2:	53c2                	lw	t2,48(sp)
    4ab4:	5532                	lw	a0,44(sp)
    4ab6:	55a2                	lw	a1,40(sp)
    4ab8:	5612                	lw	a2,36(sp)
    4aba:	5682                	lw	a3,32(sp)
    4abc:	4772                	lw	a4,28(sp)
    4abe:	47e2                	lw	a5,24(sp)
    4ac0:	4852                	lw	a6,20(sp)
    4ac2:	48c2                	lw	a7,16(sp)
    4ac4:	4e32                	lw	t3,12(sp)
    4ac6:	4ea2                	lw	t4,8(sp)
    4ac8:	4f12                	lw	t5,4(sp)
    4aca:	4f82                	lw	t6,0(sp)
    4acc:	6121                	addi	sp,sp,64
    4ace:	30200073          	mret

00004ad2 <DMA1_Channel4_IRQHandler>:
    4ad2:	7139                	addi	sp,sp,-64
    4ad4:	d62a                	sw	a0,44(sp)
    4ad6:	450d                	li	a0,3
    4ad8:	de06                	sw	ra,60(sp)
    4ada:	dc16                	sw	t0,56(sp)
    4adc:	da1a                	sw	t1,52(sp)
    4ade:	d81e                	sw	t2,48(sp)
    4ae0:	d42e                	sw	a1,40(sp)
    4ae2:	d232                	sw	a2,36(sp)
    4ae4:	d036                	sw	a3,32(sp)
    4ae6:	ce3a                	sw	a4,28(sp)
    4ae8:	cc3e                	sw	a5,24(sp)
    4aea:	ca42                	sw	a6,20(sp)
    4aec:	c846                	sw	a7,16(sp)
    4aee:	c672                	sw	t3,12(sp)
    4af0:	c476                	sw	t4,8(sp)
    4af2:	c27a                	sw	t5,4(sp)
    4af4:	c07e                	sw	t6,0(sp)
    4af6:	de1ff0ef          	jal	ra,48d6 <DMA_IRQ>
    4afa:	50f2                	lw	ra,60(sp)
    4afc:	52e2                	lw	t0,56(sp)
    4afe:	5352                	lw	t1,52(sp)
    4b00:	53c2                	lw	t2,48(sp)
    4b02:	5532                	lw	a0,44(sp)
    4b04:	55a2                	lw	a1,40(sp)
    4b06:	5612                	lw	a2,36(sp)
    4b08:	5682                	lw	a3,32(sp)
    4b0a:	4772                	lw	a4,28(sp)
    4b0c:	47e2                	lw	a5,24(sp)
    4b0e:	4852                	lw	a6,20(sp)
    4b10:	48c2                	lw	a7,16(sp)
    4b12:	4e32                	lw	t3,12(sp)
    4b14:	4ea2                	lw	t4,8(sp)
    4b16:	4f12                	lw	t5,4(sp)
    4b18:	4f82                	lw	t6,0(sp)
    4b1a:	6121                	addi	sp,sp,64
    4b1c:	30200073          	mret

00004b20 <DMA1_Channel5_IRQHandler>:
    4b20:	7139                	addi	sp,sp,-64
    4b22:	d62a                	sw	a0,44(sp)
    4b24:	4511                	li	a0,4
    4b26:	de06                	sw	ra,60(sp)
    4b28:	dc16                	sw	t0,56(sp)
    4b2a:	da1a                	sw	t1,52(sp)
    4b2c:	d81e                	sw	t2,48(sp)
    4b2e:	d42e                	sw	a1,40(sp)
    4b30:	d232                	sw	a2,36(sp)
    4b32:	d036                	sw	a3,32(sp)
    4b34:	ce3a                	sw	a4,28(sp)
    4b36:	cc3e                	sw	a5,24(sp)
    4b38:	ca42                	sw	a6,20(sp)
    4b3a:	c846                	sw	a7,16(sp)
    4b3c:	c672                	sw	t3,12(sp)
    4b3e:	c476                	sw	t4,8(sp)
    4b40:	c27a                	sw	t5,4(sp)
    4b42:	c07e                	sw	t6,0(sp)
    4b44:	d93ff0ef          	jal	ra,48d6 <DMA_IRQ>
    4b48:	50f2                	lw	ra,60(sp)
    4b4a:	52e2                	lw	t0,56(sp)
    4b4c:	5352                	lw	t1,52(sp)
    4b4e:	53c2                	lw	t2,48(sp)
    4b50:	5532                	lw	a0,44(sp)
    4b52:	55a2                	lw	a1,40(sp)
    4b54:	5612                	lw	a2,36(sp)
    4b56:	5682                	lw	a3,32(sp)
    4b58:	4772                	lw	a4,28(sp)
    4b5a:	47e2                	lw	a5,24(sp)
    4b5c:	4852                	lw	a6,20(sp)
    4b5e:	48c2                	lw	a7,16(sp)
    4b60:	4e32                	lw	t3,12(sp)
    4b62:	4ea2                	lw	t4,8(sp)
    4b64:	4f12                	lw	t5,4(sp)
    4b66:	4f82                	lw	t6,0(sp)
    4b68:	6121                	addi	sp,sp,64
    4b6a:	30200073          	mret

00004b6e <DMA1_Channel7_IRQHandler>:
    4b6e:	7139                	addi	sp,sp,-64
    4b70:	d62a                	sw	a0,44(sp)
    4b72:	4519                	li	a0,6
    4b74:	de06                	sw	ra,60(sp)
    4b76:	dc16                	sw	t0,56(sp)
    4b78:	da1a                	sw	t1,52(sp)
    4b7a:	d81e                	sw	t2,48(sp)
    4b7c:	d42e                	sw	a1,40(sp)
    4b7e:	d232                	sw	a2,36(sp)
    4b80:	d036                	sw	a3,32(sp)
    4b82:	ce3a                	sw	a4,28(sp)
    4b84:	cc3e                	sw	a5,24(sp)
    4b86:	ca42                	sw	a6,20(sp)
    4b88:	c846                	sw	a7,16(sp)
    4b8a:	c672                	sw	t3,12(sp)
    4b8c:	c476                	sw	t4,8(sp)
    4b8e:	c27a                	sw	t5,4(sp)
    4b90:	c07e                	sw	t6,0(sp)
    4b92:	d45ff0ef          	jal	ra,48d6 <DMA_IRQ>
    4b96:	50f2                	lw	ra,60(sp)
    4b98:	52e2                	lw	t0,56(sp)
    4b9a:	5352                	lw	t1,52(sp)
    4b9c:	53c2                	lw	t2,48(sp)
    4b9e:	5532                	lw	a0,44(sp)
    4ba0:	55a2                	lw	a1,40(sp)
    4ba2:	5612                	lw	a2,36(sp)
    4ba4:	5682                	lw	a3,32(sp)
    4ba6:	4772                	lw	a4,28(sp)
    4ba8:	47e2                	lw	a5,24(sp)
    4baa:	4852                	lw	a6,20(sp)
    4bac:	48c2                	lw	a7,16(sp)
    4bae:	4e32                	lw	t3,12(sp)
    4bb0:	4ea2                	lw	t4,8(sp)
    4bb2:	4f12                	lw	t5,4(sp)
    4bb4:	4f82                	lw	t6,0(sp)
    4bb6:	6121                	addi	sp,sp,64
    4bb8:	30200073          	mret

00004bbc <HAL_InitGPIO>:
    4bbc:	0106f793          	andi	a5,a3,16
    4bc0:	00f6f813          	andi	a6,a3,15
    4bc4:	c399                	beqz	a5,4bca <HAL_InitGPIO+0xe>
    4bc6:	00c86833          	or	a6,a6,a2
    4bca:	400117b7          	lui	a5,0x40011
    4bce:	00f51a63          	bne	a0,a5,4be2 <HAL_InitGPIO+0x26>
    4bd2:	400227b7          	lui	a5,0x40022
    4bd6:	5b98                	lw	a4,48(a5)
    4bd8:	0f0007b7          	lui	a5,0xf000
    4bdc:	8ff9                	and	a5,a5,a4
    4bde:	e391                	bnez	a5,4be2 <HAL_InitGPIO+0x26>
    4be0:	81b5                	srli	a1,a1,0xd
    4be2:	0ff5f793          	andi	a5,a1,255
    4be6:	c3b9                	beqz	a5,4c2c <HAL_InitGPIO+0x70>
    4be8:	411c                	lw	a5,0(a0)
    4bea:	4701                	li	a4,0
    4bec:	4e85                	li	t4,1
    4bee:	4f3d                	li	t5,15
    4bf0:	02800f93          	li	t6,40
    4bf4:	04800293          	li	t0,72
    4bf8:	4e21                	li	t3,8
    4bfa:	00ee9633          	sll	a2,t4,a4
    4bfe:	00c5f8b3          	and	a7,a1,a2
    4c02:	03161163          	bne	a2,a7,4c24 <HAL_InitGPIO+0x68>
    4c06:	00271893          	slli	a7,a4,0x2
    4c0a:	011f1333          	sll	t1,t5,a7
    4c0e:	fff34313          	not	t1,t1
    4c12:	00f377b3          	and	a5,t1,a5
    4c16:	011818b3          	sll	a7,a6,a7
    4c1a:	00f8e7b3          	or	a5,a7,a5
    4c1e:	05f69f63          	bne	a3,t6,4c7c <HAL_InitGPIO+0xc0>
    4c22:	c950                	sw	a2,20(a0)
    4c24:	0705                	addi	a4,a4,1
    4c26:	fdc71ae3          	bne	a4,t3,4bfa <HAL_InitGPIO+0x3e>
    4c2a:	c11c                	sw	a5,0(a0)
    4c2c:	0ff00793          	li	a5,255
    4c30:	04b7f563          	bgeu	a5,a1,4c7a <HAL_InitGPIO+0xbe>
    4c34:	4158                	lw	a4,4(a0)
    4c36:	4621                	li	a2,8
    4c38:	4e85                	li	t4,1
    4c3a:	4f3d                	li	t5,15
    4c3c:	02800f93          	li	t6,40
    4c40:	04800293          	li	t0,72
    4c44:	4e41                	li	t3,16
    4c46:	00ce98b3          	sll	a7,t4,a2
    4c4a:	0115f7b3          	and	a5,a1,a7
    4c4e:	02f89263          	bne	a7,a5,4c72 <HAL_InitGPIO+0xb6>
    4c52:	00261793          	slli	a5,a2,0x2
    4c56:	1781                	addi	a5,a5,-32
    4c58:	00ff1333          	sll	t1,t5,a5
    4c5c:	fff34313          	not	t1,t1
    4c60:	00e37733          	and	a4,t1,a4
    4c64:	00f817b3          	sll	a5,a6,a5
    4c68:	8f5d                	or	a4,a4,a5
    4c6a:	01f69d63          	bne	a3,t6,4c84 <HAL_InitGPIO+0xc8>
    4c6e:	01152a23          	sw	a7,20(a0)
    4c72:	0605                	addi	a2,a2,1
    4c74:	fdc619e3          	bne	a2,t3,4c46 <HAL_InitGPIO+0x8a>
    4c78:	c158                	sw	a4,4(a0)
    4c7a:	8082                	ret
    4c7c:	fa5694e3          	bne	a3,t0,4c24 <HAL_InitGPIO+0x68>
    4c80:	c910                	sw	a2,16(a0)
    4c82:	b74d                	j	4c24 <HAL_InitGPIO+0x68>
    4c84:	fe5697e3          	bne	a3,t0,4c72 <HAL_InitGPIO+0xb6>
    4c88:	01152823          	sw	a7,16(a0)
    4c8c:	b7dd                	j	4c72 <HAL_InitGPIO+0xb6>

00004c8e <HAL_InitGpioOut>:
    4c8e:	891fb2ef          	jal	t0,51e <__riscv_save_0>
    4c92:	46c1                	li	a3,16
    4c94:	4609                	li	a2,2
    4c96:	f27ff0ef          	jal	ra,4bbc <HAL_InitGPIO>
    4c9a:	8a9fb06f          	j	542 <__riscv_restore_0>

00004c9e <HAL_InitGpioAIN>:
    4c9e:	881fb2ef          	jal	t0,51e <__riscv_save_0>
    4ca2:	4681                	li	a3,0
    4ca4:	460d                	li	a2,3
    4ca6:	f17ff0ef          	jal	ra,4bbc <HAL_InitGPIO>
    4caa:	899fb06f          	j	542 <__riscv_restore_0>

00004cae <HAL_InitGpioIn>:
    4cae:	871fb2ef          	jal	t0,51e <__riscv_save_0>
    4cb2:	4691                	li	a3,4
    4cb4:	460d                	li	a2,3
    4cb6:	f07ff0ef          	jal	ra,4bbc <HAL_InitGPIO>
    4cba:	889fb06f          	j	542 <__riscv_restore_0>

00004cbe <HAL_InitGpioAF>:
    4cbe:	861fb2ef          	jal	t0,51e <__riscv_save_0>
    4cc2:	1141                	addi	sp,sp,-16
    4cc4:	842a                	mv	s0,a0
    4cc6:	84ae                	mv	s1,a1
    4cc8:	ce09                	beqz	a2,4ce2 <HAL_InitGpioAF+0x24>
    4cca:	40021737          	lui	a4,0x40021
    4cce:	4f1c                	lw	a5,24(a4)
    4cd0:	c636                	sw	a3,12(sp)
    4cd2:	4585                	li	a1,1
    4cd4:	0017e793          	ori	a5,a5,1
    4cd8:	cf1c                	sw	a5,24(a4)
    4cda:	8532                	mv	a0,a2
    4cdc:	9cbfe0ef          	jal	ra,36a6 <GPIO_PinRemapConfig>
    4ce0:	46b2                	lw	a3,12(sp)
    4ce2:	460d                	li	a2,3
    4ce4:	85a6                	mv	a1,s1
    4ce6:	8522                	mv	a0,s0
    4ce8:	ed5ff0ef          	jal	ra,4bbc <HAL_InitGPIO>
    4cec:	0141                	addi	sp,sp,16
    4cee:	855fb06f          	j	542 <__riscv_restore_0>

00004cf2 <HAL_GetBit>:
    4cf2:	4508                	lw	a0,8(a0)
    4cf4:	8d6d                	and	a0,a0,a1
    4cf6:	00a03533          	snez	a0,a0
    4cfa:	8082                	ret

00004cfc <HAL_SetBit>:
    4cfc:	c90c                	sw	a1,16(a0)
    4cfe:	8082                	ret

00004d00 <HAL_ResetBit>:
    4d00:	c94c                	sw	a1,20(a0)
    4d02:	8082                	ret

00004d04 <HAL_InitGPO>:
    4d04:	67b5                	lui	a5,0xd
    4d06:	b9478793          	addi	a5,a5,-1132 # cb94 <PERIPH_MASK>
    4d0a:	00c78593          	addi	a1,a5,12
    4d0e:	400216b7          	lui	a3,0x40021
    4d12:	4398                	lw	a4,0(a5)
    4d14:	4e90                	lw	a2,24(a3)
    4d16:	0791                	addi	a5,a5,4
    4d18:	8e59                	or	a2,a2,a4
    4d1a:	ce90                	sw	a2,24(a3)
    4d1c:	46d0                	lw	a2,12(a3)
    4d1e:	8e59                	or	a2,a2,a4
    4d20:	c6d0                	sw	a2,12(a3)
    4d22:	46d0                	lw	a2,12(a3)
    4d24:	fff74713          	not	a4,a4
    4d28:	8f71                	and	a4,a4,a2
    4d2a:	c6d8                	sw	a4,12(a3)
    4d2c:	feb793e3          	bne	a5,a1,4d12 <HAL_InitGPO+0xe>
    4d30:	8082                	ret

00004d32 <EEPROM_I2C_ENABLE>:
    4d32:	200007b7          	lui	a5,0x20000
    4d36:	68c7a783          	lw	a5,1676(a5) # 2000068c <pEEPROM>
    4d3a:	4b98                	lw	a4,16(a5)
    4d3c:	231e                	lhu	a5,0(a4)
    4d3e:	0017e793          	ori	a5,a5,1
    4d42:	a31e                	sh	a5,0(a4)
    4d44:	8082                	ret

00004d46 <EEPROM_I2C_STOP>:
    4d46:	200007b7          	lui	a5,0x20000
    4d4a:	68c7a783          	lw	a5,1676(a5) # 2000068c <pEEPROM>
    4d4e:	4b98                	lw	a4,16(a5)
    4d50:	231e                	lhu	a5,0(a4)
    4d52:	2007e793          	ori	a5,a5,512
    4d56:	a31e                	sh	a5,0(a4)
    4d58:	8082                	ret

00004d5a <EEPROM_I2C_START>:
    4d5a:	200007b7          	lui	a5,0x20000
    4d5e:	68c7a783          	lw	a5,1676(a5) # 2000068c <pEEPROM>
    4d62:	4b98                	lw	a4,16(a5)
    4d64:	231e                	lhu	a5,0(a4)
    4d66:	1007e793          	ori	a5,a5,256
    4d6a:	a31e                	sh	a5,0(a4)
    4d6c:	8082                	ret

00004d6e <EEPROM_I2C_SEND>:
    4d6e:	200007b7          	lui	a5,0x20000
    4d72:	68c7a783          	lw	a5,1676(a5) # 2000068c <pEEPROM>
    4d76:	4b9c                	lw	a5,16(a5)
    4d78:	ab8a                	sh	a0,16(a5)
    4d7a:	8082                	ret

00004d7c <I2C_Master_ReviceIT>:
    4d7c:	f88fb2ef          	jal	t0,504 <__riscv_save_4>
    4d80:	200004b7          	lui	s1,0x20000
    4d84:	68c48913          	addi	s2,s1,1676 # 2000068c <pEEPROM>
    4d88:	00092403          	lw	s0,0(s2)
    4d8c:	89ba                	mv	s3,a4
    4d8e:	68c48493          	addi	s1,s1,1676
    4d92:	a01c                	sb	a5,0(s0)
    4d94:	a076                	sh	a3,6(s0)
    4d96:	c450                	sw	a2,12(s0)
    4d98:	a04e                	sh	a1,4(s0)
    4d9a:	00041423          	sh	zero,8(s0)
    4d9e:	b028                	sb	a0,3(s0)
    4da0:	28c020ef          	jal	ra,702c <xTaskGetCurrentTaskHandle>
    4da4:	00092783          	lw	a5,0(s2)
    4da8:	c848                	sw	a0,20(s0)
    4daa:	4705                	li	a4,1
    4dac:	cf98                	sw	a4,24(a5)
    4dae:	f85ff0ef          	jal	ra,4d32 <EEPROM_I2C_ENABLE>
    4db2:	00092783          	lw	a5,0(s2)
    4db6:	4b9c                	lw	a5,16(a5)
    4db8:	2f96                	lhu	a3,24(a5)
    4dba:	8a89                	andi	a3,a3,2
    4dbc:	fef5                	bnez	a3,4db8 <I2C_Master_ReviceIT+0x3c>
    4dbe:	2396                	lhu	a3,0(a5)
    4dc0:	4006e693          	ori	a3,a3,1024
    4dc4:	a396                	sh	a3,0(a5)
    4dc6:	f95ff0ef          	jal	ra,4d5a <EEPROM_I2C_START>
    4dca:	4094                	lw	a3,0(s1)
    4dcc:	864e                	mv	a2,s3
    4dce:	55fd                	li	a1,-1
    4dd0:	4a98                	lw	a4,16(a3)
    4dd2:	235e                	lhu	a5,4(a4)
    4dd4:	7007e793          	ori	a5,a5,1792
    4dd8:	a35e                	sh	a5,4(a4)
    4dda:	2288                	lbu	a0,0(a3)
    4ddc:	4b4020ef          	jal	ra,7290 <ulTaskGenericNotifyTake>
    4de0:	409c                	lw	a5,0(s1)
    4de2:	4b98                	lw	a4,16(a5)
    4de4:	235e                	lhu	a5,4(a4)
    4de6:	07c2                	slli	a5,a5,0x10
    4de8:	83c1                	srli	a5,a5,0x10
    4dea:	8ff7f793          	andi	a5,a5,-1793
    4dee:	07c2                	slli	a5,a5,0x10
    4df0:	83c1                	srli	a5,a5,0x10
    4df2:	a35e                	sh	a5,4(a4)
    4df4:	231e                	lhu	a5,0(a4)
    4df6:	07c2                	slli	a5,a5,0x10
    4df8:	83c1                	srli	a5,a5,0x10
    4dfa:	9bf9                	andi	a5,a5,-2
    4dfc:	07c2                	slli	a5,a5,0x10
    4dfe:	83c1                	srli	a5,a5,0x10
    4e00:	a31e                	sh	a5,0(a4)
    4e02:	4705                	li	a4,1
    4e04:	4781                	li	a5,0
    4e06:	00e50363          	beq	a0,a4,4e0c <I2C_Master_ReviceIT+0x90>
    4e0a:	4791                	li	a5,4
    4e0c:	853e                	mv	a0,a5
    4e0e:	f2afb06f          	j	538 <__riscv_restore_4>

00004e12 <I2C_Master_TransmitIT>:
    4e12:	ef2fb2ef          	jal	t0,504 <__riscv_save_4>
    4e16:	200004b7          	lui	s1,0x20000
    4e1a:	68c48913          	addi	s2,s1,1676 # 2000068c <pEEPROM>
    4e1e:	00092403          	lw	s0,0(s2)
    4e22:	89ba                	mv	s3,a4
    4e24:	68c48493          	addi	s1,s1,1676
    4e28:	a01c                	sb	a5,0(s0)
    4e2a:	a076                	sh	a3,6(s0)
    4e2c:	c450                	sw	a2,12(s0)
    4e2e:	a04e                	sh	a1,4(s0)
    4e30:	00041423          	sh	zero,8(s0)
    4e34:	b028                	sb	a0,3(s0)
    4e36:	1f6020ef          	jal	ra,702c <xTaskGetCurrentTaskHandle>
    4e3a:	00092783          	lw	a5,0(s2)
    4e3e:	c848                	sw	a0,20(s0)
    4e40:	471d                	li	a4,7
    4e42:	cf98                	sw	a4,24(a5)
    4e44:	eefff0ef          	jal	ra,4d32 <EEPROM_I2C_ENABLE>
    4e48:	00092783          	lw	a5,0(s2)
    4e4c:	4b9c                	lw	a5,16(a5)
    4e4e:	2f96                	lhu	a3,24(a5)
    4e50:	8a89                	andi	a3,a3,2
    4e52:	fef5                	bnez	a3,4e4e <I2C_Master_TransmitIT+0x3c>
    4e54:	23d6                	lhu	a3,4(a5)
    4e56:	7006e693          	ori	a3,a3,1792
    4e5a:	a3d6                	sh	a3,4(a5)
    4e5c:	effff0ef          	jal	ra,4d5a <EEPROM_I2C_START>
    4e60:	409c                	lw	a5,0(s1)
    4e62:	864e                	mv	a2,s3
    4e64:	55fd                	li	a1,-1
    4e66:	2388                	lbu	a0,0(a5)
    4e68:	428020ef          	jal	ra,7290 <ulTaskGenericNotifyTake>
    4e6c:	409c                	lw	a5,0(s1)
    4e6e:	4b98                	lw	a4,16(a5)
    4e70:	235e                	lhu	a5,4(a4)
    4e72:	07c2                	slli	a5,a5,0x10
    4e74:	83c1                	srli	a5,a5,0x10
    4e76:	8ff7f793          	andi	a5,a5,-1793
    4e7a:	07c2                	slli	a5,a5,0x10
    4e7c:	83c1                	srli	a5,a5,0x10
    4e7e:	a35e                	sh	a5,4(a4)
    4e80:	231e                	lhu	a5,0(a4)
    4e82:	07c2                	slli	a5,a5,0x10
    4e84:	83c1                	srli	a5,a5,0x10
    4e86:	9bf9                	andi	a5,a5,-2
    4e88:	07c2                	slli	a5,a5,0x10
    4e8a:	83c1                	srli	a5,a5,0x10
    4e8c:	a31e                	sh	a5,0(a4)
    4e8e:	4781                	li	a5,0
    4e90:	e111                	bnez	a0,4e94 <I2C_Master_TransmitIT+0x82>
    4e92:	478d                	li	a5,3
    4e94:	853e                	mv	a0,a5
    4e96:	ea2fb06f          	j	538 <__riscv_restore_4>

00004e9a <I2C_Master_TransmitFast>:
    4e9a:	e6afb2ef          	jal	t0,504 <__riscv_save_4>
    4e9e:	20000437          	lui	s0,0x20000
    4ea2:	84ae                	mv	s1,a1
    4ea4:	89b2                	mv	s3,a2
    4ea6:	8936                	mv	s2,a3
    4ea8:	e8bff0ef          	jal	ra,4d32 <EEPROM_I2C_ENABLE>
    4eac:	68c42783          	lw	a5,1676(s0) # 2000068c <pEEPROM>
    4eb0:	68c40413          	addi	s0,s0,1676
    4eb4:	4b98                	lw	a4,16(a5)
    4eb6:	2f1e                	lhu	a5,24(a4)
    4eb8:	8b89                	andi	a5,a5,2
    4eba:	fff5                	bnez	a5,4eb6 <I2C_Master_TransmitFast+0x1c>
    4ebc:	e9fff0ef          	jal	ra,4d5a <EEPROM_I2C_START>
    4ec0:	4014                	lw	a3,0(s0)
    4ec2:	4a9c                	lw	a5,16(a3)
    4ec4:	2bda                	lhu	a4,20(a5)
    4ec6:	8b05                	andi	a4,a4,1
    4ec8:	df75                	beqz	a4,4ec4 <I2C_Master_TransmitFast+0x2a>
    4eca:	32b8                	lbu	a4,3(a3)
    4ecc:	0fe77713          	andi	a4,a4,254
    4ed0:	ab9a                	sh	a4,16(a5)
    4ed2:	2bda                	lhu	a4,20(a5)
    4ed4:	8b09                	andi	a4,a4,2
    4ed6:	df75                	beqz	a4,4ed2 <I2C_Master_TransmitFast+0x38>
    4ed8:	2f9e                	lhu	a5,24(a5)
    4eda:	0084d513          	srli	a0,s1,0x8
    4ede:	897d                	andi	a0,a0,31
    4ee0:	e8fff0ef          	jal	ra,4d6e <EEPROM_I2C_SEND>
    4ee4:	401c                	lw	a5,0(s0)
    4ee6:	4b98                	lw	a4,16(a5)
    4ee8:	2b5e                	lhu	a5,20(a4)
    4eea:	0807f793          	andi	a5,a5,128
    4eee:	dfed                	beqz	a5,4ee8 <I2C_Master_TransmitFast+0x4e>
    4ef0:	0ff4f513          	andi	a0,s1,255
    4ef4:	e7bff0ef          	jal	ra,4d6e <EEPROM_I2C_SEND>
    4ef8:	401c                	lw	a5,0(s0)
    4efa:	4b98                	lw	a4,16(a5)
    4efc:	2b5e                	lhu	a5,20(a4)
    4efe:	0807f793          	andi	a5,a5,128
    4f02:	dfed                	beqz	a5,4efc <I2C_Master_TransmitFast+0x62>
    4f04:	4481                	li	s1,0
    4f06:	0124e763          	bltu	s1,s2,4f14 <I2C_Master_TransmitFast+0x7a>
    4f0a:	e3dff0ef          	jal	ra,4d46 <EEPROM_I2C_STOP>
    4f0e:	4501                	li	a0,0
    4f10:	e28fb06f          	j	538 <__riscv_restore_4>
    4f14:	009987b3          	add	a5,s3,s1
    4f18:	2388                	lbu	a0,0(a5)
    4f1a:	e55ff0ef          	jal	ra,4d6e <EEPROM_I2C_SEND>
    4f1e:	401c                	lw	a5,0(s0)
    4f20:	4b98                	lw	a4,16(a5)
    4f22:	2b5e                	lhu	a5,20(a4)
    4f24:	0807f793          	andi	a5,a5,128
    4f28:	dfed                	beqz	a5,4f22 <I2C_Master_TransmitFast+0x88>
    4f2a:	0485                	addi	s1,s1,1
    4f2c:	0ff4f493          	andi	s1,s1,255
    4f30:	bfd9                	j	4f06 <I2C_Master_TransmitFast+0x6c>

00004f32 <I2C_FSM>:
    4f32:	decfb2ef          	jal	t0,51e <__riscv_save_0>
    4f36:	20000437          	lui	s0,0x20000
    4f3a:	68c42703          	lw	a4,1676(s0) # 2000068c <pEEPROM>
    4f3e:	1141                	addi	sp,sp,-16
    4f40:	c602                	sw	zero,12(sp)
    4f42:	4b08                	lw	a0,16(a4)
    4f44:	4f14                	lw	a3,24(a4)
    4f46:	462d                	li	a2,11
    4f48:	295e                	lhu	a5,20(a0)
    4f4a:	16fd                	addi	a3,a3,-1
    4f4c:	04d66163          	bltu	a2,a3,4f8e <I2C_FSM+0x5c>
    4f50:	6635                	lui	a2,0xd
    4f52:	068a                	slli	a3,a3,0x2
    4f54:	ba060613          	addi	a2,a2,-1120 # cba0 <PERIPH_MASK+0xc>
    4f58:	96b2                	add	a3,a3,a2
    4f5a:	4294                	lw	a3,0(a3)
    4f5c:	07c2                	slli	a5,a5,0x10
    4f5e:	83c1                	srli	a5,a5,0x10
    4f60:	68c40413          	addi	s0,s0,1676
    4f64:	8682                	jr	a3
    4f66:	8b85                	andi	a5,a5,1
    4f68:	c39d                	beqz	a5,4f8e <I2C_FSM+0x5c>
    4f6a:	333c                	lbu	a5,3(a4)
    4f6c:	0fe7f793          	andi	a5,a5,254
    4f70:	a91e                	sh	a5,16(a0)
    4f72:	4789                	li	a5,2
    4f74:	cf1c                	sw	a5,24(a4)
    4f76:	a821                	j	4f8e <I2C_FSM+0x5c>
    4f78:	8b89                	andi	a5,a5,2
    4f7a:	cb91                	beqz	a5,4f8e <I2C_FSM+0x5c>
    4f7c:	2d1e                	lhu	a5,24(a0)
    4f7e:	234a                	lhu	a0,4(a4)
    4f80:	8121                	srli	a0,a0,0x8
    4f82:	897d                	andi	a0,a0,31
    4f84:	debff0ef          	jal	ra,4d6e <EEPROM_I2C_SEND>
    4f88:	401c                	lw	a5,0(s0)
    4f8a:	472d                	li	a4,11
    4f8c:	cf98                	sw	a4,24(a5)
    4f8e:	0141                	addi	sp,sp,16
    4f90:	db2fb06f          	j	542 <__riscv_restore_0>
    4f94:	0807f793          	andi	a5,a5,128
    4f98:	dbfd                	beqz	a5,4f8e <I2C_FSM+0x5c>
    4f9a:	2348                	lbu	a0,4(a4)
    4f9c:	dd3ff0ef          	jal	ra,4d6e <EEPROM_I2C_SEND>
    4fa0:	401c                	lw	a5,0(s0)
    4fa2:	470d                	li	a4,3
    4fa4:	b7e5                	j	4f8c <I2C_FSM+0x5a>
    4fa6:	0807f793          	andi	a5,a5,128
    4faa:	d3f5                	beqz	a5,4f8e <I2C_FSM+0x5c>
    4fac:	dafff0ef          	jal	ra,4d5a <EEPROM_I2C_START>
    4fb0:	401c                	lw	a5,0(s0)
    4fb2:	4711                	li	a4,4
    4fb4:	bfe1                	j	4f8c <I2C_FSM+0x5a>
    4fb6:	8b85                	andi	a5,a5,1
    4fb8:	dbf9                	beqz	a5,4f8e <I2C_FSM+0x5c>
    4fba:	333c                	lbu	a5,3(a4)
    4fbc:	0017e793          	ori	a5,a5,1
    4fc0:	0ff7f793          	andi	a5,a5,255
    4fc4:	a91e                	sh	a5,16(a0)
    4fc6:	4795                	li	a5,5
    4fc8:	b775                	j	4f74 <I2C_FSM+0x42>
    4fca:	8b89                	andi	a5,a5,2
    4fcc:	d3e9                	beqz	a5,4f8e <I2C_FSM+0x5c>
    4fce:	2d1e                	lhu	a5,24(a0)
    4fd0:	4799                	li	a5,6
    4fd2:	b74d                	j	4f74 <I2C_FSM+0x42>
    4fd4:	0407f793          	andi	a5,a5,64
    4fd8:	dbdd                	beqz	a5,4f8e <I2C_FSM+0x5c>
    4fda:	270e                	lhu	a1,8(a4)
    4fdc:	237e                	lhu	a5,6(a4)
    4fde:	4754                	lw	a3,12(a4)
    4fe0:	00158613          	addi	a2,a1,1
    4fe4:	0642                	slli	a2,a2,0x10
    4fe6:	17fd                	addi	a5,a5,-1
    4fe8:	8241                	srli	a2,a2,0x10
    4fea:	96ae                	add	a3,a3,a1
    4fec:	00f5d663          	bge	a1,a5,4ff8 <I2C_FSM+0xc6>
    4ff0:	291e                	lhu	a5,16(a0)
    4ff2:	a712                	sh	a2,8(a4)
    4ff4:	a29c                	sb	a5,0(a3)
    4ff6:	bf61                	j	4f8e <I2C_FSM+0x5c>
    4ff8:	211e                	lhu	a5,0(a0)
    4ffa:	07c2                	slli	a5,a5,0x10
    4ffc:	83c1                	srli	a5,a5,0x10
    4ffe:	bff7f793          	andi	a5,a5,-1025
    5002:	07c2                	slli	a5,a5,0x10
    5004:	83c1                	srli	a5,a5,0x10
    5006:	a11e                	sh	a5,0(a0)
    5008:	291e                	lhu	a5,16(a0)
    500a:	a712                	sh	a2,8(a4)
    500c:	a29c                	sb	a5,0(a3)
    500e:	d39ff0ef          	jal	ra,4d46 <EEPROM_I2C_STOP>
    5012:	4008                	lw	a0,0(s0)
    5014:	007c                	addi	a5,sp,12
    5016:	4701                	li	a4,0
    5018:	210c                	lbu	a1,0(a0)
    501a:	4948                	lw	a0,20(a0)
    501c:	468d                	li	a3,3
    501e:	4605                	li	a2,1
    5020:	5ae020ef          	jal	ra,75ce <xTaskGenericNotifyFromISR>
    5024:	47b2                	lw	a5,12(sp)
    5026:	c791                	beqz	a5,5032 <I2C_FSM+0x100>
    5028:	e000e7b7          	lui	a5,0xe000e
    502c:	6711                	lui	a4,0x4
    502e:	20e7a023          	sw	a4,512(a5) # e000e200 <__freertos_irq_stack_top+0xc0009200>
    5032:	401c                	lw	a5,0(s0)
    5034:	0007ac23          	sw	zero,24(a5)
    5038:	bf99                	j	4f8e <I2C_FSM+0x5c>
    503a:	8b85                	andi	a5,a5,1
    503c:	dba9                	beqz	a5,4f8e <I2C_FSM+0x5c>
    503e:	333c                	lbu	a5,3(a4)
    5040:	0fe7f793          	andi	a5,a5,254
    5044:	a91e                	sh	a5,16(a0)
    5046:	47a1                	li	a5,8
    5048:	b735                	j	4f74 <I2C_FSM+0x42>
    504a:	4007f693          	andi	a3,a5,1024
    504e:	ce81                	beqz	a3,5066 <I2C_FSM+0x134>
    5050:	100005b7          	lui	a1,0x10000
    5054:	40058593          	addi	a1,a1,1024 # 10000400 <_data_lma+0xfff2904>
    5058:	f58fe0ef          	jal	ra,37b0 <I2C_ClearFlag>
    505c:	cffff0ef          	jal	ra,4d5a <EEPROM_I2C_START>
    5060:	401c                	lw	a5,0(s0)
    5062:	471d                	li	a4,7
    5064:	b725                	j	4f8c <I2C_FSM+0x5a>
    5066:	8b89                	andi	a5,a5,2
    5068:	d39d                	beqz	a5,4f8e <I2C_FSM+0x5c>
    506a:	2d1e                	lhu	a5,24(a0)
    506c:	234a                	lhu	a0,4(a4)
    506e:	8121                	srli	a0,a0,0x8
    5070:	897d                	andi	a0,a0,31
    5072:	cfdff0ef          	jal	ra,4d6e <EEPROM_I2C_SEND>
    5076:	401c                	lw	a5,0(s0)
    5078:	4731                	li	a4,12
    507a:	bf09                	j	4f8c <I2C_FSM+0x5a>
    507c:	0807f793          	andi	a5,a5,128
    5080:	f00787e3          	beqz	a5,4f8e <I2C_FSM+0x5c>
    5084:	2348                	lbu	a0,4(a4)
    5086:	ce9ff0ef          	jal	ra,4d6e <EEPROM_I2C_SEND>
    508a:	401c                	lw	a5,0(s0)
    508c:	4725                	li	a4,9
    508e:	bdfd                	j	4f8c <I2C_FSM+0x5a>
    5090:	0807f793          	andi	a5,a5,128
    5094:	ee078de3          	beqz	a5,4f8e <I2C_FSM+0x5c>
    5098:	2716                	lhu	a3,8(a4)
    509a:	237e                	lhu	a5,6(a4)
    509c:	00f6fc63          	bgeu	a3,a5,50b4 <I2C_FSM+0x182>
    50a0:	475c                	lw	a5,12(a4)
    50a2:	97b6                	add	a5,a5,a3
    50a4:	2388                	lbu	a0,0(a5)
    50a6:	cc9ff0ef          	jal	ra,4d6e <EEPROM_I2C_SEND>
    50aa:	4018                	lw	a4,0(s0)
    50ac:	271e                	lhu	a5,8(a4)
    50ae:	0785                	addi	a5,a5,1
    50b0:	a71e                	sh	a5,8(a4)
    50b2:	bdf1                	j	4f8e <I2C_FSM+0x5c>
    50b4:	47a9                	li	a5,10
    50b6:	bd7d                	j	4f74 <I2C_FSM+0x42>
    50b8:	8b91                	andi	a5,a5,4
    50ba:	ec078ae3          	beqz	a5,4f8e <I2C_FSM+0x5c>
    50be:	bf81                	j	500e <I2C_FSM+0xdc>

000050c0 <InitI2CDMA>:
    50c0:	c44fb2ef          	jal	t0,504 <__riscv_save_4>
    50c4:	400057b7          	lui	a5,0x40005
    50c8:	40078793          	addi	a5,a5,1024 # 40005400 <__freertos_irq_stack_top+0x20000400>
    50cc:	1101                	addi	sp,sp,-32
    50ce:	842a                	mv	s0,a0
    50d0:	84ae                	mv	s1,a1
    50d2:	8932                	mv	s2,a2
    50d4:	02f51263          	bne	a0,a5,50f8 <InitI2CDMA+0x38>
    50d8:	400217b7          	lui	a5,0x40021
    50dc:	4b94                	lw	a3,16(a5)
    50de:	002005b7          	lui	a1,0x200
    50e2:	ffe00637          	lui	a2,0xffe00
    50e6:	8ecd                	or	a3,a3,a1
    50e8:	cb94                	sw	a3,16(a5)
    50ea:	4b94                	lw	a3,16(a5)
    50ec:	167d                	addi	a2,a2,-1
    50ee:	8ef1                	and	a3,a3,a2
    50f0:	cb94                	sw	a3,16(a5)
    50f2:	4fd8                	lw	a4,28(a5)
    50f4:	8f4d                	or	a4,a4,a1
    50f6:	cfd8                	sw	a4,28(a5)
    50f8:	0068                	addi	a0,sp,12
    50fa:	00445983          	lhu	s3,4(s0)
    50fe:	ee6fe0ef          	jal	ra,37e4 <RCC_GetClocksFreq>
    5102:	47d2                	lw	a5,20(sp)
    5104:	000f4737          	lui	a4,0xf4
    5108:	24070713          	addi	a4,a4,576 # f4240 <_data_lma+0xe6744>
    510c:	02e7d733          	divu	a4,a5,a4
    5110:	09c2                	slli	s3,s3,0x10
    5112:	0109d993          	srli	s3,s3,0x10
    5116:	fc09f993          	andi	s3,s3,-64
    511a:	09c2                	slli	s3,s3,0x10
    511c:	0109d993          	srli	s3,s3,0x10
    5120:	00e9e9b3          	or	s3,s3,a4
    5124:	09c2                	slli	s3,s3,0x10
    5126:	0109d993          	srli	s3,s3,0x10
    512a:	01341223          	sh	s3,4(s0)
    512e:	2016                	lhu	a3,0(s0)
    5130:	06c2                	slli	a3,a3,0x10
    5132:	82c1                	srli	a3,a3,0x10
    5134:	9af9                	andi	a3,a3,-2
    5136:	06c2                	slli	a3,a3,0x10
    5138:	82c1                	srli	a3,a3,0x10
    513a:	a016                	sh	a3,0(s0)
    513c:	009896b7          	lui	a3,0x989
    5140:	67f68613          	addi	a2,a3,1663 # 98967f <_data_lma+0x97bb83>
    5144:	0af67a63          	bgeu	a2,a5,51f8 <InitI2CDMA+0x138>
    5148:	68068693          	addi	a3,a3,1664
    514c:	02d7d7b3          	divu	a5,a5,a3
    5150:	6691                	lui	a3,0x4
    5152:	07c2                	slli	a5,a5,0x10
    5154:	83c1                	srli	a5,a5,0x10
    5156:	8fd5                	or	a5,a5,a3
    5158:	66a1                	lui	a3,0x8
    515a:	8fd5                	or	a5,a5,a3
    515c:	12c00693          	li	a3,300
    5160:	02d70733          	mul	a4,a4,a3
    5164:	3e800693          	li	a3,1000
    5168:	02d74733          	div	a4,a4,a3
    516c:	0705                	addi	a4,a4,1
    516e:	0742                	slli	a4,a4,0x10
    5170:	8341                	srli	a4,a4,0x10
    5172:	b01a                	sh	a4,32(s0)
    5174:	ac5e                	sh	a5,28(s0)
    5176:	201e                	lhu	a5,0(s0)
    5178:	0017e793          	ori	a5,a5,1
    517c:	a01e                	sh	a5,0(s0)
    517e:	201e                	lhu	a5,0(s0)
    5180:	07c2                	slli	a5,a5,0x10
    5182:	83c1                	srli	a5,a5,0x10
    5184:	bf57f793          	andi	a5,a5,-1035
    5188:	4007e793          	ori	a5,a5,1024
    518c:	a01e                	sh	a5,0(s0)
    518e:	6791                	lui	a5,0x4
    5190:	a41e                	sh	a5,8(s0)
    5192:	efbfe0ef          	jal	ra,408c <xGetEEPROM>
    5196:	00005737          	lui	a4,0x5
    519a:	d7c70713          	addi	a4,a4,-644 # 4d7c <I2C_Master_ReviceIT>
    519e:	cd58                	sw	a4,28(a0)
    51a0:	00005737          	lui	a4,0x5
    51a4:	e1270713          	addi	a4,a4,-494 # 4e12 <I2C_Master_TransmitIT>
    51a8:	d118                	sw	a4,32(a0)
    51aa:	00005737          	lui	a4,0x5
    51ae:	e9a70713          	addi	a4,a4,-358 # 4e9a <I2C_Master_TransmitFast>
    51b2:	200007b7          	lui	a5,0x20000
    51b6:	d158                	sw	a4,36(a0)
    51b8:	40005737          	lui	a4,0x40005
    51bc:	68a7a623          	sw	a0,1676(a5) # 2000068c <pEEPROM>
    51c0:	c900                	sw	s0,16(a0)
    51c2:	40070713          	addi	a4,a4,1024 # 40005400 <__freertos_irq_stack_top+0x20000400>
    51c6:	68c78993          	addi	s3,a5,1676
    51ca:	864a                	mv	a2,s2
    51cc:	85a6                	mv	a1,s1
    51ce:	02e41863          	bne	s0,a4,51fe <InitI2CDMA+0x13e>
    51d2:	02f00513          	li	a0,47
    51d6:	28c1                	jal	52a6 <PFIC_IRQ_ENABLE_PG1>
    51d8:	864a                	mv	a2,s2
    51da:	85a6                	mv	a1,s1
    51dc:	03000513          	li	a0,48
    51e0:	20d9                	jal	52a6 <PFIC_IRQ_ENABLE_PG1>
    51e2:	0009a783          	lw	a5,0(s3)
    51e6:	4581                	li	a1,0
    51e8:	4b88                	lw	a0,16(a5)
    51ea:	daefe0ef          	jal	ra,3798 <I2C_DualAddressCmd>
    51ee:	b45ff0ef          	jal	ra,4d32 <EEPROM_I2C_ENABLE>
    51f2:	6105                	addi	sp,sp,32
    51f4:	b44fb06f          	j	538 <__riscv_restore_4>
    51f8:	6791                	lui	a5,0x4
    51fa:	0785                	addi	a5,a5,1
    51fc:	bfb1                	j	5158 <InitI2CDMA+0x98>
    51fe:	03100513          	li	a0,49
    5202:	2055                	jal	52a6 <PFIC_IRQ_ENABLE_PG1>
    5204:	864a                	mv	a2,s2
    5206:	85a6                	mv	a1,s1
    5208:	03200513          	li	a0,50
    520c:	bfd1                	j	51e0 <InitI2CDMA+0x120>

0000520e <I2C1_EV_IRQHandler>:
    520e:	7139                	addi	sp,sp,-64
    5210:	de06                	sw	ra,60(sp)
    5212:	dc16                	sw	t0,56(sp)
    5214:	da1a                	sw	t1,52(sp)
    5216:	d81e                	sw	t2,48(sp)
    5218:	d62a                	sw	a0,44(sp)
    521a:	d42e                	sw	a1,40(sp)
    521c:	d232                	sw	a2,36(sp)
    521e:	d036                	sw	a3,32(sp)
    5220:	ce3a                	sw	a4,28(sp)
    5222:	cc3e                	sw	a5,24(sp)
    5224:	ca42                	sw	a6,20(sp)
    5226:	c846                	sw	a7,16(sp)
    5228:	c672                	sw	t3,12(sp)
    522a:	c476                	sw	t4,8(sp)
    522c:	c27a                	sw	t5,4(sp)
    522e:	c07e                	sw	t6,0(sp)
    5230:	d03ff0ef          	jal	ra,4f32 <I2C_FSM>
    5234:	50f2                	lw	ra,60(sp)
    5236:	52e2                	lw	t0,56(sp)
    5238:	5352                	lw	t1,52(sp)
    523a:	53c2                	lw	t2,48(sp)
    523c:	5532                	lw	a0,44(sp)
    523e:	55a2                	lw	a1,40(sp)
    5240:	5612                	lw	a2,36(sp)
    5242:	5682                	lw	a3,32(sp)
    5244:	4772                	lw	a4,28(sp)
    5246:	47e2                	lw	a5,24(sp)
    5248:	4852                	lw	a6,20(sp)
    524a:	48c2                	lw	a7,16(sp)
    524c:	4e32                	lw	t3,12(sp)
    524e:	4ea2                	lw	t4,8(sp)
    5250:	4f12                	lw	t5,4(sp)
    5252:	4f82                	lw	t6,0(sp)
    5254:	6121                	addi	sp,sp,64
    5256:	30200073          	mret

0000525a <I2C1_ER_IRQHandler>:
    525a:	7139                	addi	sp,sp,-64
    525c:	de06                	sw	ra,60(sp)
    525e:	dc16                	sw	t0,56(sp)
    5260:	da1a                	sw	t1,52(sp)
    5262:	d81e                	sw	t2,48(sp)
    5264:	d62a                	sw	a0,44(sp)
    5266:	d42e                	sw	a1,40(sp)
    5268:	d232                	sw	a2,36(sp)
    526a:	d036                	sw	a3,32(sp)
    526c:	ce3a                	sw	a4,28(sp)
    526e:	cc3e                	sw	a5,24(sp)
    5270:	ca42                	sw	a6,20(sp)
    5272:	c846                	sw	a7,16(sp)
    5274:	c672                	sw	t3,12(sp)
    5276:	c476                	sw	t4,8(sp)
    5278:	c27a                	sw	t5,4(sp)
    527a:	c07e                	sw	t6,0(sp)
    527c:	cb7ff0ef          	jal	ra,4f32 <I2C_FSM>
    5280:	50f2                	lw	ra,60(sp)
    5282:	52e2                	lw	t0,56(sp)
    5284:	5352                	lw	t1,52(sp)
    5286:	53c2                	lw	t2,48(sp)
    5288:	5532                	lw	a0,44(sp)
    528a:	55a2                	lw	a1,40(sp)
    528c:	5612                	lw	a2,36(sp)
    528e:	5682                	lw	a3,32(sp)
    5290:	4772                	lw	a4,28(sp)
    5292:	47e2                	lw	a5,24(sp)
    5294:	4852                	lw	a6,20(sp)
    5296:	48c2                	lw	a7,16(sp)
    5298:	4e32                	lw	t3,12(sp)
    529a:	4ea2                	lw	t4,8(sp)
    529c:	4f12                	lw	t5,4(sp)
    529e:	4f82                	lw	t6,0(sp)
    52a0:	6121                	addi	sp,sp,64
    52a2:	30200073          	mret

000052a6 <PFIC_IRQ_ENABLE_PG1>:
    52a6:	4785                	li	a5,1
    52a8:	0612                	slli	a2,a2,0x4
    52aa:	00f59463          	bne	a1,a5,52b2 <PFIC_IRQ_ENABLE_PG1+0xc>
    52ae:	f8066613          	ori	a2,a2,-128
    52b2:	e000e7b7          	lui	a5,0xe000e
    52b6:	97aa                	add	a5,a5,a0
    52b8:	0ff67613          	andi	a2,a2,255
    52bc:	40c78023          	sb	a2,1024(a5) # e000e400 <__freertos_irq_stack_top+0xc0009400>
    52c0:	00555793          	srli	a5,a0,0x5
    52c4:	4705                	li	a4,1
    52c6:	04078793          	addi	a5,a5,64
    52ca:	00a71533          	sll	a0,a4,a0
    52ce:	078a                	slli	a5,a5,0x2
    52d0:	e000e737          	lui	a4,0xe000e
    52d4:	97ba                	add	a5,a5,a4
    52d6:	c388                	sw	a0,0(a5)
    52d8:	8082                	ret

000052da <HAL_RTC_IT_Init>:
    52da:	a2afb2ef          	jal	t0,504 <__riscv_save_4>
    52de:	400217b7          	lui	a5,0x40021
    52e2:	4fd8                	lw	a4,28(a5)
    52e4:	180006b7          	lui	a3,0x18000
    52e8:	84aa                	mv	s1,a0
    52ea:	8f55                	or	a4,a4,a3
    52ec:	cfd8                	sw	a4,28(a5)
    52ee:	400076b7          	lui	a3,0x40007
    52f2:	4298                	lw	a4,0(a3)
    52f4:	4505                	li	a0,1
    52f6:	892e                	mv	s2,a1
    52f8:	10076713          	ori	a4,a4,256
    52fc:	c298                	sw	a4,0(a3)
    52fe:	5398                	lw	a4,32(a5)
    5300:	66c1                	lui	a3,0x10
    5302:	89b2                	mv	s3,a2
    5304:	8f55                	or	a4,a4,a3
    5306:	d398                	sw	a4,32(a5)
    5308:	5398                	lw	a4,32(a5)
    530a:	76c1                	lui	a3,0xffff0
    530c:	16fd                	addi	a3,a3,-1
    530e:	8f75                	and	a4,a4,a3
    5310:	d398                	sw	a4,32(a5)
    5312:	caafe0ef          	jal	ra,37bc <RCC_LSEConfig>
    5316:	4401                	li	s0,0
    5318:	0fa00a13          	li	s4,250
    531c:	04100513          	li	a0,65
    5320:	d82fe0ef          	jal	ra,38a2 <RCC_GetFlagStatus>
    5324:	ed01                	bnez	a0,533c <HAL_RTC_IT_Init+0x62>
    5326:	01441463          	bne	s0,s4,532e <HAL_RTC_IT_Init+0x54>
    532a:	a0efb06f          	j	538 <__riscv_restore_4>
    532e:	0405                	addi	s0,s0,1
    5330:	4551                	li	a0,20
    5332:	0ff47413          	andi	s0,s0,255
    5336:	5b6020ef          	jal	ra,78ec <Delay_Ms>
    533a:	b7cd                	j	531c <HAL_RTC_IT_Init+0x42>
    533c:	0fa00793          	li	a5,250
    5340:	fef405e3          	beq	s0,a5,532a <HAL_RTC_IT_Init+0x50>
    5344:	400217b7          	lui	a5,0x40021
    5348:	5398                	lw	a4,32(a5)
    534a:	6421                	lui	s0,0x8
    534c:	10076713          	ori	a4,a4,256
    5350:	d398                	sw	a4,32(a5)
    5352:	5398                	lw	a4,32(a5)
    5354:	8f41                	or	a4,a4,s0
    5356:	d398                	sw	a4,32(a5)
    5358:	dd0fe0ef          	jal	ra,3928 <RTC_WaitForLastTask>
    535c:	ddcfe0ef          	jal	ra,3938 <RTC_WaitForSynchro>
    5360:	40003737          	lui	a4,0x40003
    5364:	80075783          	lhu	a5,-2048(a4) # 40002800 <__freertos_irq_stack_top+0x1fffd800>
    5368:	0017e793          	ori	a5,a5,1
    536c:	80f71023          	sh	a5,-2048(a4)
    5370:	db8fe0ef          	jal	ra,3928 <RTC_WaitForLastTask>
    5374:	fff40513          	addi	a0,s0,-1 # 7fff <CO_LSSslave_process+0xb5>
    5378:	d82fe0ef          	jal	ra,38fa <RTC_SetPrescaler>
    537c:	dacfe0ef          	jal	ra,3928 <RTC_WaitForLastTask>
    5380:	864e                	mv	a2,s3
    5382:	85ca                	mv	a1,s2
    5384:	454d                	li	a0,19
    5386:	f21ff0ef          	jal	ra,52a6 <PFIC_IRQ_ENABLE_PG1>
    538a:	200007b7          	lui	a5,0x20000
    538e:	6897a823          	sw	s1,1680(a5) # 20000690 <func>
    5392:	bf61                	j	532a <HAL_RTC_IT_Init+0x50>

00005394 <RTC_IRQHandler>:
    5394:	715d                	addi	sp,sp,-80
    5396:	d23e                	sw	a5,36(sp)
    5398:	400037b7          	lui	a5,0x40003
    539c:	de22                	sw	s0,60(sp)
    539e:	80078413          	addi	s0,a5,-2048 # 40002800 <__freertos_irq_stack_top+0x1fffd800>
    53a2:	8007d783          	lhu	a5,-2048(a5)
    53a6:	c686                	sw	ra,76(sp)
    53a8:	c496                	sw	t0,72(sp)
    53aa:	c29a                	sw	t1,68(sp)
    53ac:	c09e                	sw	t2,64(sp)
    53ae:	dc2a                	sw	a0,56(sp)
    53b0:	da2e                	sw	a1,52(sp)
    53b2:	d832                	sw	a2,48(sp)
    53b4:	d636                	sw	a3,44(sp)
    53b6:	d43a                	sw	a4,40(sp)
    53b8:	d042                	sw	a6,32(sp)
    53ba:	ce46                	sw	a7,28(sp)
    53bc:	cc72                	sw	t3,24(sp)
    53be:	ca76                	sw	t4,20(sp)
    53c0:	c87a                	sw	t5,16(sp)
    53c2:	c67e                	sw	t6,12(sp)
    53c4:	8b85                	andi	a5,a5,1
    53c6:	cf89                	beqz	a5,53e0 <RTC_IRQHandler+0x4c>
    53c8:	200007b7          	lui	a5,0x20000
    53cc:	6907a783          	lw	a5,1680(a5) # 20000690 <func>
    53d0:	9782                	jalr	a5
    53d2:	205e                	lhu	a5,4(s0)
    53d4:	07c2                	slli	a5,a5,0x10
    53d6:	83c1                	srli	a5,a5,0x10
    53d8:	9bf9                	andi	a5,a5,-2
    53da:	07c2                	slli	a5,a5,0x10
    53dc:	83c1                	srli	a5,a5,0x10
    53de:	a05e                	sh	a5,4(s0)
    53e0:	d48fe0ef          	jal	ra,3928 <RTC_WaitForLastTask>
    53e4:	5472                	lw	s0,60(sp)
    53e6:	40b6                	lw	ra,76(sp)
    53e8:	42a6                	lw	t0,72(sp)
    53ea:	4316                	lw	t1,68(sp)
    53ec:	4386                	lw	t2,64(sp)
    53ee:	5562                	lw	a0,56(sp)
    53f0:	55d2                	lw	a1,52(sp)
    53f2:	5642                	lw	a2,48(sp)
    53f4:	56b2                	lw	a3,44(sp)
    53f6:	5722                	lw	a4,40(sp)
    53f8:	5792                	lw	a5,36(sp)
    53fa:	5802                	lw	a6,32(sp)
    53fc:	48f2                	lw	a7,28(sp)
    53fe:	4e62                	lw	t3,24(sp)
    5400:	4ed2                	lw	t4,20(sp)
    5402:	4f42                	lw	t5,16(sp)
    5404:	4fb2                	lw	t6,12(sp)
    5406:	6161                	addi	sp,sp,80
    5408:	30200073          	mret

0000540c <HAL_SPI_InitDMA>:
    540c:	400217b7          	lui	a5,0x40021
    5410:	e929                	bnez	a0,5462 <HAL_SPI_InitDMA+0x56>
    5412:	4f94                	lw	a3,24(a5)
    5414:	6605                	lui	a2,0x1
    5416:	8ed1                	or	a3,a3,a2
    5418:	cf94                	sw	a3,24(a5)
    541a:	47d8                	lw	a4,12(a5)
    541c:	76fd                	lui	a3,0xfffff
    541e:	16fd                	addi	a3,a3,-1
    5420:	8f51                	or	a4,a4,a2
    5422:	c7d8                	sw	a4,12(a5)
    5424:	47d8                	lw	a4,12(a5)
    5426:	8f75                	and	a4,a4,a3
    5428:	c7d8                	sw	a4,12(a5)
    542a:	77f1                	lui	a5,0xffffc
    542c:	30c78793          	addi	a5,a5,780 # ffffc30c <__freertos_irq_stack_top+0xdfff730c>
    5430:	8ddd                	or	a1,a1,a5
    5432:	00251793          	slli	a5,a0,0x2
    5436:	80818513          	addi	a0,gp,-2040 # 200005b0 <SPI>
    543a:	953e                	add	a0,a0,a5
    543c:	411c                	lw	a5,0(a0)
    543e:	05c2                	slli	a1,a1,0x10
    5440:	81c1                	srli	a1,a1,0x10
    5442:	a38e                	sh	a1,0(a5)
    5444:	2fda                	lhu	a4,28(a5)
    5446:	10477713          	andi	a4,a4,260
    544a:	afda                	sh	a4,28(a5)
    544c:	00079823          	sh	zero,16(a5)
    5450:	23da                	lhu	a4,4(a5)
    5452:	00276713          	ori	a4,a4,2
    5456:	a3da                	sh	a4,4(a5)
    5458:	239a                	lhu	a4,0(a5)
    545a:	04076713          	ori	a4,a4,64
    545e:	a39a                	sh	a4,0(a5)
    5460:	8082                	ret
    5462:	4fd4                	lw	a3,28(a5)
    5464:	6611                	lui	a2,0x4
    5466:	8ed1                	or	a3,a3,a2
    5468:	cfd4                	sw	a3,28(a5)
    546a:	4b98                	lw	a4,16(a5)
    546c:	76f1                	lui	a3,0xffffc
    546e:	16fd                	addi	a3,a3,-1
    5470:	8f51                	or	a4,a4,a2
    5472:	cb98                	sw	a4,16(a5)
    5474:	4b98                	lw	a4,16(a5)
    5476:	8f75                	and	a4,a4,a3
    5478:	cb98                	sw	a4,16(a5)
    547a:	bf45                	j	542a <HAL_SPI_InitDMA+0x1e>

0000547c <HAL_SPI_RXOveleyClear>:
    547c:	050a                	slli	a0,a0,0x2
    547e:	80818793          	addi	a5,gp,-2040 # 200005b0 <SPI>
    5482:	97aa                	add	a5,a5,a0
    5484:	439c                	lw	a5,0(a5)
    5486:	fbf00713          	li	a4,-65
    548a:	a79a                	sh	a4,8(a5)
    548c:	8082                	ret

0000548e <HAL_SPI_GetBusy>:
    548e:	050a                	slli	a0,a0,0x2
    5490:	80818793          	addi	a5,gp,-2040 # 200005b0 <SPI>
    5494:	97aa                	add	a5,a5,a0
    5496:	439c                	lw	a5,0(a5)
    5498:	4501                	li	a0,0
    549a:	279e                	lhu	a5,8(a5)
    549c:	8082                	ret

0000549e <TIM4_IRQHandler>:
    549e:	715d                	addi	sp,sp,-80
    54a0:	de22                	sw	s0,60(sp)
    54a2:	40001437          	lui	s0,0x40001
    54a6:	dc2a                	sw	a0,56(sp)
    54a8:	da2e                	sw	a1,52(sp)
    54aa:	80040513          	addi	a0,s0,-2048 # 40000800 <__freertos_irq_stack_top+0x1fffb800>
    54ae:	4585                	li	a1,1
    54b0:	d23e                	sw	a5,36(sp)
    54b2:	c686                	sw	ra,76(sp)
    54b4:	c496                	sw	t0,72(sp)
    54b6:	c29a                	sw	t1,68(sp)
    54b8:	c09e                	sw	t2,64(sp)
    54ba:	d832                	sw	a2,48(sp)
    54bc:	d636                	sw	a3,44(sp)
    54be:	d43a                	sw	a4,40(sp)
    54c0:	d042                	sw	a6,32(sp)
    54c2:	ce46                	sw	a7,28(sp)
    54c4:	cc72                	sw	t3,24(sp)
    54c6:	ca76                	sw	t4,20(sp)
    54c8:	c87a                	sw	t5,16(sp)
    54ca:	c67e                	sw	t6,12(sp)
    54cc:	ed8fe0ef          	jal	ra,3ba4 <TIM_GetITStatus>
    54d0:	4785                	li	a5,1
    54d2:	00f51a63          	bne	a0,a5,54e6 <TIM4_IRQHandler+0x48>
    54d6:	200037b7          	lui	a5,0x20003
    54da:	d2c7a783          	lw	a5,-724(a5) # 20002d2c <callback+0x18>
    54de:	9782                	jalr	a5
    54e0:	57f9                	li	a5,-2
    54e2:	80f41823          	sh	a5,-2032(s0)
    54e6:	5472                	lw	s0,60(sp)
    54e8:	40b6                	lw	ra,76(sp)
    54ea:	42a6                	lw	t0,72(sp)
    54ec:	4316                	lw	t1,68(sp)
    54ee:	4386                	lw	t2,64(sp)
    54f0:	5562                	lw	a0,56(sp)
    54f2:	55d2                	lw	a1,52(sp)
    54f4:	5642                	lw	a2,48(sp)
    54f6:	56b2                	lw	a3,44(sp)
    54f8:	5722                	lw	a4,40(sp)
    54fa:	5792                	lw	a5,36(sp)
    54fc:	5802                	lw	a6,32(sp)
    54fe:	48f2                	lw	a7,28(sp)
    5500:	4e62                	lw	t3,24(sp)
    5502:	4ed2                	lw	t4,20(sp)
    5504:	4f42                	lw	t5,16(sp)
    5506:	4fb2                	lw	t6,12(sp)
    5508:	6161                	addi	sp,sp,80
    550a:	30200073          	mret

0000550e <HAL_TiemrEneblae>:
    550e:	67b5                	lui	a5,0xd
    5510:	050a                	slli	a0,a0,0x2
    5512:	bd078793          	addi	a5,a5,-1072 # cbd0 <timers>
    5516:	97aa                	add	a5,a5,a0
    5518:	4398                	lw	a4,0(a5)
    551a:	231e                	lhu	a5,0(a4)
    551c:	0017e793          	ori	a5,a5,1
    5520:	a31e                	sh	a5,0(a4)
    5522:	8082                	ret

00005524 <HAL_TiemrDisable>:
    5524:	67b5                	lui	a5,0xd
    5526:	050a                	slli	a0,a0,0x2
    5528:	bd078793          	addi	a5,a5,-1072 # cbd0 <timers>
    552c:	97aa                	add	a5,a5,a0
    552e:	4398                	lw	a4,0(a5)
    5530:	231e                	lhu	a5,0(a4)
    5532:	07c2                	slli	a5,a5,0x10
    5534:	83c1                	srli	a5,a5,0x10
    5536:	9bf9                	andi	a5,a5,-2
    5538:	07c2                	slli	a5,a5,0x10
    553a:	83c1                	srli	a5,a5,0x10
    553c:	a31e                	sh	a5,0(a4)
    553e:	8082                	ret

00005540 <HW_TIMER_BaseTimerInit>:
    5540:	4785                	li	a5,1
    5542:	06f50963          	beq	a0,a5,55b4 <HW_TIMER_BaseTimerInit+0x74>
    5546:	c10d                	beqz	a0,5568 <HW_TIMER_BaseTimerInit+0x28>
    5548:	4789                	li	a5,2
    554a:	08f50363          	beq	a0,a5,55d0 <HW_TIMER_BaseTimerInit+0x90>
    554e:	400217b7          	lui	a5,0x40021
    5552:	4b98                	lw	a4,16(a5)
    5554:	00476713          	ori	a4,a4,4
    5558:	cb98                	sw	a4,16(a5)
    555a:	4b98                	lw	a4,16(a5)
    555c:	9b6d                	andi	a4,a4,-5
    555e:	cb98                	sw	a4,16(a5)
    5560:	4fd8                	lw	a4,28(a5)
    5562:	00476713          	ori	a4,a4,4
    5566:	a09d                	j	55cc <HW_TIMER_BaseTimerInit+0x8c>
    5568:	400217b7          	lui	a5,0x40021
    556c:	47d4                	lw	a3,12(a5)
    556e:	6705                	lui	a4,0x1
    5570:	80070713          	addi	a4,a4,-2048 # 800 <vCanOpenPeriodicProcess+0x5a>
    5574:	8ed9                	or	a3,a3,a4
    5576:	c7d4                	sw	a3,12(a5)
    5578:	47d4                	lw	a3,12(a5)
    557a:	767d                	lui	a2,0xfffff
    557c:	7ff60613          	addi	a2,a2,2047 # fffff7ff <__freertos_irq_stack_top+0xdfffa7ff>
    5580:	8ef1                	and	a3,a3,a2
    5582:	c7d4                	sw	a3,12(a5)
    5584:	4f94                	lw	a3,24(a5)
    5586:	8f55                	or	a4,a4,a3
    5588:	cf98                	sw	a4,24(a5)
    558a:	67b5                	lui	a5,0xd
    558c:	00251713          	slli	a4,a0,0x2
    5590:	bd078793          	addi	a5,a5,-1072 # cbd0 <timers>
    5594:	97ba                	add	a5,a5,a4
    5596:	439c                	lw	a5,0(a5)
    5598:	21da                	lhu	a4,4(a1)
    559a:	a39a                	sh	a4,0(a5)
    559c:	219a                	lhu	a4,0(a1)
    559e:	b7da                	sh	a4,44(a5)
    55a0:	21ba                	lhu	a4,2(a1)
    55a2:	b79a                	sh	a4,40(a5)
    55a4:	e509                	bnez	a0,55ae <HW_TIMER_BaseTimerInit+0x6e>
    55a6:	40013737          	lui	a4,0x40013
    55aa:	c2071823          	sh	zero,-976(a4) # 40012c30 <__freertos_irq_stack_top+0x2000dc30>
    55ae:	4705                	li	a4,1
    55b0:	abda                	sh	a4,20(a5)
    55b2:	8082                	ret
    55b4:	400217b7          	lui	a5,0x40021
    55b8:	4b98                	lw	a4,16(a5)
    55ba:	00176713          	ori	a4,a4,1
    55be:	cb98                	sw	a4,16(a5)
    55c0:	4b98                	lw	a4,16(a5)
    55c2:	9b79                	andi	a4,a4,-2
    55c4:	cb98                	sw	a4,16(a5)
    55c6:	4fd8                	lw	a4,28(a5)
    55c8:	00176713          	ori	a4,a4,1
    55cc:	cfd8                	sw	a4,28(a5)
    55ce:	bf75                	j	558a <HW_TIMER_BaseTimerInit+0x4a>
    55d0:	400217b7          	lui	a5,0x40021
    55d4:	4b98                	lw	a4,16(a5)
    55d6:	00276713          	ori	a4,a4,2
    55da:	cb98                	sw	a4,16(a5)
    55dc:	4b98                	lw	a4,16(a5)
    55de:	9b75                	andi	a4,a4,-3
    55e0:	cb98                	sw	a4,16(a5)
    55e2:	4fd8                	lw	a4,28(a5)
    55e4:	00276713          	ori	a4,a4,2
    55e8:	b7d5                	j	55cc <HW_TIMER_BaseTimerInit+0x8c>

000055ea <HAL_TIMER_InitIt>:
    55ea:	f35fa2ef          	jal	t0,51e <__riscv_save_0>
    55ee:	1101                	addi	sp,sp,-32
    55f0:	84f0                	sh	a2,24(sp)
    55f2:	044aa637          	lui	a2,0x44aa
    55f6:	20060613          	addi	a2,a2,512 # 44aa200 <_data_lma+0x449c704>
    55fa:	02b655b3          	divu	a1,a2,a1
    55fe:	20003637          	lui	a2,0x20003
    5602:	d1460613          	addi	a2,a2,-748 # 20002d14 <callback>
    5606:	842a                	mv	s0,a0
    5608:	c63a                	sw	a4,12(sp)
    560a:	c43e                	sw	a5,8(sp)
    560c:	00011e23          	sh	zero,28(sp)
    5610:	040a                	slli	s0,s0,0x2
    5612:	85ec                	sh	a1,26(sp)
    5614:	00351593          	slli	a1,a0,0x3
    5618:	962e                	add	a2,a2,a1
    561a:	c214                	sw	a3,0(a2)
    561c:	082c                	addi	a1,sp,24
    561e:	f23ff0ef          	jal	ra,5540 <HW_TIMER_BaseTimerInit>
    5622:	6535                	lui	a0,0xd
    5624:	bd050513          	addi	a0,a0,-1072 # cbd0 <timers>
    5628:	9522                	add	a0,a0,s0
    562a:	4110                	lw	a2,0(a0)
    562c:	47a2                	lw	a5,8(sp)
    562e:	4732                	lw	a4,12(sp)
    5630:	2656                	lhu	a3,12(a2)
    5632:	02e00513          	li	a0,46
    5636:	85ba                	mv	a1,a4
    5638:	0016e693          	ori	a3,a3,1
    563c:	a656                	sh	a3,12(a2)
    563e:	863e                	mv	a2,a5
    5640:	c67ff0ef          	jal	ra,52a6 <PFIC_IRQ_ENABLE_PG1>
    5644:	6105                	addi	sp,sp,32
    5646:	efdfa06f          	j	542 <__riscv_restore_0>

0000564a <HAL_TIMER_PWMTimersInit>:
    564a:	ed5fa2ef          	jal	t0,51e <__riscv_save_0>
    564e:	044aa7b7          	lui	a5,0x44aa
    5652:	20078793          	addi	a5,a5,512 # 44aa200 <_data_lma+0x449c704>
    5656:	02b7d5b3          	divu	a1,a5,a1
    565a:	1101                	addi	sp,sp,-32
    565c:	01061913          	slli	s2,a2,0x10
    5660:	01095913          	srli	s2,s2,0x10
    5664:	842a                	mv	s0,a0
    5666:	84b6                	mv	s1,a3
    5668:	c802                	sw	zero,16(sp)
    566a:	ca02                	sw	zero,20(sp)
    566c:	cc02                	sw	zero,24(sp)
    566e:	ce02                	sw	zero,28(sp)
    5670:	01211423          	sh	s2,8(sp)
    5674:	00011623          	sh	zero,12(sp)
    5678:	040a                	slli	s0,s0,0x2
    567a:	856c                	sh	a1,10(sp)
    567c:	002c                	addi	a1,sp,8
    567e:	ec3ff0ef          	jal	ra,5540 <HW_TIMER_BaseTimerInit>
    5682:	67c1                	lui	a5,0x10
    5684:	6535                	lui	a0,0xd
    5686:	07078793          	addi	a5,a5,112 # 10070 <_data_lma+0x2574>
    568a:	bd050513          	addi	a0,a0,-1072 # cbd0 <timers>
    568e:	c83e                	sw	a5,16(sp)
    5690:	9522                	add	a0,a0,s0
    5692:	01211b23          	sh	s2,22(sp)
    5696:	00011c23          	sh	zero,24(sp)
    569a:	0014f793          	andi	a5,s1,1
    569e:	4100                	lw	s0,0(a0)
    56a0:	cb89                	beqz	a5,56b2 <HAL_TIMER_PWMTimersInit+0x68>
    56a2:	080c                	addi	a1,sp,16
    56a4:	8522                	mv	a0,s0
    56a6:	ab6fe0ef          	jal	ra,395c <TIM_OC1Init>
    56aa:	4581                	li	a1,0
    56ac:	8522                	mv	a0,s0
    56ae:	caefe0ef          	jal	ra,3b5c <TIM_OC1PreloadConfig>
    56b2:	0024f793          	andi	a5,s1,2
    56b6:	cb89                	beqz	a5,56c8 <HAL_TIMER_PWMTimersInit+0x7e>
    56b8:	080c                	addi	a1,sp,16
    56ba:	8522                	mv	a0,s0
    56bc:	b0afe0ef          	jal	ra,39c6 <TIM_OC2Init>
    56c0:	4581                	li	a1,0
    56c2:	8522                	mv	a0,s0
    56c4:	ca6fe0ef          	jal	ra,3b6a <TIM_OC2PreloadConfig>
    56c8:	0044f793          	andi	a5,s1,4
    56cc:	cb89                	beqz	a5,56de <HAL_TIMER_PWMTimersInit+0x94>
    56ce:	080c                	addi	a1,sp,16
    56d0:	8522                	mv	a0,s0
    56d2:	b8afe0ef          	jal	ra,3a5c <TIM_OC3Init>
    56d6:	4581                	li	a1,0
    56d8:	8522                	mv	a0,s0
    56da:	ca6fe0ef          	jal	ra,3b80 <TIM_OC3PreloadConfig>
    56de:	88a1                	andi	s1,s1,8
    56e0:	c889                	beqz	s1,56f2 <HAL_TIMER_PWMTimersInit+0xa8>
    56e2:	080c                	addi	a1,sp,16
    56e4:	8522                	mv	a0,s0
    56e6:	c0afe0ef          	jal	ra,3af0 <TIM_OC4Init>
    56ea:	4581                	li	a1,0
    56ec:	8522                	mv	a0,s0
    56ee:	ca0fe0ef          	jal	ra,3b8e <TIM_OC4PreloadConfig>
    56f2:	201e                	lhu	a5,0(s0)
    56f4:	6721                	lui	a4,0x8
    56f6:	0807e793          	ori	a5,a5,128
    56fa:	a01e                	sh	a5,0(s0)
    56fc:	04445783          	lhu	a5,68(s0)
    5700:	8fd9                	or	a5,a5,a4
    5702:	04f41223          	sh	a5,68(s0)
    5706:	6105                	addi	sp,sp,32
    5708:	e3bfa06f          	j	542 <__riscv_restore_0>

0000570c <HAL_TimeInitCaptureDMA>:
    570c:	e13fa2ef          	jal	t0,51e <__riscv_save_0>
    5710:	044aa7b7          	lui	a5,0x44aa
    5714:	20078793          	addi	a5,a5,512 # 44aa200 <_data_lma+0x449c704>
    5718:	02b7d5b3          	divu	a1,a5,a1
    571c:	1101                	addi	sp,sp,-32
    571e:	c636                	sw	a3,12(sp)
    5720:	842a                	mv	s0,a0
    5722:	84f0                	sh	a2,24(sp)
    5724:	00011e23          	sh	zero,28(sp)
    5728:	85ec                	sh	a1,26(sp)
    572a:	082c                	addi	a1,sp,24
    572c:	e15ff0ef          	jal	ra,5540 <HW_TIMER_BaseTimerInit>
    5730:	46b2                	lw	a3,12(sp)
    5732:	4789                	li	a5,2
    5734:	06f69263          	bne	a3,a5,5798 <HAL_TimeInitCaptureDMA+0x8c>
    5738:	67b5                	lui	a5,0xd
    573a:	bd078793          	addi	a5,a5,-1072 # cbd0 <timers>
    573e:	040a                	slli	s0,s0,0x2
    5740:	943e                	add	s0,s0,a5
    5742:	401c                	lw	a5,0(s0)
    5744:	6685                	lui	a3,0x1
    5746:	cff68693          	addi	a3,a3,-769 # cff <WriteRegAfterDelay+0x5b>
    574a:	339a                	lhu	a4,32(a5)
    574c:	0742                	slli	a4,a4,0x10
    574e:	8341                	srli	a4,a4,0x10
    5750:	9b3d                	andi	a4,a4,-17
    5752:	0742                	slli	a4,a4,0x10
    5754:	8341                	srli	a4,a4,0x10
    5756:	b39a                	sh	a4,32(a5)
    5758:	2f92                	lhu	a2,24(a5)
    575a:	339a                	lhu	a4,32(a5)
    575c:	8ef1                	and	a3,a3,a2
    575e:	0742                	slli	a4,a4,0x10
    5760:	6611                	lui	a2,0x4
    5762:	8341                	srli	a4,a4,0x10
    5764:	10060613          	addi	a2,a2,256 # 4100 <eEEPROMWrFast+0x6a>
    5768:	8ed1                	or	a3,a3,a2
    576a:	fdf77713          	andi	a4,a4,-33
    576e:	af96                	sh	a3,24(a5)
    5770:	01076713          	ori	a4,a4,16
    5774:	b39a                	sh	a4,32(a5)
    5776:	2f96                	lhu	a3,24(a5)
    5778:	777d                	lui	a4,0xfffff
    577a:	3ff70713          	addi	a4,a4,1023 # fffff3ff <__freertos_irq_stack_top+0xdfffa3ff>
    577e:	8f75                	and	a4,a4,a3
    5780:	af9a                	sh	a4,24(a5)
    5782:	2f9a                	lhu	a4,24(a5)
    5784:	0742                	slli	a4,a4,0x10
    5786:	8341                	srli	a4,a4,0x10
    5788:	af9a                	sh	a4,24(a5)
    578a:	27da                	lhu	a4,12(a5)
    578c:	40476713          	ori	a4,a4,1028
    5790:	a7da                	sh	a4,12(a5)
    5792:	6105                	addi	sp,sp,32
    5794:	daffa06f          	j	542 <__riscv_restore_0>
    5798:	47a1                	li	a5,8
    579a:	fef69ce3          	bne	a3,a5,5792 <HAL_TimeInitCaptureDMA+0x86>
    579e:	67b5                	lui	a5,0xd
    57a0:	bd078793          	addi	a5,a5,-1072 # cbd0 <timers>
    57a4:	040a                	slli	s0,s0,0x2
    57a6:	943e                	add	s0,s0,a5
    57a8:	401c                	lw	a5,0(s0)
    57aa:	767d                	lui	a2,0xfffff
    57ac:	fff60713          	addi	a4,a2,-1 # ffffefff <__freertos_irq_stack_top+0xdfff9fff>
    57b0:	3396                	lhu	a3,32(a5)
    57b2:	6511                	lui	a0,0x4
    57b4:	10050513          	addi	a0,a0,256 # 4100 <eEEPROMWrFast+0x6a>
    57b8:	8f75                	and	a4,a4,a3
    57ba:	b39a                	sh	a4,32(a5)
    57bc:	2fda                	lhu	a4,28(a5)
    57be:	6685                	lui	a3,0x1
    57c0:	0207d803          	lhu	a6,32(a5)
    57c4:	cff68593          	addi	a1,a3,-769 # cff <WriteRegAfterDelay+0x5b>
    57c8:	8df9                	and	a1,a1,a4
    57ca:	7779                	lui	a4,0xffffe
    57cc:	177d                	addi	a4,a4,-1
    57ce:	8dc9                	or	a1,a1,a0
    57d0:	01077733          	and	a4,a4,a6
    57d4:	6505                	lui	a0,0x1
    57d6:	afce                	sh	a1,28(a5)
    57d8:	8f49                	or	a4,a4,a0
    57da:	b39a                	sh	a4,32(a5)
    57dc:	2fda                	lhu	a4,28(a5)
    57de:	3ff60613          	addi	a2,a2,1023
    57e2:	06c1                	addi	a3,a3,16
    57e4:	8e79                	and	a2,a2,a4
    57e6:	afd2                	sh	a2,28(a5)
    57e8:	2fda                	lhu	a4,28(a5)
    57ea:	0742                	slli	a4,a4,0x10
    57ec:	8341                	srli	a4,a4,0x10
    57ee:	afda                	sh	a4,28(a5)
    57f0:	27da                	lhu	a4,12(a5)
    57f2:	8ed9                	or	a3,a3,a4
    57f4:	a7d6                	sh	a3,12(a5)
    57f6:	bf71                	j	5792 <HAL_TimeInitCaptureDMA+0x86>

000057f8 <HAL_TIMER_SetPWMPulse>:
    57f8:	d27fa2ef          	jal	t0,51e <__riscv_save_0>
    57fc:	67b5                	lui	a5,0xd
    57fe:	050a                	slli	a0,a0,0x2
    5800:	bd078793          	addi	a5,a5,-1072 # cbd0 <timers>
    5804:	97aa                	add	a5,a5,a0
    5806:	4380                	lw	s0,0(a5)
    5808:	67a1                	lui	a5,0x8
    580a:	17fd                	addi	a5,a5,-1
    580c:	04445703          	lhu	a4,68(s0)
    5810:	1141                	addi	sp,sp,-16
    5812:	c202                	sw	zero,4(sp)
    5814:	8f7d                	and	a4,a4,a5
    5816:	04e41223          	sh	a4,68(s0)
    581a:	04445703          	lhu	a4,68(s0)
    581e:	c402                	sw	zero,8(sp)
    5820:	c602                	sw	zero,12(sp)
    5822:	8ff9                	and	a5,a5,a4
    5824:	04f41223          	sh	a5,68(s0)
    5828:	67c1                	lui	a5,0x10
    582a:	06078793          	addi	a5,a5,96 # 10060 <_data_lma+0x2564>
    582e:	c03e                	sw	a5,0(sp)
    5830:	4789                	li	a5,2
    5832:	847c                	sh	a5,8(sp)
    5834:	8370                	sh	a2,6(sp)
    5836:	0015f793          	andi	a5,a1,1
    583a:	84ae                	mv	s1,a1
    583c:	c789                	beqz	a5,5846 <HAL_TIMER_SetPWMPulse+0x4e>
    583e:	858a                	mv	a1,sp
    5840:	8522                	mv	a0,s0
    5842:	91afe0ef          	jal	ra,395c <TIM_OC1Init>
    5846:	0024f793          	andi	a5,s1,2
    584a:	c789                	beqz	a5,5854 <HAL_TIMER_SetPWMPulse+0x5c>
    584c:	858a                	mv	a1,sp
    584e:	8522                	mv	a0,s0
    5850:	976fe0ef          	jal	ra,39c6 <TIM_OC2Init>
    5854:	0044f793          	andi	a5,s1,4
    5858:	c789                	beqz	a5,5862 <HAL_TIMER_SetPWMPulse+0x6a>
    585a:	858a                	mv	a1,sp
    585c:	8522                	mv	a0,s0
    585e:	9fefe0ef          	jal	ra,3a5c <TIM_OC3Init>
    5862:	88a1                	andi	s1,s1,8
    5864:	c489                	beqz	s1,586e <HAL_TIMER_SetPWMPulse+0x76>
    5866:	858a                	mv	a1,sp
    5868:	8522                	mv	a0,s0
    586a:	a86fe0ef          	jal	ra,3af0 <TIM_OC4Init>
    586e:	04445783          	lhu	a5,68(s0)
    5872:	6721                	lui	a4,0x8
    5874:	8fd9                	or	a5,a5,a4
    5876:	04f41223          	sh	a5,68(s0)
    587a:	0141                	addi	sp,sp,16
    587c:	cc7fa06f          	j	542 <__riscv_restore_0>

00005880 <HAL_TIMER_EnablePWMCH>:
    5880:	67b5                	lui	a5,0xd
    5882:	050a                	slli	a0,a0,0x2
    5884:	bd078793          	addi	a5,a5,-1072 # cbd0 <timers>
    5888:	97aa                	add	a5,a5,a0
    588a:	4398                	lw	a4,0(a5)
    588c:	66a1                	lui	a3,0x8
    588e:	04475783          	lhu	a5,68(a4) # 8044 <CO_LSSslave_process+0xfa>
    5892:	8fd5                	or	a5,a5,a3
    5894:	04f71223          	sh	a5,68(a4)
    5898:	8082                	ret

0000589a <HAL_WDTReset>:
    589a:	67ad                	lui	a5,0xb
    589c:	40003737          	lui	a4,0x40003
    58a0:	aaa78793          	addi	a5,a5,-1366 # aaaa <__divsf3+0x20c>
    58a4:	c31c                	sw	a5,0(a4)
    58a6:	8082                	ret

000058a8 <HAL_WDT_Init1s>:
    58a8:	6715                	lui	a4,0x5
    58aa:	400037b7          	lui	a5,0x40003
    58ae:	55570713          	addi	a4,a4,1365 # 5555 <HW_TIMER_BaseTimerInit+0x15>
    58b2:	c398                	sw	a4,0(a5)
    58b4:	4711                	li	a4,4
    58b6:	c3d8                	sw	a4,4(a5)
    58b8:	27100713          	li	a4,625
    58bc:	c798                	sw	a4,8(a5)
    58be:	672d                	lui	a4,0xb
    58c0:	aaa70713          	addi	a4,a4,-1366 # aaaa <__divsf3+0x20c>
    58c4:	c398                	sw	a4,0(a5)
    58c6:	6735                	lui	a4,0xd
    58c8:	ccc70713          	addi	a4,a4,-820 # cccc <ODObjs+0x18>
    58cc:	c398                	sw	a4,0(a5)
    58ce:	8082                	ret

000058d0 <prvInsertBlockIntoFreeList>:
    58d0:	90018793          	addi	a5,gp,-1792 # 200006a8 <xStart>
    58d4:	4398                	lw	a4,0(a5)
    58d6:	02a76f63          	bltu	a4,a0,5914 <prvInsertBlockIntoFreeList+0x44>
    58da:	43d0                	lw	a2,4(a5)
    58dc:	00c786b3          	add	a3,a5,a2
    58e0:	00d51663          	bne	a0,a3,58ec <prvInsertBlockIntoFreeList+0x1c>
    58e4:	4154                	lw	a3,4(a0)
    58e6:	853e                	mv	a0,a5
    58e8:	96b2                	add	a3,a3,a2
    58ea:	c3d4                	sw	a3,4(a5)
    58ec:	4150                	lw	a2,4(a0)
    58ee:	00c506b3          	add	a3,a0,a2
    58f2:	00d71c63          	bne	a4,a3,590a <prvInsertBlockIntoFreeList+0x3a>
    58f6:	200006b7          	lui	a3,0x20000
    58fa:	6946a683          	lw	a3,1684(a3) # 20000694 <pxEnd>
    58fe:	00d70663          	beq	a4,a3,590a <prvInsertBlockIntoFreeList+0x3a>
    5902:	4354                	lw	a3,4(a4)
    5904:	4318                	lw	a4,0(a4)
    5906:	96b2                	add	a3,a3,a2
    5908:	c154                	sw	a3,4(a0)
    590a:	c118                	sw	a4,0(a0)
    590c:	00f50363          	beq	a0,a5,5912 <prvInsertBlockIntoFreeList+0x42>
    5910:	c388                	sw	a0,0(a5)
    5912:	8082                	ret
    5914:	87ba                	mv	a5,a4
    5916:	bf7d                	j	58d4 <prvInsertBlockIntoFreeList+0x4>

00005918 <pvPortMalloc>:
    5918:	bedfa2ef          	jal	t0,504 <__riscv_save_4>
    591c:	1141                	addi	sp,sp,-16
    591e:	c62a                	sw	a0,12(sp)
    5920:	088010ef          	jal	ra,69a8 <vTaskSuspendAll>
    5924:	200006b7          	lui	a3,0x20000
    5928:	6946a783          	lw	a5,1684(a3) # 20000694 <pxEnd>
    592c:	20000637          	lui	a2,0x20000
    5930:	69468693          	addi	a3,a3,1684
    5934:	69860613          	addi	a2,a2,1688 # 20000698 <xBlockAllocatedBit>
    5938:	4532                	lw	a0,12(sp)
    593a:	eba9                	bnez	a5,598c <pvPortMalloc+0x74>
    593c:	20003737          	lui	a4,0x20003
    5940:	d3c70793          	addi	a5,a4,-708 # 20002d3c <ucHeap>
    5944:	00f7f593          	andi	a1,a5,15
    5948:	d3c70713          	addi	a4,a4,-708
    594c:	c581                	beqz	a1,5954 <pvPortMalloc+0x3c>
    594e:	00f78713          	addi	a4,a5,15 # 4000300f <__freertos_irq_stack_top+0x1fffe00f>
    5952:	9b41                	andi	a4,a4,-16
    5954:	90018593          	addi	a1,gp,-1792 # 200006a8 <xStart>
    5958:	1f078793          	addi	a5,a5,496
    595c:	9bc1                	andi	a5,a5,-16
    595e:	0005a223          	sw	zero,4(a1) # 200004 <_data_lma+0x1f2508>
    5962:	c198                	sw	a4,0(a1)
    5964:	0007a223          	sw	zero,4(a5)
    5968:	0007a023          	sw	zero,0(a5)
    596c:	40e785b3          	sub	a1,a5,a4
    5970:	c29c                	sw	a5,0(a3)
    5972:	c31c                	sw	a5,0(a4)
    5974:	200007b7          	lui	a5,0x20000
    5978:	6ab7a023          	sw	a1,1696(a5) # 200006a0 <xMinimumEverFreeBytesRemaining>
    597c:	200007b7          	lui	a5,0x20000
    5980:	68b7ae23          	sw	a1,1692(a5) # 2000069c <xFreeBytesRemaining>
    5984:	800007b7          	lui	a5,0x80000
    5988:	c34c                	sw	a1,4(a4)
    598a:	c21c                	sw	a5,0(a2)
    598c:	00062a03          	lw	s4,0(a2)
    5990:	00aa77b3          	and	a5,s4,a0
    5994:	e385                	bnez	a5,59b4 <pvPortMalloc+0x9c>
    5996:	fff50793          	addi	a5,a0,-1 # fff <IncMenuIndex+0x33>
    599a:	5739                	li	a4,-18
    599c:	00f76c63          	bltu	a4,a5,59b4 <pvPortMalloc+0x9c>
    59a0:	01050793          	addi	a5,a0,16
    59a4:	00f7f713          	andi	a4,a5,15
    59a8:	c349                	beqz	a4,5a2a <pvPortMalloc+0x112>
    59aa:	ff07f713          	andi	a4,a5,-16
    59ae:	0741                	addi	a4,a4,16
    59b0:	06e7ec63          	bltu	a5,a4,5a28 <pvPortMalloc+0x110>
    59b4:	4481                	li	s1,0
    59b6:	a091                	j	59fa <pvPortMalloc+0xe2>
    59b8:	8722                	mv	a4,s0
    59ba:	842e                	mv	s0,a1
    59bc:	a059                	j	5a42 <pvPortMalloc+0x12a>
    59be:	c158                	sw	a4,4(a0)
    59c0:	c05c                	sw	a5,4(s0)
    59c2:	f0fff0ef          	jal	ra,58d0 <prvInsertBlockIntoFreeList>
    59c6:	4058                	lw	a4,4(s0)
    59c8:	200006b7          	lui	a3,0x20000
    59cc:	6a068693          	addi	a3,a3,1696 # 200006a0 <xMinimumEverFreeBytesRemaining>
    59d0:	4290                	lw	a2,0(a3)
    59d2:	40e907b3          	sub	a5,s2,a4
    59d6:	00f9a023          	sw	a5,0(s3)
    59da:	00c7f363          	bgeu	a5,a2,59e0 <pvPortMalloc+0xc8>
    59de:	c29c                	sw	a5,0(a3)
    59e0:	200007b7          	lui	a5,0x20000
    59e4:	00ea6733          	or	a4,s4,a4
    59e8:	6a478793          	addi	a5,a5,1700 # 200006a4 <xNumberOfSuccessfulAllocations>
    59ec:	c058                	sw	a4,4(s0)
    59ee:	4398                	lw	a4,0(a5)
    59f0:	04c1                	addi	s1,s1,16
    59f2:	00042023          	sw	zero,0(s0)
    59f6:	0705                	addi	a4,a4,1
    59f8:	c398                	sw	a4,0(a5)
    59fa:	140010ef          	jal	ra,6b3a <xTaskResumeAll>
    59fe:	00f4f793          	andi	a5,s1,15
    5a02:	cbc1                	beqz	a5,5a92 <pvPortMalloc+0x17a>
    5a04:	6789                	lui	a5,0x2
    5a06:	80078793          	addi	a5,a5,-2048 # 1800 <vRedrawTask+0x320>
    5a0a:	30079073          	csrw	mstatus,a5
    5a0e:	0000d637          	lui	a2,0xd
    5a12:	0000d537          	lui	a0,0xd
    5a16:	be460613          	addi	a2,a2,-1052 # cbe4 <timers+0x14>
    5a1a:	11000593          	li	a1,272
    5a1e:	c0c50513          	addi	a0,a0,-1012 # cc0c <timers+0x3c>
    5a22:	5b9050ef          	jal	ra,b7da <iprintf>
    5a26:	a001                	j	5a26 <pvPortMalloc+0x10e>
    5a28:	87ba                	mv	a5,a4
    5a2a:	20000737          	lui	a4,0x20000
    5a2e:	69c72903          	lw	s2,1692(a4) # 2000069c <xFreeBytesRemaining>
    5a32:	69c70993          	addi	s3,a4,1692
    5a36:	f6f96fe3          	bltu	s2,a5,59b4 <pvPortMalloc+0x9c>
    5a3a:	9001a403          	lw	s0,-1792(gp) # 200006a8 <xStart>
    5a3e:	90018713          	addi	a4,gp,-1792 # 200006a8 <xStart>
    5a42:	4050                	lw	a2,4(s0)
    5a44:	00f67463          	bgeu	a2,a5,5a4c <pvPortMalloc+0x134>
    5a48:	400c                	lw	a1,0(s0)
    5a4a:	f5bd                	bnez	a1,59b8 <pvPortMalloc+0xa0>
    5a4c:	4294                	lw	a3,0(a3)
    5a4e:	f68683e3          	beq	a3,s0,59b4 <pvPortMalloc+0x9c>
    5a52:	4014                	lw	a3,0(s0)
    5a54:	4304                	lw	s1,0(a4)
    5a56:	c314                	sw	a3,0(a4)
    5a58:	40f60733          	sub	a4,a2,a5
    5a5c:	02000693          	li	a3,32
    5a60:	f6e6f3e3          	bgeu	a3,a4,59c6 <pvPortMalloc+0xae>
    5a64:	00f40533          	add	a0,s0,a5
    5a68:	00f57693          	andi	a3,a0,15
    5a6c:	daa9                	beqz	a3,59be <pvPortMalloc+0xa6>
    5a6e:	6789                	lui	a5,0x2
    5a70:	80078793          	addi	a5,a5,-2048 # 1800 <vRedrawTask+0x320>
    5a74:	30079073          	csrw	mstatus,a5
    5a78:	0000d637          	lui	a2,0xd
    5a7c:	0000d537          	lui	a0,0xd
    5a80:	be460613          	addi	a2,a2,-1052 # cbe4 <timers+0x14>
    5a84:	0cf00593          	li	a1,207
    5a88:	c0c50513          	addi	a0,a0,-1012 # cc0c <timers+0x3c>
    5a8c:	54f050ef          	jal	ra,b7da <iprintf>
    5a90:	a001                	j	5a90 <pvPortMalloc+0x178>
    5a92:	8526                	mv	a0,s1
    5a94:	0141                	addi	sp,sp,16
    5a96:	aa3fa06f          	j	538 <__riscv_restore_4>

00005a9a <vPortSetupTimerInterrupt>:
    5a9a:	e000e7b7          	lui	a5,0xe000e
    5a9e:	5741                	li	a4,-16
    5aa0:	40e78723          	sb	a4,1038(a5) # e000e40e <__freertos_irq_stack_top+0xc000940e>
    5aa4:	40e78623          	sb	a4,1036(a5)
    5aa8:	e000f7b7          	lui	a5,0xe000f
    5aac:	0007a023          	sw	zero,0(a5) # e000f000 <__freertos_irq_stack_top+0xc000a000>
    5ab0:	0007a223          	sw	zero,4(a5)
    5ab4:	4681                	li	a3,0
    5ab6:	c794                	sw	a3,8(a5)
    5ab8:	4701                	li	a4,0
    5aba:	c7d8                	sw	a4,12(a5)
    5abc:	20000737          	lui	a4,0x20000
    5ac0:	5a872583          	lw	a1,1448(a4) # 200005a8 <SystemCoreClock>
    5ac4:	3e800713          	li	a4,1000
    5ac8:	4681                	li	a3,0
    5aca:	02e5d633          	divu	a2,a1,a4
    5ace:	473d                	li	a4,15
    5ad0:	cb90                	sw	a2,16(a5)
    5ad2:	cbd4                	sw	a3,20(a5)
    5ad4:	c398                	sw	a4,0(a5)
    5ad6:	8082                	ret

00005ad8 <xPortStartScheduler>:
    5ad8:	a47fa2ef          	jal	t0,51e <__riscv_save_0>
    5adc:	1141                	addi	sp,sp,-16
    5ade:	c602                	sw	zero,12(sp)
    5ae0:	305027f3          	csrr	a5,mtvec
    5ae4:	c63e                	sw	a5,12(sp)
    5ae6:	47b2                	lw	a5,12(sp)
    5ae8:	470d                	li	a4,3
    5aea:	8b8d                	andi	a5,a5,3
    5aec:	02e78463          	beq	a5,a4,5b14 <xPortStartScheduler+0x3c>
    5af0:	6789                	lui	a5,0x2
    5af2:	80078793          	addi	a5,a5,-2048 # 1800 <vRedrawTask+0x320>
    5af6:	30079073          	csrw	mstatus,a5
    5afa:	0000d637          	lui	a2,0xd
    5afe:	0000d537          	lui	a0,0xd
    5b02:	c3060613          	addi	a2,a2,-976 # cc30 <timers+0x60>
    5b06:	0b600593          	li	a1,182
    5b0a:	c0c50513          	addi	a0,a0,-1012 # cc0c <timers+0x3c>
    5b0e:	4cd050ef          	jal	ra,b7da <iprintf>
    5b12:	a001                	j	5b12 <xPortStartScheduler+0x3a>
    5b14:	200057b7          	lui	a5,0x20005
    5b18:	00078793          	mv	a5,a5
    5b1c:	8bbd                	andi	a5,a5,15
    5b1e:	c39d                	beqz	a5,5b44 <xPortStartScheduler+0x6c>
    5b20:	6789                	lui	a5,0x2
    5b22:	80078793          	addi	a5,a5,-2048 # 1800 <vRedrawTask+0x320>
    5b26:	30079073          	csrw	mstatus,a5
    5b2a:	0000d637          	lui	a2,0xd
    5b2e:	0000d537          	lui	a0,0xd
    5b32:	c3060613          	addi	a2,a2,-976 # cc30 <timers+0x60>
    5b36:	0bb00593          	li	a1,187
    5b3a:	c0c50513          	addi	a0,a0,-1012 # cc0c <timers+0x3c>
    5b3e:	49d050ef          	jal	ra,b7da <iprintf>
    5b42:	a001                	j	5b42 <xPortStartScheduler+0x6a>
    5b44:	f57ff0ef          	jal	ra,5a9a <vPortSetupTimerInterrupt>
    5b48:	e000e7b7          	lui	a5,0xe000e
    5b4c:	6711                	lui	a4,0x4
    5b4e:	10e7a023          	sw	a4,256(a5) # e000e100 <__freertos_irq_stack_top+0xc0009100>
    5b52:	6705                	lui	a4,0x1
    5b54:	10e7a023          	sw	a4,256(a5)
    5b58:	8001a823          	sw	zero,-2032(gp) # 200005b8 <uxCriticalNesting>
    5b5c:	fa4fa0ef          	jal	ra,300 <xPortStartFirstTask>
    5b60:	4501                	li	a0,0
    5b62:	0141                	addi	sp,sp,16
    5b64:	9dffa06f          	j	542 <__riscv_restore_0>

00005b68 <SysTick_Handler>:
    5b68:	7139                	addi	sp,sp,-64
    5b6a:	de06                	sw	ra,60(sp)
    5b6c:	dc16                	sw	t0,56(sp)
    5b6e:	da1a                	sw	t1,52(sp)
    5b70:	d81e                	sw	t2,48(sp)
    5b72:	d62a                	sw	a0,44(sp)
    5b74:	d42e                	sw	a1,40(sp)
    5b76:	d232                	sw	a2,36(sp)
    5b78:	d036                	sw	a3,32(sp)
    5b7a:	ce3a                	sw	a4,28(sp)
    5b7c:	cc3e                	sw	a5,24(sp)
    5b7e:	ca42                	sw	a6,20(sp)
    5b80:	c846                	sw	a7,16(sp)
    5b82:	c672                	sw	t3,12(sp)
    5b84:	c476                	sw	t4,8(sp)
    5b86:	c27a                	sw	t5,4(sp)
    5b88:	c07e                	sw	t6,0(sp)
    5b8a:	34011173          	csrrw	sp,mscratch,sp
    5b8e:	6789                	lui	a5,0x2
    5b90:	80078793          	addi	a5,a5,-2048 # 1800 <vRedrawTask+0x320>
    5b94:	30079073          	csrw	mstatus,a5
    5b98:	e000f7b7          	lui	a5,0xe000f
    5b9c:	0007a223          	sw	zero,4(a5) # e000f004 <__freertos_irq_stack_top+0xc000a004>
    5ba0:	61b000ef          	jal	ra,69ba <xTaskIncrementTick>
    5ba4:	c511                	beqz	a0,5bb0 <SysTick_Handler+0x48>
    5ba6:	e000e7b7          	lui	a5,0xe000e
    5baa:	6711                	lui	a4,0x4
    5bac:	20e7a023          	sw	a4,512(a5) # e000e200 <__freertos_irq_stack_top+0xc0009200>
    5bb0:	6789                	lui	a5,0x2
    5bb2:	88878793          	addi	a5,a5,-1912 # 1888 <vRedrawTask+0x3a8>
    5bb6:	30079073          	csrw	mstatus,a5
    5bba:	34011173          	csrrw	sp,mscratch,sp
    5bbe:	50f2                	lw	ra,60(sp)
    5bc0:	52e2                	lw	t0,56(sp)
    5bc2:	5352                	lw	t1,52(sp)
    5bc4:	53c2                	lw	t2,48(sp)
    5bc6:	5532                	lw	a0,44(sp)
    5bc8:	55a2                	lw	a1,40(sp)
    5bca:	5612                	lw	a2,36(sp)
    5bcc:	5682                	lw	a3,32(sp)
    5bce:	4772                	lw	a4,28(sp)
    5bd0:	47e2                	lw	a5,24(sp)
    5bd2:	4852                	lw	a6,20(sp)
    5bd4:	48c2                	lw	a7,16(sp)
    5bd6:	4e32                	lw	t3,12(sp)
    5bd8:	4ea2                	lw	t4,8(sp)
    5bda:	4f12                	lw	t5,4(sp)
    5bdc:	4f82                	lw	t6,0(sp)
    5bde:	6121                	addi	sp,sp,64
    5be0:	30200073          	mret

00005be4 <vPortEnterCritical>:
    5be4:	6789                	lui	a5,0x2
    5be6:	80078793          	addi	a5,a5,-2048 # 1800 <vRedrawTask+0x320>
    5bea:	30079073          	csrw	mstatus,a5
    5bee:	81018793          	addi	a5,gp,-2032 # 200005b8 <uxCriticalNesting>
    5bf2:	4398                	lw	a4,0(a5)
    5bf4:	0705                	addi	a4,a4,1
    5bf6:	c398                	sw	a4,0(a5)
    5bf8:	8082                	ret

00005bfa <vPortExitCritical>:
    5bfa:	81018713          	addi	a4,gp,-2032 # 200005b8 <uxCriticalNesting>
    5bfe:	431c                	lw	a5,0(a4)
    5c00:	e78d                	bnez	a5,5c2a <vPortExitCritical+0x30>
    5c02:	91dfa2ef          	jal	t0,51e <__riscv_save_0>
    5c06:	6789                	lui	a5,0x2
    5c08:	80078793          	addi	a5,a5,-2048 # 1800 <vRedrawTask+0x320>
    5c0c:	30079073          	csrw	mstatus,a5
    5c10:	0000d637          	lui	a2,0xd
    5c14:	0000d537          	lui	a0,0xd
    5c18:	c3060613          	addi	a2,a2,-976 # cc30 <timers+0x60>
    5c1c:	10300593          	li	a1,259
    5c20:	c0c50513          	addi	a0,a0,-1012 # cc0c <timers+0x3c>
    5c24:	3b7050ef          	jal	ra,b7da <iprintf>
    5c28:	a001                	j	5c28 <vPortExitCritical+0x2e>
    5c2a:	17fd                	addi	a5,a5,-1
    5c2c:	c31c                	sw	a5,0(a4)
    5c2e:	e791                	bnez	a5,5c3a <vPortExitCritical+0x40>
    5c30:	6789                	lui	a5,0x2
    5c32:	88878793          	addi	a5,a5,-1912 # 1888 <vRedrawTask+0x3a8>
    5c36:	30079073          	csrw	mstatus,a5
    5c3a:	8082                	ret

00005c3c <xPortSetInterruptMask>:
    5c3c:	6509                	lui	a0,0x2
    5c3e:	80050513          	addi	a0,a0,-2048 # 1800 <vRedrawTask+0x320>
    5c42:	30051573          	csrrw	a0,mstatus,a0
    5c46:	8082                	ret

00005c48 <vPortClearInterruptMask>:
    5c48:	30051073          	csrw	mstatus,a0
    5c4c:	8082                	ret

00005c4e <vListInitialise>:
    5c4e:	00850793          	addi	a5,a0,8
    5c52:	577d                	li	a4,-1
    5c54:	c15c                	sw	a5,4(a0)
    5c56:	c518                	sw	a4,8(a0)
    5c58:	c55c                	sw	a5,12(a0)
    5c5a:	c91c                	sw	a5,16(a0)
    5c5c:	00052023          	sw	zero,0(a0)
    5c60:	8082                	ret

00005c62 <vListInitialiseItem>:
    5c62:	00052823          	sw	zero,16(a0)
    5c66:	8082                	ret

00005c68 <vListInsertEnd>:
    5c68:	415c                	lw	a5,4(a0)
    5c6a:	4798                	lw	a4,8(a5)
    5c6c:	c1dc                	sw	a5,4(a1)
    5c6e:	c598                	sw	a4,8(a1)
    5c70:	4798                	lw	a4,8(a5)
    5c72:	c34c                	sw	a1,4(a4)
    5c74:	c78c                	sw	a1,8(a5)
    5c76:	411c                	lw	a5,0(a0)
    5c78:	c988                	sw	a0,16(a1)
    5c7a:	0785                	addi	a5,a5,1
    5c7c:	c11c                	sw	a5,0(a0)
    5c7e:	8082                	ret

00005c80 <vListInsert>:
    5c80:	4198                	lw	a4,0(a1)
    5c82:	56fd                	li	a3,-1
    5c84:	00850793          	addi	a5,a0,8
    5c88:	00d71e63          	bne	a4,a3,5ca4 <vListInsert+0x24>
    5c8c:	491c                	lw	a5,16(a0)
    5c8e:	43d8                	lw	a4,4(a5)
    5c90:	c1d8                	sw	a4,4(a1)
    5c92:	c70c                	sw	a1,8(a4)
    5c94:	c59c                	sw	a5,8(a1)
    5c96:	c3cc                	sw	a1,4(a5)
    5c98:	411c                	lw	a5,0(a0)
    5c9a:	c988                	sw	a0,16(a1)
    5c9c:	0785                	addi	a5,a5,1
    5c9e:	c11c                	sw	a5,0(a0)
    5ca0:	8082                	ret
    5ca2:	87b6                	mv	a5,a3
    5ca4:	43d4                	lw	a3,4(a5)
    5ca6:	4290                	lw	a2,0(a3)
    5ca8:	fec77de3          	bgeu	a4,a2,5ca2 <vListInsert+0x22>
    5cac:	b7cd                	j	5c8e <vListInsert+0xe>

00005cae <uxListRemove>:
    5cae:	4154                	lw	a3,4(a0)
    5cb0:	4518                	lw	a4,8(a0)
    5cb2:	491c                	lw	a5,16(a0)
    5cb4:	c698                	sw	a4,8(a3)
    5cb6:	c354                	sw	a3,4(a4)
    5cb8:	43d4                	lw	a3,4(a5)
    5cba:	00a69363          	bne	a3,a0,5cc0 <uxListRemove+0x12>
    5cbe:	c3d8                	sw	a4,4(a5)
    5cc0:	4398                	lw	a4,0(a5)
    5cc2:	00052823          	sw	zero,16(a0)
    5cc6:	177d                	addi	a4,a4,-1
    5cc8:	c398                	sw	a4,0(a5)
    5cca:	4388                	lw	a0,0(a5)
    5ccc:	8082                	ret

00005cce <prvIsQueueEmpty>:
    5cce:	851fa2ef          	jal	t0,51e <__riscv_save_0>
    5cd2:	1141                	addi	sp,sp,-16
    5cd4:	c62a                	sw	a0,12(sp)
    5cd6:	f0fff0ef          	jal	ra,5be4 <vPortEnterCritical>
    5cda:	4532                	lw	a0,12(sp)
    5cdc:	5d00                	lw	s0,56(a0)
    5cde:	f1dff0ef          	jal	ra,5bfa <vPortExitCritical>
    5ce2:	00143513          	seqz	a0,s0
    5ce6:	0141                	addi	sp,sp,16
    5ce8:	85bfa06f          	j	542 <__riscv_restore_0>

00005cec <prvCopyDataToQueue>:
    5cec:	833fa2ef          	jal	t0,51e <__riscv_save_0>
    5cf0:	8932                	mv	s2,a2
    5cf2:	4130                	lw	a2,64(a0)
    5cf4:	5d04                	lw	s1,56(a0)
    5cf6:	842a                	mv	s0,a0
    5cf8:	ee09                	bnez	a2,5d12 <prvCopyDataToQueue+0x26>
    5cfa:	411c                	lw	a5,0(a0)
    5cfc:	4501                	li	a0,0
    5cfe:	e791                	bnez	a5,5d0a <prvCopyDataToQueue+0x1e>
    5d00:	4408                	lw	a0,8(s0)
    5d02:	3d6010ef          	jal	ra,70d8 <xTaskPriorityDisinherit>
    5d06:	00042423          	sw	zero,8(s0)
    5d0a:	0485                	addi	s1,s1,1
    5d0c:	dc04                	sw	s1,56(s0)
    5d0e:	835fa06f          	j	542 <__riscv_restore_0>
    5d12:	02091063          	bnez	s2,5d32 <prvCopyDataToQueue+0x46>
    5d16:	4148                	lw	a0,4(a0)
    5d18:	033050ef          	jal	ra,b54a <memcpy>
    5d1c:	405c                	lw	a5,4(s0)
    5d1e:	4038                	lw	a4,64(s0)
    5d20:	4501                	li	a0,0
    5d22:	97ba                	add	a5,a5,a4
    5d24:	4418                	lw	a4,8(s0)
    5d26:	c05c                	sw	a5,4(s0)
    5d28:	fee7e1e3          	bltu	a5,a4,5d0a <prvCopyDataToQueue+0x1e>
    5d2c:	401c                	lw	a5,0(s0)
    5d2e:	c05c                	sw	a5,4(s0)
    5d30:	bfe9                	j	5d0a <prvCopyDataToQueue+0x1e>
    5d32:	4548                	lw	a0,12(a0)
    5d34:	017050ef          	jal	ra,b54a <memcpy>
    5d38:	403c                	lw	a5,64(s0)
    5d3a:	4458                	lw	a4,12(s0)
    5d3c:	4014                	lw	a3,0(s0)
    5d3e:	40f007b3          	neg	a5,a5
    5d42:	973e                	add	a4,a4,a5
    5d44:	c458                	sw	a4,12(s0)
    5d46:	00d77563          	bgeu	a4,a3,5d50 <prvCopyDataToQueue+0x64>
    5d4a:	4418                	lw	a4,8(s0)
    5d4c:	97ba                	add	a5,a5,a4
    5d4e:	c45c                	sw	a5,12(s0)
    5d50:	4789                	li	a5,2
    5d52:	4501                	li	a0,0
    5d54:	faf91be3          	bne	s2,a5,5d0a <prvCopyDataToQueue+0x1e>
    5d58:	d8cd                	beqz	s1,5d0a <prvCopyDataToQueue+0x1e>
    5d5a:	14fd                	addi	s1,s1,-1
    5d5c:	b77d                	j	5d0a <prvCopyDataToQueue+0x1e>

00005d5e <prvCopyDataFromQueue>:
    5d5e:	4130                	lw	a2,64(a0)
    5d60:	c215                	beqz	a2,5d84 <prvCopyDataFromQueue+0x26>
    5d62:	fbcfa2ef          	jal	t0,51e <__riscv_save_0>
    5d66:	4558                	lw	a4,12(a0)
    5d68:	4514                	lw	a3,8(a0)
    5d6a:	87aa                	mv	a5,a0
    5d6c:	9732                	add	a4,a4,a2
    5d6e:	c558                	sw	a4,12(a0)
    5d70:	00d76463          	bltu	a4,a3,5d78 <prvCopyDataFromQueue+0x1a>
    5d74:	4118                	lw	a4,0(a0)
    5d76:	c558                	sw	a4,12(a0)
    5d78:	852e                	mv	a0,a1
    5d7a:	47cc                	lw	a1,12(a5)
    5d7c:	7ce050ef          	jal	ra,b54a <memcpy>
    5d80:	fc2fa06f          	j	542 <__riscv_restore_0>
    5d84:	8082                	ret

00005d86 <prvUnlockQueue>:
    5d86:	f98fa2ef          	jal	t0,51e <__riscv_save_0>
    5d8a:	842a                	mv	s0,a0
    5d8c:	e59ff0ef          	jal	ra,5be4 <vPortEnterCritical>
    5d90:	04544483          	lbu	s1,69(s0)
    5d94:	02440913          	addi	s2,s0,36
    5d98:	04e2                	slli	s1,s1,0x18
    5d9a:	84e1                	srai	s1,s1,0x18
    5d9c:	02904863          	bgtz	s1,5dcc <prvUnlockQueue+0x46>
    5da0:	57fd                	li	a5,-1
    5da2:	04f402a3          	sb	a5,69(s0)
    5da6:	e55ff0ef          	jal	ra,5bfa <vPortExitCritical>
    5daa:	e3bff0ef          	jal	ra,5be4 <vPortEnterCritical>
    5dae:	04444483          	lbu	s1,68(s0)
    5db2:	01040913          	addi	s2,s0,16
    5db6:	04e2                	slli	s1,s1,0x18
    5db8:	84e1                	srai	s1,s1,0x18
    5dba:	02904563          	bgtz	s1,5de4 <prvUnlockQueue+0x5e>
    5dbe:	57fd                	li	a5,-1
    5dc0:	04f40223          	sb	a5,68(s0)
    5dc4:	e37ff0ef          	jal	ra,5bfa <vPortExitCritical>
    5dc8:	f7afa06f          	j	542 <__riscv_restore_0>
    5dcc:	505c                	lw	a5,36(s0)
    5dce:	dbe9                	beqz	a5,5da0 <prvUnlockQueue+0x1a>
    5dd0:	854a                	mv	a0,s2
    5dd2:	0be010ef          	jal	ra,6e90 <xTaskRemoveFromEventList>
    5dd6:	c119                	beqz	a0,5ddc <prvUnlockQueue+0x56>
    5dd8:	24c010ef          	jal	ra,7024 <vTaskMissedYield>
    5ddc:	14fd                	addi	s1,s1,-1
    5dde:	04e2                	slli	s1,s1,0x18
    5de0:	84e1                	srai	s1,s1,0x18
    5de2:	bf6d                	j	5d9c <prvUnlockQueue+0x16>
    5de4:	481c                	lw	a5,16(s0)
    5de6:	dfe1                	beqz	a5,5dbe <prvUnlockQueue+0x38>
    5de8:	854a                	mv	a0,s2
    5dea:	0a6010ef          	jal	ra,6e90 <xTaskRemoveFromEventList>
    5dee:	c119                	beqz	a0,5df4 <prvUnlockQueue+0x6e>
    5df0:	234010ef          	jal	ra,7024 <vTaskMissedYield>
    5df4:	14fd                	addi	s1,s1,-1
    5df6:	04e2                	slli	s1,s1,0x18
    5df8:	84e1                	srai	s1,s1,0x18
    5dfa:	b7c1                	j	5dba <prvUnlockQueue+0x34>

00005dfc <xQueueGenericReset>:
    5dfc:	f22fa2ef          	jal	t0,51e <__riscv_save_0>
    5e00:	1141                	addi	sp,sp,-16
    5e02:	e11d                	bnez	a0,5e28 <xQueueGenericReset+0x2c>
    5e04:	6789                	lui	a5,0x2
    5e06:	80078793          	addi	a5,a5,-2048 # 1800 <vRedrawTask+0x320>
    5e0a:	30079073          	csrw	mstatus,a5
    5e0e:	0000d637          	lui	a2,0xd
    5e12:	0000d537          	lui	a0,0xd
    5e16:	c5860613          	addi	a2,a2,-936 # cc58 <timers+0x88>
    5e1a:	11000593          	li	a1,272
    5e1e:	c0c50513          	addi	a0,a0,-1012 # cc0c <timers+0x3c>
    5e22:	1b9050ef          	jal	ra,b7da <iprintf>
    5e26:	a001                	j	5e26 <xQueueGenericReset+0x2a>
    5e28:	5d5c                	lw	a5,60(a0)
    5e2a:	c62e                	sw	a1,12(sp)
    5e2c:	842a                	mv	s0,a0
    5e2e:	c7bd                	beqz	a5,5e9c <xQueueGenericReset+0xa0>
    5e30:	4138                	lw	a4,64(a0)
    5e32:	02e7b7b3          	mulhu	a5,a5,a4
    5e36:	e3bd                	bnez	a5,5e9c <xQueueGenericReset+0xa0>
    5e38:	dadff0ef          	jal	ra,5be4 <vPortEnterCritical>
    5e3c:	4030                	lw	a2,64(s0)
    5e3e:	5c58                	lw	a4,60(s0)
    5e40:	4014                	lw	a3,0(s0)
    5e42:	02042c23          	sw	zero,56(s0)
    5e46:	02e607b3          	mul	a5,a2,a4
    5e4a:	45b2                	lw	a1,12(sp)
    5e4c:	c054                	sw	a3,4(s0)
    5e4e:	00f68733          	add	a4,a3,a5
    5e52:	8f91                	sub	a5,a5,a2
    5e54:	97b6                	add	a5,a5,a3
    5e56:	c45c                	sw	a5,12(s0)
    5e58:	57fd                	li	a5,-1
    5e5a:	04f40223          	sb	a5,68(s0)
    5e5e:	c418                	sw	a4,8(s0)
    5e60:	04f402a3          	sb	a5,69(s0)
    5e64:	e19d                	bnez	a1,5e8a <xQueueGenericReset+0x8e>
    5e66:	481c                	lw	a5,16(s0)
    5e68:	cb99                	beqz	a5,5e7e <xQueueGenericReset+0x82>
    5e6a:	01040513          	addi	a0,s0,16
    5e6e:	022010ef          	jal	ra,6e90 <xTaskRemoveFromEventList>
    5e72:	c511                	beqz	a0,5e7e <xQueueGenericReset+0x82>
    5e74:	e000e7b7          	lui	a5,0xe000e
    5e78:	6711                	lui	a4,0x4
    5e7a:	20e7a023          	sw	a4,512(a5) # e000e200 <__freertos_irq_stack_top+0xc0009200>
    5e7e:	d7dff0ef          	jal	ra,5bfa <vPortExitCritical>
    5e82:	4505                	li	a0,1
    5e84:	0141                	addi	sp,sp,16
    5e86:	ebcfa06f          	j	542 <__riscv_restore_0>
    5e8a:	01040513          	addi	a0,s0,16
    5e8e:	dc1ff0ef          	jal	ra,5c4e <vListInitialise>
    5e92:	02440513          	addi	a0,s0,36
    5e96:	db9ff0ef          	jal	ra,5c4e <vListInitialise>
    5e9a:	b7d5                	j	5e7e <xQueueGenericReset+0x82>
    5e9c:	6789                	lui	a5,0x2
    5e9e:	80078793          	addi	a5,a5,-2048 # 1800 <vRedrawTask+0x320>
    5ea2:	30079073          	csrw	mstatus,a5
    5ea6:	0000d637          	lui	a2,0xd
    5eaa:	0000d537          	lui	a0,0xd
    5eae:	c5860613          	addi	a2,a2,-936 # cc58 <timers+0x88>
    5eb2:	14500593          	li	a1,325
    5eb6:	c0c50513          	addi	a0,a0,-1012 # cc0c <timers+0x3c>
    5eba:	121050ef          	jal	ra,b7da <iprintf>
    5ebe:	a001                	j	5ebe <xQueueGenericReset+0xc2>

00005ec0 <xQueueGenericCreateStatic>:
    5ec0:	e5efa2ef          	jal	t0,51e <__riscv_save_0>
    5ec4:	1101                	addi	sp,sp,-32
    5ec6:	e29d                	bnez	a3,5eec <xQueueGenericCreateStatic+0x2c>
    5ec8:	6789                	lui	a5,0x2
    5eca:	80078793          	addi	a5,a5,-2048 # 1800 <vRedrawTask+0x320>
    5ece:	30079073          	csrw	mstatus,a5
    5ed2:	0000d637          	lui	a2,0xd
    5ed6:	0000d537          	lui	a0,0xd
    5eda:	c5860613          	addi	a2,a2,-936 # cc58 <timers+0x88>
    5ede:	15900593          	li	a1,345
    5ee2:	c0c50513          	addi	a0,a0,-1012 # cc0c <timers+0x3c>
    5ee6:	0f5050ef          	jal	ra,b7da <iprintf>
    5eea:	a001                	j	5eea <xQueueGenericCreateStatic+0x2a>
    5eec:	c119                	beqz	a0,5ef2 <xQueueGenericCreateStatic+0x32>
    5eee:	c605                	beqz	a2,5f16 <xQueueGenericCreateStatic+0x56>
    5ef0:	e585                	bnez	a1,5f18 <xQueueGenericCreateStatic+0x58>
    5ef2:	6789                	lui	a5,0x2
    5ef4:	80078793          	addi	a5,a5,-2048 # 1800 <vRedrawTask+0x320>
    5ef8:	30079073          	csrw	mstatus,a5
    5efc:	0000d637          	lui	a2,0xd
    5f00:	0000d537          	lui	a0,0xd
    5f04:	c5860613          	addi	a2,a2,-936 # cc58 <timers+0x88>
    5f08:	18200593          	li	a1,386
    5f0c:	c0c50513          	addi	a0,a0,-1012 # cc0c <timers+0x3c>
    5f10:	0cb050ef          	jal	ra,b7da <iprintf>
    5f14:	a001                	j	5f14 <xQueueGenericCreateStatic+0x54>
    5f16:	fdf1                	bnez	a1,5ef2 <xQueueGenericCreateStatic+0x32>
    5f18:	04800793          	li	a5,72
    5f1c:	ce3e                	sw	a5,28(sp)
    5f1e:	4772                	lw	a4,28(sp)
    5f20:	02f70463          	beq	a4,a5,5f48 <xQueueGenericCreateStatic+0x88>
    5f24:	6789                	lui	a5,0x2
    5f26:	80078793          	addi	a5,a5,-2048 # 1800 <vRedrawTask+0x320>
    5f2a:	30079073          	csrw	mstatus,a5
    5f2e:	0000d637          	lui	a2,0xd
    5f32:	0000d537          	lui	a0,0xd
    5f36:	c5860613          	addi	a2,a2,-936 # cc58 <timers+0x88>
    5f3a:	16b00593          	li	a1,363
    5f3e:	c0c50513          	addi	a0,a0,-1012 # cc0c <timers+0x3c>
    5f42:	099050ef          	jal	ra,b7da <iprintf>
    5f46:	a001                	j	5f46 <xQueueGenericCreateStatic+0x86>
    5f48:	47f2                	lw	a5,28(sp)
    5f4a:	4785                	li	a5,1
    5f4c:	04f68323          	sb	a5,70(a3)
    5f50:	e191                	bnez	a1,5f54 <xQueueGenericCreateStatic+0x94>
    5f52:	8636                	mv	a2,a3
    5f54:	c290                	sw	a2,0(a3)
    5f56:	dec8                	sw	a0,60(a3)
    5f58:	c2ac                	sw	a1,64(a3)
    5f5a:	8536                	mv	a0,a3
    5f5c:	4585                	li	a1,1
    5f5e:	c636                	sw	a3,12(sp)
    5f60:	e9dff0ef          	jal	ra,5dfc <xQueueGenericReset>
    5f64:	46b2                	lw	a3,12(sp)
    5f66:	6105                	addi	sp,sp,32
    5f68:	8536                	mv	a0,a3
    5f6a:	dd8fa06f          	j	542 <__riscv_restore_0>

00005f6e <xQueueGenericCreate>:
    5f6e:	db0fa2ef          	jal	t0,51e <__riscv_save_0>
    5f72:	1141                	addi	sp,sp,-16
    5f74:	c521                	beqz	a0,5fbc <xQueueGenericCreate+0x4e>
    5f76:	02a5b7b3          	mulhu	a5,a1,a0
    5f7a:	84aa                	mv	s1,a0
    5f7c:	e3a1                	bnez	a5,5fbc <xQueueGenericCreate+0x4e>
    5f7e:	02b50533          	mul	a0,a0,a1
    5f82:	fb700793          	li	a5,-73
    5f86:	02a7eb63          	bltu	a5,a0,5fbc <xQueueGenericCreate+0x4e>
    5f8a:	04850513          	addi	a0,a0,72
    5f8e:	c62e                	sw	a1,12(sp)
    5f90:	989ff0ef          	jal	ra,5918 <pvPortMalloc>
    5f94:	842a                	mv	s0,a0
    5f96:	cd19                	beqz	a0,5fb4 <xQueueGenericCreate+0x46>
    5f98:	45b2                	lw	a1,12(sp)
    5f9a:	04050323          	sb	zero,70(a0)
    5f9e:	87aa                	mv	a5,a0
    5fa0:	c199                	beqz	a1,5fa6 <xQueueGenericCreate+0x38>
    5fa2:	04850793          	addi	a5,a0,72
    5fa6:	c02c                	sw	a1,64(s0)
    5fa8:	c01c                	sw	a5,0(s0)
    5faa:	dc44                	sw	s1,60(s0)
    5fac:	4585                	li	a1,1
    5fae:	8522                	mv	a0,s0
    5fb0:	e4dff0ef          	jal	ra,5dfc <xQueueGenericReset>
    5fb4:	8522                	mv	a0,s0
    5fb6:	0141                	addi	sp,sp,16
    5fb8:	d8afa06f          	j	542 <__riscv_restore_0>
    5fbc:	6789                	lui	a5,0x2
    5fbe:	80078793          	addi	a5,a5,-2048 # 1800 <vRedrawTask+0x320>
    5fc2:	30079073          	csrw	mstatus,a5
    5fc6:	0000d637          	lui	a2,0xd
    5fca:	0000d537          	lui	a0,0xd
    5fce:	c5860613          	addi	a2,a2,-936 # cc58 <timers+0x88>
    5fd2:	1c600593          	li	a1,454
    5fd6:	c0c50513          	addi	a0,a0,-1012 # cc0c <timers+0x3c>
    5fda:	001050ef          	jal	ra,b7da <iprintf>
    5fde:	a001                	j	5fde <xQueueGenericCreate+0x70>

00005fe0 <xQueueGenericSend>:
    5fe0:	d16fa2ef          	jal	t0,4f6 <__riscv_save_10>
    5fe4:	1101                	addi	sp,sp,-32
    5fe6:	c632                	sw	a2,12(sp)
    5fe8:	e11d                	bnez	a0,600e <xQueueGenericSend+0x2e>
    5fea:	6789                	lui	a5,0x2
    5fec:	80078793          	addi	a5,a5,-2048 # 1800 <vRedrawTask+0x320>
    5ff0:	30079073          	csrw	mstatus,a5
    5ff4:	0000d637          	lui	a2,0xd
    5ff8:	0000d537          	lui	a0,0xd
    5ffc:	c5860613          	addi	a2,a2,-936 # cc58 <timers+0x88>
    6000:	32e00593          	li	a1,814
    6004:	c0c50513          	addi	a0,a0,-1012 # cc0c <timers+0x3c>
    6008:	7d2050ef          	jal	ra,b7da <iprintf>
    600c:	a001                	j	600c <xQueueGenericSend+0x2c>
    600e:	842a                	mv	s0,a0
    6010:	892e                	mv	s2,a1
    6012:	84b6                	mv	s1,a3
    6014:	e58d                	bnez	a1,603e <xQueueGenericSend+0x5e>
    6016:	413c                	lw	a5,64(a0)
    6018:	c39d                	beqz	a5,603e <xQueueGenericSend+0x5e>
    601a:	6789                	lui	a5,0x2
    601c:	80078793          	addi	a5,a5,-2048 # 1800 <vRedrawTask+0x320>
    6020:	30079073          	csrw	mstatus,a5
    6024:	0000d637          	lui	a2,0xd
    6028:	0000d537          	lui	a0,0xd
    602c:	c5860613          	addi	a2,a2,-936 # cc58 <timers+0x88>
    6030:	32f00593          	li	a1,815
    6034:	c0c50513          	addi	a0,a0,-1012 # cc0c <timers+0x3c>
    6038:	7a2050ef          	jal	ra,b7da <iprintf>
    603c:	a001                	j	603c <xQueueGenericSend+0x5c>
    603e:	4789                	li	a5,2
    6040:	4c01                	li	s8,0
    6042:	02f49863          	bne	s1,a5,6072 <xQueueGenericSend+0x92>
    6046:	5c58                	lw	a4,60(s0)
    6048:	4785                	li	a5,1
    604a:	02f70463          	beq	a4,a5,6072 <xQueueGenericSend+0x92>
    604e:	6789                	lui	a5,0x2
    6050:	80078793          	addi	a5,a5,-2048 # 1800 <vRedrawTask+0x320>
    6054:	30079073          	csrw	mstatus,a5
    6058:	0000d637          	lui	a2,0xd
    605c:	0000d537          	lui	a0,0xd
    6060:	c5860613          	addi	a2,a2,-936 # cc58 <timers+0x88>
    6064:	33000593          	li	a1,816
    6068:	c0c50513          	addi	a0,a0,-1012 # cc0c <timers+0x3c>
    606c:	76e050ef          	jal	ra,b7da <iprintf>
    6070:	a001                	j	6070 <xQueueGenericSend+0x90>
    6072:	4b09                	li	s6,2
    6074:	59fd                	li	s3,-1
    6076:	01040b93          	addi	s7,s0,16
    607a:	e000ea37          	lui	s4,0xe000e
    607e:	6a91                	lui	s5,0x4
    6080:	a8a5                	j	60f8 <xQueueGenericSend+0x118>
    6082:	47b2                	lw	a5,12(sp)
    6084:	e789                	bnez	a5,608e <xQueueGenericSend+0xae>
    6086:	b75ff0ef          	jal	ra,5bfa <vPortExitCritical>
    608a:	4501                	li	a0,0
    608c:	a055                	j	6130 <xQueueGenericSend+0x150>
    608e:	000c1563          	bnez	s8,6098 <xQueueGenericSend+0xb8>
    6092:	0828                	addi	a0,sp,24
    6094:	6d9000ef          	jal	ra,6f6c <vTaskInternalSetTimeOutState>
    6098:	b63ff0ef          	jal	ra,5bfa <vPortExitCritical>
    609c:	10d000ef          	jal	ra,69a8 <vTaskSuspendAll>
    60a0:	b45ff0ef          	jal	ra,5be4 <vPortEnterCritical>
    60a4:	04444783          	lbu	a5,68(s0)
    60a8:	07e2                	slli	a5,a5,0x18
    60aa:	87e1                	srai	a5,a5,0x18
    60ac:	01379463          	bne	a5,s3,60b4 <xQueueGenericSend+0xd4>
    60b0:	04040223          	sb	zero,68(s0)
    60b4:	04544783          	lbu	a5,69(s0)
    60b8:	07e2                	slli	a5,a5,0x18
    60ba:	87e1                	srai	a5,a5,0x18
    60bc:	01379463          	bne	a5,s3,60c4 <xQueueGenericSend+0xe4>
    60c0:	040402a3          	sb	zero,69(s0)
    60c4:	b37ff0ef          	jal	ra,5bfa <vPortExitCritical>
    60c8:	006c                	addi	a1,sp,12
    60ca:	0828                	addi	a0,sp,24
    60cc:	6af000ef          	jal	ra,6f7a <xTaskCheckForTimeOut>
    60d0:	ed35                	bnez	a0,614c <xQueueGenericSend+0x16c>
    60d2:	b13ff0ef          	jal	ra,5be4 <vPortEnterCritical>
    60d6:	5c18                	lw	a4,56(s0)
    60d8:	5c5c                	lw	a5,60(s0)
    60da:	04f71e63          	bne	a4,a5,6136 <xQueueGenericSend+0x156>
    60de:	b1dff0ef          	jal	ra,5bfa <vPortExitCritical>
    60e2:	45b2                	lw	a1,12(sp)
    60e4:	855e                	mv	a0,s7
    60e6:	567000ef          	jal	ra,6e4c <vTaskPlaceOnEventList>
    60ea:	8522                	mv	a0,s0
    60ec:	c9bff0ef          	jal	ra,5d86 <prvUnlockQueue>
    60f0:	24b000ef          	jal	ra,6b3a <xTaskResumeAll>
    60f4:	c929                	beqz	a0,6146 <xQueueGenericSend+0x166>
    60f6:	4c05                	li	s8,1
    60f8:	aedff0ef          	jal	ra,5be4 <vPortEnterCritical>
    60fc:	5c18                	lw	a4,56(s0)
    60fe:	5c5c                	lw	a5,60(s0)
    6100:	00f76463          	bltu	a4,a5,6108 <xQueueGenericSend+0x128>
    6104:	f7649fe3          	bne	s1,s6,6082 <xQueueGenericSend+0xa2>
    6108:	8626                	mv	a2,s1
    610a:	85ca                	mv	a1,s2
    610c:	8522                	mv	a0,s0
    610e:	bdfff0ef          	jal	ra,5cec <prvCopyDataToQueue>
    6112:	505c                	lw	a5,36(s0)
    6114:	c789                	beqz	a5,611e <xQueueGenericSend+0x13e>
    6116:	02440513          	addi	a0,s0,36
    611a:	577000ef          	jal	ra,6e90 <xTaskRemoveFromEventList>
    611e:	c511                	beqz	a0,612a <xQueueGenericSend+0x14a>
    6120:	e000e7b7          	lui	a5,0xe000e
    6124:	6711                	lui	a4,0x4
    6126:	20e7a023          	sw	a4,512(a5) # e000e200 <__freertos_irq_stack_top+0xc0009200>
    612a:	ad1ff0ef          	jal	ra,5bfa <vPortExitCritical>
    612e:	4505                	li	a0,1
    6130:	6105                	addi	sp,sp,32
    6132:	bfcfa06f          	j	52e <__riscv_restore_10>
    6136:	ac5ff0ef          	jal	ra,5bfa <vPortExitCritical>
    613a:	8522                	mv	a0,s0
    613c:	c4bff0ef          	jal	ra,5d86 <prvUnlockQueue>
    6140:	1fb000ef          	jal	ra,6b3a <xTaskResumeAll>
    6144:	bf4d                	j	60f6 <xQueueGenericSend+0x116>
    6146:	215a2023          	sw	s5,512(s4) # e000e200 <__freertos_irq_stack_top+0xc0009200>
    614a:	b775                	j	60f6 <xQueueGenericSend+0x116>
    614c:	8522                	mv	a0,s0
    614e:	c39ff0ef          	jal	ra,5d86 <prvUnlockQueue>
    6152:	1e9000ef          	jal	ra,6b3a <xTaskResumeAll>
    6156:	bf15                	j	608a <xQueueGenericSend+0xaa>

00006158 <xQueueGiveMutexRecursive>:
    6158:	bc6fa2ef          	jal	t0,51e <__riscv_save_0>
    615c:	e11d                	bnez	a0,6182 <xQueueGiveMutexRecursive+0x2a>
    615e:	6789                	lui	a5,0x2
    6160:	80078793          	addi	a5,a5,-2048 # 1800 <vRedrawTask+0x320>
    6164:	30079073          	csrw	mstatus,a5
    6168:	0000d637          	lui	a2,0xd
    616c:	0000d537          	lui	a0,0xd
    6170:	c5860613          	addi	a2,a2,-936 # cc58 <timers+0x88>
    6174:	28300593          	li	a1,643
    6178:	c0c50513          	addi	a0,a0,-1012 # cc0c <timers+0x3c>
    617c:	65e050ef          	jal	ra,b7da <iprintf>
    6180:	a001                	j	6180 <xQueueGiveMutexRecursive+0x28>
    6182:	00852903          	lw	s2,8(a0)
    6186:	842a                	mv	s0,a0
    6188:	6a5000ef          	jal	ra,702c <xTaskGetCurrentTaskHandle>
    618c:	4481                	li	s1,0
    618e:	00a91d63          	bne	s2,a0,61a8 <xQueueGiveMutexRecursive+0x50>
    6192:	445c                	lw	a5,12(s0)
    6194:	4485                	li	s1,1
    6196:	17fd                	addi	a5,a5,-1
    6198:	c45c                	sw	a5,12(s0)
    619a:	e799                	bnez	a5,61a8 <xQueueGiveMutexRecursive+0x50>
    619c:	4681                	li	a3,0
    619e:	4601                	li	a2,0
    61a0:	4581                	li	a1,0
    61a2:	8522                	mv	a0,s0
    61a4:	e3dff0ef          	jal	ra,5fe0 <xQueueGenericSend>
    61a8:	8526                	mv	a0,s1
    61aa:	b98fa06f          	j	542 <__riscv_restore_0>

000061ae <xQueueCreateMutex>:
    61ae:	b70fa2ef          	jal	t0,51e <__riscv_save_0>
    61b2:	862a                	mv	a2,a0
    61b4:	4581                	li	a1,0
    61b6:	4505                	li	a0,1
    61b8:	db7ff0ef          	jal	ra,5f6e <xQueueGenericCreate>
    61bc:	842a                	mv	s0,a0
    61be:	cd01                	beqz	a0,61d6 <xQueueCreateMutex+0x28>
    61c0:	00052423          	sw	zero,8(a0)
    61c4:	00052023          	sw	zero,0(a0)
    61c8:	00052623          	sw	zero,12(a0)
    61cc:	4681                	li	a3,0
    61ce:	4601                	li	a2,0
    61d0:	4581                	li	a1,0
    61d2:	e0fff0ef          	jal	ra,5fe0 <xQueueGenericSend>
    61d6:	8522                	mv	a0,s0
    61d8:	b6afa06f          	j	542 <__riscv_restore_0>

000061dc <xQueueReceive>:
    61dc:	b1afa2ef          	jal	t0,4f6 <__riscv_save_10>
    61e0:	1101                	addi	sp,sp,-32
    61e2:	c632                	sw	a2,12(sp)
    61e4:	e11d                	bnez	a0,620a <xQueueReceive+0x2e>
    61e6:	6789                	lui	a5,0x2
    61e8:	80078793          	addi	a5,a5,-2048 # 1800 <vRedrawTask+0x320>
    61ec:	30079073          	csrw	mstatus,a5
    61f0:	0000d637          	lui	a2,0xd
    61f4:	0000d537          	lui	a0,0xd
    61f8:	c5860613          	addi	a2,a2,-936 # cc58 <timers+0x88>
    61fc:	55100593          	li	a1,1361
    6200:	c0c50513          	addi	a0,a0,-1012 # cc0c <timers+0x3c>
    6204:	5d6050ef          	jal	ra,b7da <iprintf>
    6208:	a001                	j	6208 <xQueueReceive+0x2c>
    620a:	842a                	mv	s0,a0
    620c:	892e                	mv	s2,a1
    620e:	4981                	li	s3,0
    6210:	e595                	bnez	a1,623c <xQueueReceive+0x60>
    6212:	413c                	lw	a5,64(a0)
    6214:	89ae                	mv	s3,a1
    6216:	c39d                	beqz	a5,623c <xQueueReceive+0x60>
    6218:	6789                	lui	a5,0x2
    621a:	80078793          	addi	a5,a5,-2048 # 1800 <vRedrawTask+0x320>
    621e:	30079073          	csrw	mstatus,a5
    6222:	0000d637          	lui	a2,0xd
    6226:	0000d537          	lui	a0,0xd
    622a:	c5860613          	addi	a2,a2,-936 # cc58 <timers+0x88>
    622e:	55500593          	li	a1,1365
    6232:	c0c50513          	addi	a0,a0,-1012 # cc0c <timers+0x3c>
    6236:	5a4050ef          	jal	ra,b7da <iprintf>
    623a:	a001                	j	623a <xQueueReceive+0x5e>
    623c:	5a7d                	li	s4,-1
    623e:	02440a93          	addi	s5,s0,36
    6242:	e000eb37          	lui	s6,0xe000e
    6246:	6b91                	lui	s7,0x4
    6248:	a895                	j	62bc <xQueueReceive+0xe0>
    624a:	47b2                	lw	a5,12(sp)
    624c:	e789                	bnez	a5,6256 <xQueueReceive+0x7a>
    624e:	9adff0ef          	jal	ra,5bfa <vPortExitCritical>
    6252:	4501                	li	a0,0
    6254:	a869                	j	62ee <xQueueReceive+0x112>
    6256:	00099563          	bnez	s3,6260 <xQueueReceive+0x84>
    625a:	0828                	addi	a0,sp,24
    625c:	511000ef          	jal	ra,6f6c <vTaskInternalSetTimeOutState>
    6260:	99bff0ef          	jal	ra,5bfa <vPortExitCritical>
    6264:	744000ef          	jal	ra,69a8 <vTaskSuspendAll>
    6268:	97dff0ef          	jal	ra,5be4 <vPortEnterCritical>
    626c:	04444783          	lbu	a5,68(s0)
    6270:	07e2                	slli	a5,a5,0x18
    6272:	87e1                	srai	a5,a5,0x18
    6274:	01479463          	bne	a5,s4,627c <xQueueReceive+0xa0>
    6278:	04040223          	sb	zero,68(s0)
    627c:	04544783          	lbu	a5,69(s0)
    6280:	07e2                	slli	a5,a5,0x18
    6282:	87e1                	srai	a5,a5,0x18
    6284:	01479463          	bne	a5,s4,628c <xQueueReceive+0xb0>
    6288:	040402a3          	sb	zero,69(s0)
    628c:	96fff0ef          	jal	ra,5bfa <vPortExitCritical>
    6290:	006c                	addi	a1,sp,12
    6292:	0828                	addi	a0,sp,24
    6294:	4e7000ef          	jal	ra,6f7a <xTaskCheckForTimeOut>
    6298:	e525                	bnez	a0,6300 <xQueueReceive+0x124>
    629a:	8522                	mv	a0,s0
    629c:	a33ff0ef          	jal	ra,5cce <prvIsQueueEmpty>
    62a0:	c931                	beqz	a0,62f4 <xQueueReceive+0x118>
    62a2:	45b2                	lw	a1,12(sp)
    62a4:	8556                	mv	a0,s5
    62a6:	3a7000ef          	jal	ra,6e4c <vTaskPlaceOnEventList>
    62aa:	8522                	mv	a0,s0
    62ac:	adbff0ef          	jal	ra,5d86 <prvUnlockQueue>
    62b0:	08b000ef          	jal	ra,6b3a <xTaskResumeAll>
    62b4:	e119                	bnez	a0,62ba <xQueueReceive+0xde>
    62b6:	217b2023          	sw	s7,512(s6) # e000e200 <__freertos_irq_stack_top+0xc0009200>
    62ba:	4985                	li	s3,1
    62bc:	929ff0ef          	jal	ra,5be4 <vPortEnterCritical>
    62c0:	5c04                	lw	s1,56(s0)
    62c2:	d4c1                	beqz	s1,624a <xQueueReceive+0x6e>
    62c4:	85ca                	mv	a1,s2
    62c6:	8522                	mv	a0,s0
    62c8:	14fd                	addi	s1,s1,-1
    62ca:	a95ff0ef          	jal	ra,5d5e <prvCopyDataFromQueue>
    62ce:	dc04                	sw	s1,56(s0)
    62d0:	481c                	lw	a5,16(s0)
    62d2:	cb99                	beqz	a5,62e8 <xQueueReceive+0x10c>
    62d4:	01040513          	addi	a0,s0,16
    62d8:	3b9000ef          	jal	ra,6e90 <xTaskRemoveFromEventList>
    62dc:	c511                	beqz	a0,62e8 <xQueueReceive+0x10c>
    62de:	e000e7b7          	lui	a5,0xe000e
    62e2:	6711                	lui	a4,0x4
    62e4:	20e7a023          	sw	a4,512(a5) # e000e200 <__freertos_irq_stack_top+0xc0009200>
    62e8:	913ff0ef          	jal	ra,5bfa <vPortExitCritical>
    62ec:	4505                	li	a0,1
    62ee:	6105                	addi	sp,sp,32
    62f0:	a3efa06f          	j	52e <__riscv_restore_10>
    62f4:	8522                	mv	a0,s0
    62f6:	a91ff0ef          	jal	ra,5d86 <prvUnlockQueue>
    62fa:	041000ef          	jal	ra,6b3a <xTaskResumeAll>
    62fe:	bf75                	j	62ba <xQueueReceive+0xde>
    6300:	8522                	mv	a0,s0
    6302:	a85ff0ef          	jal	ra,5d86 <prvUnlockQueue>
    6306:	035000ef          	jal	ra,6b3a <xTaskResumeAll>
    630a:	8522                	mv	a0,s0
    630c:	9c3ff0ef          	jal	ra,5cce <prvIsQueueEmpty>
    6310:	d54d                	beqz	a0,62ba <xQueueReceive+0xde>
    6312:	b781                	j	6252 <xQueueReceive+0x76>

00006314 <xQueueSemaphoreTake>:
    6314:	9f0fa2ef          	jal	t0,504 <__riscv_save_4>
    6318:	1101                	addi	sp,sp,-32
    631a:	c62e                	sw	a1,12(sp)
    631c:	e11d                	bnez	a0,6342 <xQueueSemaphoreTake+0x2e>
    631e:	6789                	lui	a5,0x2
    6320:	80078793          	addi	a5,a5,-2048 # 1800 <vRedrawTask+0x320>
    6324:	30079073          	csrw	mstatus,a5
    6328:	0000d637          	lui	a2,0xd
    632c:	0000d537          	lui	a0,0xd
    6330:	c5860613          	addi	a2,a2,-936 # cc58 <timers+0x88>
    6334:	5e300593          	li	a1,1507
    6338:	c0c50513          	addi	a0,a0,-1012 # cc0c <timers+0x3c>
    633c:	49e050ef          	jal	ra,b7da <iprintf>
    6340:	a001                	j	6340 <xQueueSemaphoreTake+0x2c>
    6342:	413c                	lw	a5,64(a0)
    6344:	842a                	mv	s0,a0
    6346:	c39d                	beqz	a5,636c <xQueueSemaphoreTake+0x58>
    6348:	6789                	lui	a5,0x2
    634a:	80078793          	addi	a5,a5,-2048 # 1800 <vRedrawTask+0x320>
    634e:	30079073          	csrw	mstatus,a5
    6352:	0000d637          	lui	a2,0xd
    6356:	0000d537          	lui	a0,0xd
    635a:	c5860613          	addi	a2,a2,-936 # cc58 <timers+0x88>
    635e:	5e700593          	li	a1,1511
    6362:	c0c50513          	addi	a0,a0,-1012 # cc0c <timers+0x3c>
    6366:	474050ef          	jal	ra,b7da <iprintf>
    636a:	a001                	j	636a <xQueueSemaphoreTake+0x56>
    636c:	4481                	li	s1,0
    636e:	4981                	li	s3,0
    6370:	597d                	li	s2,-1
    6372:	02450a13          	addi	s4,a0,36
    6376:	e000eab7          	lui	s5,0xe000e
    637a:	6b11                	lui	s6,0x4
    637c:	a06d                	j	6426 <xQueueSemaphoreTake+0x112>
    637e:	47b2                	lw	a5,12(sp)
    6380:	e79d                	bnez	a5,63ae <xQueueSemaphoreTake+0x9a>
    6382:	c09d                	beqz	s1,63a8 <xQueueSemaphoreTake+0x94>
    6384:	6789                	lui	a5,0x2
    6386:	80078793          	addi	a5,a5,-2048 # 1800 <vRedrawTask+0x320>
    638a:	30079073          	csrw	mstatus,a5
    638e:	0000d637          	lui	a2,0xd
    6392:	0000d537          	lui	a0,0xd
    6396:	c5860613          	addi	a2,a2,-936 # cc58 <timers+0x88>
    639a:	63200593          	li	a1,1586
    639e:	c0c50513          	addi	a0,a0,-1012 # cc0c <timers+0x3c>
    63a2:	438050ef          	jal	ra,b7da <iprintf>
    63a6:	a001                	j	63a6 <xQueueSemaphoreTake+0x92>
    63a8:	853ff0ef          	jal	ra,5bfa <vPortExitCritical>
    63ac:	a07d                	j	645a <xQueueSemaphoreTake+0x146>
    63ae:	00099563          	bnez	s3,63b8 <xQueueSemaphoreTake+0xa4>
    63b2:	0828                	addi	a0,sp,24
    63b4:	3b9000ef          	jal	ra,6f6c <vTaskInternalSetTimeOutState>
    63b8:	843ff0ef          	jal	ra,5bfa <vPortExitCritical>
    63bc:	23f5                	jal	69a8 <vTaskSuspendAll>
    63be:	827ff0ef          	jal	ra,5be4 <vPortEnterCritical>
    63c2:	04444783          	lbu	a5,68(s0)
    63c6:	07e2                	slli	a5,a5,0x18
    63c8:	87e1                	srai	a5,a5,0x18
    63ca:	01279463          	bne	a5,s2,63d2 <xQueueSemaphoreTake+0xbe>
    63ce:	04040223          	sb	zero,68(s0)
    63d2:	04544783          	lbu	a5,69(s0)
    63d6:	07e2                	slli	a5,a5,0x18
    63d8:	87e1                	srai	a5,a5,0x18
    63da:	01279463          	bne	a5,s2,63e2 <xQueueSemaphoreTake+0xce>
    63de:	040402a3          	sb	zero,69(s0)
    63e2:	819ff0ef          	jal	ra,5bfa <vPortExitCritical>
    63e6:	006c                	addi	a1,sp,12
    63e8:	0828                	addi	a0,sp,24
    63ea:	391000ef          	jal	ra,6f7a <xTaskCheckForTimeOut>
    63ee:	e141                	bnez	a0,646e <xQueueSemaphoreTake+0x15a>
    63f0:	8522                	mv	a0,s0
    63f2:	8ddff0ef          	jal	ra,5cce <prvIsQueueEmpty>
    63f6:	c535                	beqz	a0,6462 <xQueueSemaphoreTake+0x14e>
    63f8:	401c                	lw	a5,0(s0)
    63fa:	eb89                	bnez	a5,640c <xQueueSemaphoreTake+0xf8>
    63fc:	fe8ff0ef          	jal	ra,5be4 <vPortEnterCritical>
    6400:	4408                	lw	a0,8(s0)
    6402:	431000ef          	jal	ra,7032 <xTaskPriorityInherit>
    6406:	84aa                	mv	s1,a0
    6408:	ff2ff0ef          	jal	ra,5bfa <vPortExitCritical>
    640c:	45b2                	lw	a1,12(sp)
    640e:	8552                	mv	a0,s4
    6410:	23d000ef          	jal	ra,6e4c <vTaskPlaceOnEventList>
    6414:	8522                	mv	a0,s0
    6416:	971ff0ef          	jal	ra,5d86 <prvUnlockQueue>
    641a:	720000ef          	jal	ra,6b3a <xTaskResumeAll>
    641e:	e119                	bnez	a0,6424 <xQueueSemaphoreTake+0x110>
    6420:	216aa023          	sw	s6,512(s5) # e000e200 <__freertos_irq_stack_top+0xc0009200>
    6424:	4985                	li	s3,1
    6426:	fbeff0ef          	jal	ra,5be4 <vPortEnterCritical>
    642a:	5c1c                	lw	a5,56(s0)
    642c:	dba9                	beqz	a5,637e <xQueueSemaphoreTake+0x6a>
    642e:	17fd                	addi	a5,a5,-1
    6430:	dc1c                	sw	a5,56(s0)
    6432:	401c                	lw	a5,0(s0)
    6434:	e781                	bnez	a5,643c <xQueueSemaphoreTake+0x128>
    6436:	643000ef          	jal	ra,7278 <pvTaskIncrementMutexHeldCount>
    643a:	c408                	sw	a0,8(s0)
    643c:	481c                	lw	a5,16(s0)
    643e:	cb99                	beqz	a5,6454 <xQueueSemaphoreTake+0x140>
    6440:	01040513          	addi	a0,s0,16
    6444:	24d000ef          	jal	ra,6e90 <xTaskRemoveFromEventList>
    6448:	c511                	beqz	a0,6454 <xQueueSemaphoreTake+0x140>
    644a:	e000e7b7          	lui	a5,0xe000e
    644e:	6711                	lui	a4,0x4
    6450:	20e7a023          	sw	a4,512(a5) # e000e200 <__freertos_irq_stack_top+0xc0009200>
    6454:	fa6ff0ef          	jal	ra,5bfa <vPortExitCritical>
    6458:	4485                	li	s1,1
    645a:	8526                	mv	a0,s1
    645c:	6105                	addi	sp,sp,32
    645e:	8dafa06f          	j	538 <__riscv_restore_4>
    6462:	8522                	mv	a0,s0
    6464:	923ff0ef          	jal	ra,5d86 <prvUnlockQueue>
    6468:	6d2000ef          	jal	ra,6b3a <xTaskResumeAll>
    646c:	bf65                	j	6424 <xQueueSemaphoreTake+0x110>
    646e:	8522                	mv	a0,s0
    6470:	917ff0ef          	jal	ra,5d86 <prvUnlockQueue>
    6474:	6c6000ef          	jal	ra,6b3a <xTaskResumeAll>
    6478:	8522                	mv	a0,s0
    647a:	855ff0ef          	jal	ra,5cce <prvIsQueueEmpty>
    647e:	d15d                	beqz	a0,6424 <xQueueSemaphoreTake+0x110>
    6480:	dce9                	beqz	s1,645a <xQueueSemaphoreTake+0x146>
    6482:	f62ff0ef          	jal	ra,5be4 <vPortEnterCritical>
    6486:	505c                	lw	a5,36(s0)
    6488:	4581                	li	a1,0
    648a:	c789                	beqz	a5,6494 <xQueueSemaphoreTake+0x180>
    648c:	581c                	lw	a5,48(s0)
    648e:	45bd                	li	a1,15
    6490:	439c                	lw	a5,0(a5)
    6492:	8d9d                	sub	a1,a1,a5
    6494:	4408                	lw	a0,8(s0)
    6496:	4481                	li	s1,0
    6498:	503000ef          	jal	ra,719a <vTaskPriorityDisinheritAfterTimeout>
    649c:	f5eff0ef          	jal	ra,5bfa <vPortExitCritical>
    64a0:	bf6d                	j	645a <xQueueSemaphoreTake+0x146>

000064a2 <xQueueTakeMutexRecursive>:
    64a2:	87cfa2ef          	jal	t0,51e <__riscv_save_0>
    64a6:	1141                	addi	sp,sp,-16
    64a8:	e11d                	bnez	a0,64ce <xQueueTakeMutexRecursive+0x2c>
    64aa:	6789                	lui	a5,0x2
    64ac:	80078793          	addi	a5,a5,-2048 # 1800 <vRedrawTask+0x320>
    64b0:	30079073          	csrw	mstatus,a5
    64b4:	0000d637          	lui	a2,0xd
    64b8:	0000d537          	lui	a0,0xd
    64bc:	c5860613          	addi	a2,a2,-936 # cc58 <timers+0x88>
    64c0:	2bb00593          	li	a1,699
    64c4:	c0c50513          	addi	a0,a0,-1012 # cc0c <timers+0x3c>
    64c8:	312050ef          	jal	ra,b7da <iprintf>
    64cc:	a001                	j	64cc <xQueueTakeMutexRecursive+0x2a>
    64ce:	4504                	lw	s1,8(a0)
    64d0:	c62e                	sw	a1,12(sp)
    64d2:	842a                	mv	s0,a0
    64d4:	359000ef          	jal	ra,702c <xTaskGetCurrentTaskHandle>
    64d8:	45b2                	lw	a1,12(sp)
    64da:	00a49963          	bne	s1,a0,64ec <xQueueTakeMutexRecursive+0x4a>
    64de:	445c                	lw	a5,12(s0)
    64e0:	4505                	li	a0,1
    64e2:	0785                	addi	a5,a5,1
    64e4:	c45c                	sw	a5,12(s0)
    64e6:	0141                	addi	sp,sp,16
    64e8:	85afa06f          	j	542 <__riscv_restore_0>
    64ec:	8522                	mv	a0,s0
    64ee:	e27ff0ef          	jal	ra,6314 <xQueueSemaphoreTake>
    64f2:	d975                	beqz	a0,64e6 <xQueueTakeMutexRecursive+0x44>
    64f4:	445c                	lw	a5,12(s0)
    64f6:	0785                	addi	a5,a5,1
    64f8:	c45c                	sw	a5,12(s0)
    64fa:	b7f5                	j	64e6 <xQueueTakeMutexRecursive+0x44>

000064fc <uxQueueMessagesWaiting>:
    64fc:	822fa2ef          	jal	t0,51e <__riscv_save_0>
    6500:	1141                	addi	sp,sp,-16
    6502:	e11d                	bnez	a0,6528 <uxQueueMessagesWaiting+0x2c>
    6504:	6789                	lui	a5,0x2
    6506:	80078793          	addi	a5,a5,-2048 # 1800 <vRedrawTask+0x320>
    650a:	30079073          	csrw	mstatus,a5
    650e:	0000d637          	lui	a2,0xd
    6512:	0000d537          	lui	a0,0xd
    6516:	c5860613          	addi	a2,a2,-936 # cc58 <timers+0x88>
    651a:	7e300593          	li	a1,2019
    651e:	c0c50513          	addi	a0,a0,-1012 # cc0c <timers+0x3c>
    6522:	2b8050ef          	jal	ra,b7da <iprintf>
    6526:	a001                	j	6526 <uxQueueMessagesWaiting+0x2a>
    6528:	c62a                	sw	a0,12(sp)
    652a:	ebaff0ef          	jal	ra,5be4 <vPortEnterCritical>
    652e:	4532                	lw	a0,12(sp)
    6530:	5d08                	lw	a0,56(a0)
    6532:	c62a                	sw	a0,12(sp)
    6534:	ec6ff0ef          	jal	ra,5bfa <vPortExitCritical>
    6538:	4532                	lw	a0,12(sp)
    653a:	0141                	addi	sp,sp,16
    653c:	806fa06f          	j	542 <__riscv_restore_0>

00006540 <prvIdleTask>:
    6540:	a001                	j	6540 <prvIdleTask>

00006542 <prvAddNewTaskToReadyList>:
    6542:	fc3f92ef          	jal	t0,504 <__riscv_save_4>
    6546:	842a                	mv	s0,a0
    6548:	e9cff0ef          	jal	ra,5be4 <vPortEnterCritical>
    654c:	91418793          	addi	a5,gp,-1772 # 200006bc <uxCurrentNumberOfTasks>
    6550:	4398                	lw	a4,0(a5)
    6552:	200039b7          	lui	s3,0x20003
    6556:	0705                	addi	a4,a4,1
    6558:	c398                	sw	a4,0(a5)
    655a:	90818713          	addi	a4,gp,-1784 # 200006b0 <pxCurrentTCB>
    655e:	4318                	lw	a4,0(a4)
    6560:	90818493          	addi	s1,gp,-1784 # 200006b0 <pxCurrentTCB>
    6564:	f3c98913          	addi	s2,s3,-196 # 20002f3c <pxReadyTasksLists>
    6568:	ef55                	bnez	a4,6624 <prvAddNewTaskToReadyList+0xe2>
    656a:	c080                	sw	s0,0(s1)
    656c:	4398                	lw	a4,0(a5)
    656e:	4785                	li	a5,1
    6570:	04f71c63          	bne	a4,a5,65c8 <prvAddNewTaskToReadyList+0x86>
    6574:	f3c98993          	addi	s3,s3,-196
    6578:	12c90a13          	addi	s4,s2,300
    657c:	854e                	mv	a0,s3
    657e:	09d1                	addi	s3,s3,20
    6580:	eceff0ef          	jal	ra,5c4e <vListInitialise>
    6584:	ff3a1ce3          	bne	s4,s3,657c <prvAddNewTaskToReadyList+0x3a>
    6588:	20003537          	lui	a0,0x20003
    658c:	06850a13          	addi	s4,a0,104 # 20003068 <xDelayedTaskList1>
    6590:	06850513          	addi	a0,a0,104
    6594:	ebaff0ef          	jal	ra,5c4e <vListInitialise>
    6598:	20003537          	lui	a0,0x20003
    659c:	07c50993          	addi	s3,a0,124 # 2000307c <xDelayedTaskList2>
    65a0:	07c50513          	addi	a0,a0,124
    65a4:	eaaff0ef          	jal	ra,5c4e <vListInitialise>
    65a8:	20003537          	lui	a0,0x20003
    65ac:	09050513          	addi	a0,a0,144 # 20003090 <xPendingReadyList>
    65b0:	e9eff0ef          	jal	ra,5c4e <vListInitialise>
    65b4:	20003537          	lui	a0,0x20003
    65b8:	0a450513          	addi	a0,a0,164 # 200030a4 <xSuspendedTaskList>
    65bc:	e92ff0ef          	jal	ra,5c4e <vListInitialise>
    65c0:	9141a623          	sw	s4,-1780(gp) # 200006b4 <pxDelayedTaskList>
    65c4:	9131a823          	sw	s3,-1776(gp) # 200006b8 <pxOverflowDelayedTaskList>
    65c8:	91c18793          	addi	a5,gp,-1764 # 200006c4 <uxTaskNumber>
    65cc:	4398                	lw	a4,0(a5)
    65ce:	0705                	addi	a4,a4,1
    65d0:	c398                	sw	a4,0(a5)
    65d2:	92018713          	addi	a4,gp,-1760 # 200006c8 <uxTopReadyPriority>
    65d6:	545c                	lw	a5,44(s0)
    65d8:	4314                	lw	a3,0(a4)
    65da:	00f6f363          	bgeu	a3,a5,65e0 <prvAddNewTaskToReadyList+0x9e>
    65de:	c31c                	sw	a5,0(a4)
    65e0:	4751                	li	a4,20
    65e2:	02e787b3          	mul	a5,a5,a4
    65e6:	97ca                	add	a5,a5,s2
    65e8:	43d8                	lw	a4,4(a5)
    65ea:	4714                	lw	a3,8(a4)
    65ec:	c418                	sw	a4,8(s0)
    65ee:	c454                	sw	a3,12(s0)
    65f0:	4710                	lw	a2,8(a4)
    65f2:	00440693          	addi	a3,s0,4
    65f6:	c254                	sw	a3,4(a2)
    65f8:	c714                	sw	a3,8(a4)
    65fa:	4398                	lw	a4,0(a5)
    65fc:	c85c                	sw	a5,20(s0)
    65fe:	0705                	addi	a4,a4,1
    6600:	c398                	sw	a4,0(a5)
    6602:	df8ff0ef          	jal	ra,5bfa <vPortExitCritical>
    6606:	9301a783          	lw	a5,-1744(gp) # 200006d8 <xSchedulerRunning>
    660a:	cb99                	beqz	a5,6620 <prvAddNewTaskToReadyList+0xde>
    660c:	409c                	lw	a5,0(s1)
    660e:	57d8                	lw	a4,44(a5)
    6610:	545c                	lw	a5,44(s0)
    6612:	00f77763          	bgeu	a4,a5,6620 <prvAddNewTaskToReadyList+0xde>
    6616:	e000e7b7          	lui	a5,0xe000e
    661a:	6711                	lui	a4,0x4
    661c:	20e7a023          	sw	a4,512(a5) # e000e200 <__freertos_irq_stack_top+0xc0009200>
    6620:	f19f906f          	j	538 <__riscv_restore_4>
    6624:	9301a783          	lw	a5,-1744(gp) # 200006d8 <xSchedulerRunning>
    6628:	f3c5                	bnez	a5,65c8 <prvAddNewTaskToReadyList+0x86>
    662a:	409c                	lw	a5,0(s1)
    662c:	57d8                	lw	a4,44(a5)
    662e:	545c                	lw	a5,44(s0)
    6630:	f8e7ece3          	bltu	a5,a4,65c8 <prvAddNewTaskToReadyList+0x86>
    6634:	c080                	sw	s0,0(s1)
    6636:	bf49                	j	65c8 <prvAddNewTaskToReadyList+0x86>

00006638 <prvResetNextTaskUnblockTime>:
    6638:	90c18713          	addi	a4,gp,-1780 # 200006b4 <pxDelayedTaskList>
    663c:	431c                	lw	a5,0(a4)
    663e:	4394                	lw	a3,0(a5)
    6640:	92418793          	addi	a5,gp,-1756 # 200006cc <xNextTaskUnblockTime>
    6644:	e681                	bnez	a3,664c <prvResetNextTaskUnblockTime+0x14>
    6646:	577d                	li	a4,-1
    6648:	c398                	sw	a4,0(a5)
    664a:	8082                	ret
    664c:	4318                	lw	a4,0(a4)
    664e:	4758                	lw	a4,12(a4)
    6650:	4318                	lw	a4,0(a4)
    6652:	bfdd                	j	6648 <prvResetNextTaskUnblockTime+0x10>

00006654 <prvTaskIsTaskSuspended>:
    6654:	e50d                	bnez	a0,667e <prvTaskIsTaskSuspended+0x2a>
    6656:	ec9f92ef          	jal	t0,51e <__riscv_save_0>
    665a:	6789                	lui	a5,0x2
    665c:	80078793          	addi	a5,a5,-2048 # 1800 <vRedrawTask+0x320>
    6660:	30079073          	csrw	mstatus,a5
    6664:	0000d637          	lui	a2,0xd
    6668:	0000d537          	lui	a0,0xd
    666c:	c9460613          	addi	a2,a2,-876 # cc94 <timers+0xc4>
    6670:	72700593          	li	a1,1831
    6674:	c0c50513          	addi	a0,a0,-1012 # cc0c <timers+0x3c>
    6678:	162050ef          	jal	ra,b7da <iprintf>
    667c:	a001                	j	667c <prvTaskIsTaskSuspended+0x28>
    667e:	4954                	lw	a3,20(a0)
    6680:	20003737          	lui	a4,0x20003
    6684:	0a470713          	addi	a4,a4,164 # 200030a4 <xSuspendedTaskList>
    6688:	87aa                	mv	a5,a0
    668a:	4501                	li	a0,0
    668c:	00e69b63          	bne	a3,a4,66a2 <prvTaskIsTaskSuspended+0x4e>
    6690:	5798                	lw	a4,40(a5)
    6692:	200037b7          	lui	a5,0x20003
    6696:	09078793          	addi	a5,a5,144 # 20003090 <xPendingReadyList>
    669a:	00f70463          	beq	a4,a5,66a2 <prvTaskIsTaskSuspended+0x4e>
    669e:	00173513          	seqz	a0,a4
    66a2:	8082                	ret

000066a4 <prvInitialiseNewTask.isra.2>:
    66a4:	e61f92ef          	jal	t0,504 <__riscv_save_4>
    66a8:	1141                	addi	sp,sp,-16
    66aa:	89aa                	mv	s3,a0
    66ac:	84b2                	mv	s1,a2
    66ae:	8442                	mv	s0,a6
    66b0:	03082903          	lw	s2,48(a6)
    66b4:	c5b1                	beqz	a1,6700 <prvInitialiseNewTask.isra.2+0x5c>
    66b6:	4601                	li	a2,0
    66b8:	4829                	li	a6,10
    66ba:	00c58533          	add	a0,a1,a2
    66be:	00050503          	lb	a0,0(a0)
    66c2:	00c408b3          	add	a7,s0,a2
    66c6:	02a88a23          	sb	a0,52(a7)
    66ca:	c501                	beqz	a0,66d2 <prvInitialiseNewTask.isra.2+0x2e>
    66cc:	0605                	addi	a2,a2,1
    66ce:	ff0616e3          	bne	a2,a6,66ba <prvInitialiseNewTask.isra.2+0x16>
    66d2:	02040ea3          	sb	zero,61(s0)
    66d6:	4639                	li	a2,14
    66d8:	02e67763          	bgeu	a2,a4,6706 <prvInitialiseNewTask.isra.2+0x62>
    66dc:	6789                	lui	a5,0x2
    66de:	80078793          	addi	a5,a5,-2048 # 1800 <vRedrawTask+0x320>
    66e2:	30079073          	csrw	mstatus,a5
    66e6:	0000d637          	lui	a2,0xd
    66ea:	0000d537          	lui	a0,0xd
    66ee:	c9460613          	addi	a2,a2,-876 # cc94 <timers+0xc4>
    66f2:	39700593          	li	a1,919
    66f6:	c0c50513          	addi	a0,a0,-1012 # cc0c <timers+0x3c>
    66fa:	0e0050ef          	jal	ra,b7da <iprintf>
    66fe:	a001                	j	66fe <prvInitialiseNewTask.isra.2+0x5a>
    6700:	02080a23          	sb	zero,52(a6)
    6704:	bfc9                	j	66d6 <prvInitialiseNewTask.isra.2+0x32>
    6706:	d458                	sw	a4,44(s0)
    6708:	c038                	sw	a4,64(s0)
    670a:	00440513          	addi	a0,s0,4
    670e:	04042223          	sw	zero,68(s0)
    6712:	c63e                	sw	a5,12(sp)
    6714:	c436                	sw	a3,8(sp)
    6716:	c23a                	sw	a4,4(sp)
    6718:	d4aff0ef          	jal	ra,5c62 <vListInitialiseItem>
    671c:	01840513          	addi	a0,s0,24
    6720:	d42ff0ef          	jal	ra,5c62 <vListInitialiseItem>
    6724:	4712                	lw	a4,4(sp)
    6726:	463d                	li	a2,15
    6728:	4581                	li	a1,0
    672a:	40e60733          	sub	a4,a2,a4
    672e:	cc18                	sw	a4,24(s0)
    6730:	4631                	li	a2,12
    6732:	c800                	sw	s0,16(s0)
    6734:	d040                	sw	s0,36(s0)
    6736:	04840513          	addi	a0,s0,72
    673a:	e15f90ef          	jal	ra,54e <memset>
    673e:	46a2                	lw	a3,8(sp)
    6740:	00249513          	slli	a0,s1,0x2
    6744:	1571                	addi	a0,a0,-4
    6746:	954a                	add	a0,a0,s2
    6748:	04040a23          	sb	zero,84(s0)
    674c:	04040aa3          	sb	zero,85(s0)
    6750:	04040b23          	sb	zero,86(s0)
    6754:	8636                	mv	a2,a3
    6756:	85ce                	mv	a1,s3
    6758:	9941                	andi	a0,a0,-16
    675a:	ca7f90ef          	jal	ra,400 <pxPortInitialiseStack>
    675e:	47b2                	lw	a5,12(sp)
    6760:	c008                	sw	a0,0(s0)
    6762:	c391                	beqz	a5,6766 <prvInitialiseNewTask.isra.2+0xc2>
    6764:	c380                	sw	s0,0(a5)
    6766:	0141                	addi	sp,sp,16
    6768:	dd1f906f          	j	538 <__riscv_restore_4>

0000676c <prvAddCurrentTaskToDelayedList>:
    676c:	d99f92ef          	jal	t0,504 <__riscv_save_4>
    6770:	90818913          	addi	s2,gp,-1784 # 200006b0 <pxCurrentTCB>
    6774:	9341a983          	lw	s3,-1740(gp) # 200006dc <xTickCount>
    6778:	842a                	mv	s0,a0
    677a:	00092503          	lw	a0,0(s2)
    677e:	1141                	addi	sp,sp,-16
    6780:	c62e                	sw	a1,12(sp)
    6782:	0511                	addi	a0,a0,4
    6784:	d2aff0ef          	jal	ra,5cae <uxListRemove>
    6788:	577d                	li	a4,-1
    678a:	90818793          	addi	a5,gp,-1784 # 200006b0 <pxCurrentTCB>
    678e:	45b2                	lw	a1,12(sp)
    6790:	04e41163          	bne	s0,a4,67d2 <prvAddCurrentTaskToDelayedList+0x66>
    6794:	cd9d                	beqz	a1,67d2 <prvAddCurrentTaskToDelayedList+0x66>
    6796:	200037b7          	lui	a5,0x20003
    679a:	0a478793          	addi	a5,a5,164 # 200030a4 <xSuspendedTaskList>
    679e:	00092683          	lw	a3,0(s2)
    67a2:	43d8                	lw	a4,4(a5)
    67a4:	c698                	sw	a4,8(a3)
    67a6:	4710                	lw	a2,8(a4)
    67a8:	00092683          	lw	a3,0(s2)
    67ac:	c6d0                	sw	a2,12(a3)
    67ae:	00092683          	lw	a3,0(s2)
    67b2:	4710                	lw	a2,8(a4)
    67b4:	0691                	addi	a3,a3,4
    67b6:	c254                	sw	a3,4(a2)
    67b8:	00092683          	lw	a3,0(s2)
    67bc:	0691                	addi	a3,a3,4
    67be:	c714                	sw	a3,8(a4)
    67c0:	00092703          	lw	a4,0(s2)
    67c4:	cb5c                	sw	a5,20(a4)
    67c6:	4398                	lw	a4,0(a5)
    67c8:	0705                	addi	a4,a4,1
    67ca:	c398                	sw	a4,0(a5)
    67cc:	0141                	addi	sp,sp,16
    67ce:	d6bf906f          	j	538 <__riscv_restore_4>
    67d2:	4398                	lw	a4,0(a5)
    67d4:	944e                	add	s0,s0,s3
    67d6:	c340                	sw	s0,4(a4)
    67d8:	01347963          	bgeu	s0,s3,67ea <prvAddCurrentTaskToDelayedList+0x7e>
    67dc:	9101a503          	lw	a0,-1776(gp) # 200006b8 <pxOverflowDelayedTaskList>
    67e0:	438c                	lw	a1,0(a5)
    67e2:	0591                	addi	a1,a1,4
    67e4:	c9cff0ef          	jal	ra,5c80 <vListInsert>
    67e8:	b7d5                	j	67cc <prvAddCurrentTaskToDelayedList+0x60>
    67ea:	90c1a503          	lw	a0,-1780(gp) # 200006b4 <pxDelayedTaskList>
    67ee:	438c                	lw	a1,0(a5)
    67f0:	0591                	addi	a1,a1,4
    67f2:	c8eff0ef          	jal	ra,5c80 <vListInsert>
    67f6:	92418793          	addi	a5,gp,-1756 # 200006cc <xNextTaskUnblockTime>
    67fa:	4398                	lw	a4,0(a5)
    67fc:	fce478e3          	bgeu	s0,a4,67cc <prvAddCurrentTaskToDelayedList+0x60>
    6800:	c380                	sw	s0,0(a5)
    6802:	b7e9                	j	67cc <prvAddCurrentTaskToDelayedList+0x60>

00006804 <xTaskCreateStatic>:
    6804:	d1bf92ef          	jal	t0,51e <__riscv_save_0>
    6808:	1141                	addi	sp,sp,-16
    680a:	e39d                	bnez	a5,6830 <xTaskCreateStatic+0x2c>
    680c:	6789                	lui	a5,0x2
    680e:	80078793          	addi	a5,a5,-2048 # 1800 <vRedrawTask+0x320>
    6812:	30079073          	csrw	mstatus,a5
    6816:	0000d637          	lui	a2,0xd
    681a:	0000d537          	lui	a0,0xd
    681e:	c9460613          	addi	a2,a2,-876 # cc94 <timers+0xc4>
    6822:	24a00593          	li	a1,586
    6826:	c0c50513          	addi	a0,a0,-1012 # cc0c <timers+0x3c>
    682a:	7b1040ef          	jal	ra,b7da <iprintf>
    682e:	a001                	j	682e <xTaskCreateStatic+0x2a>
    6830:	8442                	mv	s0,a6
    6832:	02081463          	bnez	a6,685a <xTaskCreateStatic+0x56>
    6836:	6789                	lui	a5,0x2
    6838:	80078793          	addi	a5,a5,-2048 # 1800 <vRedrawTask+0x320>
    683c:	30079073          	csrw	mstatus,a5
    6840:	0000d637          	lui	a2,0xd
    6844:	0000d537          	lui	a0,0xd
    6848:	c9460613          	addi	a2,a2,-876 # cc94 <timers+0xc4>
    684c:	24b00593          	li	a1,587
    6850:	c0c50513          	addi	a0,a0,-1012 # cc0c <timers+0x3c>
    6854:	787040ef          	jal	ra,b7da <iprintf>
    6858:	a001                	j	6858 <xTaskCreateStatic+0x54>
    685a:	05800893          	li	a7,88
    685e:	c646                	sw	a7,12(sp)
    6860:	4332                	lw	t1,12(sp)
    6862:	03130463          	beq	t1,a7,688a <xTaskCreateStatic+0x86>
    6866:	6789                	lui	a5,0x2
    6868:	80078793          	addi	a5,a5,-2048 # 1800 <vRedrawTask+0x320>
    686c:	30079073          	csrw	mstatus,a5
    6870:	0000d637          	lui	a2,0xd
    6874:	0000d537          	lui	a0,0xd
    6878:	c9460613          	addi	a2,a2,-876 # cc94 <timers+0xc4>
    687c:	25300593          	li	a1,595
    6880:	c0c50513          	addi	a0,a0,-1012 # cc0c <timers+0x3c>
    6884:	757040ef          	jal	ra,b7da <iprintf>
    6888:	a001                	j	6888 <xTaskCreateStatic+0x84>
    688a:	48b2                	lw	a7,12(sp)
    688c:	02f82823          	sw	a5,48(a6)
    6890:	4789                	li	a5,2
    6892:	04f80ba3          	sb	a5,87(a6)
    6896:	003c                	addi	a5,sp,8
    6898:	e0dff0ef          	jal	ra,66a4 <prvInitialiseNewTask.isra.2>
    689c:	8522                	mv	a0,s0
    689e:	ca5ff0ef          	jal	ra,6542 <prvAddNewTaskToReadyList>
    68a2:	4522                	lw	a0,8(sp)
    68a4:	0141                	addi	sp,sp,16
    68a6:	c9df906f          	j	542 <__riscv_restore_0>

000068aa <vTaskResume>:
    68aa:	c75f92ef          	jal	t0,51e <__riscv_save_0>
    68ae:	e11d                	bnez	a0,68d4 <vTaskResume+0x2a>
    68b0:	6789                	lui	a5,0x2
    68b2:	80078793          	addi	a5,a5,-2048 # 1800 <vRedrawTask+0x320>
    68b6:	30079073          	csrw	mstatus,a5
    68ba:	0000d637          	lui	a2,0xd
    68be:	0000d537          	lui	a0,0xd
    68c2:	c9460613          	addi	a2,a2,-876 # cc94 <timers+0xc4>
    68c6:	75100593          	li	a1,1873
    68ca:	c0c50513          	addi	a0,a0,-1012 # cc0c <timers+0x3c>
    68ce:	70d040ef          	jal	ra,b7da <iprintf>
    68d2:	a001                	j	68d2 <vTaskResume+0x28>
    68d4:	90818793          	addi	a5,gp,-1784 # 200006b0 <pxCurrentTCB>
    68d8:	439c                	lw	a5,0(a5)
    68da:	842a                	mv	s0,a0
    68dc:	90818493          	addi	s1,gp,-1784 # 200006b0 <pxCurrentTCB>
    68e0:	06a78463          	beq	a5,a0,6948 <vTaskResume+0x9e>
    68e4:	b00ff0ef          	jal	ra,5be4 <vPortEnterCritical>
    68e8:	8522                	mv	a0,s0
    68ea:	d6bff0ef          	jal	ra,6654 <prvTaskIsTaskSuspended>
    68ee:	c939                	beqz	a0,6944 <vTaskResume+0x9a>
    68f0:	00440913          	addi	s2,s0,4
    68f4:	854a                	mv	a0,s2
    68f6:	bb8ff0ef          	jal	ra,5cae <uxListRemove>
    68fa:	92018793          	addi	a5,gp,-1760 # 200006c8 <uxTopReadyPriority>
    68fe:	5458                	lw	a4,44(s0)
    6900:	4394                	lw	a3,0(a5)
    6902:	00e6f363          	bgeu	a3,a4,6908 <vTaskResume+0x5e>
    6906:	c398                	sw	a4,0(a5)
    6908:	47d1                	li	a5,20
    690a:	02f706b3          	mul	a3,a4,a5
    690e:	200037b7          	lui	a5,0x20003
    6912:	f3c78793          	addi	a5,a5,-196 # 20002f3c <pxReadyTasksLists>
    6916:	97b6                	add	a5,a5,a3
    6918:	43d4                	lw	a3,4(a5)
    691a:	4690                	lw	a2,8(a3)
    691c:	c414                	sw	a3,8(s0)
    691e:	c450                	sw	a2,12(s0)
    6920:	4690                	lw	a2,8(a3)
    6922:	01262223          	sw	s2,4(a2)
    6926:	0126a423          	sw	s2,8(a3)
    692a:	4394                	lw	a3,0(a5)
    692c:	c85c                	sw	a5,20(s0)
    692e:	0685                	addi	a3,a3,1
    6930:	c394                	sw	a3,0(a5)
    6932:	409c                	lw	a5,0(s1)
    6934:	57dc                	lw	a5,44(a5)
    6936:	00f76763          	bltu	a4,a5,6944 <vTaskResume+0x9a>
    693a:	e000e7b7          	lui	a5,0xe000e
    693e:	6711                	lui	a4,0x4
    6940:	20e7a023          	sw	a4,512(a5) # e000e200 <__freertos_irq_stack_top+0xc0009200>
    6944:	ab6ff0ef          	jal	ra,5bfa <vPortExitCritical>
    6948:	bfbf906f          	j	542 <__riscv_restore_0>

0000694c <vTaskStartScheduler>:
    694c:	bd3f92ef          	jal	t0,51e <__riscv_save_0>
    6950:	1141                	addi	sp,sp,-16
    6952:	0070                	addi	a2,sp,12
    6954:	002c                	addi	a1,sp,8
    6956:	0048                	addi	a0,sp,4
    6958:	c202                	sw	zero,4(sp)
    695a:	c402                	sw	zero,8(sp)
    695c:	8abfc0ef          	jal	ra,3206 <vApplicationGetIdleTaskMemory>
    6960:	4812                	lw	a6,4(sp)
    6962:	47a2                	lw	a5,8(sp)
    6964:	4632                	lw	a2,12(sp)
    6966:	0000d5b7          	lui	a1,0xd
    696a:	00006537          	lui	a0,0x6
    696e:	4701                	li	a4,0
    6970:	4681                	li	a3,0
    6972:	ca858593          	addi	a1,a1,-856 # cca8 <timers+0xd8>
    6976:	54050513          	addi	a0,a0,1344 # 6540 <prvIdleTask>
    697a:	e8bff0ef          	jal	ra,6804 <xTaskCreateStatic>
    697e:	c105                	beqz	a0,699e <vTaskStartScheduler+0x52>
    6980:	6789                	lui	a5,0x2
    6982:	80078793          	addi	a5,a5,-2048 # 1800 <vRedrawTask+0x320>
    6986:	30079073          	csrw	mstatus,a5
    698a:	577d                	li	a4,-1
    698c:	92e1a223          	sw	a4,-1756(gp) # 200006cc <xNextTaskUnblockTime>
    6990:	4705                	li	a4,1
    6992:	92e1a823          	sw	a4,-1744(gp) # 200006d8 <xSchedulerRunning>
    6996:	9201aa23          	sw	zero,-1740(gp) # 200006dc <xTickCount>
    699a:	93eff0ef          	jal	ra,5ad8 <xPortStartScheduler>
    699e:	8141a783          	lw	a5,-2028(gp) # 200005bc <uxTopUsedPriority>
    69a2:	0141                	addi	sp,sp,16
    69a4:	b9ff906f          	j	542 <__riscv_restore_0>

000069a8 <vTaskSuspendAll>:
    69a8:	91818793          	addi	a5,gp,-1768 # 200006c0 <uxSchedulerSuspended>
    69ac:	4398                	lw	a4,0(a5)
    69ae:	0705                	addi	a4,a4,1
    69b0:	c398                	sw	a4,0(a5)
    69b2:	8082                	ret

000069b4 <xTaskGetTickCount>:
    69b4:	9341a503          	lw	a0,-1740(gp) # 200006dc <xTickCount>
    69b8:	8082                	ret

000069ba <xTaskIncrementTick>:
    69ba:	9181a783          	lw	a5,-1768(gp) # 200006c0 <uxSchedulerSuspended>
    69be:	16079763          	bnez	a5,6b2c <xTaskIncrementTick+0x172>
    69c2:	b5df92ef          	jal	t0,51e <__riscv_save_0>
    69c6:	93418793          	addi	a5,gp,-1740 # 200006dc <xTickCount>
    69ca:	4380                	lw	s0,0(a5)
    69cc:	0405                	addi	s0,s0,1
    69ce:	c380                	sw	s0,0(a5)
    69d0:	e431                	bnez	s0,6a1c <xTaskIncrementTick+0x62>
    69d2:	90c18793          	addi	a5,gp,-1780 # 200006b4 <pxDelayedTaskList>
    69d6:	4398                	lw	a4,0(a5)
    69d8:	4318                	lw	a4,0(a4)
    69da:	c705                	beqz	a4,6a02 <xTaskIncrementTick+0x48>
    69dc:	6789                	lui	a5,0x2
    69de:	80078793          	addi	a5,a5,-2048 # 1800 <vRedrawTask+0x320>
    69e2:	30079073          	csrw	mstatus,a5
    69e6:	0000d637          	lui	a2,0xd
    69ea:	6585                	lui	a1,0x1
    69ec:	0000d537          	lui	a0,0xd
    69f0:	c9460613          	addi	a2,a2,-876 # cc94 <timers+0xc4>
    69f4:	ac758593          	addi	a1,a1,-1337 # ac7 <DataModel_Init+0x1ef>
    69f8:	c0c50513          	addi	a0,a0,-1012 # cc0c <timers+0x3c>
    69fc:	5df040ef          	jal	ra,b7da <iprintf>
    6a00:	a001                	j	6a00 <xTaskIncrementTick+0x46>
    6a02:	91018713          	addi	a4,gp,-1776 # 200006b8 <pxOverflowDelayedTaskList>
    6a06:	4394                	lw	a3,0(a5)
    6a08:	4310                	lw	a2,0(a4)
    6a0a:	c390                	sw	a2,0(a5)
    6a0c:	c314                	sw	a3,0(a4)
    6a0e:	92818793          	addi	a5,gp,-1752 # 200006d0 <xNumOfOverflows>
    6a12:	4398                	lw	a4,0(a5)
    6a14:	0705                	addi	a4,a4,1
    6a16:	c398                	sw	a4,0(a5)
    6a18:	c21ff0ef          	jal	ra,6638 <prvResetNextTaskUnblockTime>
    6a1c:	92418793          	addi	a5,gp,-1756 # 200006cc <xNextTaskUnblockTime>
    6a20:	439c                	lw	a5,0(a5)
    6a22:	20003737          	lui	a4,0x20003
    6a26:	92418613          	addi	a2,gp,-1756 # 200006cc <xNextTaskUnblockTime>
    6a2a:	f3c70713          	addi	a4,a4,-196 # 20002f3c <pxReadyTasksLists>
    6a2e:	90818593          	addi	a1,gp,-1784 # 200006b0 <pxCurrentTCB>
    6a32:	4501                	li	a0,0
    6a34:	02f47363          	bgeu	s0,a5,6a5a <xTaskIncrementTick+0xa0>
    6a38:	419c                	lw	a5,0(a1)
    6a3a:	46d1                	li	a3,20
    6a3c:	57dc                	lw	a5,44(a5)
    6a3e:	02d787b3          	mul	a5,a5,a3
    6a42:	973e                	add	a4,a4,a5
    6a44:	4318                	lw	a4,0(a4)
    6a46:	4785                	li	a5,1
    6a48:	00e7f363          	bgeu	a5,a4,6a4e <xTaskIncrementTick+0x94>
    6a4c:	4505                	li	a0,1
    6a4e:	9381a783          	lw	a5,-1736(gp) # 200006e0 <xYieldPending>
    6a52:	c391                	beqz	a5,6a56 <xTaskIncrementTick+0x9c>
    6a54:	4505                	li	a0,1
    6a56:	aedf906f          	j	542 <__riscv_restore_0>
    6a5a:	4f51                	li	t5,20
    6a5c:	90c18793          	addi	a5,gp,-1780 # 200006b4 <pxDelayedTaskList>
    6a60:	4394                	lw	a3,0(a5)
    6a62:	4294                	lw	a3,0(a3)
    6a64:	e681                	bnez	a3,6a6c <xTaskIncrementTick+0xb2>
    6a66:	57fd                	li	a5,-1
    6a68:	c21c                	sw	a5,0(a2)
    6a6a:	b7f9                	j	6a38 <xTaskIncrementTick+0x7e>
    6a6c:	439c                	lw	a5,0(a5)
    6a6e:	47dc                	lw	a5,12(a5)
    6a70:	47dc                	lw	a5,12(a5)
    6a72:	43d4                	lw	a3,4(a5)
    6a74:	00d47463          	bgeu	s0,a3,6a7c <xTaskIncrementTick+0xc2>
    6a78:	c214                	sw	a3,0(a2)
    6a7a:	bf7d                	j	6a38 <xTaskIncrementTick+0x7e>
    6a7c:	0087a883          	lw	a7,8(a5)
    6a80:	00c7a803          	lw	a6,12(a5)
    6a84:	4bd4                	lw	a3,20(a5)
    6a86:	00478313          	addi	t1,a5,4
    6a8a:	0108a423          	sw	a6,8(a7)
    6a8e:	01182223          	sw	a7,4(a6)
    6a92:	0046a883          	lw	a7,4(a3)
    6a96:	00689463          	bne	a7,t1,6a9e <xTaskIncrementTick+0xe4>
    6a9a:	0106a223          	sw	a6,4(a3)
    6a9e:	0006a803          	lw	a6,0(a3)
    6aa2:	0007aa23          	sw	zero,20(a5)
    6aa6:	187d                	addi	a6,a6,-1
    6aa8:	0106a023          	sw	a6,0(a3)
    6aac:	5794                	lw	a3,40(a5)
    6aae:	ca95                	beqz	a3,6ae2 <xTaskIncrementTick+0x128>
    6ab0:	01c7a803          	lw	a6,28(a5)
    6ab4:	0207a883          	lw	a7,32(a5)
    6ab8:	0046af83          	lw	t6,4(a3)
    6abc:	01182423          	sw	a7,8(a6)
    6ac0:	0207a883          	lw	a7,32(a5)
    6ac4:	0108a223          	sw	a6,4(a7)
    6ac8:	01878813          	addi	a6,a5,24
    6acc:	010f9463          	bne	t6,a6,6ad4 <xTaskIncrementTick+0x11a>
    6ad0:	0116a223          	sw	a7,4(a3)
    6ad4:	0006a803          	lw	a6,0(a3)
    6ad8:	0207a423          	sw	zero,40(a5)
    6adc:	187d                	addi	a6,a6,-1
    6ade:	0106a023          	sw	a6,0(a3)
    6ae2:	92018693          	addi	a3,gp,-1760 # 200006c8 <uxTopReadyPriority>
    6ae6:	02c7a803          	lw	a6,44(a5)
    6aea:	0006a883          	lw	a7,0(a3)
    6aee:	0108f463          	bgeu	a7,a6,6af6 <xTaskIncrementTick+0x13c>
    6af2:	0106a023          	sw	a6,0(a3)
    6af6:	03e806b3          	mul	a3,a6,t5
    6afa:	96ba                	add	a3,a3,a4
    6afc:	0046a883          	lw	a7,4(a3)
    6b00:	0088af83          	lw	t6,8(a7)
    6b04:	0117a423          	sw	a7,8(a5)
    6b08:	01f7a623          	sw	t6,12(a5)
    6b0c:	0088af83          	lw	t6,8(a7)
    6b10:	006fa223          	sw	t1,4(t6)
    6b14:	0068a423          	sw	t1,8(a7)
    6b18:	cbd4                	sw	a3,20(a5)
    6b1a:	429c                	lw	a5,0(a3)
    6b1c:	0785                	addi	a5,a5,1
    6b1e:	c29c                	sw	a5,0(a3)
    6b20:	419c                	lw	a5,0(a1)
    6b22:	57dc                	lw	a5,44(a5)
    6b24:	f2f86ce3          	bltu	a6,a5,6a5c <xTaskIncrementTick+0xa2>
    6b28:	4505                	li	a0,1
    6b2a:	bf0d                	j	6a5c <xTaskIncrementTick+0xa2>
    6b2c:	92c18793          	addi	a5,gp,-1748 # 200006d4 <xPendedTicks>
    6b30:	4398                	lw	a4,0(a5)
    6b32:	4501                	li	a0,0
    6b34:	0705                	addi	a4,a4,1
    6b36:	c398                	sw	a4,0(a5)
    6b38:	8082                	ret

00006b3a <xTaskResumeAll>:
    6b3a:	9cbf92ef          	jal	t0,504 <__riscv_save_4>
    6b3e:	91818413          	addi	s0,gp,-1768 # 200006c0 <uxSchedulerSuspended>
    6b42:	401c                	lw	a5,0(s0)
    6b44:	1141                	addi	sp,sp,-16
    6b46:	e785                	bnez	a5,6b6e <xTaskResumeAll+0x34>
    6b48:	6789                	lui	a5,0x2
    6b4a:	80078793          	addi	a5,a5,-2048 # 1800 <vRedrawTask+0x320>
    6b4e:	30079073          	csrw	mstatus,a5
    6b52:	0000d637          	lui	a2,0xd
    6b56:	6585                	lui	a1,0x1
    6b58:	0000d537          	lui	a0,0xd
    6b5c:	c9460613          	addi	a2,a2,-876 # cc94 <timers+0xc4>
    6b60:	8b358593          	addi	a1,a1,-1869 # 8b3 <getReg16+0x7>
    6b64:	c0c50513          	addi	a0,a0,-1012 # cc0c <timers+0x3c>
    6b68:	473040ef          	jal	ra,b7da <iprintf>
    6b6c:	a001                	j	6b6c <xTaskResumeAll+0x32>
    6b6e:	876ff0ef          	jal	ra,5be4 <vPortEnterCritical>
    6b72:	401c                	lw	a5,0(s0)
    6b74:	17fd                	addi	a5,a5,-1
    6b76:	c01c                	sw	a5,0(s0)
    6b78:	401c                	lw	a5,0(s0)
    6b7a:	cb89                	beqz	a5,6b8c <xTaskResumeAll+0x52>
    6b7c:	4501                	li	a0,0
    6b7e:	c62a                	sw	a0,12(sp)
    6b80:	87aff0ef          	jal	ra,5bfa <vPortExitCritical>
    6b84:	4532                	lw	a0,12(sp)
    6b86:	0141                	addi	sp,sp,16
    6b88:	9b1f906f          	j	538 <__riscv_restore_4>
    6b8c:	9141a783          	lw	a5,-1772(gp) # 200006bc <uxCurrentNumberOfTasks>
    6b90:	d7f5                	beqz	a5,6b7c <xTaskResumeAll+0x42>
    6b92:	200036b7          	lui	a3,0x20003
    6b96:	20003537          	lui	a0,0x20003
    6b9a:	4781                	li	a5,0
    6b9c:	09068693          	addi	a3,a3,144 # 20003090 <xPendingReadyList>
    6ba0:	f3c50513          	addi	a0,a0,-196 # 20002f3c <pxReadyTasksLists>
    6ba4:	48d1                	li	a7,20
    6ba6:	4e85                	li	t4,1
    6ba8:	a859                	j	6c3e <xTaskResumeAll+0x104>
    6baa:	46dc                	lw	a5,12(a3)
    6bac:	47dc                	lw	a5,12(a5)
    6bae:	4fcc                	lw	a1,28(a5)
    6bb0:	5390                	lw	a2,32(a5)
    6bb2:	5798                	lw	a4,40(a5)
    6bb4:	c590                	sw	a2,8(a1)
    6bb6:	0207a803          	lw	a6,32(a5)
    6bba:	00b82223          	sw	a1,4(a6)
    6bbe:	00472803          	lw	a6,4(a4)
    6bc2:	01878593          	addi	a1,a5,24
    6bc6:	00b81363          	bne	a6,a1,6bcc <xTaskResumeAll+0x92>
    6bca:	c350                	sw	a2,4(a4)
    6bcc:	4310                	lw	a2,0(a4)
    6bce:	0207a423          	sw	zero,40(a5)
    6bd2:	167d                	addi	a2,a2,-1
    6bd4:	c310                	sw	a2,0(a4)
    6bd6:	478c                	lw	a1,8(a5)
    6bd8:	47d0                	lw	a2,12(a5)
    6bda:	4bd8                	lw	a4,20(a5)
    6bdc:	00478813          	addi	a6,a5,4
    6be0:	c590                	sw	a2,8(a1)
    6be2:	c24c                	sw	a1,4(a2)
    6be4:	434c                	lw	a1,4(a4)
    6be6:	01059363          	bne	a1,a6,6bec <xTaskResumeAll+0xb2>
    6bea:	c350                	sw	a2,4(a4)
    6bec:	4310                	lw	a2,0(a4)
    6bee:	0007aa23          	sw	zero,20(a5)
    6bf2:	167d                	addi	a2,a2,-1
    6bf4:	c310                	sw	a2,0(a4)
    6bf6:	92018713          	addi	a4,gp,-1760 # 200006c8 <uxTopReadyPriority>
    6bfa:	57d0                	lw	a2,44(a5)
    6bfc:	430c                	lw	a1,0(a4)
    6bfe:	00c5f363          	bgeu	a1,a2,6c04 <xTaskResumeAll+0xca>
    6c02:	c310                	sw	a2,0(a4)
    6c04:	03160733          	mul	a4,a2,a7
    6c08:	972a                	add	a4,a4,a0
    6c0a:	434c                	lw	a1,4(a4)
    6c0c:	0085af83          	lw	t6,8(a1)
    6c10:	c78c                	sw	a1,8(a5)
    6c12:	01f7a623          	sw	t6,12(a5)
    6c16:	0085af83          	lw	t6,8(a1)
    6c1a:	010fa223          	sw	a6,4(t6)
    6c1e:	0105a423          	sw	a6,8(a1)
    6c22:	430c                	lw	a1,0(a4)
    6c24:	cbd8                	sw	a4,20(a5)
    6c26:	0585                	addi	a1,a1,1
    6c28:	c30c                	sw	a1,0(a4)
    6c2a:	90818713          	addi	a4,gp,-1784 # 200006b0 <pxCurrentTCB>
    6c2e:	4318                	lw	a4,0(a4)
    6c30:	5758                	lw	a4,44(a4)
    6c32:	00e66663          	bltu	a2,a4,6c3e <xTaskResumeAll+0x104>
    6c36:	93818713          	addi	a4,gp,-1736 # 200006e0 <xYieldPending>
    6c3a:	01d72023          	sw	t4,0(a4)
    6c3e:	4298                	lw	a4,0(a3)
    6c40:	f72d                	bnez	a4,6baa <xTaskResumeAll+0x70>
    6c42:	c399                	beqz	a5,6c48 <xTaskResumeAll+0x10e>
    6c44:	9f5ff0ef          	jal	ra,6638 <prvResetNextTaskUnblockTime>
    6c48:	92c18713          	addi	a4,gp,-1748 # 200006d4 <xPendedTicks>
    6c4c:	4304                	lw	s1,0(a4)
    6c4e:	92c18413          	addi	s0,gp,-1748 # 200006d4 <xPendedTicks>
    6c52:	cc89                	beqz	s1,6c6c <xTaskResumeAll+0x132>
    6c54:	4985                	li	s3,1
    6c56:	d65ff0ef          	jal	ra,69ba <xTaskIncrementTick>
    6c5a:	c509                	beqz	a0,6c64 <xTaskResumeAll+0x12a>
    6c5c:	93818793          	addi	a5,gp,-1736 # 200006e0 <xYieldPending>
    6c60:	0137a023          	sw	s3,0(a5)
    6c64:	14fd                	addi	s1,s1,-1
    6c66:	f8e5                	bnez	s1,6c56 <xTaskResumeAll+0x11c>
    6c68:	00042023          	sw	zero,0(s0)
    6c6c:	9381a783          	lw	a5,-1736(gp) # 200006e0 <xYieldPending>
    6c70:	f00786e3          	beqz	a5,6b7c <xTaskResumeAll+0x42>
    6c74:	e000e7b7          	lui	a5,0xe000e
    6c78:	6711                	lui	a4,0x4
    6c7a:	20e7a023          	sw	a4,512(a5) # e000e200 <__freertos_irq_stack_top+0xc0009200>
    6c7e:	4505                	li	a0,1
    6c80:	bdfd                	j	6b7e <xTaskResumeAll+0x44>

00006c82 <vTaskDelay>:
    6c82:	e519                	bnez	a0,6c90 <vTaskDelay+0xe>
    6c84:	e000e7b7          	lui	a5,0xe000e
    6c88:	6711                	lui	a4,0x4
    6c8a:	20e7a023          	sw	a4,512(a5) # e000e200 <__freertos_irq_stack_top+0xc0009200>
    6c8e:	8082                	ret
    6c90:	88ff92ef          	jal	t0,51e <__riscv_save_0>
    6c94:	9181a783          	lw	a5,-1768(gp) # 200006c0 <uxSchedulerSuspended>
    6c98:	1141                	addi	sp,sp,-16
    6c9a:	c39d                	beqz	a5,6cc0 <vTaskDelay+0x3e>
    6c9c:	6789                	lui	a5,0x2
    6c9e:	80078793          	addi	a5,a5,-2048 # 1800 <vRedrawTask+0x320>
    6ca2:	30079073          	csrw	mstatus,a5
    6ca6:	0000d637          	lui	a2,0xd
    6caa:	0000d537          	lui	a0,0xd
    6cae:	c9460613          	addi	a2,a2,-876 # cc94 <timers+0xc4>
    6cb2:	54900593          	li	a1,1353
    6cb6:	c0c50513          	addi	a0,a0,-1012 # cc0c <timers+0x3c>
    6cba:	321040ef          	jal	ra,b7da <iprintf>
    6cbe:	a001                	j	6cbe <vTaskDelay+0x3c>
    6cc0:	c62a                	sw	a0,12(sp)
    6cc2:	ce7ff0ef          	jal	ra,69a8 <vTaskSuspendAll>
    6cc6:	4532                	lw	a0,12(sp)
    6cc8:	4581                	li	a1,0
    6cca:	aa3ff0ef          	jal	ra,676c <prvAddCurrentTaskToDelayedList>
    6cce:	e6dff0ef          	jal	ra,6b3a <xTaskResumeAll>
    6cd2:	e511                	bnez	a0,6cde <vTaskDelay+0x5c>
    6cd4:	e000e7b7          	lui	a5,0xe000e
    6cd8:	6711                	lui	a4,0x4
    6cda:	20e7a023          	sw	a4,512(a5) # e000e200 <__freertos_irq_stack_top+0xc0009200>
    6cde:	0141                	addi	sp,sp,16
    6ce0:	863f906f          	j	542 <__riscv_restore_0>

00006ce4 <vTaskSwitchContext>:
    6ce4:	9181a703          	lw	a4,-1768(gp) # 200006c0 <uxSchedulerSuspended>
    6ce8:	93818793          	addi	a5,gp,-1736 # 200006e0 <xYieldPending>
    6cec:	c701                	beqz	a4,6cf4 <vTaskSwitchContext+0x10>
    6cee:	4705                	li	a4,1
    6cf0:	c398                	sw	a4,0(a5)
    6cf2:	8082                	ret
    6cf4:	0007a023          	sw	zero,0(a5)
    6cf8:	92018713          	addi	a4,gp,-1760 # 200006c8 <uxTopReadyPriority>
    6cfc:	4318                	lw	a4,0(a4)
    6cfe:	92018613          	addi	a2,gp,-1760 # 200006c8 <uxTopReadyPriority>
    6d02:	200037b7          	lui	a5,0x20003
    6d06:	f3c78793          	addi	a5,a5,-196 # 20002f3c <pxReadyTasksLists>
    6d0a:	4851                	li	a6,20
    6d0c:	030706b3          	mul	a3,a4,a6
    6d10:	00d785b3          	add	a1,a5,a3
    6d14:	4188                	lw	a0,0(a1)
    6d16:	c505                	beqz	a0,6d3e <vTaskSwitchContext+0x5a>
    6d18:	41c8                	lw	a0,4(a1)
    6d1a:	06a1                	addi	a3,a3,8
    6d1c:	96be                	add	a3,a3,a5
    6d1e:	4148                	lw	a0,4(a0)
    6d20:	c1c8                	sw	a0,4(a1)
    6d22:	00d51463          	bne	a0,a3,6d2a <vTaskSwitchContext+0x46>
    6d26:	4154                	lw	a3,4(a0)
    6d28:	c1d4                	sw	a3,4(a1)
    6d2a:	46d1                	li	a3,20
    6d2c:	02d706b3          	mul	a3,a4,a3
    6d30:	97b6                	add	a5,a5,a3
    6d32:	43dc                	lw	a5,4(a5)
    6d34:	47d4                	lw	a3,12(a5)
    6d36:	90d1a423          	sw	a3,-1784(gp) # 200006b0 <pxCurrentTCB>
    6d3a:	c218                	sw	a4,0(a2)
    6d3c:	8082                	ret
    6d3e:	e715                	bnez	a4,6d6a <vTaskSwitchContext+0x86>
    6d40:	fdef92ef          	jal	t0,51e <__riscv_save_0>
    6d44:	6789                	lui	a5,0x2
    6d46:	80078793          	addi	a5,a5,-2048 # 1800 <vRedrawTask+0x320>
    6d4a:	30079073          	csrw	mstatus,a5
    6d4e:	0000d637          	lui	a2,0xd
    6d52:	6585                	lui	a1,0x1
    6d54:	0000d537          	lui	a0,0xd
    6d58:	c9460613          	addi	a2,a2,-876 # cc94 <timers+0xc4>
    6d5c:	c0258593          	addi	a1,a1,-1022 # c02 <__stack_size+0x1a>
    6d60:	c0c50513          	addi	a0,a0,-1012 # cc0c <timers+0x3c>
    6d64:	277040ef          	jal	ra,b7da <iprintf>
    6d68:	a001                	j	6d68 <vTaskSwitchContext+0x84>
    6d6a:	177d                	addi	a4,a4,-1
    6d6c:	b745                	j	6d0c <vTaskSwitchContext+0x28>

00006d6e <vTaskSuspend>:
    6d6e:	f96f92ef          	jal	t0,504 <__riscv_save_4>
    6d72:	842a                	mv	s0,a0
    6d74:	e71fe0ef          	jal	ra,5be4 <vPortEnterCritical>
    6d78:	90818993          	addi	s3,gp,-1784 # 200006b0 <pxCurrentTCB>
    6d7c:	e019                	bnez	s0,6d82 <vTaskSuspend+0x14>
    6d7e:	0009a403          	lw	s0,0(s3)
    6d82:	00440913          	addi	s2,s0,4
    6d86:	854a                	mv	a0,s2
    6d88:	f27fe0ef          	jal	ra,5cae <uxListRemove>
    6d8c:	541c                	lw	a5,40(s0)
    6d8e:	c789                	beqz	a5,6d98 <vTaskSuspend+0x2a>
    6d90:	01840513          	addi	a0,s0,24
    6d94:	f1bfe0ef          	jal	ra,5cae <uxListRemove>
    6d98:	200034b7          	lui	s1,0x20003
    6d9c:	85ca                	mv	a1,s2
    6d9e:	0a448513          	addi	a0,s1,164 # 200030a4 <xSuspendedTaskList>
    6da2:	ec7fe0ef          	jal	ra,5c68 <vListInsertEnd>
    6da6:	05444783          	lbu	a5,84(s0)
    6daa:	4705                	li	a4,1
    6dac:	8926                	mv	s2,s1
    6dae:	00f71463          	bne	a4,a5,6db6 <vTaskSuspend+0x48>
    6db2:	04040a23          	sb	zero,84(s0)
    6db6:	05544783          	lbu	a5,85(s0)
    6dba:	4705                	li	a4,1
    6dbc:	00f71463          	bne	a4,a5,6dc4 <vTaskSuspend+0x56>
    6dc0:	04040aa3          	sb	zero,85(s0)
    6dc4:	05644783          	lbu	a5,86(s0)
    6dc8:	4705                	li	a4,1
    6dca:	00f71463          	bne	a4,a5,6dd2 <vTaskSuspend+0x64>
    6dce:	04040b23          	sb	zero,86(s0)
    6dd2:	e29fe0ef          	jal	ra,5bfa <vPortExitCritical>
    6dd6:	93018713          	addi	a4,gp,-1744 # 200006d8 <xSchedulerRunning>
    6dda:	4318                	lw	a4,0(a4)
    6ddc:	93018493          	addi	s1,gp,-1744 # 200006d8 <xSchedulerRunning>
    6de0:	c719                	beqz	a4,6dee <vTaskSuspend+0x80>
    6de2:	e03fe0ef          	jal	ra,5be4 <vPortEnterCritical>
    6de6:	853ff0ef          	jal	ra,6638 <prvResetNextTaskUnblockTime>
    6dea:	e11fe0ef          	jal	ra,5bfa <vPortExitCritical>
    6dee:	0009a783          	lw	a5,0(s3)
    6df2:	02879e63          	bne	a5,s0,6e2e <vTaskSuspend+0xc0>
    6df6:	409c                	lw	a5,0(s1)
    6df8:	cf8d                	beqz	a5,6e32 <vTaskSuspend+0xc4>
    6dfa:	9181a783          	lw	a5,-1768(gp) # 200006c0 <uxSchedulerSuspended>
    6dfe:	c39d                	beqz	a5,6e24 <vTaskSuspend+0xb6>
    6e00:	6789                	lui	a5,0x2
    6e02:	80078793          	addi	a5,a5,-2048 # 1800 <vRedrawTask+0x320>
    6e06:	30079073          	csrw	mstatus,a5
    6e0a:	0000d637          	lui	a2,0xd
    6e0e:	0000d537          	lui	a0,0xd
    6e12:	c9460613          	addi	a2,a2,-876 # cc94 <timers+0xc4>
    6e16:	6fd00593          	li	a1,1789
    6e1a:	c0c50513          	addi	a0,a0,-1012 # cc0c <timers+0x3c>
    6e1e:	1bd040ef          	jal	ra,b7da <iprintf>
    6e22:	a001                	j	6e22 <vTaskSuspend+0xb4>
    6e24:	e000e7b7          	lui	a5,0xe000e
    6e28:	6711                	lui	a4,0x4
    6e2a:	20e7a023          	sw	a4,512(a5) # e000e200 <__freertos_irq_stack_top+0xc0009200>
    6e2e:	f0af906f          	j	538 <__riscv_restore_4>
    6e32:	0a490793          	addi	a5,s2,164
    6e36:	4398                	lw	a4,0(a5)
    6e38:	9141a783          	lw	a5,-1772(gp) # 200006bc <uxCurrentNumberOfTasks>
    6e3c:	00f71563          	bne	a4,a5,6e46 <vTaskSuspend+0xd8>
    6e40:	0009a023          	sw	zero,0(s3)
    6e44:	b7ed                	j	6e2e <vTaskSuspend+0xc0>
    6e46:	e9fff0ef          	jal	ra,6ce4 <vTaskSwitchContext>
    6e4a:	b7d5                	j	6e2e <vTaskSuspend+0xc0>

00006e4c <vTaskPlaceOnEventList>:
    6e4c:	ed2f92ef          	jal	t0,51e <__riscv_save_0>
    6e50:	e505                	bnez	a0,6e78 <vTaskPlaceOnEventList+0x2c>
    6e52:	6789                	lui	a5,0x2
    6e54:	80078793          	addi	a5,a5,-2048 # 1800 <vRedrawTask+0x320>
    6e58:	30079073          	csrw	mstatus,a5
    6e5c:	0000d637          	lui	a2,0xd
    6e60:	6585                	lui	a1,0x1
    6e62:	0000d537          	lui	a0,0xd
    6e66:	c9460613          	addi	a2,a2,-876 # cc94 <timers+0xc4>
    6e6a:	c1c58593          	addi	a1,a1,-996 # c1c <__stack_size+0x34>
    6e6e:	c0c50513          	addi	a0,a0,-1012 # cc0c <timers+0x3c>
    6e72:	169040ef          	jal	ra,b7da <iprintf>
    6e76:	a001                	j	6e76 <vTaskPlaceOnEventList+0x2a>
    6e78:	842e                	mv	s0,a1
    6e7a:	9081a583          	lw	a1,-1784(gp) # 200006b0 <pxCurrentTCB>
    6e7e:	05e1                	addi	a1,a1,24
    6e80:	e01fe0ef          	jal	ra,5c80 <vListInsert>
    6e84:	4585                	li	a1,1
    6e86:	8522                	mv	a0,s0
    6e88:	8e5ff0ef          	jal	ra,676c <prvAddCurrentTaskToDelayedList>
    6e8c:	eb6f906f          	j	542 <__riscv_restore_0>

00006e90 <xTaskRemoveFromEventList>:
    6e90:	455c                	lw	a5,12(a0)
    6e92:	47dc                	lw	a5,12(a5)
    6e94:	e795                	bnez	a5,6ec0 <xTaskRemoveFromEventList+0x30>
    6e96:	e88f92ef          	jal	t0,51e <__riscv_save_0>
    6e9a:	6789                	lui	a5,0x2
    6e9c:	80078793          	addi	a5,a5,-2048 # 1800 <vRedrawTask+0x320>
    6ea0:	30079073          	csrw	mstatus,a5
    6ea4:	0000d637          	lui	a2,0xd
    6ea8:	6585                	lui	a1,0x1
    6eaa:	0000d537          	lui	a0,0xd
    6eae:	c9460613          	addi	a2,a2,-876 # cc94 <timers+0xc4>
    6eb2:	c8258593          	addi	a1,a1,-894 # c82 <__stack_size+0x9a>
    6eb6:	c0c50513          	addi	a0,a0,-1012 # cc0c <timers+0x3c>
    6eba:	121040ef          	jal	ra,b7da <iprintf>
    6ebe:	a001                	j	6ebe <xTaskRemoveFromEventList+0x2e>
    6ec0:	4fd0                	lw	a2,28(a5)
    6ec2:	5394                	lw	a3,32(a5)
    6ec4:	5798                	lw	a4,40(a5)
    6ec6:	01878593          	addi	a1,a5,24
    6eca:	c614                	sw	a3,8(a2)
    6ecc:	c2d0                	sw	a2,4(a3)
    6ece:	4350                	lw	a2,4(a4)
    6ed0:	00b61363          	bne	a2,a1,6ed6 <xTaskRemoveFromEventList+0x46>
    6ed4:	c354                	sw	a3,4(a4)
    6ed6:	4314                	lw	a3,0(a4)
    6ed8:	0207a423          	sw	zero,40(a5)
    6edc:	16fd                	addi	a3,a3,-1
    6ede:	c314                	sw	a3,0(a4)
    6ee0:	9181a703          	lw	a4,-1768(gp) # 200006c0 <uxSchedulerSuspended>
    6ee4:	57d4                	lw	a3,44(a5)
    6ee6:	e735                	bnez	a4,6f52 <xTaskRemoveFromEventList+0xc2>
    6ee8:	478c                	lw	a1,8(a5)
    6eea:	47d0                	lw	a2,12(a5)
    6eec:	4bd8                	lw	a4,20(a5)
    6eee:	c590                	sw	a2,8(a1)
    6ef0:	47d0                	lw	a2,12(a5)
    6ef2:	4348                	lw	a0,4(a4)
    6ef4:	c24c                	sw	a1,4(a2)
    6ef6:	00478593          	addi	a1,a5,4
    6efa:	00b51363          	bne	a0,a1,6f00 <xTaskRemoveFromEventList+0x70>
    6efe:	c350                	sw	a2,4(a4)
    6f00:	4310                	lw	a2,0(a4)
    6f02:	0007aa23          	sw	zero,20(a5)
    6f06:	167d                	addi	a2,a2,-1
    6f08:	c310                	sw	a2,0(a4)
    6f0a:	92018713          	addi	a4,gp,-1760 # 200006c8 <uxTopReadyPriority>
    6f0e:	4310                	lw	a2,0(a4)
    6f10:	00d67363          	bgeu	a2,a3,6f16 <xTaskRemoveFromEventList+0x86>
    6f14:	c314                	sw	a3,0(a4)
    6f16:	4751                	li	a4,20
    6f18:	02e68633          	mul	a2,a3,a4
    6f1c:	20003737          	lui	a4,0x20003
    6f20:	f3c70713          	addi	a4,a4,-196 # 20002f3c <pxReadyTasksLists>
    6f24:	9732                	add	a4,a4,a2
    6f26:	4350                	lw	a2,4(a4)
    6f28:	4608                	lw	a0,8(a2)
    6f2a:	c790                	sw	a2,8(a5)
    6f2c:	c7c8                	sw	a0,12(a5)
    6f2e:	4608                	lw	a0,8(a2)
    6f30:	c14c                	sw	a1,4(a0)
    6f32:	c60c                	sw	a1,8(a2)
    6f34:	cbd8                	sw	a4,20(a5)
    6f36:	431c                	lw	a5,0(a4)
    6f38:	4501                	li	a0,0
    6f3a:	0785                	addi	a5,a5,1
    6f3c:	c31c                	sw	a5,0(a4)
    6f3e:	9081a783          	lw	a5,-1784(gp) # 200006b0 <pxCurrentTCB>
    6f42:	57dc                	lw	a5,44(a5)
    6f44:	00d7f663          	bgeu	a5,a3,6f50 <xTaskRemoveFromEventList+0xc0>
    6f48:	4705                	li	a4,1
    6f4a:	92e1ac23          	sw	a4,-1736(gp) # 200006e0 <xYieldPending>
    6f4e:	4505                	li	a0,1
    6f50:	8082                	ret
    6f52:	20003737          	lui	a4,0x20003
    6f56:	09070713          	addi	a4,a4,144 # 20003090 <xPendingReadyList>
    6f5a:	4350                	lw	a2,4(a4)
    6f5c:	4608                	lw	a0,8(a2)
    6f5e:	cfd0                	sw	a2,28(a5)
    6f60:	d388                	sw	a0,32(a5)
    6f62:	4608                	lw	a0,8(a2)
    6f64:	c14c                	sw	a1,4(a0)
    6f66:	c60c                	sw	a1,8(a2)
    6f68:	d798                	sw	a4,40(a5)
    6f6a:	b7f1                	j	6f36 <xTaskRemoveFromEventList+0xa6>

00006f6c <vTaskInternalSetTimeOutState>:
    6f6c:	9281a783          	lw	a5,-1752(gp) # 200006d0 <xNumOfOverflows>
    6f70:	c11c                	sw	a5,0(a0)
    6f72:	9341a783          	lw	a5,-1740(gp) # 200006dc <xTickCount>
    6f76:	c15c                	sw	a5,4(a0)
    6f78:	8082                	ret

00006f7a <xTaskCheckForTimeOut>:
    6f7a:	da4f92ef          	jal	t0,51e <__riscv_save_0>
    6f7e:	1141                	addi	sp,sp,-16
    6f80:	e505                	bnez	a0,6fa8 <xTaskCheckForTimeOut+0x2e>
    6f82:	6789                	lui	a5,0x2
    6f84:	80078793          	addi	a5,a5,-2048 # 1800 <vRedrawTask+0x320>
    6f88:	30079073          	csrw	mstatus,a5
    6f8c:	0000d637          	lui	a2,0xd
    6f90:	6585                	lui	a1,0x1
    6f92:	0000d537          	lui	a0,0xd
    6f96:	c9460613          	addi	a2,a2,-876 # cc94 <timers+0xc4>
    6f9a:	cfd58593          	addi	a1,a1,-771 # cfd <WriteRegAfterDelay+0x59>
    6f9e:	c0c50513          	addi	a0,a0,-1012 # cc0c <timers+0x3c>
    6fa2:	039040ef          	jal	ra,b7da <iprintf>
    6fa6:	a001                	j	6fa6 <xTaskCheckForTimeOut+0x2c>
    6fa8:	e585                	bnez	a1,6fd0 <xTaskCheckForTimeOut+0x56>
    6faa:	6789                	lui	a5,0x2
    6fac:	80078793          	addi	a5,a5,-2048 # 1800 <vRedrawTask+0x320>
    6fb0:	30079073          	csrw	mstatus,a5
    6fb4:	0000d637          	lui	a2,0xd
    6fb8:	6585                	lui	a1,0x1
    6fba:	0000d537          	lui	a0,0xd
    6fbe:	c9460613          	addi	a2,a2,-876 # cc94 <timers+0xc4>
    6fc2:	cfe58593          	addi	a1,a1,-770 # cfe <WriteRegAfterDelay+0x5a>
    6fc6:	c0c50513          	addi	a0,a0,-1012 # cc0c <timers+0x3c>
    6fca:	011040ef          	jal	ra,b7da <iprintf>
    6fce:	a001                	j	6fce <xTaskCheckForTimeOut+0x54>
    6fd0:	c62e                	sw	a1,12(sp)
    6fd2:	c42a                	sw	a0,8(sp)
    6fd4:	c11fe0ef          	jal	ra,5be4 <vPortEnterCritical>
    6fd8:	45b2                	lw	a1,12(sp)
    6fda:	9341a683          	lw	a3,-1740(gp) # 200006dc <xTickCount>
    6fde:	419c                	lw	a5,0(a1)
    6fe0:	577d                	li	a4,-1
    6fe2:	4401                	li	s0,0
    6fe4:	00e78f63          	beq	a5,a4,7002 <xTaskCheckForTimeOut+0x88>
    6fe8:	4522                	lw	a0,8(sp)
    6fea:	9281a603          	lw	a2,-1752(gp) # 200006d0 <xNumOfOverflows>
    6fee:	00052803          	lw	a6,0(a0)
    6ff2:	4158                	lw	a4,4(a0)
    6ff4:	00c80d63          	beq	a6,a2,700e <xTaskCheckForTimeOut+0x94>
    6ff8:	00e6eb63          	bltu	a3,a4,700e <xTaskCheckForTimeOut+0x94>
    6ffc:	0005a023          	sw	zero,0(a1)
    7000:	4405                	li	s0,1
    7002:	bf9fe0ef          	jal	ra,5bfa <vPortExitCritical>
    7006:	8522                	mv	a0,s0
    7008:	0141                	addi	sp,sp,16
    700a:	d38f906f          	j	542 <__riscv_restore_0>
    700e:	40e68633          	sub	a2,a3,a4
    7012:	fef675e3          	bgeu	a2,a5,6ffc <xTaskCheckForTimeOut+0x82>
    7016:	8f95                	sub	a5,a5,a3
    7018:	97ba                	add	a5,a5,a4
    701a:	c19c                	sw	a5,0(a1)
    701c:	f51ff0ef          	jal	ra,6f6c <vTaskInternalSetTimeOutState>
    7020:	4401                	li	s0,0
    7022:	b7c5                	j	7002 <xTaskCheckForTimeOut+0x88>

00007024 <vTaskMissedYield>:
    7024:	4705                	li	a4,1
    7026:	92e1ac23          	sw	a4,-1736(gp) # 200006e0 <xYieldPending>
    702a:	8082                	ret

0000702c <xTaskGetCurrentTaskHandle>:
    702c:	9081a503          	lw	a0,-1784(gp) # 200006b0 <pxCurrentTCB>
    7030:	8082                	ret

00007032 <xTaskPriorityInherit>:
    7032:	c14d                	beqz	a0,70d4 <xTaskPriorityInherit+0xa2>
    7034:	cd0f92ef          	jal	t0,504 <__riscv_save_4>
    7038:	90818793          	addi	a5,gp,-1784 # 200006b0 <pxCurrentTCB>
    703c:	4394                	lw	a3,0(a5)
    703e:	5558                	lw	a4,44(a0)
    7040:	90818913          	addi	s2,gp,-1784 # 200006b0 <pxCurrentTCB>
    7044:	56d4                	lw	a3,44(a3)
    7046:	08d77163          	bgeu	a4,a3,70c8 <xTaskPriorityInherit+0x96>
    704a:	4d1c                	lw	a5,24(a0)
    704c:	0007c863          	bltz	a5,705c <xTaskPriorityInherit+0x2a>
    7050:	00092783          	lw	a5,0(s2)
    7054:	57d4                	lw	a3,44(a5)
    7056:	47bd                	li	a5,15
    7058:	8f95                	sub	a5,a5,a3
    705a:	cd1c                	sw	a5,24(a0)
    705c:	4651                	li	a2,20
    705e:	02c70733          	mul	a4,a4,a2
    7062:	200037b7          	lui	a5,0x20003
    7066:	f3c78693          	addi	a3,a5,-196 # 20002f3c <pxReadyTasksLists>
    706a:	f3c78493          	addi	s1,a5,-196
    706e:	9736                	add	a4,a4,a3
    7070:	4954                	lw	a3,20(a0)
    7072:	04e69663          	bne	a3,a4,70be <xTaskPriorityInherit+0x8c>
    7076:	00450993          	addi	s3,a0,4
    707a:	842a                	mv	s0,a0
    707c:	854e                	mv	a0,s3
    707e:	c31fe0ef          	jal	ra,5cae <uxListRemove>
    7082:	00092783          	lw	a5,0(s2)
    7086:	92018713          	addi	a4,gp,-1760 # 200006c8 <uxTopReadyPriority>
    708a:	57dc                	lw	a5,44(a5)
    708c:	4314                	lw	a3,0(a4)
    708e:	d45c                	sw	a5,44(s0)
    7090:	00f6f363          	bgeu	a3,a5,7096 <xTaskPriorityInherit+0x64>
    7094:	c31c                	sw	a5,0(a4)
    7096:	4751                	li	a4,20
    7098:	02e787b3          	mul	a5,a5,a4
    709c:	97a6                	add	a5,a5,s1
    709e:	43d8                	lw	a4,4(a5)
    70a0:	4714                	lw	a3,8(a4)
    70a2:	c418                	sw	a4,8(s0)
    70a4:	c454                	sw	a3,12(s0)
    70a6:	4714                	lw	a3,8(a4)
    70a8:	0136a223          	sw	s3,4(a3)
    70ac:	01372423          	sw	s3,8(a4)
    70b0:	4398                	lw	a4,0(a5)
    70b2:	c85c                	sw	a5,20(s0)
    70b4:	0705                	addi	a4,a4,1
    70b6:	c398                	sw	a4,0(a5)
    70b8:	4505                	li	a0,1
    70ba:	c7ef906f          	j	538 <__riscv_restore_4>
    70be:	00092783          	lw	a5,0(s2)
    70c2:	57dc                	lw	a5,44(a5)
    70c4:	d55c                	sw	a5,44(a0)
    70c6:	bfcd                	j	70b8 <xTaskPriorityInherit+0x86>
    70c8:	439c                	lw	a5,0(a5)
    70ca:	4128                	lw	a0,64(a0)
    70cc:	57dc                	lw	a5,44(a5)
    70ce:	00f53533          	sltu	a0,a0,a5
    70d2:	b7e5                	j	70ba <xTaskPriorityInherit+0x88>
    70d4:	4501                	li	a0,0
    70d6:	8082                	ret

000070d8 <xTaskPriorityDisinherit>:
    70d8:	e511                	bnez	a0,70e4 <xTaskPriorityDisinherit+0xc>
    70da:	4501                	li	a0,0
    70dc:	8082                	ret
    70de:	4501                	li	a0,0
    70e0:	c62f906f          	j	542 <__riscv_restore_0>
    70e4:	c3af92ef          	jal	t0,51e <__riscv_save_0>
    70e8:	9081a783          	lw	a5,-1784(gp) # 200006b0 <pxCurrentTCB>
    70ec:	842a                	mv	s0,a0
    70ee:	02a78563          	beq	a5,a0,7118 <xTaskPriorityDisinherit+0x40>
    70f2:	6789                	lui	a5,0x2
    70f4:	80078793          	addi	a5,a5,-2048 # 1800 <vRedrawTask+0x320>
    70f8:	30079073          	csrw	mstatus,a5
    70fc:	0000d637          	lui	a2,0xd
    7100:	6585                	lui	a1,0x1
    7102:	0000d537          	lui	a0,0xd
    7106:	c9460613          	addi	a2,a2,-876 # cc94 <timers+0xc4>
    710a:	04f58593          	addi	a1,a1,79 # 104f <GoToHome+0x3>
    710e:	c0c50513          	addi	a0,a0,-1012 # cc0c <timers+0x3c>
    7112:	6c8040ef          	jal	ra,b7da <iprintf>
    7116:	a001                	j	7116 <xTaskPriorityDisinherit+0x3e>
    7118:	43fc                	lw	a5,68(a5)
    711a:	e785                	bnez	a5,7142 <xTaskPriorityDisinherit+0x6a>
    711c:	6789                	lui	a5,0x2
    711e:	80078793          	addi	a5,a5,-2048 # 1800 <vRedrawTask+0x320>
    7122:	30079073          	csrw	mstatus,a5
    7126:	0000d637          	lui	a2,0xd
    712a:	6585                	lui	a1,0x1
    712c:	0000d537          	lui	a0,0xd
    7130:	c9460613          	addi	a2,a2,-876 # cc94 <timers+0xc4>
    7134:	05058593          	addi	a1,a1,80 # 1050 <GoToHome+0x4>
    7138:	c0c50513          	addi	a0,a0,-1012 # cc0c <timers+0x3c>
    713c:	69e040ef          	jal	ra,b7da <iprintf>
    7140:	a001                	j	7140 <xTaskPriorityDisinherit+0x68>
    7142:	5554                	lw	a3,44(a0)
    7144:	4138                	lw	a4,64(a0)
    7146:	17fd                	addi	a5,a5,-1
    7148:	c17c                	sw	a5,68(a0)
    714a:	f8e68ae3          	beq	a3,a4,70de <xTaskPriorityDisinherit+0x6>
    714e:	fbc1                	bnez	a5,70de <xTaskPriorityDisinherit+0x6>
    7150:	00450493          	addi	s1,a0,4
    7154:	8526                	mv	a0,s1
    7156:	b59fe0ef          	jal	ra,5cae <uxListRemove>
    715a:	403c                	lw	a5,64(s0)
    715c:	473d                	li	a4,15
    715e:	8f1d                	sub	a4,a4,a5
    7160:	cc18                	sw	a4,24(s0)
    7162:	92018713          	addi	a4,gp,-1760 # 200006c8 <uxTopReadyPriority>
    7166:	4314                	lw	a3,0(a4)
    7168:	d45c                	sw	a5,44(s0)
    716a:	00f6f363          	bgeu	a3,a5,7170 <xTaskPriorityDisinherit+0x98>
    716e:	c31c                	sw	a5,0(a4)
    7170:	4751                	li	a4,20
    7172:	02e78733          	mul	a4,a5,a4
    7176:	200037b7          	lui	a5,0x20003
    717a:	f3c78793          	addi	a5,a5,-196 # 20002f3c <pxReadyTasksLists>
    717e:	4505                	li	a0,1
    7180:	97ba                	add	a5,a5,a4
    7182:	43d8                	lw	a4,4(a5)
    7184:	4714                	lw	a3,8(a4)
    7186:	c418                	sw	a4,8(s0)
    7188:	c454                	sw	a3,12(s0)
    718a:	4714                	lw	a3,8(a4)
    718c:	c2c4                	sw	s1,4(a3)
    718e:	c704                	sw	s1,8(a4)
    7190:	4398                	lw	a4,0(a5)
    7192:	c85c                	sw	a5,20(s0)
    7194:	0705                	addi	a4,a4,1
    7196:	c398                	sw	a4,0(a5)
    7198:	b7a1                	j	70e0 <xTaskPriorityDisinherit+0x8>

0000719a <vTaskPriorityDisinheritAfterTimeout>:
    719a:	cd71                	beqz	a0,7276 <vTaskPriorityDisinheritAfterTimeout+0xdc>
    719c:	b82f92ef          	jal	t0,51e <__riscv_save_0>
    71a0:	4174                	lw	a3,68(a0)
    71a2:	842a                	mv	s0,a0
    71a4:	e685                	bnez	a3,71cc <vTaskPriorityDisinheritAfterTimeout+0x32>
    71a6:	6789                	lui	a5,0x2
    71a8:	80078793          	addi	a5,a5,-2048 # 1800 <vRedrawTask+0x320>
    71ac:	30079073          	csrw	mstatus,a5
    71b0:	0000d637          	lui	a2,0xd
    71b4:	6585                	lui	a1,0x1
    71b6:	0000d537          	lui	a0,0xd
    71ba:	c9460613          	addi	a2,a2,-876 # cc94 <timers+0xc4>
    71be:	09f58593          	addi	a1,a1,159 # 109f <SetDefault+0xb>
    71c2:	c0c50513          	addi	a0,a0,-1012 # cc0c <timers+0x3c>
    71c6:	614040ef          	jal	ra,b7da <iprintf>
    71ca:	a001                	j	71ca <vTaskPriorityDisinheritAfterTimeout+0x30>
    71cc:	413c                	lw	a5,64(a0)
    71ce:	00b7f363          	bgeu	a5,a1,71d4 <vTaskPriorityDisinheritAfterTimeout+0x3a>
    71d2:	87ae                	mv	a5,a1
    71d4:	5458                	lw	a4,44(s0)
    71d6:	08f70e63          	beq	a4,a5,7272 <vTaskPriorityDisinheritAfterTimeout+0xd8>
    71da:	4605                	li	a2,1
    71dc:	08c69b63          	bne	a3,a2,7272 <vTaskPriorityDisinheritAfterTimeout+0xd8>
    71e0:	9081a683          	lw	a3,-1784(gp) # 200006b0 <pxCurrentTCB>
    71e4:	02869563          	bne	a3,s0,720e <vTaskPriorityDisinheritAfterTimeout+0x74>
    71e8:	6789                	lui	a5,0x2
    71ea:	80078793          	addi	a5,a5,-2048 # 1800 <vRedrawTask+0x320>
    71ee:	30079073          	csrw	mstatus,a5
    71f2:	0000d637          	lui	a2,0xd
    71f6:	6585                	lui	a1,0x1
    71f8:	0000d537          	lui	a0,0xd
    71fc:	c9460613          	addi	a2,a2,-876 # cc94 <timers+0xc4>
    7200:	0ba58593          	addi	a1,a1,186 # 10ba <SetDefault+0x26>
    7204:	c0c50513          	addi	a0,a0,-1012 # cc0c <timers+0x3c>
    7208:	5d2040ef          	jal	ra,b7da <iprintf>
    720c:	a001                	j	720c <vTaskPriorityDisinheritAfterTimeout+0x72>
    720e:	4c14                	lw	a3,24(s0)
    7210:	d45c                	sw	a5,44(s0)
    7212:	0006c663          	bltz	a3,721e <vTaskPriorityDisinheritAfterTimeout+0x84>
    7216:	46bd                	li	a3,15
    7218:	40f687b3          	sub	a5,a3,a5
    721c:	cc1c                	sw	a5,24(s0)
    721e:	4651                	li	a2,20
    7220:	02c70733          	mul	a4,a4,a2
    7224:	200037b7          	lui	a5,0x20003
    7228:	f3c78693          	addi	a3,a5,-196 # 20002f3c <pxReadyTasksLists>
    722c:	f3c78493          	addi	s1,a5,-196
    7230:	9736                	add	a4,a4,a3
    7232:	4854                	lw	a3,20(s0)
    7234:	02e69f63          	bne	a3,a4,7272 <vTaskPriorityDisinheritAfterTimeout+0xd8>
    7238:	00440913          	addi	s2,s0,4
    723c:	854a                	mv	a0,s2
    723e:	a71fe0ef          	jal	ra,5cae <uxListRemove>
    7242:	92018713          	addi	a4,gp,-1760 # 200006c8 <uxTopReadyPriority>
    7246:	545c                	lw	a5,44(s0)
    7248:	4314                	lw	a3,0(a4)
    724a:	00f6f363          	bgeu	a3,a5,7250 <vTaskPriorityDisinheritAfterTimeout+0xb6>
    724e:	c31c                	sw	a5,0(a4)
    7250:	4751                	li	a4,20
    7252:	02e787b3          	mul	a5,a5,a4
    7256:	97a6                	add	a5,a5,s1
    7258:	43d8                	lw	a4,4(a5)
    725a:	4714                	lw	a3,8(a4)
    725c:	c418                	sw	a4,8(s0)
    725e:	c454                	sw	a3,12(s0)
    7260:	4714                	lw	a3,8(a4)
    7262:	0126a223          	sw	s2,4(a3)
    7266:	01272423          	sw	s2,8(a4)
    726a:	4398                	lw	a4,0(a5)
    726c:	c85c                	sw	a5,20(s0)
    726e:	0705                	addi	a4,a4,1
    7270:	c398                	sw	a4,0(a5)
    7272:	ad0f906f          	j	542 <__riscv_restore_0>
    7276:	8082                	ret

00007278 <pvTaskIncrementMutexHeldCount>:
    7278:	90818713          	addi	a4,gp,-1784 # 200006b0 <pxCurrentTCB>
    727c:	4318                	lw	a4,0(a4)
    727e:	90818793          	addi	a5,gp,-1784 # 200006b0 <pxCurrentTCB>
    7282:	c709                	beqz	a4,728c <pvTaskIncrementMutexHeldCount+0x14>
    7284:	4394                	lw	a3,0(a5)
    7286:	42f8                	lw	a4,68(a3)
    7288:	0705                	addi	a4,a4,1
    728a:	c2f8                	sw	a4,68(a3)
    728c:	4388                	lw	a0,0(a5)
    728e:	8082                	ret

00007290 <ulTaskGenericNotifyTake>:
    7290:	a74f92ef          	jal	t0,504 <__riscv_save_4>
    7294:	4789                	li	a5,2
    7296:	1141                	addi	sp,sp,-16
    7298:	02a7f563          	bgeu	a5,a0,72c2 <ulTaskGenericNotifyTake+0x32>
    729c:	6789                	lui	a5,0x2
    729e:	80078793          	addi	a5,a5,-2048 # 1800 <vRedrawTask+0x320>
    72a2:	30079073          	csrw	mstatus,a5
    72a6:	0000d637          	lui	a2,0xd
    72aa:	6585                	lui	a1,0x1
    72ac:	0000d537          	lui	a0,0xd
    72b0:	c9460613          	addi	a2,a2,-876 # cc94 <timers+0xc4>
    72b4:	26658593          	addi	a1,a1,614 # 1266 <vGetEdgeData+0x6>
    72b8:	c0c50513          	addi	a0,a0,-1012 # cc0c <timers+0x3c>
    72bc:	51e040ef          	jal	ra,b7da <iprintf>
    72c0:	a001                	j	72c0 <ulTaskGenericNotifyTake+0x30>
    72c2:	892a                	mv	s2,a0
    72c4:	89ae                	mv	s3,a1
    72c6:	c632                	sw	a2,12(sp)
    72c8:	91dfe0ef          	jal	ra,5be4 <vPortEnterCritical>
    72cc:	90818793          	addi	a5,gp,-1784 # 200006b0 <pxCurrentTCB>
    72d0:	439c                	lw	a5,0(a5)
    72d2:	01090493          	addi	s1,s2,16
    72d6:	00249713          	slli	a4,s1,0x2
    72da:	97ba                	add	a5,a5,a4
    72dc:	479c                	lw	a5,8(a5)
    72de:	90818413          	addi	s0,gp,-1784 # 200006b0 <pxCurrentTCB>
    72e2:	e38d                	bnez	a5,7304 <ulTaskGenericNotifyTake+0x74>
    72e4:	401c                	lw	a5,0(s0)
    72e6:	4632                	lw	a2,12(sp)
    72e8:	4705                	li	a4,1
    72ea:	97ca                	add	a5,a5,s2
    72ec:	04e78a23          	sb	a4,84(a5)
    72f0:	ca11                	beqz	a2,7304 <ulTaskGenericNotifyTake+0x74>
    72f2:	4585                	li	a1,1
    72f4:	8532                	mv	a0,a2
    72f6:	c76ff0ef          	jal	ra,676c <prvAddCurrentTaskToDelayedList>
    72fa:	e000e7b7          	lui	a5,0xe000e
    72fe:	6711                	lui	a4,0x4
    7300:	20e7a023          	sw	a4,512(a5) # e000e200 <__freertos_irq_stack_top+0xc0009200>
    7304:	8f7fe0ef          	jal	ra,5bfa <vPortExitCritical>
    7308:	8ddfe0ef          	jal	ra,5be4 <vPortEnterCritical>
    730c:	4018                	lw	a4,0(s0)
    730e:	00249793          	slli	a5,s1,0x2
    7312:	973e                	add	a4,a4,a5
    7314:	4708                	lw	a0,8(a4)
    7316:	c519                	beqz	a0,7324 <ulTaskGenericNotifyTake+0x94>
    7318:	4018                	lw	a4,0(s0)
    731a:	02098063          	beqz	s3,733a <ulTaskGenericNotifyTake+0xaa>
    731e:	97ba                	add	a5,a5,a4
    7320:	0007a423          	sw	zero,8(a5)
    7324:	401c                	lw	a5,0(s0)
    7326:	c62a                	sw	a0,12(sp)
    7328:	993e                	add	s2,s2,a5
    732a:	04090a23          	sb	zero,84(s2)
    732e:	8cdfe0ef          	jal	ra,5bfa <vPortExitCritical>
    7332:	4532                	lw	a0,12(sp)
    7334:	0141                	addi	sp,sp,16
    7336:	a02f906f          	j	538 <__riscv_restore_4>
    733a:	fff50693          	addi	a3,a0,-1
    733e:	97ba                	add	a5,a5,a4
    7340:	c794                	sw	a3,8(a5)
    7342:	b7cd                	j	7324 <ulTaskGenericNotifyTake+0x94>

00007344 <xTaskGenericNotifyWait>:
    7344:	9c0f92ef          	jal	t0,504 <__riscv_save_4>
    7348:	4a09                	li	s4,2
    734a:	1141                	addi	sp,sp,-16
    734c:	02aa7563          	bgeu	s4,a0,7376 <xTaskGenericNotifyWait+0x32>
    7350:	6789                	lui	a5,0x2
    7352:	80078793          	addi	a5,a5,-2048 # 1800 <vRedrawTask+0x320>
    7356:	30079073          	csrw	mstatus,a5
    735a:	0000d637          	lui	a2,0xd
    735e:	6585                	lui	a1,0x1
    7360:	0000d537          	lui	a0,0xd
    7364:	c9460613          	addi	a2,a2,-876 # cc94 <timers+0xc4>
    7368:	2b058593          	addi	a1,a1,688 # 12b0 <checkLedState+0x26>
    736c:	c0c50513          	addi	a0,a0,-1012 # cc0c <timers+0x3c>
    7370:	46a040ef          	jal	ra,b7da <iprintf>
    7374:	a001                	j	7374 <xTaskGenericNotifyWait+0x30>
    7376:	84aa                	mv	s1,a0
    7378:	8932                	mv	s2,a2
    737a:	89b6                	mv	s3,a3
    737c:	c63a                	sw	a4,12(sp)
    737e:	c42e                	sw	a1,8(sp)
    7380:	865fe0ef          	jal	ra,5be4 <vPortEnterCritical>
    7384:	90818793          	addi	a5,gp,-1784 # 200006b0 <pxCurrentTCB>
    7388:	439c                	lw	a5,0(a5)
    738a:	90818413          	addi	s0,gp,-1784 # 200006b0 <pxCurrentTCB>
    738e:	97a6                	add	a5,a5,s1
    7390:	0547c783          	lbu	a5,84(a5)
    7394:	02fa0c63          	beq	s4,a5,73cc <xTaskGenericNotifyWait+0x88>
    7398:	401c                	lw	a5,0(s0)
    739a:	00249693          	slli	a3,s1,0x2
    739e:	45a2                	lw	a1,8(sp)
    73a0:	97b6                	add	a5,a5,a3
    73a2:	47b4                	lw	a3,72(a5)
    73a4:	fff5c593          	not	a1,a1
    73a8:	4732                	lw	a4,12(sp)
    73aa:	8df5                	and	a1,a1,a3
    73ac:	c7ac                	sw	a1,72(a5)
    73ae:	401c                	lw	a5,0(s0)
    73b0:	4685                	li	a3,1
    73b2:	97a6                	add	a5,a5,s1
    73b4:	04d78a23          	sb	a3,84(a5)
    73b8:	cb11                	beqz	a4,73cc <xTaskGenericNotifyWait+0x88>
    73ba:	853a                	mv	a0,a4
    73bc:	4585                	li	a1,1
    73be:	baeff0ef          	jal	ra,676c <prvAddCurrentTaskToDelayedList>
    73c2:	e000e7b7          	lui	a5,0xe000e
    73c6:	6711                	lui	a4,0x4
    73c8:	20e7a023          	sw	a4,512(a5) # e000e200 <__freertos_irq_stack_top+0xc0009200>
    73cc:	82ffe0ef          	jal	ra,5bfa <vPortExitCritical>
    73d0:	815fe0ef          	jal	ra,5be4 <vPortEnterCritical>
    73d4:	00098a63          	beqz	s3,73e8 <xTaskGenericNotifyWait+0xa4>
    73d8:	401c                	lw	a5,0(s0)
    73da:	01048713          	addi	a4,s1,16
    73de:	070a                	slli	a4,a4,0x2
    73e0:	97ba                	add	a5,a5,a4
    73e2:	479c                	lw	a5,8(a5)
    73e4:	00f9a023          	sw	a5,0(s3)
    73e8:	401c                	lw	a5,0(s0)
    73ea:	4709                	li	a4,2
    73ec:	4501                	li	a0,0
    73ee:	97a6                	add	a5,a5,s1
    73f0:	0547c783          	lbu	a5,84(a5)
    73f4:	00f71e63          	bne	a4,a5,7410 <xTaskGenericNotifyWait+0xcc>
    73f8:	401c                	lw	a5,0(s0)
    73fa:	00249713          	slli	a4,s1,0x2
    73fe:	fff94913          	not	s2,s2
    7402:	97ba                	add	a5,a5,a4
    7404:	47b8                	lw	a4,72(a5)
    7406:	4505                	li	a0,1
    7408:	00e97933          	and	s2,s2,a4
    740c:	0527a423          	sw	s2,72(a5)
    7410:	401c                	lw	a5,0(s0)
    7412:	c42a                	sw	a0,8(sp)
    7414:	94be                	add	s1,s1,a5
    7416:	04048a23          	sb	zero,84(s1)
    741a:	fe0fe0ef          	jal	ra,5bfa <vPortExitCritical>
    741e:	4522                	lw	a0,8(sp)
    7420:	0141                	addi	sp,sp,16
    7422:	916f906f          	j	538 <__riscv_restore_4>

00007426 <xTaskGenericNotify>:
    7426:	8f8f92ef          	jal	t0,51e <__riscv_save_0>
    742a:	4789                	li	a5,2
    742c:	1101                	addi	sp,sp,-32
    742e:	02b7f563          	bgeu	a5,a1,7458 <xTaskGenericNotify+0x32>
    7432:	6789                	lui	a5,0x2
    7434:	80078793          	addi	a5,a5,-2048 # 1800 <vRedrawTask+0x320>
    7438:	30079073          	csrw	mstatus,a5
    743c:	0000d637          	lui	a2,0xd
    7440:	6585                	lui	a1,0x1
    7442:	0000d537          	lui	a0,0xd
    7446:	c9460613          	addi	a2,a2,-876 # cc94 <timers+0xc4>
    744a:	30858593          	addi	a1,a1,776 # 1308 <vRGBMode+0x44>
    744e:	c0c50513          	addi	a0,a0,-1012 # cc0c <timers+0x3c>
    7452:	388040ef          	jal	ra,b7da <iprintf>
    7456:	a001                	j	7456 <xTaskGenericNotify+0x30>
    7458:	e505                	bnez	a0,7480 <xTaskGenericNotify+0x5a>
    745a:	6789                	lui	a5,0x2
    745c:	80078793          	addi	a5,a5,-2048 # 1800 <vRedrawTask+0x320>
    7460:	30079073          	csrw	mstatus,a5
    7464:	0000d637          	lui	a2,0xd
    7468:	6585                	lui	a1,0x1
    746a:	0000d537          	lui	a0,0xd
    746e:	c9460613          	addi	a2,a2,-876 # cc94 <timers+0xc4>
    7472:	30958593          	addi	a1,a1,777 # 1309 <vRGBMode+0x45>
    7476:	c0c50513          	addi	a0,a0,-1012 # cc0c <timers+0x3c>
    747a:	360040ef          	jal	ra,b7da <iprintf>
    747e:	a001                	j	747e <xTaskGenericNotify+0x58>
    7480:	ce3a                	sw	a4,28(sp)
    7482:	cc36                	sw	a3,24(sp)
    7484:	ca32                	sw	a2,20(sp)
    7486:	c82e                	sw	a1,16(sp)
    7488:	c62a                	sw	a0,12(sp)
    748a:	f5afe0ef          	jal	ra,5be4 <vPortEnterCritical>
    748e:	4772                	lw	a4,28(sp)
    7490:	4532                	lw	a0,12(sp)
    7492:	45c2                	lw	a1,16(sp)
    7494:	4652                	lw	a2,20(sp)
    7496:	46e2                	lw	a3,24(sp)
    7498:	c719                	beqz	a4,74a6 <xTaskGenericNotify+0x80>
    749a:	01058793          	addi	a5,a1,16
    749e:	078a                	slli	a5,a5,0x2
    74a0:	97aa                	add	a5,a5,a0
    74a2:	479c                	lw	a5,8(a5)
    74a4:	c31c                	sw	a5,0(a4)
    74a6:	00b50733          	add	a4,a0,a1
    74aa:	05474783          	lbu	a5,84(a4) # 4054 <vDinDoutProcess+0x60>
    74ae:	4809                	li	a6,2
    74b0:	05070a23          	sb	a6,84(a4)
    74b4:	4711                	li	a4,4
    74b6:	0ff7f793          	andi	a5,a5,255
    74ba:	04d76763          	bltu	a4,a3,7508 <xTaskGenericNotify+0xe2>
    74be:	6735                	lui	a4,0xd
    74c0:	c6c70713          	addi	a4,a4,-916 # cc6c <timers+0x9c>
    74c4:	068a                	slli	a3,a3,0x2
    74c6:	96ba                	add	a3,a3,a4
    74c8:	4298                	lw	a4,0(a3)
    74ca:	8702                	jr	a4
    74cc:	058a                	slli	a1,a1,0x2
    74ce:	95aa                	add	a1,a1,a0
    74d0:	45b8                	lw	a4,72(a1)
    74d2:	8e59                	or	a2,a2,a4
    74d4:	c5b0                	sw	a2,72(a1)
    74d6:	4705                	li	a4,1
    74d8:	04e78e63          	beq	a5,a4,7534 <xTaskGenericNotify+0x10e>
    74dc:	4505                	li	a0,1
    74de:	c62a                	sw	a0,12(sp)
    74e0:	f1afe0ef          	jal	ra,5bfa <vPortExitCritical>
    74e4:	4532                	lw	a0,12(sp)
    74e6:	6105                	addi	sp,sp,32
    74e8:	85af906f          	j	542 <__riscv_restore_0>
    74ec:	058a                	slli	a1,a1,0x2
    74ee:	95aa                	add	a1,a1,a0
    74f0:	45b8                	lw	a4,72(a1)
    74f2:	0705                	addi	a4,a4,1
    74f4:	c5b8                	sw	a4,72(a1)
    74f6:	b7c5                	j	74d6 <xTaskGenericNotify+0xb0>
    74f8:	4709                	li	a4,2
    74fa:	0ce78863          	beq	a5,a4,75ca <xTaskGenericNotify+0x1a4>
    74fe:	05c1                	addi	a1,a1,16
    7500:	058a                	slli	a1,a1,0x2
    7502:	95aa                	add	a1,a1,a0
    7504:	c590                	sw	a2,8(a1)
    7506:	bfc1                	j	74d6 <xTaskGenericNotify+0xb0>
    7508:	9341a703          	lw	a4,-1740(gp) # 200006dc <xTickCount>
    750c:	d769                	beqz	a4,74d6 <xTaskGenericNotify+0xb0>
    750e:	6789                	lui	a5,0x2
    7510:	80078793          	addi	a5,a5,-2048 # 1800 <vRedrawTask+0x320>
    7514:	30079073          	csrw	mstatus,a5
    7518:	0000d637          	lui	a2,0xd
    751c:	6585                	lui	a1,0x1
    751e:	0000d537          	lui	a0,0xd
    7522:	c9460613          	addi	a2,a2,-876 # cc94 <timers+0xc4>
    7526:	33e58593          	addi	a1,a1,830 # 133e <vBarColorMode+0x8>
    752a:	c0c50513          	addi	a0,a0,-1012 # cc0c <timers+0x3c>
    752e:	2ac040ef          	jal	ra,b7da <iprintf>
    7532:	a001                	j	7532 <xTaskGenericNotify+0x10c>
    7534:	4514                	lw	a3,8(a0)
    7536:	4558                	lw	a4,12(a0)
    7538:	495c                	lw	a5,20(a0)
    753a:	00450613          	addi	a2,a0,4
    753e:	c698                	sw	a4,8(a3)
    7540:	4558                	lw	a4,12(a0)
    7542:	c354                	sw	a3,4(a4)
    7544:	43d4                	lw	a3,4(a5)
    7546:	00c69363          	bne	a3,a2,754c <xTaskGenericNotify+0x126>
    754a:	c3d8                	sw	a4,4(a5)
    754c:	4398                	lw	a4,0(a5)
    754e:	00052a23          	sw	zero,20(a0)
    7552:	177d                	addi	a4,a4,-1
    7554:	c398                	sw	a4,0(a5)
    7556:	92018793          	addi	a5,gp,-1760 # 200006c8 <uxTopReadyPriority>
    755a:	5558                	lw	a4,44(a0)
    755c:	4394                	lw	a3,0(a5)
    755e:	00e6f363          	bgeu	a3,a4,7564 <xTaskGenericNotify+0x13e>
    7562:	c398                	sw	a4,0(a5)
    7564:	47d1                	li	a5,20
    7566:	02f706b3          	mul	a3,a4,a5
    756a:	200037b7          	lui	a5,0x20003
    756e:	f3c78793          	addi	a5,a5,-196 # 20002f3c <pxReadyTasksLists>
    7572:	97b6                	add	a5,a5,a3
    7574:	43d4                	lw	a3,4(a5)
    7576:	468c                	lw	a1,8(a3)
    7578:	c514                	sw	a3,8(a0)
    757a:	c54c                	sw	a1,12(a0)
    757c:	468c                	lw	a1,8(a3)
    757e:	c1d0                	sw	a2,4(a1)
    7580:	c690                	sw	a2,8(a3)
    7582:	4394                	lw	a3,0(a5)
    7584:	c95c                	sw	a5,20(a0)
    7586:	0685                	addi	a3,a3,1
    7588:	c394                	sw	a3,0(a5)
    758a:	551c                	lw	a5,40(a0)
    758c:	c785                	beqz	a5,75b4 <xTaskGenericNotify+0x18e>
    758e:	6789                	lui	a5,0x2
    7590:	80078793          	addi	a5,a5,-2048 # 1800 <vRedrawTask+0x320>
    7594:	30079073          	csrw	mstatus,a5
    7598:	0000d637          	lui	a2,0xd
    759c:	6585                	lui	a1,0x1
    759e:	0000d537          	lui	a0,0xd
    75a2:	c9460613          	addi	a2,a2,-876 # cc94 <timers+0xc4>
    75a6:	34d58593          	addi	a1,a1,845 # 134d <vBarColorMode+0x17>
    75aa:	c0c50513          	addi	a0,a0,-1012 # cc0c <timers+0x3c>
    75ae:	22c040ef          	jal	ra,b7da <iprintf>
    75b2:	a001                	j	75b2 <xTaskGenericNotify+0x18c>
    75b4:	9081a783          	lw	a5,-1784(gp) # 200006b0 <pxCurrentTCB>
    75b8:	57dc                	lw	a5,44(a5)
    75ba:	f2e7f1e3          	bgeu	a5,a4,74dc <xTaskGenericNotify+0xb6>
    75be:	e000e7b7          	lui	a5,0xe000e
    75c2:	6711                	lui	a4,0x4
    75c4:	20e7a023          	sw	a4,512(a5) # e000e200 <__freertos_irq_stack_top+0xc0009200>
    75c8:	bf11                	j	74dc <xTaskGenericNotify+0xb6>
    75ca:	4501                	li	a0,0
    75cc:	bf09                	j	74de <xTaskGenericNotify+0xb8>

000075ce <xTaskGenericNotifyFromISR>:
    75ce:	f51f82ef          	jal	t0,51e <__riscv_save_0>
    75d2:	1101                	addi	sp,sp,-32
    75d4:	e505                	bnez	a0,75fc <xTaskGenericNotifyFromISR+0x2e>
    75d6:	6789                	lui	a5,0x2
    75d8:	80078793          	addi	a5,a5,-2048 # 1800 <vRedrawTask+0x320>
    75dc:	30079073          	csrw	mstatus,a5
    75e0:	0000d637          	lui	a2,0xd
    75e4:	6585                	lui	a1,0x1
    75e6:	0000d537          	lui	a0,0xd
    75ea:	c9460613          	addi	a2,a2,-876 # cc94 <timers+0xc4>
    75ee:	38558593          	addi	a1,a1,901 # 1385 <vBarColorMode+0x4f>
    75f2:	c0c50513          	addi	a0,a0,-1012 # cc0c <timers+0x3c>
    75f6:	1e4040ef          	jal	ra,b7da <iprintf>
    75fa:	a001                	j	75fa <xTaskGenericNotifyFromISR+0x2c>
    75fc:	842a                	mv	s0,a0
    75fe:	4509                	li	a0,2
    7600:	02b57563          	bgeu	a0,a1,762a <xTaskGenericNotifyFromISR+0x5c>
    7604:	6789                	lui	a5,0x2
    7606:	80078793          	addi	a5,a5,-2048 # 1800 <vRedrawTask+0x320>
    760a:	30079073          	csrw	mstatus,a5
    760e:	0000d637          	lui	a2,0xd
    7612:	6585                	lui	a1,0x1
    7614:	0000d537          	lui	a0,0xd
    7618:	c9460613          	addi	a2,a2,-876 # cc94 <timers+0xc4>
    761c:	38658593          	addi	a1,a1,902 # 1386 <vBarColorMode+0x50>
    7620:	c0c50513          	addi	a0,a0,-1012 # cc0c <timers+0x3c>
    7624:	1b6040ef          	jal	ra,b7da <iprintf>
    7628:	a001                	j	7628 <xTaskGenericNotifyFromISR+0x5a>
    762a:	ce3e                	sw	a5,28(sp)
    762c:	cc3a                	sw	a4,24(sp)
    762e:	ca36                	sw	a3,20(sp)
    7630:	c832                	sw	a2,16(sp)
    7632:	c62e                	sw	a1,12(sp)
    7634:	e08fe0ef          	jal	ra,5c3c <xPortSetInterruptMask>
    7638:	4762                	lw	a4,24(sp)
    763a:	45b2                	lw	a1,12(sp)
    763c:	4642                	lw	a2,16(sp)
    763e:	46d2                	lw	a3,20(sp)
    7640:	47f2                	lw	a5,28(sp)
    7642:	cb09                	beqz	a4,7654 <xTaskGenericNotifyFromISR+0x86>
    7644:	01058813          	addi	a6,a1,16
    7648:	080a                	slli	a6,a6,0x2
    764a:	9822                	add	a6,a6,s0
    764c:	00882803          	lw	a6,8(a6)
    7650:	01072023          	sw	a6,0(a4) # 4000 <vDinDoutProcess+0xc>
    7654:	00b40833          	add	a6,s0,a1
    7658:	05484703          	lbu	a4,84(a6)
    765c:	4889                	li	a7,2
    765e:	05180a23          	sb	a7,84(a6)
    7662:	4811                	li	a6,4
    7664:	0ff77713          	andi	a4,a4,255
    7668:	04d86663          	bltu	a6,a3,76b4 <xTaskGenericNotifyFromISR+0xe6>
    766c:	6835                	lui	a6,0xd
    766e:	068a                	slli	a3,a3,0x2
    7670:	c8080813          	addi	a6,a6,-896 # cc80 <timers+0xb0>
    7674:	96c2                	add	a3,a3,a6
    7676:	4294                	lw	a3,0(a3)
    7678:	8682                	jr	a3
    767a:	058a                	slli	a1,a1,0x2
    767c:	95a2                	add	a1,a1,s0
    767e:	45b4                	lw	a3,72(a1)
    7680:	8e55                	or	a2,a2,a3
    7682:	c5b0                	sw	a2,72(a1)
    7684:	4685                	li	a3,1
    7686:	04d70d63          	beq	a4,a3,76e0 <xTaskGenericNotifyFromISR+0x112>
    768a:	4405                	li	s0,1
    768c:	dbcfe0ef          	jal	ra,5c48 <vPortClearInterruptMask>
    7690:	8522                	mv	a0,s0
    7692:	6105                	addi	sp,sp,32
    7694:	eaff806f          	j	542 <__riscv_restore_0>
    7698:	058a                	slli	a1,a1,0x2
    769a:	95a2                	add	a1,a1,s0
    769c:	45b4                	lw	a3,72(a1)
    769e:	0685                	addi	a3,a3,1
    76a0:	c5b4                	sw	a3,72(a1)
    76a2:	b7cd                	j	7684 <xTaskGenericNotifyFromISR+0xb6>
    76a4:	4689                	li	a3,2
    76a6:	10d70263          	beq	a4,a3,77aa <xTaskGenericNotifyFromISR+0x1dc>
    76aa:	05c1                	addi	a1,a1,16
    76ac:	058a                	slli	a1,a1,0x2
    76ae:	95a2                	add	a1,a1,s0
    76b0:	c590                	sw	a2,8(a1)
    76b2:	bfc9                	j	7684 <xTaskGenericNotifyFromISR+0xb6>
    76b4:	9341a683          	lw	a3,-1740(gp) # 200006dc <xTickCount>
    76b8:	d6f1                	beqz	a3,7684 <xTaskGenericNotifyFromISR+0xb6>
    76ba:	6789                	lui	a5,0x2
    76bc:	80078793          	addi	a5,a5,-2048 # 1800 <vRedrawTask+0x320>
    76c0:	30079073          	csrw	mstatus,a5
    76c4:	0000d637          	lui	a2,0xd
    76c8:	6585                	lui	a1,0x1
    76ca:	0000d537          	lui	a0,0xd
    76ce:	c9460613          	addi	a2,a2,-876 # cc94 <timers+0xc4>
    76d2:	3cd58593          	addi	a1,a1,973 # 13cd <vBarColorMode+0x97>
    76d6:	c0c50513          	addi	a0,a0,-1012 # cc0c <timers+0x3c>
    76da:	100040ef          	jal	ra,b7da <iprintf>
    76de:	a001                	j	76de <xTaskGenericNotifyFromISR+0x110>
    76e0:	5418                	lw	a4,40(s0)
    76e2:	c705                	beqz	a4,770a <xTaskGenericNotifyFromISR+0x13c>
    76e4:	6789                	lui	a5,0x2
    76e6:	80078793          	addi	a5,a5,-2048 # 1800 <vRedrawTask+0x320>
    76ea:	30079073          	csrw	mstatus,a5
    76ee:	0000d637          	lui	a2,0xd
    76f2:	6585                	lui	a1,0x1
    76f4:	0000d537          	lui	a0,0xd
    76f8:	c9460613          	addi	a2,a2,-876 # cc94 <timers+0xc4>
    76fc:	3d858593          	addi	a1,a1,984 # 13d8 <vBarColorMode+0xa2>
    7700:	c0c50513          	addi	a0,a0,-1012 # cc0c <timers+0x3c>
    7704:	0d6040ef          	jal	ra,b7da <iprintf>
    7708:	a001                	j	7708 <xTaskGenericNotifyFromISR+0x13a>
    770a:	9181a703          	lw	a4,-1768(gp) # 200006c0 <uxSchedulerSuspended>
    770e:	5450                	lw	a2,44(s0)
    7710:	ef25                	bnez	a4,7788 <xTaskGenericNotifyFromISR+0x1ba>
    7712:	440c                	lw	a1,8(s0)
    7714:	4454                	lw	a3,12(s0)
    7716:	4858                	lw	a4,20(s0)
    7718:	c594                	sw	a3,8(a1)
    771a:	4454                	lw	a3,12(s0)
    771c:	00472803          	lw	a6,4(a4)
    7720:	c2cc                	sw	a1,4(a3)
    7722:	00440593          	addi	a1,s0,4
    7726:	00b81363          	bne	a6,a1,772c <xTaskGenericNotifyFromISR+0x15e>
    772a:	c354                	sw	a3,4(a4)
    772c:	4314                	lw	a3,0(a4)
    772e:	00042a23          	sw	zero,20(s0)
    7732:	16fd                	addi	a3,a3,-1
    7734:	c314                	sw	a3,0(a4)
    7736:	92018713          	addi	a4,gp,-1760 # 200006c8 <uxTopReadyPriority>
    773a:	4314                	lw	a3,0(a4)
    773c:	00c6f363          	bgeu	a3,a2,7742 <xTaskGenericNotifyFromISR+0x174>
    7740:	c310                	sw	a2,0(a4)
    7742:	4751                	li	a4,20
    7744:	02e606b3          	mul	a3,a2,a4
    7748:	20003737          	lui	a4,0x20003
    774c:	f3c70713          	addi	a4,a4,-196 # 20002f3c <pxReadyTasksLists>
    7750:	9736                	add	a4,a4,a3
    7752:	4354                	lw	a3,4(a4)
    7754:	0086a803          	lw	a6,8(a3)
    7758:	c414                	sw	a3,8(s0)
    775a:	01042623          	sw	a6,12(s0)
    775e:	0086a803          	lw	a6,8(a3)
    7762:	00b82223          	sw	a1,4(a6)
    7766:	c68c                	sw	a1,8(a3)
    7768:	c858                	sw	a4,20(s0)
    776a:	4314                	lw	a3,0(a4)
    776c:	0685                	addi	a3,a3,1
    776e:	c314                	sw	a3,0(a4)
    7770:	9081a703          	lw	a4,-1784(gp) # 200006b0 <pxCurrentTCB>
    7774:	5758                	lw	a4,44(a4)
    7776:	f0c77ae3          	bgeu	a4,a2,768a <xTaskGenericNotifyFromISR+0xbc>
    777a:	c399                	beqz	a5,7780 <xTaskGenericNotifyFromISR+0x1b2>
    777c:	4705                	li	a4,1
    777e:	c398                	sw	a4,0(a5)
    7780:	4705                	li	a4,1
    7782:	92e1ac23          	sw	a4,-1736(gp) # 200006e0 <xYieldPending>
    7786:	b711                	j	768a <xTaskGenericNotifyFromISR+0xbc>
    7788:	20003737          	lui	a4,0x20003
    778c:	09070713          	addi	a4,a4,144 # 20003090 <xPendingReadyList>
    7790:	4354                	lw	a3,4(a4)
    7792:	468c                	lw	a1,8(a3)
    7794:	cc54                	sw	a3,28(s0)
    7796:	d00c                	sw	a1,32(s0)
    7798:	0086a803          	lw	a6,8(a3)
    779c:	01840593          	addi	a1,s0,24
    77a0:	00b82223          	sw	a1,4(a6)
    77a4:	c68c                	sw	a1,8(a3)
    77a6:	d418                	sw	a4,40(s0)
    77a8:	b7c9                	j	776a <xTaskGenericNotifyFromISR+0x19c>
    77aa:	4401                	li	s0,0
    77ac:	b5c5                	j	768c <xTaskGenericNotifyFromISR+0xbe>

000077ae <ulTaskGenericNotifyValueClear>:
    77ae:	d71f82ef          	jal	t0,51e <__riscv_save_0>
    77b2:	1141                	addi	sp,sp,-16
    77b4:	e119                	bnez	a0,77ba <ulTaskGenericNotifyValueClear+0xc>
    77b6:	9081a503          	lw	a0,-1784(gp) # 200006b0 <pxCurrentTCB>
    77ba:	c632                	sw	a2,12(sp)
    77bc:	c42e                	sw	a1,8(sp)
    77be:	c22a                	sw	a0,4(sp)
    77c0:	c24fe0ef          	jal	ra,5be4 <vPortEnterCritical>
    77c4:	45a2                	lw	a1,8(sp)
    77c6:	4512                	lw	a0,4(sp)
    77c8:	4632                	lw	a2,12(sp)
    77ca:	058a                	slli	a1,a1,0x2
    77cc:	95aa                	add	a1,a1,a0
    77ce:	45a8                	lw	a0,72(a1)
    77d0:	45bc                	lw	a5,72(a1)
    77d2:	fff64613          	not	a2,a2
    77d6:	c22a                	sw	a0,4(sp)
    77d8:	8e7d                	and	a2,a2,a5
    77da:	c5b0                	sw	a2,72(a1)
    77dc:	c1efe0ef          	jal	ra,5bfa <vPortExitCritical>
    77e0:	4512                	lw	a0,4(sp)
    77e2:	0141                	addi	sp,sp,16
    77e4:	d5ff806f          	j	542 <__riscv_restore_0>

000077e8 <vRCFilter>:
    77e8:	219e                	lhu	a5,0(a1)
    77ea:	1141                	addi	sp,sp,-16
    77ec:	c42a                	sw	a0,8(sp)
    77ee:	c63e                	sw	a5,12(sp)
    77f0:	47b2                	lw	a5,12(sp)
    77f2:	4722                	lw	a4,8(sp)
    77f4:	0dc00693          	li	a3,220
    77f8:	02d787b3          	mul	a5,a5,a3
    77fc:	02400693          	li	a3,36
    7800:	02d70733          	mul	a4,a4,a3
    7804:	97ba                	add	a5,a5,a4
    7806:	83a1                	srli	a5,a5,0x8
    7808:	07c2                	slli	a5,a5,0x10
    780a:	83c1                	srli	a5,a5,0x10
    780c:	837c                	sh	a5,6(sp)
    780e:	833c                	lhu	a5,6(sp)
    7810:	8328                	lhu	a0,6(sp)
    7812:	a19e                	sh	a5,0(a1)
    7814:	0141                	addi	sp,sp,16
    7816:	8082                	ret

00007818 <vInitABFilter>:
    7818:	d07f82ef          	jal	t0,51e <__riscv_save_0>
    781c:	0000d7b7          	lui	a5,0xd
    7820:	842a                	mv	s0,a0
    7822:	852e                	mv	a0,a1
    7824:	cb07a583          	lw	a1,-848(a5) # ccb0 <timers+0xe0>
    7828:	00042023          	sw	zero,0(s0)
    782c:	436030ef          	jal	ra,ac62 <__mulsf3>
    7830:	2ad030ef          	jal	ra,b2dc <__fixunssfsi>
    7834:	a048                	sb	a0,4(s0)
    7836:	d0df806f          	j	542 <__riscv_restore_0>

0000783a <vInitRunAverga>:
    783a:	00052023          	sw	zero,0(a0)
    783e:	c54c                	sw	a1,12(a0)
    7840:	8082                	ret

00007842 <vInitMedianFilter>:
    7842:	00050023          	sb	zero,0(a0)
    7846:	00052223          	sw	zero,4(a0)
    784a:	00052423          	sw	zero,8(a0)
    784e:	00052623          	sw	zero,12(a0)
    7852:	8082                	ret

00007854 <MedianFilter>:
    7854:	219c                	lbu	a5,0(a1)
    7856:	1141                	addi	sp,sp,-16
    7858:	00279713          	slli	a4,a5,0x2
    785c:	972e                	add	a4,a4,a1
    785e:	0785                	addi	a5,a5,1
    7860:	c348                	sw	a0,4(a4)
    7862:	0ff7f793          	andi	a5,a5,255
    7866:	4709                	li	a4,2
    7868:	00f76d63          	bltu	a4,a5,7882 <MedianFilter+0x2e>
    786c:	a19c                	sb	a5,0(a1)
    786e:	41dc                	lw	a5,4(a1)
    7870:	4709                	li	a4,2
    7872:	587d                	li	a6,-1
    7874:	c23e                	sw	a5,4(sp)
    7876:	459c                	lw	a5,8(a1)
    7878:	c43e                	sw	a5,8(sp)
    787a:	45dc                	lw	a5,12(a1)
    787c:	c63e                	sw	a5,12(sp)
    787e:	4781                	li	a5,0
    7880:	a80d                	j	78b2 <MedianFilter+0x5e>
    7882:	00058023          	sb	zero,0(a1)
    7886:	b7e5                	j	786e <MedianFilter+0x1a>
    7888:	00279613          	slli	a2,a5,0x2
    788c:	0814                	addi	a3,sp,16
    788e:	0785                	addi	a5,a5,1
    7890:	9636                	add	a2,a2,a3
    7892:	0808                	addi	a0,sp,16
    7894:	00279693          	slli	a3,a5,0x2
    7898:	96aa                	add	a3,a3,a0
    789a:	ff462583          	lw	a1,-12(a2)
    789e:	ff46a503          	lw	a0,-12(a3)
    78a2:	00b57663          	bgeu	a0,a1,78ae <MedianFilter+0x5a>
    78a6:	fea62a23          	sw	a0,-12(a2)
    78aa:	feb6aa23          	sw	a1,-12(a3)
    78ae:	0ff7f793          	andi	a5,a5,255
    78b2:	fce7cbe3          	blt	a5,a4,7888 <MedianFilter+0x34>
    78b6:	177d                	addi	a4,a4,-1
    78b8:	fd0713e3          	bne	a4,a6,787e <MedianFilter+0x2a>
    78bc:	4522                	lw	a0,8(sp)
    78be:	0141                	addi	sp,sp,16
    78c0:	8082                	ret

000078c2 <Delay_Init>:
    78c2:	200007b7          	lui	a5,0x20000
    78c6:	5a87a783          	lw	a5,1448(a5) # 200005a8 <SystemCoreClock>
    78ca:	007a1737          	lui	a4,0x7a1
    78ce:	20070713          	addi	a4,a4,512 # 7a1200 <_data_lma+0x793704>
    78d2:	02e7d7b3          	divu	a5,a5,a4
    78d6:	0ff7f793          	andi	a5,a5,255
    78da:	92f18f23          	sb	a5,-1730(gp) # 200006e6 <p_us>
    78de:	3e800713          	li	a4,1000
    78e2:	02e787b3          	mul	a5,a5,a4
    78e6:	92f19e23          	sh	a5,-1732(gp) # 200006e4 <p_ms>
    78ea:	8082                	ret

000078ec <Delay_Ms>:
    78ec:	e000f7b7          	lui	a5,0xe000f
    78f0:	43d8                	lw	a4,4(a5)
    78f2:	4681                	li	a3,0
    78f4:	9b79                	andi	a4,a4,-2
    78f6:	c3d8                	sw	a4,4(a5)
    78f8:	93c1d703          	lhu	a4,-1732(gp) # 200006e4 <p_ms>
    78fc:	02a70633          	mul	a2,a4,a0
    7900:	cb90                	sw	a2,16(a5)
    7902:	cbd4                	sw	a3,20(a5)
    7904:	4398                	lw	a4,0(a5)
    7906:	01076713          	ori	a4,a4,16
    790a:	c398                	sw	a4,0(a5)
    790c:	4398                	lw	a4,0(a5)
    790e:	02176713          	ori	a4,a4,33
    7912:	c398                	sw	a4,0(a5)
    7914:	43d8                	lw	a4,4(a5)
    7916:	8b05                	andi	a4,a4,1
    7918:	df75                	beqz	a4,7914 <Delay_Ms+0x28>
    791a:	4398                	lw	a4,0(a5)
    791c:	9b79                	andi	a4,a4,-2
    791e:	c398                	sw	a4,0(a5)
    7920:	8082                	ret

00007922 <_write>:
    7922:	be3f82ef          	jal	t0,504 <__riscv_save_4>
    7926:	400144b7          	lui	s1,0x40014
    792a:	89ae                	mv	s3,a1
    792c:	8932                	mv	s2,a2
    792e:	4401                	li	s0,0
    7930:	80048493          	addi	s1,s1,-2048 # 40013800 <__freertos_irq_stack_top+0x2000e800>
    7934:	01244563          	blt	s0,s2,793e <_write+0x1c>
    7938:	854a                	mv	a0,s2
    793a:	bfff806f          	j	538 <__riscv_restore_4>
    793e:	04000593          	li	a1,64
    7942:	8526                	mv	a0,s1
    7944:	a80fc0ef          	jal	ra,3bc4 <USART_GetFlagStatus>
    7948:	d97d                	beqz	a0,793e <_write+0x1c>
    794a:	008987b3          	add	a5,s3,s0
    794e:	00078583          	lb	a1,0(a5) # e000f000 <__freertos_irq_stack_top+0xc000a000>
    7952:	8526                	mv	a0,s1
    7954:	0405                	addi	s0,s0,1
    7956:	05c2                	slli	a1,a1,0x10
    7958:	81c1                	srli	a1,a1,0x10
    795a:	a62fc0ef          	jal	ra,3bbc <USART_SendData>
    795e:	bfd9                	j	7934 <_write+0x12>

00007960 <_sbrk>:
    7960:	81818713          	addi	a4,gp,-2024 # 200005c0 <curbrk.4668>
    7964:	431c                	lw	a5,0(a4)
    7966:	200036b7          	lui	a3,0x20003
    796a:	0bc68693          	addi	a3,a3,188 # 200030bc <_ebss>
    796e:	953e                	add	a0,a0,a5
    7970:	00d56b63          	bltu	a0,a3,7986 <_sbrk+0x26>
    7974:	200046b7          	lui	a3,0x20004
    7978:	41868693          	addi	a3,a3,1048 # 20004418 <_heap_end>
    797c:	00a6e563          	bltu	a3,a0,7986 <_sbrk+0x26>
    7980:	c308                	sw	a0,0(a4)
    7982:	853e                	mv	a0,a5
    7984:	8082                	ret
    7986:	57fd                	li	a5,-1
    7988:	bfed                	j	7982 <_sbrk+0x22>

0000798a <prv_read_can_received_msg>:
    798a:	b95f82ef          	jal	t0,51e <__riscv_save_0>
    798e:	1101                	addi	sp,sp,-32
    7990:	080c                	addi	a1,sp,16
    7992:	d1dfc0ef          	jal	ra,46ae <HAL_CANGetRXMessage>
    7996:	01414603          	lbu	a2,20(sp)
    799a:	4442                	lw	s0,16(sp)
    799c:	01510593          	addi	a1,sp,21
    79a0:	00510513          	addi	a0,sp,5
    79a4:	c022                	sw	s0,0(sp)
    79a6:	8250                	sb	a2,4(sp)
    79a8:	3a3030ef          	jal	ra,b54a <memcpy>
    79ac:	9401a703          	lw	a4,-1728(gp) # 200006e8 <CANModule_local>
    79b0:	435c                	lw	a5,4(a4)
    79b2:	2718                	lbu	a4,8(a4)
    79b4:	cb19                	beqz	a4,79ca <prv_read_can_received_msg+0x40>
    79b6:	2396                	lhu	a3,0(a5)
    79b8:	23b2                	lhu	a2,2(a5)
    79ba:	8ea1                	xor	a3,a3,s0
    79bc:	8ef1                	and	a3,a3,a2
    79be:	ea89                	bnez	a3,79d0 <prv_read_can_received_msg+0x46>
    79c0:	4798                	lw	a4,8(a5)
    79c2:	c701                	beqz	a4,79ca <prv_read_can_received_msg+0x40>
    79c4:	43c8                	lw	a0,4(a5)
    79c6:	858a                	mv	a1,sp
    79c8:	9702                	jalr	a4
    79ca:	6105                	addi	sp,sp,32
    79cc:	b77f806f          	j	542 <__riscv_restore_0>
    79d0:	177d                	addi	a4,a4,-1
    79d2:	0ff77713          	andi	a4,a4,255
    79d6:	07b1                	addi	a5,a5,12
    79d8:	bff1                	j	79b4 <prv_read_can_received_msg+0x2a>

000079da <prv_send_can_message.isra.0>:
    79da:	b45f82ef          	jal	t0,51e <__riscv_save_0>
    79de:	2150                	lbu	a2,4(a0)
    79e0:	411c                	lw	a5,0(a0)
    79e2:	1141                	addi	sp,sp,-16
    79e4:	00550593          	addi	a1,a0,5
    79e8:	00510513          	addi	a0,sp,5
    79ec:	8250                	sb	a2,4(sp)
    79ee:	c03e                	sw	a5,0(sp)
    79f0:	35b030ef          	jal	ra,b54a <memcpy>
    79f4:	850a                	mv	a0,sp
    79f6:	b47fc0ef          	jal	ra,453c <HAL_CANSend>
    79fa:	1571                	addi	a0,a0,-4
    79fc:	00a03533          	snez	a0,a0
    7a00:	0141                	addi	sp,sp,16
    7a02:	b41f806f          	j	542 <__riscv_restore_0>

00007a06 <CAN_SendMessage>:
    7a06:	b19f82ef          	jal	t0,51e <__riscv_save_0>
    7a0a:	9401a783          	lw	a5,-1728(gp) # 200006e8 <CANModule_local>
    7a0e:	0207a023          	sw	zero,32(a5)
    7a12:	0007ae23          	sw	zero,28(a5)
    7a16:	33da                	lhu	a4,36(a5)
    7a18:	0742                	slli	a4,a4,0x10
    7a1a:	8341                	srli	a4,a4,0x10
    7a1c:	c305                	beqz	a4,7a3c <CAN_SendMessage+0x36>
    7a1e:	47c4                	lw	s1,12(a5)
    7a20:	94018413          	addi	s0,gp,-1728 # 200006e8 <CANModule_local>
    7a24:	9c0fe0ef          	jal	ra,5be4 <vPortEnterCritical>
    7a28:	401c                	lw	a5,0(s0)
    7a2a:	0107d903          	lhu	s2,16(a5)
    7a2e:	00091963          	bnez	s2,7a40 <CAN_SendMessage+0x3a>
    7a32:	401c                	lw	a5,0(s0)
    7a34:	02079223          	sh	zero,36(a5)
    7a38:	9c2fe0ef          	jal	ra,5bfa <vPortExitCritical>
    7a3c:	b07f806f          	j	542 <__riscv_restore_0>
    7a40:	489c                	lw	a5,16(s1)
    7a42:	cf99                	beqz	a5,7a60 <CAN_SendMessage+0x5a>
    7a44:	8526                	mv	a0,s1
    7a46:	f95ff0ef          	jal	ra,79da <prv_send_can_message.isra.0>
    7a4a:	c919                	beqz	a0,7a60 <CAN_SendMessage+0x5a>
    7a4c:	4018                	lw	a4,0(s0)
    7a4e:	0004a823          	sw	zero,16(s1)
    7a52:	335e                	lhu	a5,36(a4)
    7a54:	17fd                	addi	a5,a5,-1
    7a56:	07c2                	slli	a5,a5,0x10
    7a58:	83c1                	srli	a5,a5,0x10
    7a5a:	b35e                	sh	a5,36(a4)
    7a5c:	48dc                	lw	a5,20(s1)
    7a5e:	cf5c                	sw	a5,28(a4)
    7a60:	197d                	addi	s2,s2,-1
    7a62:	0942                	slli	s2,s2,0x10
    7a64:	01095913          	srli	s2,s2,0x10
    7a68:	04e1                	addi	s1,s1,24
    7a6a:	b7d1                	j	7a2e <CAN_SendMessage+0x28>

00007a6c <co_drv_create_os_objects>:
    7a6c:	ab3f82ef          	jal	t0,51e <__riscv_save_0>
    7a70:	4511                	li	a0,4
    7a72:	f3cfe0ef          	jal	ra,61ae <xQueueCreateMutex>
    7a76:	94a1a623          	sw	a0,-1716(gp) # 200006f4 <co_mutex>
    7a7a:	460d                	li	a2,3
    7a7c:	4581                	li	a1,0
    7a7e:	4505                	li	a0,1
    7a80:	ceefe0ef          	jal	ra,5f6e <xQueueGenericCreate>
    7a84:	94a1a223          	sw	a0,-1724(gp) # 200006ec <co_drv_app_thread_sync_semaphore>
    7a88:	460d                	li	a2,3
    7a8a:	4581                	li	a1,0
    7a8c:	4505                	li	a0,1
    7a8e:	ce0fe0ef          	jal	ra,5f6e <xQueueGenericCreate>
    7a92:	94a1a423          	sw	a0,-1720(gp) # 200006f0 <co_drv_periodic_thread_sync_semaphore>
    7a96:	4505                	li	a0,1
    7a98:	aabf806f          	j	542 <__riscv_restore_0>

00007a9c <co_drv_mutex_lock>:
    7a9c:	a83f82ef          	jal	t0,51e <__riscv_save_0>
    7aa0:	94c1a503          	lw	a0,-1716(gp) # 200006f4 <co_mutex>
    7aa4:	55fd                	li	a1,-1
    7aa6:	9fdfe0ef          	jal	ra,64a2 <xQueueTakeMutexRecursive>
    7aaa:	157d                	addi	a0,a0,-1
    7aac:	00153513          	seqz	a0,a0
    7ab0:	a93f806f          	j	542 <__riscv_restore_0>

00007ab4 <co_drv_mutex_unlock>:
    7ab4:	a6bf82ef          	jal	t0,51e <__riscv_save_0>
    7ab8:	94c1a503          	lw	a0,-1716(gp) # 200006f4 <co_mutex>
    7abc:	e9cfe0ef          	jal	ra,6158 <xQueueGiveMutexRecursive>
    7ac0:	157d                	addi	a0,a0,-1
    7ac2:	00153513          	seqz	a0,a0
    7ac6:	a7df806f          	j	542 <__riscv_restore_0>

00007aca <CO_CANsetConfigurationMode>:
    7aca:	c519                	beqz	a0,7ad8 <CO_CANsetConfigurationMode+0xe>
    7acc:	a53f82ef          	jal	t0,51e <__riscv_save_0>
    7ad0:	a17fc0ef          	jal	ra,44e6 <HAL_CANToInitMode>
    7ad4:	a6ff806f          	j	542 <__riscv_restore_0>
    7ad8:	8082                	ret

00007ada <CO_CANsetNormalMode>:
    7ada:	411c                	lw	a5,0(a0)
    7adc:	cf81                	beqz	a5,7af4 <CO_CANsetNormalMode+0x1a>
    7ade:	a41f82ef          	jal	t0,51e <__riscv_save_0>
    7ae2:	842a                	mv	s0,a0
    7ae4:	a33fc0ef          	jal	ra,4516 <HAL_CANToOperatingMode>
    7ae8:	4785                	li	a5,1
    7aea:	00f51363          	bne	a0,a5,7af0 <CO_CANsetNormalMode+0x16>
    7aee:	c848                	sw	a0,20(s0)
    7af0:	a53f806f          	j	542 <__riscv_restore_0>
    7af4:	8082                	ret

00007af6 <CO_CANmodule_init>:
    7af6:	10050563          	beqz	a0,7c00 <CO_CANmodule_init+0x10a>
    7afa:	88aa                	mv	a7,a0
    7afc:	557d                	li	a0,-1
    7afe:	10060363          	beqz	a2,7c04 <CO_CANmodule_init+0x10e>
    7b02:	10070163          	beqz	a4,7c04 <CO_CANmodule_init+0x10e>
    7b06:	a19f82ef          	jal	t0,51e <__riscv_save_0>
    7b0a:	0008aa23          	sw	zero,20(a7)
    7b0e:	00b8a023          	sw	a1,0(a7)
    7b12:	0216b593          	sltiu	a1,a3,33
    7b16:	00b8ac23          	sw	a1,24(a7)
    7b1a:	0008ae23          	sw	zero,28(a7)
    7b1e:	4585                	li	a1,1
    7b20:	02b8a023          	sw	a1,32(a7)
    7b24:	9511a023          	sw	a7,-1728(gp) # 200006e8 <CANModule_local>
    7b28:	00c8a223          	sw	a2,4(a7)
    7b2c:	00d89423          	sh	a3,8(a7)
    7b30:	00e8a623          	sw	a4,12(a7)
    7b34:	00f89823          	sh	a5,16(a7)
    7b38:	00089923          	sh	zero,18(a7)
    7b3c:	02089223          	sh	zero,36(a7)
    7b40:	0208a423          	sw	zero,40(a7)
    7b44:	4581                	li	a1,0
    7b46:	557d                	li	a0,-1
    7b48:	08d59963          	bne	a1,a3,7bda <CO_CANmodule_init+0xe4>
    7b4c:	4681                	li	a3,0
    7b4e:	45e1                	li	a1,24
    7b50:	01069613          	slli	a2,a3,0x10
    7b54:	8241                	srli	a2,a2,0x10
    7b56:	08f66e63          	bltu	a2,a5,7bf2 <CO_CANmodule_init+0xfc>
    7b5a:	8542                	mv	a0,a6
    7b5c:	460d                	li	a2,3
    7b5e:	4585                	li	a1,1
    7b60:	84dfc0ef          	jal	ra,43ac <HAL_CANIntIT>
    7b64:	a26f90ef          	jal	ra,d8a <vGetNodeId>
    7b68:	842a                	mv	s0,a0
    7b6a:	a20f90ef          	jal	ra,d8a <vGetNodeId>
    7b6e:	84aa                	mv	s1,a0
    7b70:	a1af90ef          	jal	ra,d8a <vGetNodeId>
    7b74:	892a                	mv	s2,a0
    7b76:	a14f90ef          	jal	ra,d8a <vGetNodeId>
    7b7a:	40056713          	ori	a4,a0,1024
    7b7e:	30096693          	ori	a3,s2,768
    7b82:	2004e613          	ori	a2,s1,512
    7b86:	18046593          	ori	a1,s0,384
    7b8a:	4781                	li	a5,0
    7b8c:	4501                	li	a0,0
    7b8e:	a5dfc0ef          	jal	ra,45ea <HAL_CANSetFiters>
    7b92:	9f8f90ef          	jal	ra,d8a <vGetNodeId>
    7b96:	842a                	mv	s0,a0
    7b98:	9f2f90ef          	jal	ra,d8a <vGetNodeId>
    7b9c:	60056613          	ori	a2,a0,1536
    7ba0:	4785                	li	a5,1
    7ba2:	4701                	li	a4,0
    7ba4:	4681                	li	a3,0
    7ba6:	50046593          	ori	a1,s0,1280
    7baa:	4505                	li	a0,1
    7bac:	a3ffc0ef          	jal	ra,45ea <HAL_CANSetFiters>
    7bb0:	00008537          	lui	a0,0x8
    7bb4:	a0650513          	addi	a0,a0,-1530 # 7a06 <CAN_SendMessage>
    7bb8:	fd6fc0ef          	jal	ra,438e <HAL_CANSetTXCallback>
    7bbc:	00002537          	lui	a0,0x2
    7bc0:	5d250513          	addi	a0,a0,1490 # 25d2 <vRestartNode>
    7bc4:	fdefc0ef          	jal	ra,43a2 <HAL_CANSetERRCallback>
    7bc8:	00008537          	lui	a0,0x8
    7bcc:	98a50513          	addi	a0,a0,-1654 # 798a <prv_read_can_received_msg>
    7bd0:	fc8fc0ef          	jal	ra,4398 <HAL_CANSetRXCallback>
    7bd4:	4501                	li	a0,0
    7bd6:	96df806f          	j	542 <__riscv_restore_0>
    7bda:	0585                	addi	a1,a1,1
    7bdc:	05c2                	slli	a1,a1,0x10
    7bde:	00061023          	sh	zero,0(a2)
    7be2:	a22a                	sh	a0,2(a2)
    7be4:	00062223          	sw	zero,4(a2)
    7be8:	00062423          	sw	zero,8(a2)
    7bec:	81c1                	srli	a1,a1,0x10
    7bee:	0631                	addi	a2,a2,12
    7bf0:	bfa1                	j	7b48 <CO_CANmodule_init+0x52>
    7bf2:	02b68633          	mul	a2,a3,a1
    7bf6:	0685                	addi	a3,a3,1
    7bf8:	963a                	add	a2,a2,a4
    7bfa:	00062823          	sw	zero,16(a2)
    7bfe:	bf89                	j	7b50 <CO_CANmodule_init+0x5a>
    7c00:	557d                	li	a0,-1
    7c02:	8082                	ret
    7c04:	8082                	ret

00007c06 <CO_CANmodule_disable>:
    7c06:	c909                	beqz	a0,7c18 <CO_CANmodule_disable+0x12>
    7c08:	411c                	lw	a5,0(a0)
    7c0a:	c799                	beqz	a5,7c18 <CO_CANmodule_disable+0x12>
    7c0c:	913f82ef          	jal	t0,51e <__riscv_save_0>
    7c10:	8d7fc0ef          	jal	ra,44e6 <HAL_CANToInitMode>
    7c14:	92ff806f          	j	542 <__riscv_restore_0>
    7c18:	8082                	ret

00007c1a <CO_CANrxBufferInit>:
    7c1a:	88aa                	mv	a7,a0
    7c1c:	557d                	li	a0,-1
    7c1e:	04088663          	beqz	a7,7c6a <CO_CANrxBufferInit+0x50>
    7c22:	c7a1                	beqz	a5,7c6a <CO_CANrxBufferInit+0x50>
    7c24:	04080363          	beqz	a6,7c6a <CO_CANrxBufferInit+0x50>
    7c28:	0088d303          	lhu	t1,8(a7)
    7c2c:	0265ff63          	bgeu	a1,t1,7c6a <CO_CANrxBufferInit+0x50>
    7c30:	4531                	li	a0,12
    7c32:	02a58533          	mul	a0,a1,a0
    7c36:	0048a583          	lw	a1,4(a7)
    7c3a:	7ff67613          	andi	a2,a2,2047
    7c3e:	95aa                	add	a1,a1,a0
    7c40:	c1dc                	sw	a5,4(a1)
    7c42:	0105a423          	sw	a6,8(a1)
    7c46:	ef09                	bnez	a4,7c60 <CO_CANrxBufferInit+0x46>
    7c48:	6785                	lui	a5,0x1
    7c4a:	80078793          	addi	a5,a5,-2048 # 800 <vCanOpenPeriodicProcess+0x5a>
    7c4e:	7ff6f693          	andi	a3,a3,2047
    7c52:	8edd                	or	a3,a3,a5
    7c54:	a192                	sh	a2,0(a1)
    7c56:	a1b6                	sh	a3,2(a1)
    7c58:	0188a783          	lw	a5,24(a7)
    7c5c:	4501                	li	a0,0
    7c5e:	8082                	ret
    7c60:	6785                	lui	a5,0x1
    7c62:	80078793          	addi	a5,a5,-2048 # 800 <vCanOpenPeriodicProcess+0x5a>
    7c66:	8e5d                	or	a2,a2,a5
    7c68:	b7c5                	j	7c48 <CO_CANrxBufferInit+0x2e>
    7c6a:	8082                	ret

00007c6c <CO_CANtxBufferInit>:
    7c6c:	4801                	li	a6,0
    7c6e:	c915                	beqz	a0,7ca2 <CO_CANtxBufferInit+0x36>
    7c70:	01055883          	lhu	a7,16(a0)
    7c74:	4801                	li	a6,0
    7c76:	0315f663          	bgeu	a1,a7,7ca2 <CO_CANtxBufferInit+0x36>
    7c7a:	4861                	li	a6,24
    7c7c:	030585b3          	mul	a1,a1,a6
    7c80:	00c52803          	lw	a6,12(a0)
    7c84:	00d036b3          	snez	a3,a3
    7c88:	7ff67613          	andi	a2,a2,2047
    7c8c:	06be                	slli	a3,a3,0xf
    7c8e:	8e55                	or	a2,a2,a3
    7c90:	982e                	add	a6,a6,a1
    7c92:	00082823          	sw	zero,16(a6)
    7c96:	00c82023          	sw	a2,0(a6)
    7c9a:	00e80223          	sb	a4,4(a6)
    7c9e:	00f82a23          	sw	a5,20(a6)
    7ca2:	8542                	mv	a0,a6
    7ca4:	8082                	ret

00007ca6 <CO_CANmodule_process>:
    7ca6:	551c                	lw	a5,40(a0)
    7ca8:	c799                	beqz	a5,7cb6 <CO_CANmodule_process+0x10>
    7caa:	293e                	lhu	a5,18(a0)
    7cac:	02052423          	sw	zero,40(a0)
    7cb0:	cf07f793          	andi	a5,a5,-784
    7cb4:	a93e                	sh	a5,18(a0)
    7cb6:	8082                	ret

00007cb8 <CO_CANsend>:
    7cb8:	867f82ef          	jal	t0,51e <__riscv_save_0>
    7cbc:	499c                	lw	a5,16(a1)
    7cbe:	842a                	mv	s0,a0
    7cc0:	84ae                	mv	s1,a1
    7cc2:	4901                	li	s2,0
    7cc4:	cb81                	beqz	a5,7cd4 <CO_CANsend+0x1c>
    7cc6:	511c                	lw	a5,32(a0)
    7cc8:	595d                	li	s2,-9
    7cca:	e789                	bnez	a5,7cd4 <CO_CANsend+0x1c>
    7ccc:	293e                	lhu	a5,18(a0)
    7cce:	0087e793          	ori	a5,a5,8
    7cd2:	a93e                	sh	a5,18(a0)
    7cd4:	f11fd0ef          	jal	ra,5be4 <vPortEnterCritical>
    7cd8:	8526                	mv	a0,s1
    7cda:	d01ff0ef          	jal	ra,79da <prv_send_can_message.isra.0>
    7cde:	c901                	beqz	a0,7cee <CO_CANsend+0x36>
    7ce0:	48dc                	lw	a5,20(s1)
    7ce2:	cc5c                	sw	a5,28(s0)
    7ce4:	f17fd0ef          	jal	ra,5bfa <vPortExitCritical>
    7ce8:	854a                	mv	a0,s2
    7cea:	859f806f          	j	542 <__riscv_restore_0>
    7cee:	4785                	li	a5,1
    7cf0:	c89c                	sw	a5,16(s1)
    7cf2:	305e                	lhu	a5,36(s0)
    7cf4:	0785                	addi	a5,a5,1
    7cf6:	07c2                	slli	a5,a5,0x10
    7cf8:	83c1                	srli	a5,a5,0x10
    7cfa:	b05e                	sh	a5,36(s0)
    7cfc:	b7e5                	j	7ce4 <CO_CANsend+0x2c>

00007cfe <CO_LSSslave_receive>:
    7cfe:	21d8                	lbu	a4,4(a1)
    7d00:	47a1                	li	a5,8
    7d02:	1af71163          	bne	a4,a5,7ea4 <CO_LSSslave_receive+0x1a6>
    7d06:	417c                	lw	a5,68(a0)
    7d08:	18079e63          	bnez	a5,7ea4 <CO_LSSslave_receive+0x1a6>
    7d0c:	ff8f82ef          	jal	t0,504 <__riscv_save_4>
    7d10:	31c4                	lbu	s1,5(a1)
    7d12:	4791                	li	a5,4
    7d14:	1141                	addi	sp,sp,-16
    7d16:	842a                	mv	s0,a0
    7d18:	04f49a63          	bne	s1,a5,7d6c <CO_LSSslave_receive+0x6e>
    7d1c:	21fc                	lbu	a5,6(a1)
    7d1e:	c799                	beqz	a5,7d2c <CO_LSSslave_receive+0x2e>
    7d20:	4705                	li	a4,1
    7d22:	04e78363          	beq	a5,a4,7d68 <CO_LSSslave_receive+0x6a>
    7d26:	0141                	addi	sp,sp,16
    7d28:	811f806f          	j	538 <__riscv_restore_4>
    7d2c:	4918                	lw	a4,16(a0)
    7d2e:	4785                	li	a5,1
    7d30:	4901                	li	s2,0
    7d32:	00f71e63          	bne	a4,a5,7d4e <CO_LSSslave_receive+0x50>
    7d36:	04054783          	lbu	a5,64(a0)
    7d3a:	0ff00713          	li	a4,255
    7d3e:	00e79863          	bne	a5,a4,7d4e <CO_LSSslave_receive+0x50>
    7d42:	5d58                	lw	a4,60(a0)
    7d44:	2318                	lbu	a4,0(a4)
    7d46:	00f70463          	beq	a4,a5,7d4e <CO_LSSslave_receive+0x50>
    7d4a:	c524                	sw	s1,72(a0)
    7d4c:	4905                	li	s2,1
    7d4e:	00042823          	sw	zero,16(s0)
    7d52:	4641                	li	a2,16
    7d54:	4581                	li	a1,0
    7d56:	01440513          	addi	a0,s0,20
    7d5a:	ff4f80ef          	jal	ra,54e <memset>
    7d5e:	fc0904e3          	beqz	s2,7d26 <CO_LSSslave_receive+0x28>
    7d62:	4785                	li	a5,1
    7d64:	c07c                	sw	a5,68(s0)
    7d66:	b7c1                	j	7d26 <CO_LSSslave_receive+0x28>
    7d68:	c91c                	sw	a5,16(a0)
    7d6a:	bf75                	j	7d26 <CO_LSSslave_receive+0x28>
    7d6c:	491c                	lw	a5,16(a0)
    7d6e:	12079363          	bnez	a5,7e94 <CO_LSSslave_receive+0x196>
    7d72:	04200793          	li	a5,66
    7d76:	0af48363          	beq	s1,a5,7e1c <CO_LSSslave_receive+0x11e>
    7d7a:	0297e263          	bltu	a5,s1,7d9e <CO_LSSslave_receive+0xa0>
    7d7e:	04000793          	li	a5,64
    7d82:	08f48563          	beq	s1,a5,7e0c <CO_LSSslave_receive+0x10e>
    7d86:	04100793          	li	a5,65
    7d8a:	f8f49ee3          	bne	s1,a5,7d26 <CO_LSSslave_receive+0x28>
    7d8e:	4611                	li	a2,4
    7d90:	0599                	addi	a1,a1,6
    7d92:	0068                	addi	a0,sp,12
    7d94:	7b6030ef          	jal	ra,b54a <memcpy>
    7d98:	47b2                	lw	a5,12(sp)
    7d9a:	cc1c                	sw	a5,24(s0)
    7d9c:	b769                	j	7d26 <CO_LSSslave_receive+0x28>
    7d9e:	04300793          	li	a5,67
    7da2:	08f48563          	beq	s1,a5,7e2c <CO_LSSslave_receive+0x12e>
    7da6:	05100793          	li	a5,81
    7daa:	f6f49ee3          	bne	s1,a5,7d26 <CO_LSSslave_receive+0x28>
    7dae:	5d5c                	lw	a5,60(a0)
    7db0:	0ff00713          	li	a4,255
    7db4:	239c                	lbu	a5,0(a5)
    7db6:	f6e798e3          	bne	a5,a4,7d26 <CO_LSSslave_receive+0x28>
    7dba:	04054703          	lbu	a4,64(a0)
    7dbe:	f6f714e3          	bne	a4,a5,7d26 <CO_LSSslave_receive+0x28>
    7dc2:	25a4                	lbu	s1,10(a1)
    7dc4:	47fd                	li	a5,31
    7dc6:	0097f663          	bgeu	a5,s1,7dd2 <CO_LSSslave_receive+0xd4>
    7dca:	08000793          	li	a5,128
    7dce:	f4f49ce3          	bne	s1,a5,7d26 <CO_LSSslave_receive+0x28>
    7dd2:	00b5c983          	lbu	s3,11(a1)
    7dd6:	478d                	li	a5,3
    7dd8:	f537e7e3          	bltu	a5,s3,7d26 <CO_LSSslave_receive+0x28>
    7ddc:	00c5c903          	lbu	s2,12(a1)
    7de0:	f527e3e3          	bltu	a5,s2,7d26 <CO_LSSslave_receive+0x28>
    7de4:	4611                	li	a2,4
    7de6:	0599                	addi	a1,a1,6
    7de8:	0068                	addi	a0,sp,12
    7dea:	760030ef          	jal	ra,b54a <memcpy>
    7dee:	08000793          	li	a5,128
    7df2:	06f49963          	bne	s1,a5,7e64 <CO_LSSslave_receive+0x166>
    7df6:	02040a23          	sb	zero,52(s0)
    7dfa:	4641                	li	a2,16
    7dfc:	4581                	li	a1,0
    7dfe:	02440513          	addi	a0,s0,36
    7e02:	f4cf80ef          	jal	ra,54e <memset>
    7e06:	05100793          	li	a5,81
    7e0a:	a899                	j	7e60 <CO_LSSslave_receive+0x162>
    7e0c:	4611                	li	a2,4
    7e0e:	0599                	addi	a1,a1,6
    7e10:	0068                	addi	a0,sp,12
    7e12:	738030ef          	jal	ra,b54a <memcpy>
    7e16:	47b2                	lw	a5,12(sp)
    7e18:	c85c                	sw	a5,20(s0)
    7e1a:	b731                	j	7d26 <CO_LSSslave_receive+0x28>
    7e1c:	4611                	li	a2,4
    7e1e:	0599                	addi	a1,a1,6
    7e20:	0068                	addi	a0,sp,12
    7e22:	728030ef          	jal	ra,b54a <memcpy>
    7e26:	47b2                	lw	a5,12(sp)
    7e28:	cc5c                	sw	a5,28(s0)
    7e2a:	bdf5                	j	7d26 <CO_LSSslave_receive+0x28>
    7e2c:	4611                	li	a2,4
    7e2e:	0599                	addi	a1,a1,6
    7e30:	0068                	addi	a0,sp,12
    7e32:	718030ef          	jal	ra,b54a <memcpy>
    7e36:	47b2                	lw	a5,12(sp)
    7e38:	4054                	lw	a3,4(s0)
    7e3a:	4c18                	lw	a4,24(s0)
    7e3c:	d01c                	sw	a5,32(s0)
    7e3e:	eee694e3          	bne	a3,a4,7d26 <CO_LSSslave_receive+0x28>
    7e42:	4414                	lw	a3,8(s0)
    7e44:	4c58                	lw	a4,28(s0)
    7e46:	eee690e3          	bne	a3,a4,7d26 <CO_LSSslave_receive+0x28>
    7e4a:	4458                	lw	a4,12(s0)
    7e4c:	ece79de3          	bne	a5,a4,7d26 <CO_LSSslave_receive+0x28>
    7e50:	4018                	lw	a4,0(s0)
    7e52:	485c                	lw	a5,20(s0)
    7e54:	ecf719e3          	bne	a4,a5,7d26 <CO_LSSslave_receive+0x28>
    7e58:	4785                	li	a5,1
    7e5a:	c81c                	sw	a5,16(s0)
    7e5c:	04300793          	li	a5,67
    7e60:	c43c                	sw	a5,72(s0)
    7e62:	b701                	j	7d62 <CO_LSSslave_receive+0x64>
    7e64:	03444703          	lbu	a4,52(s0)
    7e68:	eb371fe3          	bne	a4,s3,7d26 <CO_LSSslave_receive+0x28>
    7e6c:	00271793          	slli	a5,a4,0x2
    7e70:	97a2                	add	a5,a5,s0
    7e72:	4394                	lw	a3,0(a5)
    7e74:	47b2                	lw	a5,12(sp)
    7e76:	8fb5                	xor	a5,a5,a3
    7e78:	56fd                	li	a3,-1
    7e7a:	009696b3          	sll	a3,a3,s1
    7e7e:	8ff5                	and	a5,a5,a3
    7e80:	ea0793e3          	bnez	a5,7d26 <CO_LSSslave_receive+0x28>
    7e84:	03240a23          	sb	s2,52(s0)
    7e88:	fcbd                	bnez	s1,7e06 <CO_LSSslave_receive+0x108>
    7e8a:	f6e97ee3          	bgeu	s2,a4,7e06 <CO_LSSslave_receive+0x108>
    7e8e:	4785                	li	a5,1
    7e90:	c81c                	sw	a5,16(s0)
    7e92:	bf95                	j	7e06 <CO_LSSslave_receive+0x108>
    7e94:	4621                	li	a2,8
    7e96:	0595                	addi	a1,a1,5
    7e98:	04c50513          	addi	a0,a0,76
    7e9c:	6ae030ef          	jal	ra,b54a <memcpy>
    7ea0:	c424                	sw	s1,72(s0)
    7ea2:	b5c1                	j	7d62 <CO_LSSslave_receive+0x64>
    7ea4:	8082                	ret

00007ea6 <CO_LSSslave_init>:
    7ea6:	e50f82ef          	jal	t0,4f6 <__riscv_save_10>
    7eaa:	cd41                	beqz	a0,7f42 <CO_LSSslave_init+0x9c>
    7eac:	ca59                	beqz	a2,7f42 <CO_LSSslave_init+0x9c>
    7eae:	cad1                	beqz	a3,7f42 <CO_LSSslave_init+0x9c>
    7eb0:	cb49                	beqz	a4,7f42 <CO_LSSslave_init+0x9c>
    7eb2:	08088863          	beqz	a7,7f42 <CO_LSSslave_init+0x9c>
    7eb6:	0006c303          	lbu	t1,0(a3)
    7eba:	01831e13          	slli	t3,t1,0x18
    7ebe:	418e5e13          	srai	t3,t3,0x18
    7ec2:	01c04663          	bgtz	t3,7ece <CO_LSSslave_init+0x28>
    7ec6:	0ff00e13          	li	t3,255
    7eca:	07c31c63          	bne	t1,t3,7f42 <CO_LSSslave_init+0x9c>
    7ece:	8a32                	mv	s4,a2
    7ed0:	8bae                	mv	s7,a1
    7ed2:	07400613          	li	a2,116
    7ed6:	4581                	li	a1,0
    7ed8:	842a                	mv	s0,a0
    7eda:	8946                	mv	s2,a7
    7edc:	84b6                	mv	s1,a3
    7ede:	8b42                	mv	s6,a6
    7ee0:	8abe                	mv	s5,a5
    7ee2:	89ba                	mv	s3,a4
    7ee4:	e6af80ef          	jal	ra,54e <memset>
    7ee8:	4641                	li	a2,16
    7eea:	85de                	mv	a1,s7
    7eec:	8522                	mv	a0,s0
    7eee:	65c030ef          	jal	ra,b54a <memcpy>
    7ef2:	dc44                	sw	s1,60(s0)
    7ef4:	00042823          	sw	zero,16(s0)
    7ef8:	02040a23          	sb	zero,52(s0)
    7efc:	03442c23          	sw	s4,56(s0)
    7f00:	209c                	lbu	a5,0(s1)
    7f02:	00008837          	lui	a6,0x8
    7f06:	cfe80813          	addi	a6,a6,-770 # 7cfe <CO_LSSslave_receive>
    7f0a:	04f40023          	sb	a5,64(s0)
    7f0e:	4701                	li	a4,0
    7f10:	87a2                	mv	a5,s0
    7f12:	7ff00693          	li	a3,2047
    7f16:	865a                	mv	a2,s6
    7f18:	85d6                	mv	a1,s5
    7f1a:	04042223          	sw	zero,68(s0)
    7f1e:	854e                	mv	a0,s3
    7f20:	cfbff0ef          	jal	ra,7c1a <CO_CANrxBufferInit>
    7f24:	03415603          	lhu	a2,52(sp)
    7f28:	03015583          	lhu	a1,48(sp)
    7f2c:	84aa                	mv	s1,a0
    7f2e:	07242623          	sw	s2,108(s0)
    7f32:	4781                	li	a5,0
    7f34:	4721                	li	a4,8
    7f36:	4681                	li	a3,0
    7f38:	854a                	mv	a0,s2
    7f3a:	d33ff0ef          	jal	ra,7c6c <CO_CANtxBufferInit>
    7f3e:	d828                	sw	a0,112(s0)
    7f40:	e111                	bnez	a0,7f44 <CO_LSSslave_init+0x9e>
    7f42:	54fd                	li	s1,-1
    7f44:	8526                	mv	a0,s1
    7f46:	de8f806f          	j	52e <__riscv_restore_10>

00007f4a <CO_LSSslave_process>:
    7f4a:	417c                	lw	a5,68(a0)
    7f4c:	18078e63          	beqz	a5,80e8 <CO_LSSslave_process+0x19e>
    7f50:	dcef82ef          	jal	t0,51e <__riscv_save_0>
    7f54:	842a                	mv	s0,a0
    7f56:	5928                	lw	a0,112(a0)
    7f58:	1141                	addi	sp,sp,-16
    7f5a:	4621                	li	a2,8
    7f5c:	4581                	li	a1,0
    7f5e:	0515                	addi	a0,a0,5
    7f60:	deef80ef          	jal	ra,54e <memset>
    7f64:	443c                	lw	a5,72(s0)
    7f66:	04300713          	li	a4,67
    7f6a:	0ae78563          	beq	a5,a4,8014 <CO_LSSslave_process+0xca>
    7f6e:	04f76b63          	bltu	a4,a5,7fc4 <CO_LSSslave_process+0x7a>
    7f72:	474d                	li	a4,19
    7f74:	0ce78d63          	beq	a5,a4,804e <CO_LSSslave_process+0x104>
    7f78:	00f76f63          	bltu	a4,a5,7f96 <CO_LSSslave_process+0x4c>
    7f7c:	4711                	li	a4,4
    7f7e:	4505                	li	a0,1
    7f80:	00e78663          	beq	a5,a4,7f8c <CO_LSSslave_process+0x42>
    7f84:	4745                	li	a4,17
    7f86:	08e78c63          	beq	a5,a4,801e <CO_LSSslave_process+0xd4>
    7f8a:	4501                	li	a0,0
    7f8c:	04042223          	sw	zero,68(s0)
    7f90:	0141                	addi	sp,sp,16
    7f92:	db0f806f          	j	542 <__riscv_restore_0>
    7f96:	4755                	li	a4,21
    7f98:	10e78663          	beq	a5,a4,80a4 <CO_LSSslave_process+0x15a>
    7f9c:	475d                	li	a4,23
    7f9e:	fee796e3          	bne	a5,a4,7f8a <CO_LSSslave_process+0x40>
    7fa2:	507c                	lw	a5,100(s0)
    7fa4:	4505                	li	a0,1
    7fa6:	cb91                	beqz	a5,7fba <CO_LSSslave_process+0x70>
    7fa8:	5c14                	lw	a3,56(s0)
    7faa:	5c58                	lw	a4,60(s0)
    7fac:	5428                	lw	a0,104(s0)
    7fae:	2292                	lhu	a2,0(a3)
    7fb0:	230c                	lbu	a1,0(a4)
    7fb2:	9782                	jalr	a5
    7fb4:	00153513          	seqz	a0,a0
    7fb8:	0506                	slli	a0,a0,0x1
    7fba:	583c                	lw	a5,112(s0)
    7fbc:	4438                	lw	a4,72(s0)
    7fbe:	a3e8                	sb	a0,6(a5)
    7fc0:	b3d8                	sb	a4,5(a5)
    7fc2:	a049                	j	8044 <CO_LSSslave_process+0xfa>
    7fc4:	05b00713          	li	a4,91
    7fc8:	0ee78e63          	beq	a5,a4,80c4 <CO_LSSslave_process+0x17a>
    7fcc:	02f76463          	bltu	a4,a5,7ff4 <CO_LSSslave_process+0xaa>
    7fd0:	05100713          	li	a4,81
    7fd4:	10e78663          	beq	a5,a4,80e0 <CO_LSSslave_process+0x196>
    7fd8:	05a00713          	li	a4,90
    7fdc:	fae797e3          	bne	a5,a4,7f8a <CO_LSSslave_process+0x40>
    7fe0:	5828                	lw	a0,112(s0)
    7fe2:	b15c                	sb	a5,5(a0)
    7fe4:	401c                	lw	a5,0(s0)
    7fe6:	4611                	li	a2,4
    7fe8:	006c                	addi	a1,sp,12
    7fea:	0519                	addi	a0,a0,6
    7fec:	c63e                	sw	a5,12(sp)
    7fee:	55c030ef          	jal	ra,b54a <memcpy>
    7ff2:	a889                	j	8044 <CO_LSSslave_process+0xfa>
    7ff4:	05d00713          	li	a4,93
    7ff8:	0ee78063          	beq	a5,a4,80d8 <CO_LSSslave_process+0x18e>
    7ffc:	0ce7e863          	bltu	a5,a4,80cc <CO_LSSslave_process+0x182>
    8000:	05e00713          	li	a4,94
    8004:	f8e793e3          	bne	a5,a4,7f8a <CO_LSSslave_process+0x40>
    8008:	5838                	lw	a4,112(s0)
    800a:	b35c                	sb	a5,5(a4)
    800c:	04044783          	lbu	a5,64(s0)
    8010:	a37c                	sb	a5,6(a4)
    8012:	a80d                	j	8044 <CO_LSSslave_process+0xfa>
    8014:	583c                	lw	a5,112(s0)
    8016:	04400713          	li	a4,68
    801a:	b3d8                	sb	a4,5(a5)
    801c:	a025                	j	8044 <CO_LSSslave_process+0xfa>
    801e:	04d44783          	lbu	a5,77(s0)
    8022:	01879713          	slli	a4,a5,0x18
    8026:	8761                	srai	a4,a4,0x18
    8028:	00e04763          	bgtz	a4,8036 <CO_LSSslave_process+0xec>
    802c:	0ff00693          	li	a3,255
    8030:	4705                	li	a4,1
    8032:	00d79563          	bne	a5,a3,803c <CO_LSSslave_process+0xf2>
    8036:	5c58                	lw	a4,60(s0)
    8038:	a31c                	sb	a5,0(a4)
    803a:	4701                	li	a4,0
    803c:	583c                	lw	a5,112(s0)
    803e:	4434                	lw	a3,72(s0)
    8040:	a3f8                	sb	a4,6(a5)
    8042:	b3d4                	sb	a3,5(a5)
    8044:	582c                	lw	a1,112(s0)
    8046:	5468                	lw	a0,108(s0)
    8048:	c71ff0ef          	jal	ra,7cb8 <CO_CANsend>
    804c:	bf3d                	j	7f8a <CO_LSSslave_process+0x40>
    804e:	4874                	lw	a3,84(s0)
    8050:	4501                	li	a0,0
    8052:	de8d                	beqz	a3,7f8c <CO_LSSslave_process+0x42>
    8054:	04d44483          	lbu	s1,77(s0)
    8058:	ec9d                	bnez	s1,8096 <CO_LSSslave_process+0x14c>
    805a:	04e44703          	lbu	a4,78(s0)
    805e:	4615                	li	a2,5
    8060:	4785                	li	a5,1
    8062:	02c70463          	beq	a4,a2,808a <CO_LSSslave_process+0x140>
    8066:	4625                	li	a2,9
    8068:	02e66163          	bltu	a2,a4,808a <CO_LSSslave_process+0x140>
    806c:	67b9                	lui	a5,0xe
    806e:	0706                	slli	a4,a4,0x1
    8070:	82478793          	addi	a5,a5,-2012 # d824 <CO_LSS_bitTimingTableLookup>
    8074:	97ba                	add	a5,a5,a4
    8076:	0007d903          	lhu	s2,0(a5)
    807a:	4c28                	lw	a0,88(s0)
    807c:	85ca                	mv	a1,s2
    807e:	9682                	jalr	a3
    8080:	cd11                	beqz	a0,809c <CO_LSSslave_process+0x152>
    8082:	5c1c                	lw	a5,56(s0)
    8084:	01279023          	sh	s2,0(a5)
    8088:	4781                	li	a5,0
    808a:	5838                	lw	a4,112(s0)
    808c:	4434                	lw	a3,72(s0)
    808e:	a37c                	sb	a5,6(a4)
    8090:	b354                	sb	a3,5(a4)
    8092:	b364                	sb	s1,7(a4)
    8094:	bf45                	j	8044 <CO_LSSslave_process+0xfa>
    8096:	4481                	li	s1,0
    8098:	4785                	li	a5,1
    809a:	bfc5                	j	808a <CO_LSSslave_process+0x140>
    809c:	4485                	li	s1,1
    809e:	0ff00793          	li	a5,255
    80a2:	b7e5                	j	808a <CO_LSSslave_process+0x140>
    80a4:	487c                	lw	a5,84(s0)
    80a6:	4501                	li	a0,0
    80a8:	ee0782e3          	beqz	a5,7f8c <CO_LSSslave_process+0x42>
    80ac:	4c78                	lw	a4,92(s0)
    80ae:	ec070fe3          	beqz	a4,7f8c <CO_LSSslave_process+0x42>
    80b2:	04e44783          	lbu	a5,78(s0)
    80b6:	04d44583          	lbu	a1,77(s0)
    80ba:	5028                	lw	a0,96(s0)
    80bc:	07a2                	slli	a5,a5,0x8
    80be:	8ddd                	or	a1,a1,a5
    80c0:	9702                	jalr	a4
    80c2:	b5e1                	j	7f8a <CO_LSSslave_process+0x40>
    80c4:	5828                	lw	a0,112(s0)
    80c6:	b15c                	sb	a5,5(a0)
    80c8:	405c                	lw	a5,4(s0)
    80ca:	bf31                	j	7fe6 <CO_LSSslave_process+0x9c>
    80cc:	5828                	lw	a0,112(s0)
    80ce:	05c00793          	li	a5,92
    80d2:	b15c                	sb	a5,5(a0)
    80d4:	441c                	lw	a5,8(s0)
    80d6:	bf01                	j	7fe6 <CO_LSSslave_process+0x9c>
    80d8:	5828                	lw	a0,112(s0)
    80da:	b15c                	sb	a5,5(a0)
    80dc:	445c                	lw	a5,12(s0)
    80de:	b721                	j	7fe6 <CO_LSSslave_process+0x9c>
    80e0:	583c                	lw	a5,112(s0)
    80e2:	04f00713          	li	a4,79
    80e6:	bf15                	j	801a <CO_LSSslave_process+0xd0>
    80e8:	4501                	li	a0,0
    80ea:	8082                	ret

000080ec <OD_write_1003>:
    80ec:	47a5                	li	a5,9
    80ee:	c10d                	beqz	a0,8110 <OD_write_1003+0x24>
    80f0:	2958                	lbu	a4,20(a0)
    80f2:	47a5                	li	a5,9
    80f4:	ef11                	bnez	a4,8110 <OD_write_1003+0x24>
    80f6:	cd89                	beqz	a1,8110 <OD_write_1003+0x24>
    80f8:	4705                	li	a4,1
    80fa:	00e61b63          	bne	a2,a4,8110 <OD_write_1003+0x24>
    80fe:	ca89                	beqz	a3,8110 <OD_write_1003+0x24>
    8100:	2198                	lbu	a4,0(a1)
    8102:	47bd                	li	a5,15
    8104:	e711                	bnez	a4,8110 <OD_write_1003+0x24>
    8106:	415c                	lw	a5,4(a0)
    8108:	02078023          	sb	zero,32(a5)
    810c:	c290                	sw	a2,0(a3)
    810e:	4781                	li	a5,0
    8110:	853e                	mv	a0,a5
    8112:	8082                	ret

00008114 <OD_read_1003>:
    8114:	47a5                	li	a5,9
    8116:	c90d                	beqz	a0,8148 <OD_read_1003+0x34>
    8118:	c985                	beqz	a1,8148 <OD_read_1003+0x34>
    811a:	c69d                	beqz	a3,8148 <OD_read_1003+0x34>
    811c:	478d                	li	a5,3
    811e:	00c7e663          	bltu	a5,a2,812a <OD_read_1003+0x16>
    8122:	2958                	lbu	a4,20(a0)
    8124:	47a5                	li	a5,9
    8126:	e30d                	bnez	a4,8148 <OD_read_1003+0x34>
    8128:	c205                	beqz	a2,8148 <OD_read_1003+0x34>
    812a:	4150                	lw	a2,4(a0)
    812c:	4885                	li	a7,1
    812e:	47a5                	li	a5,9
    8130:	01c64803          	lbu	a6,28(a2)
    8134:	0108fa63          	bgeu	a7,a6,8148 <OD_read_1003+0x34>
    8138:	2958                	lbu	a4,20(a0)
    813a:	02064503          	lbu	a0,32(a2)
    813e:	e719                	bnez	a4,814c <OD_read_1003+0x38>
    8140:	a188                	sb	a0,0(a1)
    8142:	0116a023          	sw	a7,0(a3)
    8146:	4781                	li	a5,0
    8148:	853e                	mv	a0,a5
    814a:	8082                	ret
    814c:	47e5                	li	a5,25
    814e:	fee56de3          	bltu	a0,a4,8148 <OD_read_1003+0x34>
    8152:	3e5c                	lbu	a5,29(a2)
    8154:	8f99                	sub	a5,a5,a4
    8156:	07c2                	slli	a5,a5,0x10
    8158:	83c1                	srli	a5,a5,0x10
    815a:	01079713          	slli	a4,a5,0x10
    815e:	8741                	srai	a4,a4,0x10
    8160:	02075c63          	bgez	a4,8198 <OD_read_1003+0x84>
    8164:	97c2                	add	a5,a5,a6
    8166:	01079713          	slli	a4,a5,0x10
    816a:	8741                	srai	a4,a4,0x10
    816c:	bb2f82ef          	jal	t0,51e <__riscv_save_0>
    8170:	8436                	mv	s0,a3
    8172:	4e14                	lw	a3,24(a2)
    8174:	00371793          	slli	a5,a4,0x3
    8178:	1141                	addi	sp,sp,-16
    817a:	97b6                	add	a5,a5,a3
    817c:	439c                	lw	a5,0(a5)
    817e:	852e                	mv	a0,a1
    8180:	4611                	li	a2,4
    8182:	006c                	addi	a1,sp,12
    8184:	c63e                	sw	a5,12(sp)
    8186:	3c4030ef          	jal	ra,b54a <memcpy>
    818a:	4791                	li	a5,4
    818c:	c01c                	sw	a5,0(s0)
    818e:	4781                	li	a5,0
    8190:	853e                	mv	a0,a5
    8192:	0141                	addi	sp,sp,16
    8194:	baef806f          	j	542 <__riscv_restore_0>
    8198:	47a5                	li	a5,9
    819a:	fd0749e3          	blt	a4,a6,816c <OD_read_1003+0x58>
    819e:	b76d                	j	8148 <OD_read_1003+0x34>

000081a0 <OD_read_1014_default>:
    81a0:	c529                	beqz	a0,81ea <OD_read_1014_default+0x4a>
    81a2:	2958                	lbu	a4,20(a0)
    81a4:	47a5                	li	a5,9
    81a6:	e339                	bnez	a4,81ec <OD_read_1014_default+0x4c>
    81a8:	c1b1                	beqz	a1,81ec <OD_read_1014_default+0x4c>
    81aa:	470d                	li	a4,3
    81ac:	04c77063          	bgeu	a4,a2,81ec <OD_read_1014_default+0x4c>
    81b0:	ce95                	beqz	a3,81ec <OD_read_1014_default+0x4c>
    81b2:	b6cf82ef          	jal	t0,51e <__riscv_save_0>
    81b6:	415c                	lw	a5,4(a0)
    81b8:	1141                	addi	sp,sp,-16
    81ba:	4701                	li	a4,0
    81bc:	53d0                	lw	a2,36(a5)
    81be:	e219                	bnez	a2,81c4 <OD_read_1014_default+0x24>
    81c0:	80000737          	lui	a4,0x80000
    81c4:	0287c783          	lbu	a5,40(a5)
    81c8:	852e                	mv	a0,a1
    81ca:	4611                	li	a2,4
    81cc:	08078793          	addi	a5,a5,128
    81d0:	8fd9                	or	a5,a5,a4
    81d2:	006c                	addi	a1,sp,12
    81d4:	8436                	mv	s0,a3
    81d6:	c63e                	sw	a5,12(sp)
    81d8:	372030ef          	jal	ra,b54a <memcpy>
    81dc:	4791                	li	a5,4
    81de:	c01c                	sw	a5,0(s0)
    81e0:	4781                	li	a5,0
    81e2:	853e                	mv	a0,a5
    81e4:	0141                	addi	sp,sp,16
    81e6:	b5cf806f          	j	542 <__riscv_restore_0>
    81ea:	47a5                	li	a5,9
    81ec:	853e                	mv	a0,a5
    81ee:	8082                	ret

000081f0 <CO_EM_init>:
    81f0:	b06f82ef          	jal	t0,4f6 <__riscv_save_10>
    81f4:	1141                	addi	sp,sp,-16
    81f6:	04014c83          	lbu	s9,64(sp)
    81fa:	4916                	lw	s2,68(sp)
    81fc:	e509                	bnez	a0,8206 <CO_EM_init+0x16>
    81fe:	557d                	li	a0,-1
    8200:	0141                	addi	sp,sp,16
    8202:	b2cf806f          	j	52e <__riscv_restore_10>
    8206:	de65                	beqz	a2,81fe <CO_EM_init+0xe>
    8208:	e681                	bnez	a3,8210 <CO_EM_init+0x20>
    820a:	4305                	li	t1,1
    820c:	fee369e3          	bltu	t1,a4,81fe <CO_EM_init+0xe>
    8210:	d7fd                	beqz	a5,81fe <CO_EM_init+0xe>
    8212:	d5f5                	beqz	a1,81fe <CO_EM_init+0xe>
    8214:	018c9313          	slli	t1,s9,0x18
    8218:	41835313          	srai	t1,t1,0x18
    821c:	fe6051e3          	blez	t1,81fe <CO_EM_init+0xe>
    8220:	fc088fe3          	beqz	a7,81fe <CO_EM_init+0xe>
    8224:	8a32                	mv	s4,a2
    8226:	89ae                	mv	s3,a1
    8228:	05000613          	li	a2,80
    822c:	4581                	li	a1,0
    822e:	842a                	mv	s0,a0
    8230:	8ac6                	mv	s5,a7
    8232:	8bc2                	mv	s7,a6
    8234:	84be                	mv	s1,a5
    8236:	8b3a                	mv	s6,a4
    8238:	8c36                	mv	s8,a3
    823a:	b14f80ef          	jal	ra,54e <memset>
    823e:	4681                	li	a3,0
    8240:	01342a23          	sw	s3,20(s0)
    8244:	4605                	li	a2,1
    8246:	4581                	li	a1,0
    8248:	8552                	mv	a0,s4
    824a:	7e4000ef          	jal	ra,8a2e <OD_getPtr>
    824e:	c448                	sw	a0,12(s0)
    8250:	e911                	bnez	a0,8264 <CO_EM_init+0x74>
    8252:	00091463          	bnez	s2,825a <CO_EM_init+0x6a>
    8256:	5551                	li	a0,-12
    8258:	b765                	j	8200 <CO_EM_init+0x10>
    825a:	000a5783          	lhu	a5,0(s4)
    825e:	00f92023          	sw	a5,0(s2)
    8262:	bfd5                	j	8256 <CO_EM_init+0x66>
    8264:	00050023          	sb	zero,0(a0)
    8268:	01842c23          	sw	s8,24(s0)
    826c:	01640e23          	sb	s6,28(s0)
    8270:	4705                	li	a4,1
    8272:	4691                	li	a3,4
    8274:	0070                	addi	a2,sp,12
    8276:	4581                	li	a1,0
    8278:	8526                	mv	a0,s1
    827a:	2f89                	jal	89cc <OD_get_value>
    827c:	e92d                	bnez	a0,82ee <CO_EM_init+0xfe>
    827e:	47b2                	lw	a5,12(sp)
    8280:	80000737          	lui	a4,0x80000
    8284:	80074713          	xori	a4,a4,-2048
    8288:	8ff9                	and	a5,a5,a4
    828a:	ebad                	bnez	a5,82fc <CO_EM_init+0x10c>
    828c:	47b2                	lw	a5,12(sp)
    828e:	d800                	sw	s0,48(s0)
    8290:	4721                	li	a4,8
    8292:	fff7c793          	not	a5,a5
    8296:	83fd                	srli	a5,a5,0x1f
    8298:	d05c                	sw	a5,36(s0)
    829a:	000087b7          	lui	a5,0x8
    829e:	1a078793          	addi	a5,a5,416 # 81a0 <OD_read_1014_default>
    82a2:	d85c                	sw	a5,52(s0)
    82a4:	000087b7          	lui	a5,0x8
    82a8:	7ee78793          	addi	a5,a5,2030 # 87ee <OD_writeOriginal>
    82ac:	dc1c                	sw	a5,56(s0)
    82ae:	03040793          	addi	a5,s0,48
    82b2:	c49c                	sw	a5,8(s1)
    82b4:	03940423          	sb	s9,40(s0)
    82b8:	4781                	li	a5,0
    82ba:	4681                	li	a3,0
    82bc:	080c8613          	addi	a2,s9,128
    82c0:	85de                	mv	a1,s7
    82c2:	854e                	mv	a0,s3
    82c4:	9a9ff0ef          	jal	ra,7c6c <CO_CANtxBufferInit>
    82c8:	d448                	sw	a0,44(s0)
    82ca:	d915                	beqz	a0,81fe <CO_EM_init+0xe>
    82cc:	000087b7          	lui	a5,0x8
    82d0:	11478793          	addi	a5,a5,276 # 8114 <OD_read_1003>
    82d4:	c07c                	sw	a5,68(s0)
    82d6:	000087b7          	lui	a5,0x8
    82da:	0ec78793          	addi	a5,a5,236 # 80ec <OD_write_1003>
    82de:	c020                	sw	s0,64(s0)
    82e0:	c43c                	sw	a5,72(s0)
    82e2:	04040413          	addi	s0,s0,64
    82e6:	008aa423          	sw	s0,8(s5)
    82ea:	4501                	li	a0,0
    82ec:	bf11                	j	8200 <CO_EM_init+0x10>
    82ee:	f60904e3          	beqz	s2,8256 <CO_EM_init+0x66>
    82f2:	209e                	lhu	a5,0(s1)
    82f4:	00f92023          	sw	a5,0(s2)
    82f8:	d951                	beqz	a0,828c <CO_EM_init+0x9c>
    82fa:	bfb1                	j	8256 <CO_EM_init+0x66>
    82fc:	f80908e3          	beqz	s2,828c <CO_EM_init+0x9c>
    8300:	bfcd                	j	82f2 <CO_EM_init+0x102>

00008302 <CO_error>:
    8302:	c169                	beqz	a0,83c4 <CO_error+0xc2>
    8304:	a1af82ef          	jal	t0,51e <__riscv_save_0>
    8308:	00365493          	srli	s1,a2,0x3
    830c:	47a5                	li	a5,9
    830e:	1101                	addi	sp,sp,-32
    8310:	0297e163          	bltu	a5,s1,8332 <CO_error+0x30>
    8314:	00767793          	andi	a5,a2,7
    8318:	4405                	li	s0,1
    831a:	00f41433          	sll	s0,s0,a5
    831e:	0ff47413          	andi	s0,s0,255
    8322:	94aa                	add	s1,s1,a0
    8324:	209c                	lbu	a5,0(s1)
    8326:	8fe1                	and	a5,a5,s0
    8328:	cd81                	beqz	a1,8340 <CO_error+0x3e>
    832a:	cf89                	beqz	a5,8344 <CO_error+0x42>
    832c:	6105                	addi	sp,sp,32
    832e:	a14f806f          	j	542 <__riscv_restore_0>
    8332:	6699                	lui	a3,0x6
    8334:	8732                	mv	a4,a2
    8336:	4405                	li	s0,1
    8338:	4495                	li	s1,5
    833a:	10068693          	addi	a3,a3,256 # 6100 <xQueueGenericSend+0x120>
    833e:	b7d5                	j	8322 <CO_error+0x20>
    8340:	d7f5                	beqz	a5,832c <CO_error+0x2a>
    8342:	4681                	li	a3,0
    8344:	ce3a                	sw	a4,28(sp)
    8346:	cc36                	sw	a3,24(sp)
    8348:	ca32                	sw	a2,20(sp)
    834a:	c82e                	sw	a1,16(sp)
    834c:	c62a                	sw	a0,12(sp)
    834e:	897fd0ef          	jal	ra,5be4 <vPortEnterCritical>
    8352:	45c2                	lw	a1,16(sp)
    8354:	4532                	lw	a0,12(sp)
    8356:	4652                	lw	a2,20(sp)
    8358:	46e2                	lw	a3,24(sp)
    835a:	4772                	lw	a4,28(sp)
    835c:	c995                	beqz	a1,8390 <CO_error+0x8e>
    835e:	209c                	lbu	a5,0(s1)
    8360:	8c5d                	or	s0,s0,a5
    8362:	a080                	sb	s0,0(s1)
    8364:	2d4c                	lbu	a1,28(a0)
    8366:	4785                	li	a5,1
    8368:	02b7f163          	bgeu	a5,a1,838a <CO_error+0x88>
    836c:	01d54803          	lbu	a6,29(a0)
    8370:	00180793          	addi	a5,a6,1
    8374:	0ff7f793          	andi	a5,a5,255
    8378:	00b7e363          	bltu	a5,a1,837e <CO_error+0x7c>
    837c:	4781                	li	a5,0
    837e:	01e54883          	lbu	a7,30(a0)
    8382:	00f89c63          	bne	a7,a5,839a <CO_error+0x98>
    8386:	4785                	li	a5,1
    8388:	bd7c                	sb	a5,31(a0)
    838a:	871fd0ef          	jal	ra,5bfa <vPortExitCritical>
    838e:	bf79                	j	832c <CO_error+0x2a>
    8390:	209c                	lbu	a5,0(s1)
    8392:	fff44413          	not	s0,s0
    8396:	8c7d                	and	s0,s0,a5
    8398:	b7e9                	j	8362 <CO_error+0x60>
    839a:	00381893          	slli	a7,a6,0x3
    839e:	01852803          	lw	a6,24(a0)
    83a2:	0662                	slli	a2,a2,0x18
    83a4:	8e55                	or	a2,a2,a3
    83a6:	9846                	add	a6,a6,a7
    83a8:	00c82023          	sw	a2,0(a6)
    83ac:	00e82223          	sw	a4,4(a6)
    83b0:	bd5c                	sb	a5,29(a0)
    83b2:	02054783          	lbu	a5,32(a0)
    83b6:	15fd                	addi	a1,a1,-1
    83b8:	fcb7d9e3          	bge	a5,a1,838a <CO_error+0x88>
    83bc:	0785                	addi	a5,a5,1
    83be:	02f50023          	sb	a5,32(a0)
    83c2:	b7e1                	j	838a <CO_error+0x88>
    83c4:	8082                	ret

000083c6 <CO_EM_process>:
    83c6:	93ef82ef          	jal	t0,504 <__riscv_save_4>
    83ca:	495c                	lw	a5,20(a0)
    83cc:	01055903          	lhu	s2,16(a0)
    83d0:	842a                	mv	s0,a0
    83d2:	2ba6                	lhu	s1,18(a5)
    83d4:	89ae                	mv	s3,a1
    83d6:	0c990663          	beq	s2,s1,84a2 <CO_EM_process+0xdc>
    83da:	00994933          	xor	s2,s2,s1
    83de:	a906                	sh	s1,16(a0)
    83e0:	10197793          	andi	a5,s2,257
    83e4:	cb91                	beqz	a5,83f8 <CO_EM_process+0x32>
    83e6:	1014f593          	andi	a1,s1,257
    83ea:	4701                	li	a4,0
    83ec:	4681                	li	a3,0
    83ee:	4605                	li	a2,1
    83f0:	00b035b3          	snez	a1,a1
    83f4:	f0fff0ef          	jal	ra,8302 <CO_error>
    83f8:	00297793          	andi	a5,s2,2
    83fc:	cf81                	beqz	a5,8414 <CO_EM_process+0x4e>
    83fe:	0014d593          	srli	a1,s1,0x1
    8402:	66a1                	lui	a3,0x8
    8404:	4701                	li	a4,0
    8406:	12068693          	addi	a3,a3,288 # 8120 <OD_read_1003+0xc>
    840a:	461d                	li	a2,7
    840c:	8985                	andi	a1,a1,1
    840e:	8522                	mv	a0,s0
    8410:	ef3ff0ef          	jal	ra,8302 <CO_error>
    8414:	00497793          	andi	a5,s2,4
    8418:	cf81                	beqz	a5,8430 <CO_EM_process+0x6a>
    841a:	0024d593          	srli	a1,s1,0x2
    841e:	66a1                	lui	a3,0x8
    8420:	4701                	li	a4,0
    8422:	14068693          	addi	a3,a3,320 # 8140 <OD_read_1003+0x2c>
    8426:	4649                	li	a2,18
    8428:	8985                	andi	a1,a1,1
    842a:	8522                	mv	a0,s0
    842c:	ed7ff0ef          	jal	ra,8302 <CO_error>
    8430:	00897793          	andi	a5,s2,8
    8434:	cf81                	beqz	a5,844c <CO_EM_process+0x86>
    8436:	0034d593          	srli	a1,s1,0x3
    843a:	66a1                	lui	a3,0x8
    843c:	4701                	li	a4,0
    843e:	11068693          	addi	a3,a3,272 # 8110 <OD_write_1003+0x24>
    8442:	4651                	li	a2,20
    8444:	8985                	andi	a1,a1,1
    8446:	8522                	mv	a0,s0
    8448:	ebbff0ef          	jal	ra,8302 <CO_error>
    844c:	08097793          	andi	a5,s2,128
    8450:	cf81                	beqz	a5,8468 <CO_EM_process+0xa2>
    8452:	0074d593          	srli	a1,s1,0x7
    8456:	66a1                	lui	a3,0x8
    8458:	4701                	li	a4,0
    845a:	10068693          	addi	a3,a3,256 # 8100 <OD_write_1003+0x14>
    845e:	4655                	li	a2,21
    8460:	8985                	andi	a1,a1,1
    8462:	8522                	mv	a0,s0
    8464:	e9fff0ef          	jal	ra,8302 <CO_error>
    8468:	20097793          	andi	a5,s2,512
    846c:	cf81                	beqz	a5,8484 <CO_EM_process+0xbe>
    846e:	0094d593          	srli	a1,s1,0x9
    8472:	66a1                	lui	a3,0x8
    8474:	4701                	li	a4,0
    8476:	12068693          	addi	a3,a3,288 # 8120 <OD_read_1003+0xc>
    847a:	4619                	li	a2,6
    847c:	8985                	andi	a1,a1,1
    847e:	8522                	mv	a0,s0
    8480:	e83ff0ef          	jal	ra,8302 <CO_error>
    8484:	01491793          	slli	a5,s2,0x14
    8488:	0007dd63          	bgez	a5,84a2 <CO_EM_process+0xdc>
    848c:	00b4d593          	srli	a1,s1,0xb
    8490:	66a1                	lui	a3,0x8
    8492:	4701                	li	a4,0
    8494:	11068693          	addi	a3,a3,272 # 8110 <OD_write_1003+0x24>
    8498:	464d                	li	a2,19
    849a:	8985                	andi	a1,a1,1
    849c:	8522                	mv	a0,s0
    849e:	e65ff0ef          	jal	ra,8302 <CO_error>
    84a2:	4014                	lw	a3,0(s0)
    84a4:	305c                	lbu	a5,5(s0)
    84a6:	7741                	lui	a4,0xffff0
    84a8:	8f75                	and	a4,a4,a3
    84aa:	00f037b3          	snez	a5,a5
    84ae:	c319                	beqz	a4,84b4 <CO_EM_process+0xee>
    84b0:	0107e793          	ori	a5,a5,16
    84b4:	241a                	lhu	a4,8(s0)
    84b6:	c319                	beqz	a4,84bc <CO_EM_process+0xf6>
    84b8:	0807e793          	ori	a5,a5,128
    84bc:	4458                	lw	a4,12(s0)
    84be:	a31c                	sb	a5,0(a4)
    84c0:	06098463          	beqz	s3,8528 <CO_EM_process+0x162>
    84c4:	2c54                	lbu	a3,28(s0)
    84c6:	4705                	li	a4,1
    84c8:	06d77063          	bgeu	a4,a3,8528 <CO_EM_process+0x162>
    84cc:	2c64                	lbu	s1,30(s0)
    84ce:	3c58                	lbu	a4,29(s0)
    84d0:	04970c63          	beq	a4,s1,8528 <CO_EM_process+0x162>
    84d4:	5448                	lw	a0,44(s0)
    84d6:	4918                	lw	a4,16(a0)
    84d8:	eb21                	bnez	a4,8528 <CO_EM_process+0x162>
    84da:	4c0c                	lw	a1,24(s0)
    84dc:	00349713          	slli	a4,s1,0x3
    84e0:	07c2                	slli	a5,a5,0x10
    84e2:	95ba                	add	a1,a1,a4
    84e4:	4198                	lw	a4,0(a1)
    84e6:	4621                	li	a2,8
    84e8:	0515                	addi	a0,a0,5
    84ea:	8fd9                	or	a5,a5,a4
    84ec:	c19c                	sw	a5,0(a1)
    84ee:	05c030ef          	jal	ra,b54a <memcpy>
    84f2:	544c                	lw	a1,44(s0)
    84f4:	4848                	lw	a0,20(s0)
    84f6:	fc2ff0ef          	jal	ra,7cb8 <CO_CANsend>
    84fa:	2c58                	lbu	a4,28(s0)
    84fc:	00148793          	addi	a5,s1,1
    8500:	0ff7f793          	andi	a5,a5,255
    8504:	00e7e363          	bltu	a5,a4,850a <CO_EM_process+0x144>
    8508:	4781                	li	a5,0
    850a:	3c78                	lbu	a4,31(s0)
    850c:	ac7c                	sb	a5,30(s0)
    850e:	4685                	li	a3,1
    8510:	00d71e63          	bne	a4,a3,852c <CO_EM_process+0x166>
    8514:	4789                	li	a5,2
    8516:	bc7c                	sb	a5,31(s0)
    8518:	4701                	li	a4,0
    851a:	6685                	lui	a3,0x1
    851c:	02000613          	li	a2,32
    8520:	4585                	li	a1,1
    8522:	8522                	mv	a0,s0
    8524:	ddfff0ef          	jal	ra,8302 <CO_error>
    8528:	810f806f          	j	538 <__riscv_restore_4>
    852c:	4689                	li	a3,2
    852e:	fed71de3          	bne	a4,a3,8528 <CO_EM_process+0x162>
    8532:	3c58                	lbu	a4,29(s0)
    8534:	fef71ae3          	bne	a4,a5,8528 <CO_EM_process+0x162>
    8538:	00040fa3          	sb	zero,31(s0)
    853c:	4701                	li	a4,0
    853e:	4681                	li	a3,0
    8540:	02000613          	li	a2,32
    8544:	4581                	li	a1,0
    8546:	bff1                	j	8522 <CO_EM_process+0x15c>

00008548 <CO_NMT_receive>:
    8548:	21d8                	lbu	a4,4(a1)
    854a:	4789                	li	a5,2
    854c:	00f71963          	bne	a4,a5,855e <CO_NMT_receive+0x16>
    8550:	21fc                	lbu	a5,6(a1)
    8552:	c781                	beqz	a5,855a <CO_NMT_receive+0x12>
    8554:	2558                	lbu	a4,12(a0)
    8556:	00f71463          	bne	a4,a5,855e <CO_NMT_receive+0x16>
    855a:	31dc                	lbu	a5,5(a1)
    855c:	c51c                	sw	a5,8(a0)
    855e:	8082                	ret

00008560 <OD_write_1017>:
    8560:	c129                	beqz	a0,85a2 <OD_write_1017+0x42>
    8562:	01454303          	lbu	t1,20(a0)
    8566:	47a5                	li	a5,9
    8568:	02031e63          	bnez	t1,85a4 <OD_write_1017+0x44>
    856c:	cd85                	beqz	a1,85a4 <OD_write_1017+0x44>
    856e:	4309                	li	t1,2
    8570:	02661a63          	bne	a2,t1,85a4 <OD_write_1017+0x44>
    8574:	ca85                	beqz	a3,85a4 <OD_write_1017+0x44>
    8576:	fa9f72ef          	jal	t0,51e <__riscv_save_0>
    857a:	219c                	lbu	a5,0(a1)
    857c:	1141                	addi	sp,sp,-16
    857e:	3e800713          	li	a4,1000
    8582:	875c                	sb	a5,14(sp)
    8584:	319c                	lbu	a5,1(a1)
    8586:	00452803          	lw	a6,4(a0)
    858a:	87dc                	sb	a5,15(sp)
    858c:	873c                	lhu	a5,14(sp)
    858e:	00082c23          	sw	zero,24(a6)
    8592:	02e787b3          	mul	a5,a5,a4
    8596:	00f82a23          	sw	a5,20(a6)
    859a:	2c91                	jal	87ee <OD_writeOriginal>
    859c:	0141                	addi	sp,sp,16
    859e:	fa5f706f          	j	542 <__riscv_restore_0>
    85a2:	47a5                	li	a5,9
    85a4:	853e                	mv	a0,a5
    85a6:	8082                	ret

000085a8 <CO_NMT_init>:
    85a8:	f4ff72ef          	jal	t0,4f6 <__riscv_save_10>
    85ac:	1141                	addi	sp,sp,-16
    85ae:	4a16                	lw	s4,68(sp)
    85b0:	4b46                	lw	s6,80(sp)
    85b2:	cd79                	beqz	a0,8690 <CO_NMT_init+0xe8>
    85b4:	842a                	mv	s0,a0
    85b6:	557d                	li	a0,-1
    85b8:	c1b5                	beqz	a1,861c <CO_NMT_init+0x74>
    85ba:	c22d                	beqz	a2,861c <CO_NMT_init+0x74>
    85bc:	06080063          	beqz	a6,861c <CO_NMT_init+0x74>
    85c0:	040a0e63          	beqz	s4,861c <CO_NMT_init+0x74>
    85c4:	8ab2                	mv	s5,a2
    85c6:	84ae                	mv	s1,a1
    85c8:	03000613          	li	a2,48
    85cc:	4581                	li	a1,0
    85ce:	00840513          	addi	a0,s0,8
    85d2:	8c3a                	mv	s8,a4
    85d4:	8cb6                	mv	s9,a3
    85d6:	893e                	mv	s2,a5
    85d8:	8bc6                	mv	s7,a7
    85da:	89c2                	mv	s3,a6
    85dc:	f73f70ef          	jal	ra,54e <memset>
    85e0:	03542623          	sw	s5,44(s0)
    85e4:	3e800a93          	li	s5,1000
    85e8:	03590933          	mul	s2,s2,s5
    85ec:	00042023          	sw	zero,0(s0)
    85f0:	00042223          	sw	zero,4(s0)
    85f4:	01940623          	sb	s9,12(s0)
    85f8:	01842823          	sw	s8,16(s0)
    85fc:	4705                	li	a4,1
    85fe:	4689                	li	a3,2
    8600:	00e10613          	addi	a2,sp,14
    8604:	4581                	li	a1,0
    8606:	8526                	mv	a0,s1
    8608:	01242c23          	sw	s2,24(s0)
    860c:	26c1                	jal	89cc <OD_get_value>
    860e:	c911                	beqz	a0,8622 <CO_NMT_init+0x7a>
    8610:	5551                	li	a0,-12
    8612:	000b0563          	beqz	s6,861c <CO_NMT_init+0x74>
    8616:	209e                	lhu	a5,0(s1)
    8618:	00fb2023          	sw	a5,0(s6) # 4000 <vDinDoutProcess+0xc>
    861c:	0141                	addi	sp,sp,16
    861e:	f11f706f          	j	52e <__riscv_restore_10>
    8622:	873c                	lhu	a5,14(sp)
    8624:	00008737          	lui	a4,0x8
    8628:	79e70713          	addi	a4,a4,1950 # 879e <OD_readOriginal>
    862c:	035787b3          	mul	a5,a5,s5
    8630:	d018                	sw	a4,32(s0)
    8632:	00008737          	lui	a4,0x8
    8636:	56070713          	addi	a4,a4,1376 # 8560 <OD_write_1017>
    863a:	d058                	sw	a4,36(s0)
    863c:	cc40                	sw	s0,28(s0)
    863e:	01c40713          	addi	a4,s0,28
    8642:	c85c                	sw	a5,20(s0)
    8644:	c498                	sw	a4,8(s1)
    8646:	4c18                	lw	a4,24(s0)
    8648:	00e7f363          	bgeu	a5,a4,864e <CO_NMT_init+0xa6>
    864c:	cc1c                	sw	a5,24(s0)
    864e:	04015603          	lhu	a2,64(sp)
    8652:	00008837          	lui	a6,0x8
    8656:	54880813          	addi	a6,a6,1352 # 8548 <CO_NMT_receive>
    865a:	87a2                	mv	a5,s0
    865c:	4701                	li	a4,0
    865e:	7ff00693          	li	a3,2047
    8662:	85de                	mv	a1,s7
    8664:	854e                	mv	a0,s3
    8666:	db4ff0ef          	jal	ra,7c1a <CO_CANrxBufferInit>
    866a:	f94d                	bnez	a0,861c <CO_NMT_init+0x74>
    866c:	04c15603          	lhu	a2,76(sp)
    8670:	04815583          	lhu	a1,72(sp)
    8674:	03442823          	sw	s4,48(s0)
    8678:	4781                	li	a5,0
    867a:	4705                	li	a4,1
    867c:	4681                	li	a3,0
    867e:	8552                	mv	a0,s4
    8680:	decff0ef          	jal	ra,7c6c <CO_CANtxBufferInit>
    8684:	d848                	sw	a0,52(s0)
    8686:	00153513          	seqz	a0,a0
    868a:	40a00533          	neg	a0,a0
    868e:	b779                	j	861c <CO_NMT_init+0x74>
    8690:	557d                	li	a0,-1
    8692:	b769                	j	861c <CO_NMT_init+0x74>

00008694 <CO_NMT_process>:
    8694:	e8bf72ef          	jal	t0,51e <__riscv_save_0>
    8698:	4d18                	lw	a4,24(a0)
    869a:	84aa                	mv	s1,a0
    869c:	892e                	mv	s2,a1
    869e:	4100                	lw	s0,0(a0)
    86a0:	40c707b3          	sub	a5,a4,a2
    86a4:	00e66363          	bltu	a2,a4,86aa <CO_NMT_process+0x16>
    86a8:	4781                	li	a5,0
    86aa:	cc9c                	sw	a5,24(s1)
    86ac:	c419                	beqz	s0,86ba <CO_NMT_process+0x26>
    86ae:	48d8                	lw	a4,20(s1)
    86b0:	c315                	beqz	a4,86d4 <CO_NMT_process+0x40>
    86b2:	c781                	beqz	a5,86ba <CO_NMT_process+0x26>
    86b4:	40dc                	lw	a5,4(s1)
    86b6:	00878f63          	beq	a5,s0,86d4 <CO_NMT_process+0x40>
    86ba:	58cc                	lw	a1,52(s1)
    86bc:	b1c0                	sb	s0,5(a1)
    86be:	5888                	lw	a0,48(s1)
    86c0:	df8ff0ef          	jal	ra,7cb8 <CO_CANsend>
    86c4:	e859                	bnez	s0,875a <CO_NMT_process+0xc6>
    86c6:	489c                	lw	a5,16(s1)
    86c8:	4415                	li	s0,5
    86ca:	1007f793          	andi	a5,a5,256
    86ce:	e399                	bnez	a5,86d4 <CO_NMT_process+0x40>
    86d0:	07f00413          	li	s0,127
    86d4:	449c                	lw	a5,8(s1)
    86d6:	c0c0                	sw	s0,4(s1)
    86d8:	4501                	li	a0,0
    86da:	cf99                	beqz	a5,86f8 <CO_NMT_process+0x64>
    86dc:	08000713          	li	a4,128
    86e0:	08e78a63          	beq	a5,a4,8774 <CO_NMT_process+0xe0>
    86e4:	06f76e63          	bltu	a4,a5,8760 <CO_NMT_process+0xcc>
    86e8:	4705                	li	a4,1
    86ea:	08e78863          	beq	a5,a4,877a <CO_NMT_process+0xe6>
    86ee:	4709                	li	a4,2
    86f0:	08e78763          	beq	a5,a4,877e <CO_NMT_process+0xea>
    86f4:	0004a423          	sw	zero,8(s1)
    86f8:	4894                	lw	a3,16(s1)
    86fa:	4781                	li	a5,0
    86fc:	01369713          	slli	a4,a3,0x13
    8700:	00075c63          	bgez	a4,8718 <CO_NMT_process+0x84>
    8704:	54d8                	lw	a4,44(s1)
    8706:	4785                	li	a5,1
    8708:	cb01                	beqz	a4,8718 <CO_NMT_process+0x84>
    870a:	2330                	lbu	a2,2(a4)
    870c:	8a11                	andi	a2,a2,4
    870e:	e609                	bnez	a2,8718 <CO_NMT_process+0x84>
    8710:	333c                	lbu	a5,3(a4)
    8712:	8be1                	andi	a5,a5,24
    8714:	00f037b3          	snez	a5,a5
    8718:	01269613          	slli	a2,a3,0x12
    871c:	4701                	li	a4,0
    871e:	00065a63          	bgez	a2,8732 <CO_NMT_process+0x9e>
    8722:	54d0                	lw	a2,44(s1)
    8724:	c619                	beqz	a2,8732 <CO_NMT_process+0x9e>
    8726:	4650                	lw	a2,12(a2)
    8728:	c609                	beqz	a2,8732 <CO_NMT_process+0x9e>
    872a:	2218                	lbu	a4,0(a2)
    872c:	8f75                	and	a4,a4,a3
    872e:	00e03733          	snez	a4,a4
    8732:	4615                	li	a2,5
    8734:	04c41763          	bne	s0,a2,8782 <CO_NMT_process+0xee>
    8738:	00e7e633          	or	a2,a5,a4
    873c:	c239                	beqz	a2,8782 <CO_NMT_process+0xee>
    873e:	01169793          	slli	a5,a3,0x11
    8742:	07f00413          	li	s0,127
    8746:	0007d363          	bgez	a5,874c <CO_NMT_process+0xb8>
    874a:	4411                	li	s0,4
    874c:	c080                	sw	s0,0(s1)
    874e:	00090463          	beqz	s2,8756 <CO_NMT_process+0xc2>
    8752:	00892023          	sw	s0,0(s2)
    8756:	dedf706f          	j	542 <__riscv_restore_0>
    875a:	48dc                	lw	a5,20(s1)
    875c:	cc9c                	sw	a5,24(s1)
    875e:	bf9d                	j	86d4 <CO_NMT_process+0x40>
    8760:	08100713          	li	a4,129
    8764:	4509                	li	a0,2
    8766:	f8e787e3          	beq	a5,a4,86f4 <CO_NMT_process+0x60>
    876a:	f7e78793          	addi	a5,a5,-130
    876e:	0017b513          	seqz	a0,a5
    8772:	b749                	j	86f4 <CO_NMT_process+0x60>
    8774:	07f00413          	li	s0,127
    8778:	bfb5                	j	86f4 <CO_NMT_process+0x60>
    877a:	4415                	li	s0,5
    877c:	bfa5                	j	86f4 <CO_NMT_process+0x60>
    877e:	4411                	li	s0,4
    8780:	bf95                	j	86f4 <CO_NMT_process+0x60>
    8782:	01069613          	slli	a2,a3,0x10
    8786:	fc0653e3          	bgez	a2,874c <CO_NMT_process+0xb8>
    878a:	07f00693          	li	a3,127
    878e:	fad41fe3          	bne	s0,a3,874c <CO_NMT_process+0xb8>
    8792:	8fd9                	or	a5,a5,a4
    8794:	ffc5                	bnez	a5,874c <CO_NMT_process+0xb8>
    8796:	4415                	li	s0,5
    8798:	bf55                	j	874c <CO_NMT_process+0xb8>

0000879a <OD_readDisabled>:
    879a:	4509                	li	a0,2
    879c:	8082                	ret

0000879e <OD_readOriginal>:
    879e:	d81f72ef          	jal	t0,51e <__riscv_save_0>
    87a2:	4425                	li	s0,9
    87a4:	cd15                	beqz	a0,87e0 <OD_readOriginal+0x42>
    87a6:	cd8d                	beqz	a1,87e0 <OD_readOriginal+0x42>
    87a8:	ce85                	beqz	a3,87e0 <OD_readOriginal+0x42>
    87aa:	4118                	lw	a4,0(a0)
    87ac:	4504                	lw	s1,8(a0)
    87ae:	4439                	li	s0,14
    87b0:	cb05                	beqz	a4,87e0 <OD_readOriginal+0x42>
    87b2:	455c                	lw	a5,12(a0)
    87b4:	e399                	bnez	a5,87ba <OD_readOriginal+0x1c>
    87b6:	02967a63          	bgeu	a2,s1,87ea <OD_readOriginal+0x4c>
    87ba:	4425                	li	s0,9
    87bc:	0297f263          	bgeu	a5,s1,87e0 <OD_readOriginal+0x42>
    87c0:	8c9d                	sub	s1,s1,a5
    87c2:	973e                	add	a4,a4,a5
    87c4:	02967163          	bgeu	a2,s1,87e6 <OD_readOriginal+0x48>
    87c8:	97b2                	add	a5,a5,a2
    87ca:	c55c                	sw	a5,12(a0)
    87cc:	84b2                	mv	s1,a2
    87ce:	547d                	li	s0,-1
    87d0:	8936                	mv	s2,a3
    87d2:	852e                	mv	a0,a1
    87d4:	8626                	mv	a2,s1
    87d6:	85ba                	mv	a1,a4
    87d8:	573020ef          	jal	ra,b54a <memcpy>
    87dc:	00992023          	sw	s1,0(s2)
    87e0:	8522                	mv	a0,s0
    87e2:	d61f706f          	j	542 <__riscv_restore_0>
    87e6:	00052623          	sw	zero,12(a0)
    87ea:	4401                	li	s0,0
    87ec:	b7d5                	j	87d0 <OD_readOriginal+0x32>

000087ee <OD_writeOriginal>:
    87ee:	d31f72ef          	jal	t0,51e <__riscv_save_0>
    87f2:	44a5                	li	s1,9
    87f4:	cd0d                	beqz	a0,882e <OD_writeOriginal+0x40>
    87f6:	cd85                	beqz	a1,882e <OD_writeOriginal+0x40>
    87f8:	ca9d                	beqz	a3,882e <OD_writeOriginal+0x40>
    87fa:	872a                	mv	a4,a0
    87fc:	4500                	lw	s0,8(a0)
    87fe:	4108                	lw	a0,0(a0)
    8800:	44b9                	li	s1,14
    8802:	c515                	beqz	a0,882e <OD_writeOriginal+0x40>
    8804:	475c                	lw	a5,12(a4)
    8806:	e399                	bnez	a5,880c <OD_writeOriginal+0x1e>
    8808:	02867863          	bgeu	a2,s0,8838 <OD_writeOriginal+0x4a>
    880c:	44a5                	li	s1,9
    880e:	0287f063          	bgeu	a5,s0,882e <OD_writeOriginal+0x40>
    8812:	8c1d                	sub	s0,s0,a5
    8814:	953e                	add	a0,a0,a5
    8816:	00867f63          	bgeu	a2,s0,8834 <OD_writeOriginal+0x46>
    881a:	97b2                	add	a5,a5,a2
    881c:	c75c                	sw	a5,12(a4)
    881e:	8432                	mv	s0,a2
    8820:	54fd                	li	s1,-1
    8822:	8936                	mv	s2,a3
    8824:	8622                	mv	a2,s0
    8826:	525020ef          	jal	ra,b54a <memcpy>
    882a:	00892023          	sw	s0,0(s2)
    882e:	8526                	mv	a0,s1
    8830:	d13f706f          	j	542 <__riscv_restore_0>
    8834:	00072623          	sw	zero,12(a4)
    8838:	44b1                	li	s1,12
    883a:	fec46ae3          	bltu	s0,a2,882e <OD_writeOriginal+0x40>
    883e:	4481                	li	s1,0
    8840:	b7cd                	j	8822 <OD_writeOriginal+0x34>

00008842 <OD_writeDisabled>:
    8842:	4509                	li	a0,2
    8844:	8082                	ret

00008846 <OD_find>:
    8846:	c535                	beqz	a0,88b2 <OD_find+0x6c>
    8848:	211a                	lhu	a4,0(a0)
    884a:	4781                	li	a5,0
    884c:	c31d                	beqz	a4,8872 <OD_find+0x2c>
    884e:	177d                	addi	a4,a4,-1
    8850:	0742                	slli	a4,a4,0x10
    8852:	8341                	srli	a4,a4,0x10
    8854:	4681                	li	a3,0
    8856:	4331                	li	t1,12
    8858:	00e6ef63          	bltu	a3,a4,8876 <OD_find+0x30>
    885c:	4781                	li	a5,0
    885e:	00e69a63          	bne	a3,a4,8872 <OD_find+0x2c>
    8862:	47b1                	li	a5,12
    8864:	02f686b3          	mul	a3,a3,a5
    8868:	415c                	lw	a5,4(a0)
    886a:	97b6                	add	a5,a5,a3
    886c:	239a                	lhu	a4,0(a5)
    886e:	04b71263          	bne	a4,a1,88b2 <OD_find+0x6c>
    8872:	853e                	mv	a0,a5
    8874:	8082                	ret
    8876:	00e68833          	add	a6,a3,a4
    887a:	40185813          	srai	a6,a6,0x1
    887e:	026808b3          	mul	a7,a6,t1
    8882:	415c                	lw	a5,4(a0)
    8884:	01081613          	slli	a2,a6,0x10
    8888:	8241                	srli	a2,a2,0x10
    888a:	97c6                	add	a5,a5,a7
    888c:	0007d883          	lhu	a7,0(a5)
    8890:	feb881e3          	beq	a7,a1,8872 <OD_find+0x2c>
    8894:	0115fa63          	bgeu	a1,a7,88a8 <OD_find+0x62>
    8898:	4701                	li	a4,0
    889a:	fc0801e3          	beqz	a6,885c <OD_find+0x16>
    889e:	fff60713          	addi	a4,a2,-1
    88a2:	0742                	slli	a4,a4,0x10
    88a4:	8341                	srli	a4,a4,0x10
    88a6:	bf4d                	j	8858 <OD_find+0x12>
    88a8:	00160693          	addi	a3,a2,1
    88ac:	06c2                	slli	a3,a3,0x10
    88ae:	82c1                	srli	a3,a3,0x10
    88b0:	b765                	j	8858 <OD_find+0x12>
    88b2:	4781                	li	a5,0
    88b4:	bf7d                	j	8872 <OD_find+0x2c>

000088b6 <OD_getSub>:
    88b6:	4715                	li	a4,5
    88b8:	c115                	beqz	a0,88dc <OD_getSub+0x26>
    88ba:	415c                	lw	a5,4(a0)
    88bc:	4715                	li	a4,5
    88be:	cf99                	beqz	a5,88dc <OD_getSub+0x26>
    88c0:	4725                	li	a4,9
    88c2:	ce09                	beqz	a2,88dc <OD_getSub+0x26>
    88c4:	3138                	lbu	a4,3(a0)
    88c6:	4809                	li	a6,2
    88c8:	8b3d                	andi	a4,a4,15
    88ca:	07070063          	beq	a4,a6,892a <OD_getSub+0x74>
    88ce:	480d                	li	a6,3
    88d0:	01070863          	beq	a4,a6,88e0 <OD_getSub+0x2a>
    88d4:	4805                	li	a6,1
    88d6:	01070c63          	beq	a4,a6,88ee <OD_getSub+0x38>
    88da:	4725                	li	a4,9
    88dc:	853a                	mv	a0,a4
    88de:	8082                	ret
    88e0:	00254883          	lbu	a7,2(a0)
    88e4:	4701                	li	a4,0
    88e6:	06e89f63          	bne	a7,a4,8964 <OD_getSub+0xae>
    88ea:	4739                	li	a4,14
    88ec:	bfc5                	j	88dc <OD_getSub+0x26>
    88ee:	4739                	li	a4,14
    88f0:	f5f5                	bnez	a1,88dc <OD_getSub+0x26>
    88f2:	23d8                	lbu	a4,4(a5)
    88f4:	aa18                	sb	a4,16(a2)
    88f6:	4398                	lw	a4,0(a5)
    88f8:	479c                	lw	a5,8(a5)
    88fa:	c218                	sw	a4,0(a2)
    88fc:	4518                	lw	a4,8(a0)
    88fe:	c61c                	sw	a5,8(a2)
    8900:	c311                	beqz	a4,8904 <OD_getSub+0x4e>
    8902:	cabd                	beqz	a3,8978 <OD_getSub+0xc2>
    8904:	000087b7          	lui	a5,0x8
    8908:	79e78793          	addi	a5,a5,1950 # 879e <OD_readOriginal>
    890c:	ce1c                	sw	a5,24(a2)
    890e:	000087b7          	lui	a5,0x8
    8912:	7ee78793          	addi	a5,a5,2030 # 87ee <OD_writeOriginal>
    8916:	ce5c                	sw	a5,28(a2)
    8918:	00062223          	sw	zero,4(a2)
    891c:	211e                	lhu	a5,0(a0)
    891e:	00062623          	sw	zero,12(a2)
    8922:	aa4c                	sb	a1,20(a2)
    8924:	aa3e                	sh	a5,18(a2)
    8926:	4701                	li	a4,0
    8928:	bf55                	j	88dc <OD_getSub+0x26>
    892a:	00254803          	lbu	a6,2(a0)
    892e:	4739                	li	a4,14
    8930:	fb05f6e3          	bgeu	a1,a6,88dc <OD_getSub+0x26>
    8934:	e599                	bnez	a1,8942 <OD_getSub+0x8c>
    8936:	2798                	lbu	a4,8(a5)
    8938:	aa18                	sb	a4,16(a2)
    893a:	439c                	lw	a5,0(a5)
    893c:	c21c                	sw	a5,0(a2)
    893e:	4785                	li	a5,1
    8940:	bf75                	j	88fc <OD_getSub+0x46>
    8942:	3798                	lbu	a4,9(a5)
    8944:	aa18                	sb	a4,16(a2)
    8946:	0047a803          	lw	a6,4(a5)
    894a:	00080963          	beqz	a6,895c <OD_getSub+0xa6>
    894e:	0107a883          	lw	a7,16(a5)
    8952:	fff58713          	addi	a4,a1,-1
    8956:	03170733          	mul	a4,a4,a7
    895a:	983a                	add	a6,a6,a4
    895c:	01062023          	sw	a6,0(a2)
    8960:	47dc                	lw	a5,12(a5)
    8962:	bf69                	j	88fc <OD_getSub+0x46>
    8964:	883e                	mv	a6,a5
    8966:	07b1                	addi	a5,a5,12
    8968:	ff87c303          	lbu	t1,-8(a5)
    896c:	02b30763          	beq	t1,a1,899a <OD_getSub+0xe4>
    8970:	0705                	addi	a4,a4,1
    8972:	0ff77713          	andi	a4,a4,255
    8976:	bf85                	j	88e6 <OD_getSub+0x30>
    8978:	435c                	lw	a5,4(a4)
    897a:	e789                	bnez	a5,8984 <OD_getSub+0xce>
    897c:	000087b7          	lui	a5,0x8
    8980:	79a78793          	addi	a5,a5,1946 # 879a <OD_readDisabled>
    8984:	ce1c                	sw	a5,24(a2)
    8986:	471c                	lw	a5,8(a4)
    8988:	e789                	bnez	a5,8992 <OD_getSub+0xdc>
    898a:	000097b7          	lui	a5,0x9
    898e:	84278793          	addi	a5,a5,-1982 # 8842 <OD_writeDisabled>
    8992:	ce5c                	sw	a5,28(a2)
    8994:	431c                	lw	a5,0(a4)
    8996:	c25c                	sw	a5,4(a2)
    8998:	b751                	j	891c <OD_getSub+0x66>
    899a:	00584783          	lbu	a5,5(a6)
    899e:	aa1c                	sb	a5,16(a2)
    89a0:	00082783          	lw	a5,0(a6)
    89a4:	c21c                	sw	a5,0(a2)
    89a6:	00882783          	lw	a5,8(a6)
    89aa:	bf89                	j	88fc <OD_getSub+0x46>

000089ac <OD_getSDOabCode>:
    89ac:	47e5                	li	a5,25
    89ae:	00a7ea63          	bltu	a5,a0,89c2 <OD_getSDOabCode+0x16>
    89b2:	00251793          	slli	a5,a0,0x2
    89b6:	6539                	lui	a0,0xe
    89b8:	83850513          	addi	a0,a0,-1992 # d838 <abortCodes.6833>
    89bc:	953e                	add	a0,a0,a5
    89be:	4108                	lw	a0,0(a0)
    89c0:	8082                	ret
    89c2:	06040537          	lui	a0,0x6040
    89c6:	04750513          	addi	a0,a0,71 # 6040047 <_data_lma+0x603254b>
    89ca:	8082                	ret

000089cc <OD_get_value>:
    89cc:	ca05                	beqz	a2,89fc <OD_get_value+0x30>
    89ce:	b51f72ef          	jal	t0,51e <__riscv_save_0>
    89d2:	7179                	addi	sp,sp,-48
    89d4:	84b6                	mv	s1,a3
    89d6:	8432                	mv	s0,a2
    89d8:	86ba                	mv	a3,a4
    89da:	0810                	addi	a2,sp,16
    89dc:	c602                	sw	zero,12(sp)
    89de:	ed9ff0ef          	jal	ra,88b6 <OD_getSub>
    89e2:	e911                	bnez	a0,89f6 <OD_get_value+0x2a>
    89e4:	4662                	lw	a2,24(sp)
    89e6:	452d                	li	a0,11
    89e8:	00961763          	bne	a2,s1,89f6 <OD_get_value+0x2a>
    89ec:	57a2                	lw	a5,40(sp)
    89ee:	0074                	addi	a3,sp,12
    89f0:	85a2                	mv	a1,s0
    89f2:	0808                	addi	a0,sp,16
    89f4:	9782                	jalr	a5
    89f6:	6145                	addi	sp,sp,48
    89f8:	b4bf706f          	j	542 <__riscv_restore_0>
    89fc:	4525                	li	a0,9
    89fe:	8082                	ret

00008a00 <OD_set_value>:
    8a00:	b1ff72ef          	jal	t0,51e <__riscv_save_0>
    8a04:	7179                	addi	sp,sp,-48
    8a06:	8432                	mv	s0,a2
    8a08:	84b6                	mv	s1,a3
    8a0a:	0810                	addi	a2,sp,16
    8a0c:	86ba                	mv	a3,a4
    8a0e:	c602                	sw	zero,12(sp)
    8a10:	ea7ff0ef          	jal	ra,88b6 <OD_getSub>
    8a14:	e911                	bnez	a0,8a28 <OD_set_value+0x28>
    8a16:	4662                	lw	a2,24(sp)
    8a18:	452d                	li	a0,11
    8a1a:	00961763          	bne	a2,s1,8a28 <OD_set_value+0x28>
    8a1e:	57b2                	lw	a5,44(sp)
    8a20:	0074                	addi	a3,sp,12
    8a22:	85a2                	mv	a1,s0
    8a24:	0808                	addi	a0,sp,16
    8a26:	9782                	jalr	a5
    8a28:	6145                	addi	sp,sp,48
    8a2a:	b19f706f          	j	542 <__riscv_restore_0>

00008a2e <OD_getPtr>:
    8a2e:	af1f72ef          	jal	t0,51e <__riscv_save_0>
    8a32:	1101                	addi	sp,sp,-32
    8a34:	84b2                	mv	s1,a2
    8a36:	8436                	mv	s0,a3
    8a38:	860a                	mv	a2,sp
    8a3a:	4685                	li	a3,1
    8a3c:	e7bff0ef          	jal	ra,88b6 <OD_getSub>
    8a40:	ed19                	bnez	a0,8a5e <OD_getPtr+0x30>
    8a42:	4782                	lw	a5,0(sp)
    8a44:	cf81                	beqz	a5,8a5c <OD_getPtr+0x2e>
    8a46:	4722                	lw	a4,8(sp)
    8a48:	cb11                	beqz	a4,8a5c <OD_getPtr+0x2e>
    8a4a:	c481                	beqz	s1,8a52 <OD_getPtr+0x24>
    8a4c:	452d                	li	a0,11
    8a4e:	00971863          	bne	a4,s1,8a5e <OD_getPtr+0x30>
    8a52:	c019                	beqz	s0,8a58 <OD_getPtr+0x2a>
    8a54:	00042023          	sw	zero,0(s0)
    8a58:	853e                	mv	a0,a5
    8a5a:	a029                	j	8a64 <OD_getPtr+0x36>
    8a5c:	4525                	li	a0,9
    8a5e:	c011                	beqz	s0,8a62 <OD_getPtr+0x34>
    8a60:	c008                	sw	a0,0(s0)
    8a62:	4501                	li	a0,0
    8a64:	6105                	addi	sp,sp,32
    8a66:	addf706f          	j	542 <__riscv_restore_0>

00008a6a <OD_write_dummy>:
    8a6a:	c291                	beqz	a3,8a6e <OD_write_dummy+0x4>
    8a6c:	c290                	sw	a2,0(a3)
    8a6e:	4501                	li	a0,0
    8a70:	8082                	ret

00008a72 <OD_read_dummy>:
    8a72:	47a5                	li	a5,9
    8a74:	c585                	beqz	a1,8a9c <OD_read_dummy+0x2a>
    8a76:	c11d                	beqz	a0,8a9c <OD_read_dummy+0x2a>
    8a78:	c295                	beqz	a3,8a9c <OD_read_dummy+0x2a>
    8a7a:	aa5f72ef          	jal	t0,51e <__riscv_save_0>
    8a7e:	4504                	lw	s1,8(a0)
    8a80:	00967363          	bgeu	a2,s1,8a86 <OD_read_dummy+0x14>
    8a84:	84b2                	mv	s1,a2
    8a86:	852e                	mv	a0,a1
    8a88:	8626                	mv	a2,s1
    8a8a:	4581                	li	a1,0
    8a8c:	8436                	mv	s0,a3
    8a8e:	ac1f70ef          	jal	ra,54e <memset>
    8a92:	4781                	li	a5,0
    8a94:	c004                	sw	s1,0(s0)
    8a96:	853e                	mv	a0,a5
    8a98:	aabf706f          	j	542 <__riscv_restore_0>
    8a9c:	853e                	mv	a0,a5
    8a9e:	8082                	ret

00008aa0 <PDOconfigMap>:
    8aa0:	a57f72ef          	jal	t0,4f6 <__riscv_save_10>
    8aa4:	0ff5f913          	andi	s2,a1,255
    8aa8:	00395913          	srli	s2,s2,0x3
    8aac:	4821                	li	a6,8
    8aae:	1101                	addi	sp,sp,-32
    8ab0:	4b1d                	li	s6,7
    8ab2:	05286b63          	bltu	a6,s2,8b08 <PDOconfigMap+0x68>
    8ab6:	0085d993          	srli	s3,a1,0x8
    8aba:	8bb6                	mv	s7,a3
    8abc:	0105d793          	srli	a5,a1,0x10
    8ac0:	46fd                	li	a3,31
    8ac2:	0ff9fa93          	andi	s5,s3,255
    8ac6:	8432                	mv	s0,a2
    8ac8:	84ae                	mv	s1,a1
    8aca:	8a2a                	mv	s4,a0
    8acc:	04f6e263          	bltu	a3,a5,8b10 <PDOconfigMap+0x70>
    8ad0:	040a9063          	bnez	s5,8b10 <PDOconfigMap+0x70>
    8ad4:	00561413          	slli	s0,a2,0x5
    8ad8:	01040513          	addi	a0,s0,16
    8adc:	4661                	li	a2,24
    8ade:	4581                	li	a1,0
    8ae0:	9552                	add	a0,a0,s4
    8ae2:	a6df70ef          	jal	ra,54e <memset>
    8ae6:	000097b7          	lui	a5,0x9
    8aea:	008a0533          	add	a0,s4,s0
    8aee:	a7278793          	addi	a5,a5,-1422 # 8a72 <OD_read_dummy>
    8af2:	d51c                	sw	a5,40(a0)
    8af4:	000097b7          	lui	a5,0x9
    8af8:	a6a78793          	addi	a5,a5,-1430 # 8a6a <OD_write_dummy>
    8afc:	01252e23          	sw	s2,28(a0)
    8b00:	01252c23          	sw	s2,24(a0)
    8b04:	d55c                	sw	a5,44(a0)
    8b06:	4b01                	li	s6,0
    8b08:	855a                	mv	a0,s6
    8b0a:	6105                	addi	sp,sp,32
    8b0c:	a23f706f          	j	52e <__riscv_restore_10>
    8b10:	85be                	mv	a1,a5
    8b12:	853a                	mv	a0,a4
    8b14:	d33ff0ef          	jal	ra,8846 <OD_find>
    8b18:	4681                	li	a3,0
    8b1a:	860a                	mv	a2,sp
    8b1c:	85d6                	mv	a1,s5
    8b1e:	8c2a                	mv	s8,a0
    8b20:	d97ff0ef          	jal	ra,88b6 <OD_getSub>
    8b24:	8b2a                	mv	s6,a0
    8b26:	f16d                	bnez	a0,8b08 <PDOconfigMap+0x68>
    8b28:	47a1                	li	a5,8
    8b2a:	000b9363          	bnez	s7,8b30 <PDOconfigMap+0x90>
    8b2e:	4791                	li	a5,4
    8b30:	01014703          	lbu	a4,16(sp)
    8b34:	8ff9                	and	a5,a5,a4
    8b36:	c3bd                	beqz	a5,8b9c <PDOconfigMap+0xfc>
    8b38:	0074f593          	andi	a1,s1,7
    8b3c:	e1a5                	bnez	a1,8b9c <PDOconfigMap+0xfc>
    8b3e:	47a2                	lw	a5,8(sp)
    8b40:	0527ee63          	bltu	a5,s2,8b9c <PDOconfigMap+0xfc>
    8b44:	00541493          	slli	s1,s0,0x5
    8b48:	94d2                	add	s1,s1,s4
    8b4a:	02000613          	li	a2,32
    8b4e:	858a                	mv	a1,sp
    8b50:	01048513          	addi	a0,s1,16
    8b54:	1f7020ef          	jal	ra,b54a <memcpy>
    8b58:	0124ae23          	sw	s2,28(s1)
    8b5c:	fa0b96e3          	bnez	s7,8b08 <PDOconfigMap+0x68>
    8b60:	04440793          	addi	a5,s0,68
    8b64:	477d                	li	a4,31
    8b66:	078a                	slli	a5,a5,0x2
    8b68:	03576563          	bltu	a4,s5,8b92 <PDOconfigMap+0xf2>
    8b6c:	008c2703          	lw	a4,8(s8)
    8b70:	c30d                	beqz	a4,8b92 <PDOconfigMap+0xf2>
    8b72:	003ad593          	srli	a1,s5,0x3
    8b76:	05b1                	addi	a1,a1,12
    8b78:	97d2                	add	a5,a5,s4
    8b7a:	95ba                	add	a1,a1,a4
    8b7c:	c38c                	sw	a1,0(a5)
    8b7e:	0079f993          	andi	s3,s3,7
    8b82:	4785                	li	a5,1
    8b84:	008a0533          	add	a0,s4,s0
    8b88:	013799b3          	sll	s3,a5,s3
    8b8c:	13350823          	sb	s3,304(a0)
    8b90:	bfa5                	j	8b08 <PDOconfigMap+0x68>
    8b92:	00fa0533          	add	a0,s4,a5
    8b96:	00052023          	sw	zero,0(a0)
    8b9a:	b7bd                	j	8b08 <PDOconfigMap+0x68>
    8b9c:	4b19                	li	s6,6
    8b9e:	b7ad                	j	8b08 <PDOconfigMap+0x68>

00008ba0 <CO_PDO_receive>:
    8ba0:	97ff72ef          	jal	t0,51e <__riscv_save_0>
    8ba4:	451c                	lw	a5,8(a0)
    8ba6:	84aa                	mv	s1,a0
    8ba8:	17454403          	lbu	s0,372(a0)
    8bac:	c785                	beqz	a5,8bd4 <CO_PDO_receive+0x34>
    8bae:	21dc                	lbu	a5,4(a1)
    8bb0:	2558                	lbu	a4,12(a0)
    8bb2:	02e7e863          	bltu	a5,a4,8be2 <CO_PDO_receive+0x42>
    8bb6:	02f71363          	bne	a4,a5,8bdc <CO_PDO_receive+0x3c>
    8bba:	4785                	li	a5,1
    8bbc:	00f41363          	bne	s0,a5,8bc2 <CO_PDO_receive+0x22>
    8bc0:	442d                	li	s0,11
    8bc2:	4621                	li	a2,8
    8bc4:	0595                	addi	a1,a1,5
    8bc6:	16c48513          	addi	a0,s1,364
    8bca:	181020ef          	jal	ra,b54a <memcpy>
    8bce:	4785                	li	a5,1
    8bd0:	16f4a423          	sw	a5,360(s1)
    8bd4:	16848a23          	sb	s0,372(s1)
    8bd8:	96bf706f          	j	542 <__riscv_restore_0>
    8bdc:	f07d                	bnez	s0,8bc2 <CO_PDO_receive+0x22>
    8bde:	4435                	li	s0,13
    8be0:	b7cd                	j	8bc2 <CO_PDO_receive+0x22>
    8be2:	f86d                	bnez	s0,8bd4 <CO_PDO_receive+0x34>
    8be4:	4431                	li	s0,12
    8be6:	b7fd                	j	8bd4 <CO_PDO_receive+0x34>

00008be8 <OD_read_PDO_commParam>:
    8be8:	91df72ef          	jal	t0,504 <__riscv_save_4>
    8bec:	1141                	addi	sp,sp,-16
    8bee:	892a                	mv	s2,a0
    8bf0:	84ae                	mv	s1,a1
    8bf2:	89b6                	mv	s3,a3
    8bf4:	babff0ef          	jal	ra,879e <OD_readOriginal>
    8bf8:	842a                	mv	s0,a0
    8bfa:	e939                	bnez	a0,8c50 <OD_read_PDO_commParam+0x68>
    8bfc:	01494703          	lbu	a4,20(s2)
    8c00:	4785                	li	a5,1
    8c02:	04f71763          	bne	a4,a5,8c50 <OD_read_PDO_commParam+0x68>
    8c06:	0009a703          	lw	a4,0(s3)
    8c0a:	4791                	li	a5,4
    8c0c:	04f71263          	bne	a4,a5,8c50 <OD_read_PDO_commParam+0x68>
    8c10:	4611                	li	a2,4
    8c12:	85a6                	mv	a1,s1
    8c14:	0068                	addi	a0,sp,12
    8c16:	00492903          	lw	s2,4(s2)
    8c1a:	131020ef          	jal	ra,b54a <memcpy>
    8c1e:	47b2                	lw	a5,12(sp)
    8c20:	7ff7f693          	andi	a3,a5,2047
    8c24:	ca91                	beqz	a3,8c38 <OD_read_PDO_commParam+0x50>
    8c26:	14295703          	lhu	a4,322(s2)
    8c2a:	f8077613          	andi	a2,a4,-128
    8c2e:	00c69563          	bne	a3,a2,8c38 <OD_read_PDO_commParam+0x50>
    8c32:	76c1                	lui	a3,0xffff0
    8c34:	8ff5                	and	a5,a5,a3
    8c36:	8fd9                	or	a5,a5,a4
    8c38:	00892703          	lw	a4,8(s2)
    8c3c:	e701                	bnez	a4,8c44 <OD_read_PDO_commParam+0x5c>
    8c3e:	80000737          	lui	a4,0x80000
    8c42:	8fd9                	or	a5,a5,a4
    8c44:	4611                	li	a2,4
    8c46:	006c                	addi	a1,sp,12
    8c48:	8526                	mv	a0,s1
    8c4a:	c63e                	sw	a5,12(sp)
    8c4c:	0ff020ef          	jal	ra,b54a <memcpy>
    8c50:	8522                	mv	a0,s0
    8c52:	0141                	addi	sp,sp,16
    8c54:	8e5f706f          	j	538 <__riscv_restore_4>

00008c58 <PDO_initMapping.constprop.3>:
    8c58:	897f72ef          	jal	t0,4ee <__riscv_save_12>
    8c5c:	1141                	addi	sp,sp,-16
    8c5e:	84b2                	mv	s1,a2
    8c60:	8a2a                	mv	s4,a0
    8c62:	8bae                	mv	s7,a1
    8c64:	8c36                	mv	s8,a3
    8c66:	8aba                	mv	s5,a4
    8c68:	4685                	li	a3,1
    8c6a:	4705                	li	a4,1
    8c6c:	00b10613          	addi	a2,sp,11
    8c70:	4581                	li	a1,0
    8c72:	8526                	mv	a0,s1
    8c74:	8b3e                	mv	s6,a5
    8c76:	000105a3          	sb	zero,11(sp)
    8c7a:	d53ff0ef          	jal	ra,89cc <OD_get_value>
    8c7e:	cd11                	beqz	a0,8c9a <PDO_initMapping.constprop.3+0x42>
    8c80:	5551                	li	a0,-12
    8c82:	000a8963          	beqz	s5,8c94 <PDO_initMapping.constprop.3+0x3c>
    8c86:	4781                	li	a5,0
    8c88:	c091                	beqz	s1,8c8c <PDO_initMapping.constprop.3+0x34>
    8c8a:	209e                	lhu	a5,0(s1)
    8c8c:	07a2                	slli	a5,a5,0x8
    8c8e:	00faa023          	sw	a5,0(s5)
    8c92:	5551                	li	a0,-12
    8c94:	0141                	addi	sp,sp,16
    8c96:	895f706f          	j	52a <__riscv_restore_12>
    8c9a:	01ca0d93          	addi	s11,s4,28
    8c9e:	4901                	li	s2,0
    8ca0:	4981                	li	s3,0
    8ca2:	4cb9                	li	s9,14
    8ca4:	0ff00d13          	li	s10,255
    8ca8:	00198413          	addi	s0,s3,1
    8cac:	0ff47413          	andi	s0,s0,255
    8cb0:	4705                	li	a4,1
    8cb2:	4691                	li	a3,4
    8cb4:	0070                	addi	a2,sp,12
    8cb6:	85a2                	mv	a1,s0
    8cb8:	8526                	mv	a0,s1
    8cba:	c602                	sw	zero,12(sp)
    8cbc:	d11ff0ef          	jal	ra,89cc <OD_get_value>
    8cc0:	05950463          	beq	a0,s9,8d08 <PDO_initMapping.constprop.3+0xb0>
    8cc4:	c911                	beqz	a0,8cd8 <PDO_initMapping.constprop.3+0x80>
    8cc6:	fc0a86e3          	beqz	s5,8c92 <PDO_initMapping.constprop.3+0x3a>
    8cca:	4781                	li	a5,0
    8ccc:	c091                	beqz	s1,8cd0 <PDO_initMapping.constprop.3+0x78>
    8cce:	209e                	lhu	a5,0(s1)
    8cd0:	07a2                	slli	a5,a5,0x8
    8cd2:	0137e7b3          	or	a5,a5,s3
    8cd6:	bf65                	j	8c8e <PDO_initMapping.constprop.3+0x36>
    8cd8:	45b2                	lw	a1,12(sp)
    8cda:	875e                	mv	a4,s7
    8cdc:	86e2                	mv	a3,s8
    8cde:	864e                	mv	a2,s3
    8ce0:	8552                	mv	a0,s4
    8ce2:	dbfff0ef          	jal	ra,8aa0 <PDOconfigMap>
    8ce6:	c919                	beqz	a0,8cfc <PDO_initMapping.constprop.3+0xa4>
    8ce8:	fe0dae23          	sw	zero,-4(s11)
    8cec:	01ada023          	sw	s10,0(s11)
    8cf0:	000b2703          	lw	a4,0(s6)
    8cf4:	e701                	bnez	a4,8cfc <PDO_initMapping.constprop.3+0xa4>
    8cf6:	4732                	lw	a4,12(sp)
    8cf8:	00eb2023          	sw	a4,0(s6)
    8cfc:	8598                	lbu	a4,11(sp)
    8cfe:	00e9f563          	bgeu	s3,a4,8d08 <PDO_initMapping.constprop.3+0xb0>
    8d02:	000da703          	lw	a4,0(s11)
    8d06:	993a                	add	s2,s2,a4
    8d08:	47a1                	li	a5,8
    8d0a:	020d8d93          	addi	s11,s11,32
    8d0e:	89a2                	mv	s3,s0
    8d10:	f8f41ce3          	bne	s0,a5,8ca8 <PDO_initMapping.constprop.3+0x50>
    8d14:	000b2703          	lw	a4,0(s6)
    8d18:	01246663          	bltu	s0,s2,8d24 <PDO_initMapping.constprop.3+0xcc>
    8d1c:	00091a63          	bnez	s2,8d30 <PDO_initMapping.constprop.3+0xd8>
    8d20:	8594                	lbu	a3,11(sp)
    8d22:	c699                	beqz	a3,8d30 <PDO_initMapping.constprop.3+0xd8>
    8d24:	e701                	bnez	a4,8d2c <PDO_initMapping.constprop.3+0xd4>
    8d26:	4705                	li	a4,1
    8d28:	00eb2023          	sw	a4,0(s6)
    8d2c:	4501                	li	a0,0
    8d2e:	b79d                	j	8c94 <PDO_initMapping.constprop.3+0x3c>
    8d30:	ff75                	bnez	a4,8d2c <PDO_initMapping.constprop.3+0xd4>
    8d32:	859c                	lbu	a5,11(sp)
    8d34:	012a0623          	sb	s2,12(s4)
    8d38:	00fa06a3          	sb	a5,13(s4)
    8d3c:	bfc5                	j	8d2c <PDO_initMapping.constprop.3+0xd4>

00008d3e <OD_write_PDO_mapping>:
    8d3e:	c555                	beqz	a0,8dea <OD_write_PDO_mapping+0xac>
    8d40:	fc4f72ef          	jal	t0,504 <__riscv_save_4>
    8d44:	84aa                	mv	s1,a0
    8d46:	1141                	addi	sp,sp,-16
    8d48:	89ae                	mv	s3,a1
    8d4a:	4525                	li	a0,9
    8d4c:	c18d                	beqz	a1,8d6e <OD_write_PDO_mapping+0x30>
    8d4e:	c285                	beqz	a3,8d6e <OD_write_PDO_mapping+0x30>
    8d50:	0144c903          	lbu	s2,20(s1)
    8d54:	4721                	li	a4,8
    8d56:	01276c63          	bltu	a4,s2,8d6e <OD_write_PDO_mapping+0x30>
    8d5a:	40c0                	lw	s0,4(s1)
    8d5c:	4509                	li	a0,2
    8d5e:	4418                	lw	a4,8(s0)
    8d60:	e719                	bnez	a4,8d6e <OD_write_PDO_mapping+0x30>
    8d62:	345c                	lbu	a5,13(s0)
    8d64:	8a36                	mv	s4,a3
    8d66:	8ab2                	mv	s5,a2
    8d68:	c791                	beqz	a5,8d74 <OD_write_PDO_mapping+0x36>
    8d6a:	00090763          	beqz	s2,8d78 <OD_write_PDO_mapping+0x3a>
    8d6e:	0141                	addi	sp,sp,16
    8d70:	fc8f706f          	j	538 <__riscv_restore_4>
    8d74:	04091a63          	bnez	s2,8dc8 <OD_write_PDO_mapping+0x8a>
    8d78:	0009c603          	lbu	a2,0(s3)
    8d7c:	47a1                	li	a5,8
    8d7e:	451d                	li	a0,7
    8d80:	fec7e7e3          	bltu	a5,a2,8d6e <OD_write_PDO_mapping+0x30>
    8d84:	01840693          	addi	a3,s0,24
    8d88:	4781                	li	a5,0
    8d8a:	4701                	li	a4,0
    8d8c:	02c79263          	bne	a5,a2,8db0 <OD_write_PDO_mapping+0x72>
    8d90:	46a1                	li	a3,8
    8d92:	451d                	li	a0,7
    8d94:	fce6ede3          	bltu	a3,a4,8d6e <OD_write_PDO_mapping+0x30>
    8d98:	e319                	bnez	a4,8d9e <OD_write_PDO_mapping+0x60>
    8d9a:	453d                	li	a0,15
    8d9c:	fbe9                	bnez	a5,8d6e <OD_write_PDO_mapping+0x30>
    8d9e:	a458                	sb	a4,12(s0)
    8da0:	b450                	sb	a2,13(s0)
    8da2:	86d2                	mv	a3,s4
    8da4:	8656                	mv	a2,s5
    8da6:	85ce                	mv	a1,s3
    8da8:	8526                	mv	a0,s1
    8daa:	a45ff0ef          	jal	ra,87ee <OD_writeOriginal>
    8dae:	b7c1                	j	8d6e <OD_write_PDO_mapping+0x30>
    8db0:	4288                	lw	a0,0(a3)
    8db2:	02068693          	addi	a3,a3,32 # ffff0020 <__freertos_irq_stack_top+0xdffeb020>
    8db6:	fe46a583          	lw	a1,-28(a3)
    8dba:	02b56a63          	bltu	a0,a1,8dee <OD_write_PDO_mapping+0xb0>
    8dbe:	0785                	addi	a5,a5,1
    8dc0:	972e                	add	a4,a4,a1
    8dc2:	0ff7f793          	andi	a5,a5,255
    8dc6:	b7d9                	j	8d8c <OD_write_PDO_mapping+0x4e>
    8dc8:	4611                	li	a2,4
    8dca:	0068                	addi	a0,sp,12
    8dcc:	77e020ef          	jal	ra,b54a <memcpy>
    8dd0:	13c42703          	lw	a4,316(s0)
    8dd4:	13842683          	lw	a3,312(s0)
    8dd8:	45b2                	lw	a1,12(sp)
    8dda:	197d                	addi	s2,s2,-1
    8ddc:	0ff97613          	andi	a2,s2,255
    8de0:	8522                	mv	a0,s0
    8de2:	cbfff0ef          	jal	ra,8aa0 <PDOconfigMap>
    8de6:	dd55                	beqz	a0,8da2 <OD_write_PDO_mapping+0x64>
    8de8:	b759                	j	8d6e <OD_write_PDO_mapping+0x30>
    8dea:	4525                	li	a0,9
    8dec:	8082                	ret
    8dee:	4519                	li	a0,6
    8df0:	bfbd                	j	8d6e <OD_write_PDO_mapping+0x30>

00008df2 <OD_write_18xx>:
    8df2:	16050f63          	beqz	a0,8f70 <OD_write_18xx+0x17e>
    8df6:	f0ef72ef          	jal	t0,504 <__riscv_save_4>
    8dfa:	1141                	addi	sp,sp,-16
    8dfc:	84ae                	mv	s1,a1
    8dfe:	47a5                	li	a5,9
    8e00:	c5c1                	beqz	a1,8e88 <OD_write_18xx+0x96>
    8e02:	c2d9                	beqz	a3,8e88 <OD_write_18xx+0x96>
    8e04:	4711                	li	a4,4
    8e06:	89b2                	mv	s3,a2
    8e08:	08c76063          	bltu	a4,a2,8e88 <OD_write_18xx+0x96>
    8e0c:	892a                	mv	s2,a0
    8e0e:	4140                	lw	s0,4(a0)
    8e10:	0028                	addi	a0,sp,8
    8e12:	8a36                	mv	s4,a3
    8e14:	736020ef          	jal	ra,b54a <memcpy>
    8e18:	01494783          	lbu	a5,20(s2)
    8e1c:	4709                	li	a4,2
    8e1e:	10e78c63          	beq	a5,a4,8f36 <OD_write_18xx+0x144>
    8e22:	00f76d63          	bltu	a4,a5,8e3c <OD_write_18xx+0x4a>
    8e26:	4705                	li	a4,1
    8e28:	02e78e63          	beq	a5,a4,8e64 <OD_write_18xx+0x72>
    8e2c:	86d2                	mv	a3,s4
    8e2e:	864e                	mv	a2,s3
    8e30:	002c                	addi	a1,sp,8
    8e32:	854a                	mv	a0,s2
    8e34:	9bbff0ef          	jal	ra,87ee <OD_writeOriginal>
    8e38:	87aa                	mv	a5,a0
    8e3a:	a0b9                	j	8e88 <OD_write_18xx+0x96>
    8e3c:	470d                	li	a4,3
    8e3e:	10e78b63          	beq	a5,a4,8f54 <OD_write_18xx+0x162>
    8e42:	4715                	li	a4,5
    8e44:	fee794e3          	bne	a5,a4,8e2c <OD_write_18xx+0x3a>
    8e48:	209c                	lbu	a5,0(s1)
    8e4a:	3e800713          	li	a4,1000
    8e4e:	865c                	sb	a5,12(sp)
    8e50:	309c                	lbu	a5,1(s1)
    8e52:	18042023          	sw	zero,384(s0)
    8e56:	86dc                	sb	a5,13(sp)
    8e58:	863c                	lhu	a5,12(sp)
    8e5a:	02e787b3          	mul	a5,a5,a4
    8e5e:	16f42c23          	sw	a5,376(s0)
    8e62:	b7e9                	j	8e2c <OD_write_18xx+0x3a>
    8e64:	85a6                	mv	a1,s1
    8e66:	4611                	li	a2,4
    8e68:	0068                	addi	a0,sp,12
    8e6a:	6e0020ef          	jal	ra,b54a <memcpy>
    8e6e:	47b2                	lw	a5,12(sp)
    8e70:	40000737          	lui	a4,0x40000
    8e74:	80070713          	addi	a4,a4,-2048 # 3ffff800 <__freertos_irq_stack_top+0x1fffa800>
    8e78:	01079693          	slli	a3,a5,0x10
    8e7c:	82c1                	srli	a3,a3,0x10
    8e7e:	8f7d                	and	a4,a4,a5
    8e80:	7ff6f493          	andi	s1,a3,2047
    8e84:	c711                	beqz	a4,8e90 <OD_write_18xx+0x9e>
    8e86:	47bd                	li	a5,15
    8e88:	853e                	mv	a0,a5
    8e8a:	0141                	addi	sp,sp,16
    8e8c:	eacf706f          	j	538 <__riscv_restore_4>
    8e90:	4410                	lw	a2,8(s0)
    8e92:	0407c963          	bltz	a5,8ee4 <OD_write_18xx+0xf2>
    8e96:	c609                	beqz	a2,8ea0 <OD_write_18xx+0xae>
    8e98:	14445703          	lhu	a4,324(s0)
    8e9c:	fe9715e3          	bne	a4,s1,8e86 <OD_write_18xx+0x94>
    8ea0:	7806f693          	andi	a3,a3,1920
    8ea4:	d2ed                	beqz	a3,8e86 <OD_write_18xx+0x94>
    8ea6:	eff48713          	addi	a4,s1,-257
    8eaa:	0742                	slli	a4,a4,0x10
    8eac:	8341                	srli	a4,a4,0x10
    8eae:	07f00693          	li	a3,127
    8eb2:	fce6fae3          	bgeu	a3,a4,8e86 <OD_write_18xx+0x94>
    8eb6:	a7f48713          	addi	a4,s1,-1409
    8eba:	f7f77713          	andi	a4,a4,-129
    8ebe:	0742                	slli	a4,a4,0x10
    8ec0:	8341                	srli	a4,a4,0x10
    8ec2:	07e00693          	li	a3,126
    8ec6:	fce6f0e3          	bgeu	a3,a4,8e86 <OD_write_18xx+0x94>
    8eca:	92048713          	addi	a4,s1,-1760
    8ece:	0742                	slli	a4,a4,0x10
    8ed0:	8341                	srli	a4,a4,0x10
    8ed2:	46fd                	li	a3,31
    8ed4:	fae6f9e3          	bgeu	a3,a4,8e86 <OD_write_18xx+0x94>
    8ed8:	70000713          	li	a4,1792
    8edc:	fa9765e3          	bltu	a4,s1,8e86 <OD_write_18xx+0x94>
    8ee0:	3458                	lbu	a4,13(s0)
    8ee2:	d355                	beqz	a4,8e86 <OD_write_18xx+0x94>
    8ee4:	fff7ca93          	not	s5,a5
    8ee8:	01fada93          	srli	s5,s5,0x1f
    8eec:	00ca9663          	bne	s5,a2,8ef8 <OD_write_18xx+0x106>
    8ef0:	14445703          	lhu	a4,324(s0)
    8ef4:	f2970ce3          	beq	a4,s1,8e2c <OD_write_18xx+0x3a>
    8ef8:	14245703          	lhu	a4,322(s0)
    8efc:	00971563          	bne	a4,s1,8f06 <OD_write_18xx+0x114>
    8f00:	f807f713          	andi	a4,a5,-128
    8f04:	c43a                	sw	a4,8(sp)
    8f06:	0007d363          	bgez	a5,8f0c <OD_write_18xx+0x11a>
    8f0a:	4481                	li	s1,0
    8f0c:	16c44783          	lbu	a5,364(s0)
    8f10:	2458                	lbu	a4,12(s0)
    8f12:	14045583          	lhu	a1,320(s0)
    8f16:	4048                	lw	a0,4(s0)
    8f18:	0f17b793          	sltiu	a5,a5,241
    8f1c:	4681                	li	a3,0
    8f1e:	8626                	mv	a2,s1
    8f20:	d4dfe0ef          	jal	ra,7c6c <CO_CANtxBufferInit>
    8f24:	47a5                	li	a5,9
    8f26:	d12d                	beqz	a0,8e88 <OD_write_18xx+0x96>
    8f28:	16a42423          	sw	a0,360(s0)
    8f2c:	01542423          	sw	s5,8(s0)
    8f30:	14941223          	sh	s1,324(s0)
    8f34:	bde5                	j	8e2c <OD_write_18xx+0x3a>
    8f36:	209c                	lbu	a5,0(s1)
    8f38:	0fd00713          	li	a4,253
    8f3c:	f4f775e3          	bgeu	a4,a5,8e86 <OD_write_18xx+0x94>
    8f40:	16f40623          	sb	a5,364(s0)
    8f44:	4785                	li	a5,1
    8f46:	16f42823          	sw	a5,368(s0)
    8f4a:	18042023          	sw	zero,384(s0)
    8f4e:	16042e23          	sw	zero,380(s0)
    8f52:	bde9                	j	8e2c <OD_write_18xx+0x3a>
    8f54:	441c                	lw	a5,8(s0)
    8f56:	fb85                	bnez	a5,8e86 <OD_write_18xx+0x94>
    8f58:	209c                	lbu	a5,0(s1)
    8f5a:	06400713          	li	a4,100
    8f5e:	865c                	sb	a5,12(sp)
    8f60:	309c                	lbu	a5,1(s1)
    8f62:	86dc                	sb	a5,13(sp)
    8f64:	863c                	lhu	a5,12(sp)
    8f66:	02e787b3          	mul	a5,a5,a4
    8f6a:	16f42a23          	sw	a5,372(s0)
    8f6e:	b7c5                	j	8f4e <OD_write_18xx+0x15c>
    8f70:	47a5                	li	a5,9
    8f72:	853e                	mv	a0,a5
    8f74:	8082                	ret

00008f76 <OD_write_14xx>:
    8f76:	14050a63          	beqz	a0,90ca <OD_write_14xx+0x154>
    8f7a:	d8af72ef          	jal	t0,504 <__riscv_save_4>
    8f7e:	1141                	addi	sp,sp,-16
    8f80:	84ae                	mv	s1,a1
    8f82:	47a5                	li	a5,9
    8f84:	c9b1                	beqz	a1,8fd8 <OD_write_14xx+0x62>
    8f86:	caa9                	beqz	a3,8fd8 <OD_write_14xx+0x62>
    8f88:	4711                	li	a4,4
    8f8a:	8a32                	mv	s4,a2
    8f8c:	04c76663          	bltu	a4,a2,8fd8 <OD_write_14xx+0x62>
    8f90:	89aa                	mv	s3,a0
    8f92:	4140                	lw	s0,4(a0)
    8f94:	0028                	addi	a0,sp,8
    8f96:	8ab6                	mv	s5,a3
    8f98:	5b2020ef          	jal	ra,b54a <memcpy>
    8f9c:	0149c783          	lbu	a5,20(s3)
    8fa0:	4709                	li	a4,2
    8fa2:	10e78063          	beq	a5,a4,90a2 <OD_write_14xx+0x12c>
    8fa6:	4715                	li	a4,5
    8fa8:	10e78363          	beq	a5,a4,90ae <OD_write_14xx+0x138>
    8fac:	4705                	li	a4,1
    8fae:	0ce79b63          	bne	a5,a4,9084 <OD_write_14xx+0x10e>
    8fb2:	85a6                	mv	a1,s1
    8fb4:	4611                	li	a2,4
    8fb6:	0068                	addi	a0,sp,12
    8fb8:	592020ef          	jal	ra,b54a <memcpy>
    8fbc:	4932                	lw	s2,12(sp)
    8fbe:	400007b7          	lui	a5,0x40000
    8fc2:	80078793          	addi	a5,a5,-2048 # 3ffff800 <__freertos_irq_stack_top+0x1fffa800>
    8fc6:	01091713          	slli	a4,s2,0x10
    8fca:	8341                	srli	a4,a4,0x10
    8fcc:	00f977b3          	and	a5,s2,a5
    8fd0:	7ff77493          	andi	s1,a4,2047
    8fd4:	c791                	beqz	a5,8fe0 <OD_write_14xx+0x6a>
    8fd6:	47bd                	li	a5,15
    8fd8:	853e                	mv	a0,a5
    8fda:	0141                	addi	sp,sp,16
    8fdc:	d5cf706f          	j	538 <__riscv_restore_4>
    8fe0:	4414                	lw	a3,8(s0)
    8fe2:	04094963          	bltz	s2,9034 <OD_write_14xx+0xbe>
    8fe6:	c689                	beqz	a3,8ff0 <OD_write_14xx+0x7a>
    8fe8:	14445783          	lhu	a5,324(s0)
    8fec:	fe9795e3          	bne	a5,s1,8fd6 <OD_write_14xx+0x60>
    8ff0:	78077713          	andi	a4,a4,1920
    8ff4:	d36d                	beqz	a4,8fd6 <OD_write_14xx+0x60>
    8ff6:	eff48793          	addi	a5,s1,-257
    8ffa:	07c2                	slli	a5,a5,0x10
    8ffc:	83c1                	srli	a5,a5,0x10
    8ffe:	07f00713          	li	a4,127
    9002:	fcf77ae3          	bgeu	a4,a5,8fd6 <OD_write_14xx+0x60>
    9006:	a7f48793          	addi	a5,s1,-1409
    900a:	f7f7f793          	andi	a5,a5,-129
    900e:	07c2                	slli	a5,a5,0x10
    9010:	83c1                	srli	a5,a5,0x10
    9012:	07e00713          	li	a4,126
    9016:	fcf770e3          	bgeu	a4,a5,8fd6 <OD_write_14xx+0x60>
    901a:	92048793          	addi	a5,s1,-1760
    901e:	07c2                	slli	a5,a5,0x10
    9020:	83c1                	srli	a5,a5,0x10
    9022:	477d                	li	a4,31
    9024:	faf779e3          	bgeu	a4,a5,8fd6 <OD_write_14xx+0x60>
    9028:	70000793          	li	a5,1792
    902c:	fa97e5e3          	bltu	a5,s1,8fd6 <OD_write_14xx+0x60>
    9030:	345c                	lbu	a5,13(s0)
    9032:	d3d5                	beqz	a5,8fd6 <OD_write_14xx+0x60>
    9034:	fff94793          	not	a5,s2
    9038:	83fd                	srli	a5,a5,0x1f
    903a:	00d79663          	bne	a5,a3,9046 <OD_write_14xx+0xd0>
    903e:	14445783          	lhu	a5,324(s0)
    9042:	04978163          	beq	a5,s1,9084 <OD_write_14xx+0x10e>
    9046:	14245783          	lhu	a5,322(s0)
    904a:	00979563          	bne	a5,s1,9054 <OD_write_14xx+0xde>
    904e:	f8097793          	andi	a5,s2,-128
    9052:	c43e                	sw	a5,8(sp)
    9054:	00095363          	bgez	s2,905a <OD_write_14xx+0xe4>
    9058:	4481                	li	s1,0
    905a:	14045583          	lhu	a1,320(s0)
    905e:	4048                	lw	a0,4(s0)
    9060:	00009837          	lui	a6,0x9
    9064:	ba080813          	addi	a6,a6,-1120 # 8ba0 <CO_PDO_receive>
    9068:	87a2                	mv	a5,s0
    906a:	4701                	li	a4,0
    906c:	7ff00693          	li	a3,2047
    9070:	8626                	mv	a2,s1
    9072:	ba9fe0ef          	jal	ra,7c1a <CO_CANrxBufferInit>
    9076:	00094f63          	bltz	s2,9094 <OD_write_14xx+0x11e>
    907a:	ed09                	bnez	a0,9094 <OD_write_14xx+0x11e>
    907c:	4785                	li	a5,1
    907e:	c41c                	sw	a5,8(s0)
    9080:	14941223          	sh	s1,324(s0)
    9084:	86d6                	mv	a3,s5
    9086:	8652                	mv	a2,s4
    9088:	002c                	addi	a1,sp,8
    908a:	854e                	mv	a0,s3
    908c:	f62ff0ef          	jal	ra,87ee <OD_writeOriginal>
    9090:	87aa                	mv	a5,a0
    9092:	b799                	j	8fd8 <OD_write_14xx+0x62>
    9094:	00042423          	sw	zero,8(s0)
    9098:	16042423          	sw	zero,360(s0)
    909c:	47a5                	li	a5,9
    909e:	d17d                	beqz	a0,9084 <OD_write_14xx+0x10e>
    90a0:	bf25                	j	8fd8 <OD_write_14xx+0x62>
    90a2:	2098                	lbu	a4,0(s1)
    90a4:	0fd00793          	li	a5,253
    90a8:	fce7eee3          	bltu	a5,a4,9084 <OD_write_14xx+0x10e>
    90ac:	b72d                	j	8fd6 <OD_write_14xx+0x60>
    90ae:	209c                	lbu	a5,0(s1)
    90b0:	3e800713          	li	a4,1000
    90b4:	865c                	sb	a5,12(sp)
    90b6:	309c                	lbu	a5,1(s1)
    90b8:	16042e23          	sw	zero,380(s0)
    90bc:	86dc                	sb	a5,13(sp)
    90be:	863c                	lhu	a5,12(sp)
    90c0:	02e787b3          	mul	a5,a5,a4
    90c4:	16f42c23          	sw	a5,376(s0)
    90c8:	bf75                	j	9084 <OD_write_14xx+0x10e>
    90ca:	47a5                	li	a5,9
    90cc:	853e                	mv	a0,a5
    90ce:	8082                	ret

000090d0 <CO_RPDO_init>:
    90d0:	c26f72ef          	jal	t0,4f6 <__riscv_save_10>
    90d4:	1141                	addi	sp,sp,-16
    90d6:	4986                	lw	s3,64(sp)
    90d8:	54fd                	li	s1,-1
    90da:	c52d                	beqz	a0,9144 <CO_RPDO_init+0x74>
    90dc:	c5a5                	beqz	a1,9144 <CO_RPDO_init+0x74>
    90de:	c23d                	beqz	a2,9144 <CO_RPDO_init+0x74>
    90e0:	c335                	beqz	a4,9144 <CO_RPDO_init+0x74>
    90e2:	c3ad                	beqz	a5,9144 <CO_RPDO_init+0x74>
    90e4:	06080063          	beqz	a6,9144 <CO_RPDO_init+0x74>
    90e8:	84b2                	mv	s1,a2
    90ea:	8b2e                	mv	s6,a1
    90ec:	18000613          	li	a2,384
    90f0:	4581                	li	a1,0
    90f2:	842a                	mv	s0,a0
    90f4:	8bc2                	mv	s7,a6
    90f6:	8a3e                	mv	s4,a5
    90f8:	8c46                	mv	s8,a7
    90fa:	893a                	mv	s2,a4
    90fc:	8ab6                	mv	s5,a3
    90fe:	c50f70ef          	jal	ra,54e <memset>
    9102:	003c                	addi	a5,sp,8
    9104:	c004                	sw	s1,0(s0)
    9106:	01742223          	sw	s7,4(s0)
    910a:	874e                	mv	a4,s3
    910c:	4685                	li	a3,1
    910e:	8652                	mv	a2,s4
    9110:	85da                	mv	a1,s6
    9112:	8522                	mv	a0,s0
    9114:	c402                	sw	zero,8(sp)
    9116:	b43ff0ef          	jal	ra,8c58 <PDO_initMapping.constprop.3>
    911a:	84aa                	mv	s1,a0
    911c:	e505                	bnez	a0,9144 <CO_RPDO_init+0x74>
    911e:	4705                	li	a4,1
    9120:	4691                	li	a3,4
    9122:	0070                	addi	a2,sp,12
    9124:	4585                	li	a1,1
    9126:	854a                	mv	a0,s2
    9128:	c602                	sw	zero,12(sp)
    912a:	8a3ff0ef          	jal	ra,89cc <OD_get_value>
    912e:	cd19                	beqz	a0,914c <CO_RPDO_init+0x7c>
    9130:	54d1                	li	s1,-12
    9132:	00098963          	beqz	s3,9144 <CO_RPDO_init+0x74>
    9136:	00095783          	lhu	a5,0(s2)
    913a:	07a2                	slli	a5,a5,0x8
    913c:	0017e793          	ori	a5,a5,1
    9140:	00f9a023          	sw	a5,0(s3)
    9144:	8526                	mv	a0,s1
    9146:	0141                	addi	sp,sp,16
    9148:	be6f706f          	j	52e <__riscv_restore_10>
    914c:	47b2                	lw	a5,12(sp)
    914e:	4c81                	li	s9,0
    9150:	7ff7f993          	andi	s3,a5,2047
    9154:	0007cc63          	bltz	a5,916c <CO_RPDO_init+0x9c>
    9158:	3458                	lbu	a4,13(s0)
    915a:	c701                	beqz	a4,9162 <CO_RPDO_init+0x92>
    915c:	4c85                	li	s9,1
    915e:	00099763          	bnez	s3,916c <CO_RPDO_init+0x9c>
    9162:	4722                	lw	a4,8(sp)
    9164:	4c81                	li	s9,0
    9166:	e319                	bnez	a4,916c <CO_RPDO_init+0x9c>
    9168:	4705                	li	a4,1
    916a:	c43a                	sw	a4,8(sp)
    916c:	4722                	lw	a4,8(sp)
    916e:	cf09                	beqz	a4,9188 <CO_RPDO_init+0xb8>
    9170:	4685                	li	a3,1
    9172:	4008                	lw	a0,0(s0)
    9174:	00d71363          	bne	a4,a3,917a <CO_RPDO_init+0xaa>
    9178:	873e                	mv	a4,a5
    917a:	66a1                	lui	a3,0x8
    917c:	20068693          	addi	a3,a3,512 # 8200 <CO_EM_init+0x10>
    9180:	4669                	li	a2,26
    9182:	4585                	li	a1,1
    9184:	97eff0ef          	jal	ra,8302 <CO_error>
    9188:	0a0c8b63          	beqz	s9,923e <CO_RPDO_init+0x16e>
    918c:	00098763          	beqz	s3,919a <CO_RPDO_init+0xca>
    9190:	f80af793          	andi	a5,s5,-128
    9194:	00f99363          	bne	s3,a5,919a <CO_RPDO_init+0xca>
    9198:	89d6                	mv	s3,s5
    919a:	00009837          	lui	a6,0x9
    919e:	ba080813          	addi	a6,a6,-1120 # 8ba0 <CO_PDO_receive>
    91a2:	87a2                	mv	a5,s0
    91a4:	4701                	li	a4,0
    91a6:	7ff00693          	li	a3,2047
    91aa:	864e                	mv	a2,s3
    91ac:	85e2                	mv	a1,s8
    91ae:	855e                	mv	a0,s7
    91b0:	a6bfe0ef          	jal	ra,7c1a <CO_CANrxBufferInit>
    91b4:	84aa                	mv	s1,a0
    91b6:	f559                	bnez	a0,9144 <CO_RPDO_init+0x74>
    91b8:	01942423          	sw	s9,8(s0)
    91bc:	4705                	li	a4,1
    91be:	4689                	li	a3,2
    91c0:	00610613          	addi	a2,sp,6
    91c4:	4595                	li	a1,5
    91c6:	854a                	mv	a0,s2
    91c8:	00011323          	sh	zero,6(sp)
    91cc:	801ff0ef          	jal	ra,89cc <OD_get_value>
    91d0:	833c                	lhu	a5,6(sp)
    91d2:	3e800713          	li	a4,1000
    91d6:	13642e23          	sw	s6,316(s0)
    91da:	02e787b3          	mul	a5,a5,a4
    91de:	15841023          	sh	s8,320(s0)
    91e2:	15541123          	sh	s5,322(s0)
    91e6:	15341223          	sh	s3,324(s0)
    91ea:	14842423          	sw	s0,328(s0)
    91ee:	14842c23          	sw	s0,344(s0)
    91f2:	16f42c23          	sw	a5,376(s0)
    91f6:	4785                	li	a5,1
    91f8:	12f42c23          	sw	a5,312(s0)
    91fc:	000097b7          	lui	a5,0x9
    9200:	be878793          	addi	a5,a5,-1048 # 8be8 <OD_read_PDO_commParam>
    9204:	14f42623          	sw	a5,332(s0)
    9208:	000097b7          	lui	a5,0x9
    920c:	f7678793          	addi	a5,a5,-138 # 8f76 <OD_write_14xx>
    9210:	14f42823          	sw	a5,336(s0)
    9214:	000087b7          	lui	a5,0x8
    9218:	79e78793          	addi	a5,a5,1950 # 879e <OD_readOriginal>
    921c:	14f42e23          	sw	a5,348(s0)
    9220:	000097b7          	lui	a5,0x9
    9224:	d3e78793          	addi	a5,a5,-706 # 8d3e <OD_write_PDO_mapping>
    9228:	16f42023          	sw	a5,352(s0)
    922c:	14840793          	addi	a5,s0,328
    9230:	00f92423          	sw	a5,8(s2)
    9234:	15840413          	addi	s0,s0,344
    9238:	008a2423          	sw	s0,8(s4)
    923c:	b721                	j	9144 <CO_RPDO_init+0x74>
    923e:	4981                	li	s3,0
    9240:	bfa9                	j	919a <CO_RPDO_init+0xca>

00009242 <CO_RPDO_process>:
    9242:	451c                	lw	a5,8(a0)
    9244:	10078463          	beqz	a5,934c <CO_RPDO_process+0x10a>
    9248:	10068263          	beqz	a3,934c <CO_RPDO_process+0x10a>
    924c:	aaaf72ef          	jal	t0,4f6 <__riscv_save_10>
    9250:	17454783          	lbu	a5,372(a0)
    9254:	4729                	li	a4,10
    9256:	1141                	addi	sp,sp,-16
    9258:	89ae                	mv	s3,a1
    925a:	842a                	mv	s0,a0
    925c:	02f77463          	bgeu	a4,a5,9284 <CO_RPDO_process+0x42>
    9260:	ff578493          	addi	s1,a5,-11
    9264:	4731                	li	a4,12
    9266:	009034b3          	snez	s1,s1
    926a:	66a1                	lui	a3,0x8
    926c:	00e78f63          	beq	a5,a4,928a <CO_RPDO_process+0x48>
    9270:	22068693          	addi	a3,a3,544 # 8220 <CO_EM_init+0x30>
    9274:	2458                	lbu	a4,12(s0)
    9276:	4008                	lw	a0,0(s0)
    9278:	4611                	li	a2,4
    927a:	85a6                	mv	a1,s1
    927c:	886ff0ef          	jal	ra,8302 <CO_error>
    9280:	16940a23          	sb	s1,372(s0)
    9284:	4b81                	li	s7,0
    9286:	4c21                	li	s8,8
    9288:	a829                	j	92a2 <CO_RPDO_process+0x60>
    928a:	21068693          	addi	a3,a3,528
    928e:	b7dd                	j	9274 <CO_RPDO_process+0x32>
    9290:	16c40a13          	addi	s4,s0,364
    9294:	16042423          	sw	zero,360(s0)
    9298:	4481                	li	s1,0
    929a:	4b85                	li	s7,1
    929c:	345c                	lbu	a5,13(s0)
    929e:	02f4ea63          	bltu	s1,a5,92d2 <CO_RPDO_process+0x90>
    92a2:	16842783          	lw	a5,360(s0)
    92a6:	f7ed                	bnez	a5,9290 <CO_RPDO_process+0x4e>
    92a8:	17842783          	lw	a5,376(s0)
    92ac:	c385                	beqz	a5,92cc <CO_RPDO_process+0x8a>
    92ae:	17c42703          	lw	a4,380(s0)
    92b2:	060b8c63          	beqz	s7,932a <CO_RPDO_process+0xe8>
    92b6:	00e7f863          	bgeu	a5,a4,92c6 <CO_RPDO_process+0x84>
    92ba:	4008                	lw	a0,0(s0)
    92bc:	4681                	li	a3,0
    92be:	465d                	li	a2,23
    92c0:	4581                	li	a1,0
    92c2:	840ff0ef          	jal	ra,8302 <CO_error>
    92c6:	4785                	li	a5,1
    92c8:	16f42e23          	sw	a5,380(s0)
    92cc:	0141                	addi	sp,sp,16
    92ce:	a60f706f          	j	52e <__riscv_restore_10>
    92d2:	00549913          	slli	s2,s1,0x5
    92d6:	012407b3          	add	a5,s0,s2
    92da:	0187ab03          	lw	s6,24(a5)
    92de:	016c7363          	bgeu	s8,s6,92e4 <CO_RPDO_process+0xa2>
    92e2:	4b21                	li	s6,8
    92e4:	012407b3          	add	a5,s0,s2
    92e8:	01c7ca83          	lbu	s5,28(a5)
    92ec:	85d2                	mv	a1,s4
    92ee:	016af963          	bgeu	s5,s6,9300 <CO_RPDO_process+0xbe>
    92f2:	8656                	mv	a2,s5
    92f4:	0028                	addi	a0,sp,8
    92f6:	c402                	sw	zero,8(sp)
    92f8:	c602                	sw	zero,12(sp)
    92fa:	250020ef          	jal	ra,b54a <memcpy>
    92fe:	002c                	addi	a1,sp,8
    9300:	00549513          	slli	a0,s1,0x5
    9304:	0485                	addi	s1,s1,1
    9306:	9922                	add	s2,s2,s0
    9308:	00549793          	slli	a5,s1,0x5
    930c:	00092e23          	sw	zero,28(s2)
    9310:	97a2                	add	a5,a5,s0
    9312:	47dc                	lw	a5,12(a5)
    9314:	0541                	addi	a0,a0,16
    9316:	0054                	addi	a3,sp,4
    9318:	865a                	mv	a2,s6
    931a:	9522                	add	a0,a0,s0
    931c:	9782                	jalr	a5
    931e:	9a56                	add	s4,s4,s5
    9320:	01592e23          	sw	s5,28(s2)
    9324:	0ff4f493          	andi	s1,s1,255
    9328:	bf95                	j	929c <CO_RPDO_process+0x5a>
    932a:	d34d                	beqz	a4,92cc <CO_RPDO_process+0x8a>
    932c:	faf770e3          	bgeu	a4,a5,92cc <CO_RPDO_process+0x8a>
    9330:	974e                	add	a4,a4,s3
    9332:	16e42e23          	sw	a4,380(s0)
    9336:	f8e7fbe3          	bgeu	a5,a4,92cc <CO_RPDO_process+0x8a>
    933a:	4008                	lw	a0,0(s0)
    933c:	66a1                	lui	a3,0x8
    933e:	25068693          	addi	a3,a3,592 # 8250 <CO_EM_init+0x60>
    9342:	465d                	li	a2,23
    9344:	4585                	li	a1,1
    9346:	fbdfe0ef          	jal	ra,8302 <CO_error>
    934a:	b749                	j	92cc <CO_RPDO_process+0x8a>
    934c:	16052423          	sw	zero,360(a0)
    9350:	16052e23          	sw	zero,380(a0)
    9354:	8082                	ret

00009356 <CO_TPDO_init>:
    9356:	9a0f72ef          	jal	t0,4f6 <__riscv_save_10>
    935a:	1141                	addi	sp,sp,-16
    935c:	4906                	lw	s2,64(sp)
    935e:	e511                	bnez	a0,936a <CO_TPDO_init+0x14>
    9360:	59fd                	li	s3,-1
    9362:	854e                	mv	a0,s3
    9364:	0141                	addi	sp,sp,16
    9366:	9c8f706f          	j	52e <__riscv_restore_10>
    936a:	d9fd                	beqz	a1,9360 <CO_TPDO_init+0xa>
    936c:	da75                	beqz	a2,9360 <CO_TPDO_init+0xa>
    936e:	db6d                	beqz	a4,9360 <CO_TPDO_init+0xa>
    9370:	dbe5                	beqz	a5,9360 <CO_TPDO_init+0xa>
    9372:	fe0807e3          	beqz	a6,9360 <CO_TPDO_init+0xa>
    9376:	89b2                	mv	s3,a2
    9378:	8b2e                	mv	s6,a1
    937a:	18400613          	li	a2,388
    937e:	4581                	li	a1,0
    9380:	842a                	mv	s0,a0
    9382:	8bc2                	mv	s7,a6
    9384:	8a3e                	mv	s4,a5
    9386:	8c46                	mv	s8,a7
    9388:	84ba                	mv	s1,a4
    938a:	8ab6                	mv	s5,a3
    938c:	9c2f70ef          	jal	ra,54e <memset>
    9390:	003c                	addi	a5,sp,8
    9392:	01342023          	sw	s3,0(s0)
    9396:	01742223          	sw	s7,4(s0)
    939a:	874a                	mv	a4,s2
    939c:	4681                	li	a3,0
    939e:	8652                	mv	a2,s4
    93a0:	85da                	mv	a1,s6
    93a2:	8522                	mv	a0,s0
    93a4:	c402                	sw	zero,8(sp)
    93a6:	8b3ff0ef          	jal	ra,8c58 <PDO_initMapping.constprop.3>
    93aa:	89aa                	mv	s3,a0
    93ac:	f95d                	bnez	a0,9362 <CO_TPDO_init+0xc>
    93ae:	5cf9                	li	s9,-2
    93b0:	4705                	li	a4,1
    93b2:	4685                	li	a3,1
    93b4:	00310613          	addi	a2,sp,3
    93b8:	4589                	li	a1,2
    93ba:	8526                	mv	a0,s1
    93bc:	019101a3          	sb	s9,3(sp)
    93c0:	e0cff0ef          	jal	ra,89cc <OD_get_value>
    93c4:	cd01                	beqz	a0,93dc <CO_TPDO_init+0x86>
    93c6:	00091463          	bnez	s2,93ce <CO_TPDO_init+0x78>
    93ca:	59d1                	li	s3,-12
    93cc:	bf59                	j	9362 <CO_TPDO_init+0xc>
    93ce:	209e                	lhu	a5,0(s1)
    93d0:	07a2                	slli	a5,a5,0x8
    93d2:	0027e793          	ori	a5,a5,2
    93d6:	00f92023          	sw	a5,0(s2)
    93da:	bfc5                	j	93ca <CO_TPDO_init+0x74>
    93dc:	8198                	lbu	a4,3(sp)
    93de:	0fd00793          	li	a5,253
    93e2:	00e7e463          	bltu	a5,a4,93ea <CO_TPDO_init+0x94>
    93e6:	019101a3          	sb	s9,3(sp)
    93ea:	819c                	lbu	a5,3(sp)
    93ec:	4705                	li	a4,1
    93ee:	4691                	li	a3,4
    93f0:	16f40623          	sb	a5,364(s0)
    93f4:	4785                	li	a5,1
    93f6:	16f42823          	sw	a5,368(s0)
    93fa:	0070                	addi	a2,sp,12
    93fc:	4585                	li	a1,1
    93fe:	8526                	mv	a0,s1
    9400:	c602                	sw	zero,12(sp)
    9402:	dcaff0ef          	jal	ra,89cc <OD_get_value>
    9406:	c901                	beqz	a0,9416 <CO_TPDO_init+0xc0>
    9408:	fc0901e3          	beqz	s2,93ca <CO_TPDO_init+0x74>
    940c:	209e                	lhu	a5,0(s1)
    940e:	07a2                	slli	a5,a5,0x8
    9410:	0017e793          	ori	a5,a5,1
    9414:	b7c9                	j	93d6 <CO_TPDO_init+0x80>
    9416:	47b2                	lw	a5,12(sp)
    9418:	4c81                	li	s9,0
    941a:	7ff7f913          	andi	s2,a5,2047
    941e:	0007cc63          	bltz	a5,9436 <CO_TPDO_init+0xe0>
    9422:	3458                	lbu	a4,13(s0)
    9424:	c701                	beqz	a4,942c <CO_TPDO_init+0xd6>
    9426:	4c85                	li	s9,1
    9428:	00091763          	bnez	s2,9436 <CO_TPDO_init+0xe0>
    942c:	4722                	lw	a4,8(sp)
    942e:	4c81                	li	s9,0
    9430:	e319                	bnez	a4,9436 <CO_TPDO_init+0xe0>
    9432:	4705                	li	a4,1
    9434:	c43a                	sw	a4,8(sp)
    9436:	4722                	lw	a4,8(sp)
    9438:	cf09                	beqz	a4,9452 <CO_TPDO_init+0xfc>
    943a:	4685                	li	a3,1
    943c:	4008                	lw	a0,0(s0)
    943e:	00d71363          	bne	a4,a3,9444 <CO_TPDO_init+0xee>
    9442:	873e                	mv	a4,a5
    9444:	66a1                	lui	a3,0x8
    9446:	20068693          	addi	a3,a3,512 # 8200 <CO_EM_init+0x10>
    944a:	4669                	li	a2,26
    944c:	4585                	li	a1,1
    944e:	eb5fe0ef          	jal	ra,8302 <CO_error>
    9452:	0c0c8963          	beqz	s9,9524 <CO_TPDO_init+0x1ce>
    9456:	00090763          	beqz	s2,9464 <CO_TPDO_init+0x10e>
    945a:	f80af793          	andi	a5,s5,-128
    945e:	00f91363          	bne	s2,a5,9464 <CO_TPDO_init+0x10e>
    9462:	8956                	mv	s2,s5
    9464:	16c44783          	lbu	a5,364(s0)
    9468:	2458                	lbu	a4,12(s0)
    946a:	4681                	li	a3,0
    946c:	0f17b793          	sltiu	a5,a5,241
    9470:	864a                	mv	a2,s2
    9472:	85e2                	mv	a1,s8
    9474:	855e                	mv	a0,s7
    9476:	ff6fe0ef          	jal	ra,7c6c <CO_CANtxBufferInit>
    947a:	16a42423          	sw	a0,360(s0)
    947e:	ee0501e3          	beqz	a0,9360 <CO_TPDO_init+0xa>
    9482:	01942423          	sw	s9,8(s0)
    9486:	4705                	li	a4,1
    9488:	4689                	li	a3,2
    948a:	0050                	addi	a2,sp,4
    948c:	458d                	li	a1,3
    948e:	8526                	mv	a0,s1
    9490:	00011223          	sh	zero,4(sp)
    9494:	00011323          	sh	zero,6(sp)
    9498:	d34ff0ef          	jal	ra,89cc <OD_get_value>
    949c:	4705                	li	a4,1
    949e:	4689                	li	a3,2
    94a0:	00610613          	addi	a2,sp,6
    94a4:	4595                	li	a1,5
    94a6:	8526                	mv	a0,s1
    94a8:	d24ff0ef          	jal	ra,89cc <OD_get_value>
    94ac:	823c                	lhu	a5,4(sp)
    94ae:	06400713          	li	a4,100
    94b2:	12042c23          	sw	zero,312(s0)
    94b6:	02e787b3          	mul	a5,a5,a4
    94ba:	3e800713          	li	a4,1000
    94be:	13642e23          	sw	s6,316(s0)
    94c2:	15841023          	sh	s8,320(s0)
    94c6:	15541123          	sh	s5,322(s0)
    94ca:	15241223          	sh	s2,324(s0)
    94ce:	14842423          	sw	s0,328(s0)
    94d2:	14842c23          	sw	s0,344(s0)
    94d6:	16f42a23          	sw	a5,372(s0)
    94da:	833c                	lhu	a5,6(sp)
    94dc:	02e787b3          	mul	a5,a5,a4
    94e0:	16f42c23          	sw	a5,376(s0)
    94e4:	000097b7          	lui	a5,0x9
    94e8:	be878793          	addi	a5,a5,-1048 # 8be8 <OD_read_PDO_commParam>
    94ec:	14f42623          	sw	a5,332(s0)
    94f0:	000097b7          	lui	a5,0x9
    94f4:	df278793          	addi	a5,a5,-526 # 8df2 <OD_write_18xx>
    94f8:	14f42823          	sw	a5,336(s0)
    94fc:	000087b7          	lui	a5,0x8
    9500:	79e78793          	addi	a5,a5,1950 # 879e <OD_readOriginal>
    9504:	14f42e23          	sw	a5,348(s0)
    9508:	000097b7          	lui	a5,0x9
    950c:	d3e78793          	addi	a5,a5,-706 # 8d3e <OD_write_PDO_mapping>
    9510:	16f42023          	sw	a5,352(s0)
    9514:	14840793          	addi	a5,s0,328
    9518:	c49c                	sw	a5,8(s1)
    951a:	15840413          	addi	s0,s0,344
    951e:	008a2423          	sw	s0,8(s4)
    9522:	b581                	j	9362 <CO_TPDO_init+0xc>
    9524:	4901                	li	s2,0
    9526:	bf3d                	j	9464 <CO_TPDO_init+0x10e>

00009528 <CO_TPDO_process>:
    9528:	451c                	lw	a5,8(a0)
    952a:	14078563          	beqz	a5,9674 <CO_TPDO_process+0x14c>
    952e:	14068363          	beqz	a3,9674 <CO_TPDO_process+0x14c>
    9532:	16c54603          	lbu	a2,364(a0)
    9536:	0fc00713          	li	a4,252
    953a:	fff60793          	addi	a5,a2,-1
    953e:	0ff7f793          	andi	a5,a5,255
    9542:	14f77163          	bgeu	a4,a5,9684 <CO_TPDO_process+0x15c>
    9546:	17852783          	lw	a5,376(a0)
    954a:	cfb5                	beqz	a5,95c6 <CO_TPDO_process+0x9e>
    954c:	18052783          	lw	a5,384(a0)
    9550:	06f5e863          	bltu	a1,a5,95c0 <CO_TPDO_process+0x98>
    9554:	18052023          	sw	zero,384(a0)
    9558:	4785                	li	a5,1
    955a:	16f52823          	sw	a5,368(a0)
    955e:	0fd00793          	li	a5,253
    9562:	12c7f163          	bgeu	a5,a2,9684 <CO_TPDO_process+0x15c>
    9566:	17c52703          	lw	a4,380(a0)
    956a:	4781                	li	a5,0
    956c:	00e5f463          	bgeu	a1,a4,9574 <CO_TPDO_process+0x4c>
    9570:	40b707b3          	sub	a5,a4,a1
    9574:	17052703          	lw	a4,368(a0)
    9578:	16f52e23          	sw	a5,380(a0)
    957c:	10070463          	beqz	a4,9684 <CO_TPDO_process+0x15c>
    9580:	10079263          	bnez	a5,9684 <CO_TPDO_process+0x15c>
    9584:	f73f62ef          	jal	t0,4f6 <__riscv_save_10>
    9588:	16852983          	lw	s3,360(a0)
    958c:	1141                	addi	sp,sp,-16
    958e:	842a                	mv	s0,a0
    9590:	0995                	addi	s3,s3,5
    9592:	4481                	li	s1,0
    9594:	4b21                	li	s6,8
    9596:	345c                	lbu	a5,13(s0)
    9598:	06f4e263          	bltu	s1,a5,95fc <CO_TPDO_process+0xd4>
    959c:	17842783          	lw	a5,376(s0)
    95a0:	16842583          	lw	a1,360(s0)
    95a4:	4048                	lw	a0,4(s0)
    95a6:	18f42023          	sw	a5,384(s0)
    95aa:	17442783          	lw	a5,372(s0)
    95ae:	16042823          	sw	zero,368(s0)
    95b2:	16f42e23          	sw	a5,380(s0)
    95b6:	f02fe0ef          	jal	ra,7cb8 <CO_CANsend>
    95ba:	0141                	addi	sp,sp,16
    95bc:	f73f606f          	j	52e <__riscv_restore_10>
    95c0:	8f8d                	sub	a5,a5,a1
    95c2:	18f52023          	sw	a5,384(a0)
    95c6:	17052783          	lw	a5,368(a0)
    95ca:	fbd1                	bnez	a5,955e <CO_TPDO_process+0x36>
    95cc:	00d54883          	lbu	a7,13(a0)
    95d0:	11050713          	addi	a4,a0,272
    95d4:	0ff7f693          	andi	a3,a5,255
    95d8:	f916f3e3          	bgeu	a3,a7,955e <CO_TPDO_process+0x36>
    95dc:	00072803          	lw	a6,0(a4)
    95e0:	00080b63          	beqz	a6,95f6 <CO_TPDO_process+0xce>
    95e4:	00f506b3          	add	a3,a0,a5
    95e8:	1306c683          	lbu	a3,304(a3)
    95ec:	00084803          	lbu	a6,0(a6)
    95f0:	0106f6b3          	and	a3,a3,a6
    95f4:	d2b5                	beqz	a3,9558 <CO_TPDO_process+0x30>
    95f6:	0785                	addi	a5,a5,1
    95f8:	0711                	addi	a4,a4,4
    95fa:	bfe9                	j	95d4 <CO_TPDO_process+0xac>
    95fc:	00549793          	slli	a5,s1,0x5
    9600:	00f40733          	add	a4,s0,a5
    9604:	01872a83          	lw	s5,24(a4)
    9608:	01078513          	addi	a0,a5,16
    960c:	9522                	add	a0,a0,s0
    960e:	015b7363          	bgeu	s6,s5,9614 <CO_TPDO_process+0xec>
    9612:	4aa1                	li	s5,8
    9614:	00f40733          	add	a4,s0,a5
    9618:	01c74a03          	lbu	s4,28(a4)
    961c:	85ce                	mv	a1,s3
    961e:	015a7563          	bgeu	s4,s5,9628 <CO_TPDO_process+0x100>
    9622:	c402                	sw	zero,8(sp)
    9624:	c602                	sw	zero,12(sp)
    9626:	002c                	addi	a1,sp,8
    9628:	00148b93          	addi	s7,s1,1
    962c:	00f40933          	add	s2,s0,a5
    9630:	005b9793          	slli	a5,s7,0x5
    9634:	00092e23          	sw	zero,28(s2)
    9638:	97a2                	add	a5,a5,s0
    963a:	479c                	lw	a5,8(a5)
    963c:	0054                	addi	a3,sp,4
    963e:	8656                	mv	a2,s5
    9640:	9782                	jalr	a5
    9642:	01492e23          	sw	s4,28(s2)
    9646:	015a7763          	bgeu	s4,s5,9654 <CO_TPDO_process+0x12c>
    964a:	8652                	mv	a2,s4
    964c:	002c                	addi	a1,sp,8
    964e:	854e                	mv	a0,s3
    9650:	6fb010ef          	jal	ra,b54a <memcpy>
    9654:	04448793          	addi	a5,s1,68
    9658:	078a                	slli	a5,a5,0x2
    965a:	97a2                	add	a5,a5,s0
    965c:	439c                	lw	a5,0(a5)
    965e:	c799                	beqz	a5,966c <CO_TPDO_process+0x144>
    9660:	94a2                	add	s1,s1,s0
    9662:	2398                	lbu	a4,0(a5)
    9664:	1304c683          	lbu	a3,304(s1)
    9668:	8f55                	or	a4,a4,a3
    966a:	a398                	sb	a4,0(a5)
    966c:	99d2                	add	s3,s3,s4
    966e:	0ffbf493          	andi	s1,s7,255
    9672:	b715                	j	9596 <CO_TPDO_process+0x6e>
    9674:	4785                	li	a5,1
    9676:	16f52823          	sw	a5,368(a0)
    967a:	18052023          	sw	zero,384(a0)
    967e:	16052e23          	sw	zero,380(a0)
    9682:	8082                	ret
    9684:	8082                	ret

00009686 <CO_SDOserver_init_canRxTx>:
    9686:	e7ff62ef          	jal	t0,504 <__riscv_save_4>
    968a:	842a                	mv	s0,a0
    968c:	89b6                	mv	s3,a3
    968e:	4834                	lw	a3,80(s0)
    9690:	852e                	mv	a0,a1
    9692:	85b2                	mv	a1,a2
    9694:	00e69663          	bne	a3,a4,96a0 <CO_SDOserver_init_canRxTx+0x1a>
    9698:	4874                	lw	a3,84(s0)
    969a:	4901                	li	s2,0
    969c:	06f68163          	beq	a3,a5,96fe <CO_SDOserver_init_canRxTx+0x78>
    96a0:	c838                	sw	a4,80(s0)
    96a2:	c87c                	sw	a5,84(s0)
    96a4:	00075363          	bgez	a4,96aa <CO_SDOserver_init_canRxTx+0x24>
    96a8:	4701                	li	a4,0
    96aa:	0007ce63          	bltz	a5,96c6 <CO_SDOserver_init_canRxTx+0x40>
    96ae:	01071613          	slli	a2,a4,0x10
    96b2:	8241                	srli	a2,a2,0x10
    96b4:	ca21                	beqz	a2,9704 <CO_SDOserver_init_canRxTx+0x7e>
    96b6:	01079493          	slli	s1,a5,0x10
    96ba:	80c1                	srli	s1,s1,0x10
    96bc:	4785                	li	a5,1
    96be:	e499                	bnez	s1,96cc <CO_SDOserver_init_canRxTx+0x46>
    96c0:	4601                	li	a2,0
    96c2:	4781                	li	a5,0
    96c4:	a021                	j	96cc <CO_SDOserver_init_canRxTx+0x46>
    96c6:	4781                	li	a5,0
    96c8:	4481                	li	s1,0
    96ca:	4601                	li	a2,0
    96cc:	00009837          	lui	a6,0x9
    96d0:	c81c                	sw	a5,16(s0)
    96d2:	70880813          	addi	a6,a6,1800 # 9708 <CO_SDO_receive>
    96d6:	87a2                	mv	a5,s0
    96d8:	4701                	li	a4,0
    96da:	7ff00693          	li	a3,2047
    96de:	d3cfe0ef          	jal	ra,7c1a <CO_CANrxBufferInit>
    96e2:	892a                	mv	s2,a0
    96e4:	4008                	lw	a0,0(s0)
    96e6:	4781                	li	a5,0
    96e8:	4721                	li	a4,8
    96ea:	4681                	li	a3,0
    96ec:	8626                	mv	a2,s1
    96ee:	85ce                	mv	a1,s3
    96f0:	d7cfe0ef          	jal	ra,7c6c <CO_CANtxBufferInit>
    96f4:	c048                	sw	a0,4(s0)
    96f6:	e501                	bnez	a0,96fe <CO_SDOserver_init_canRxTx+0x78>
    96f8:	00042823          	sw	zero,16(s0)
    96fc:	597d                	li	s2,-1
    96fe:	854a                	mv	a0,s2
    9700:	e39f606f          	j	538 <__riscv_restore_4>
    9704:	4481                	li	s1,0
    9706:	bf75                	j	96c2 <CO_SDOserver_init_canRxTx+0x3c>

00009708 <CO_SDO_receive>:
    9708:	21d8                	lbu	a4,4(a1)
    970a:	47a1                	li	a5,8
    970c:	02f71963          	bne	a4,a5,973e <CO_SDO_receive+0x36>
    9710:	31d8                	lbu	a4,5(a1)
    9712:	08000793          	li	a5,128
    9716:	00f71563          	bne	a4,a5,9720 <CO_SDO_receive+0x18>
    971a:	00052a23          	sw	zero,20(a0)
    971e:	8082                	ret
    9720:	5d5c                	lw	a5,60(a0)
    9722:	ef91                	bnez	a5,973e <CO_SDO_receive+0x36>
    9724:	dfbf62ef          	jal	t0,51e <__riscv_save_0>
    9728:	842a                	mv	s0,a0
    972a:	4621                	li	a2,8
    972c:	0595                	addi	a1,a1,5
    972e:	04050513          	addi	a0,a0,64
    9732:	619010ef          	jal	ra,b54a <memcpy>
    9736:	4785                	li	a5,1
    9738:	dc5c                	sw	a5,60(s0)
    973a:	e09f606f          	j	542 <__riscv_restore_0>
    973e:	8082                	ret

00009740 <readFromOd.isra.1.constprop.5>:
    9740:	dc5f62ef          	jal	t0,504 <__riscv_save_4>
    9744:	07452a03          	lw	s4,116(a0)
    9748:	1141                	addi	sp,sp,-16
    974a:	0c0a1a63          	bnez	s4,981e <readFromOd.isra.1.constprop.5+0xde>
    974e:	0a452b03          	lw	s6,164(a0)
    9752:	0a852983          	lw	s3,168(a0)
    9756:	4799                	li	a5,6
    9758:	413b04b3          	sub	s1,s6,s3
    975c:	0c97e163          	bltu	a5,s1,981e <readFromOd.isra.1.constprop.5+0xde>
    9760:	08050913          	addi	s2,a0,128
    9764:	842a                	mv	s0,a0
    9766:	8626                	mv	a2,s1
    9768:	854a                	mv	a0,s2
    976a:	8aae                	mv	s5,a1
    976c:	013905b3          	add	a1,s2,s3
    9770:	68d010ef          	jal	ra,b5fc <memmove>
    9774:	0a042423          	sw	zero,168(s0)
    9778:	0a942223          	sw	s1,164(s0)
    977c:	c602                	sw	zero,12(sp)
    977e:	c66fc0ef          	jal	ra,5be4 <vPortEnterCritical>
    9782:	581c                	lw	a5,48(s0)
    9784:	02098993          	addi	s3,s3,32
    9788:	416989b3          	sub	s3,s3,s6
    978c:	9926                	add	s2,s2,s1
    978e:	864e                	mv	a2,s3
    9790:	0074                	addi	a3,sp,12
    9792:	85ca                	mv	a1,s2
    9794:	01840513          	addi	a0,s0,24
    9798:	9782                	jalr	a5
    979a:	89aa                	mv	s3,a0
    979c:	c5efc0ef          	jal	ra,5bfa <vPortExitCritical>
    97a0:	00198793          	addi	a5,s3,1
    97a4:	4b05                	li	s6,1
    97a6:	00fb7d63          	bgeu	s6,a5,97c0 <readFromOd.isra.1.constprop.5+0x80>
    97aa:	854e                	mv	a0,s3
    97ac:	a00ff0ef          	jal	ra,89ac <OD_getSDOabCode>
    97b0:	00aaa023          	sw	a0,0(s5)
    97b4:	01642a23          	sw	s6,20(s0)
    97b8:	8552                	mv	a0,s4
    97ba:	0141                	addi	sp,sp,16
    97bc:	d7df606f          	j	538 <__riscv_restore_4>
    97c0:	4b32                	lw	s6,12(sp)
    97c2:	020b0663          	beqz	s6,97ee <readFromOd.isra.1.constprop.5+0xae>
    97c6:	02840783          	lb	a5,40(s0)
    97ca:	0207d263          	bgez	a5,97ee <readFromOd.isra.1.constprop.5+0xae>
    97ce:	016907b3          	add	a5,s2,s6
    97d2:	00078023          	sb	zero,0(a5)
    97d6:	854a                	mv	a0,s2
    97d8:	072020ef          	jal	ra,b84a <strlen>
    97dc:	e111                	bnez	a0,97e0 <readFromOd.isra.1.constprop.5+0xa0>
    97de:	4505                	li	a0,1
    97e0:	01657763          	bgeu	a0,s6,97ee <readFromOd.isra.1.constprop.5+0xae>
    97e4:	547c                	lw	a5,108(s0)
    97e6:	c62a                	sw	a0,12(sp)
    97e8:	4981                	li	s3,0
    97ea:	953e                	add	a0,a0,a5
    97ec:	d008                	sw	a0,32(s0)
    97ee:	47b2                	lw	a5,12(sp)
    97f0:	94be                	add	s1,s1,a5
    97f2:	0a942223          	sw	s1,164(s0)
    97f6:	c481                	beqz	s1,97fe <readFromOd.isra.1.constprop.5+0xbe>
    97f8:	57fd                	li	a5,-1
    97fa:	02f99063          	bne	s3,a5,981a <readFromOd.isra.1.constprop.5+0xda>
    97fe:	06042a23          	sw	zero,116(s0)
    9802:	4799                	li	a5,6
    9804:	0097ed63          	bltu	a5,s1,981e <readFromOd.isra.1.constprop.5+0xde>
    9808:	060407b7          	lui	a5,0x6040
    980c:	04778793          	addi	a5,a5,71 # 6040047 <_data_lma+0x603254b>
    9810:	00faa023          	sw	a5,0(s5)
    9814:	4785                	li	a5,1
    9816:	c85c                	sw	a5,20(s0)
    9818:	b745                	j	97b8 <readFromOd.isra.1.constprop.5+0x78>
    981a:	4785                	li	a5,1
    981c:	d87c                	sw	a5,116(s0)
    981e:	4a05                	li	s4,1
    9820:	bf61                	j	97b8 <readFromOd.isra.1.constprop.5+0x78>

00009822 <OD_write_1201_additional>:
    9822:	14050a63          	beqz	a0,9976 <OD_write_1201_additional+0x154>
    9826:	cdff62ef          	jal	t0,504 <__riscv_save_4>
    982a:	84aa                	mv	s1,a0
    982c:	1141                	addi	sp,sp,-16
    982e:	892e                	mv	s2,a1
    9830:	4525                	li	a0,9
    9832:	c5b1                	beqz	a1,987e <OD_write_1201_additional+0x5c>
    9834:	c6a9                	beqz	a3,987e <OD_write_1201_additional+0x5c>
    9836:	28dc                	lbu	a5,20(s1)
    9838:	4705                	li	a4,1
    983a:	8a36                	mv	s4,a3
    983c:	89b2                	mv	s3,a2
    983e:	40c0                	lw	s0,4(s1)
    9840:	02e78363          	beq	a5,a4,9866 <OD_write_1201_additional+0x44>
    9844:	4511                	li	a0,4
    9846:	cf85                	beqz	a5,987e <OD_write_1201_additional+0x5c>
    9848:	4689                	li	a3,2
    984a:	0ad78b63          	beq	a5,a3,9900 <OD_write_1201_additional+0xde>
    984e:	468d                	li	a3,3
    9850:	4539                	li	a0,14
    9852:	02d79663          	bne	a5,a3,987e <OD_write_1201_additional+0x5c>
    9856:	452d                	li	a0,11
    9858:	02e61363          	bne	a2,a4,987e <OD_write_1201_additional+0x5c>
    985c:	00058783          	lb	a5,0(a1)
    9860:	08f04963          	bgtz	a5,98f2 <OD_write_1201_additional+0xd0>
    9864:	a821                	j	987c <OD_write_1201_additional+0x5a>
    9866:	4611                	li	a2,4
    9868:	0068                	addi	a0,sp,12
    986a:	4e1010ef          	jal	ra,b54a <memcpy>
    986e:	4732                	lw	a4,12(sp)
    9870:	400007b7          	lui	a5,0x40000
    9874:	80078793          	addi	a5,a5,-2048 # 3ffff800 <__freertos_irq_stack_top+0x1fffa800>
    9878:	8ff9                	and	a5,a5,a4
    987a:	c789                	beqz	a5,9884 <OD_write_1201_additional+0x62>
    987c:	453d                	li	a0,15
    987e:	0141                	addi	sp,sp,16
    9880:	cb9f606f          	j	538 <__riscv_restore_4>
    9884:	04074e63          	bltz	a4,98e0 <OD_write_1201_additional+0xbe>
    9888:	4810                	lw	a2,16(s0)
    988a:	01071693          	slli	a3,a4,0x10
    988e:	82c1                	srli	a3,a3,0x10
    9890:	7ff6f793          	andi	a5,a3,2047
    9894:	c611                	beqz	a2,98a0 <OD_write_1201_additional+0x7e>
    9896:	4830                	lw	a2,80(s0)
    9898:	7ff67613          	andi	a2,a2,2047
    989c:	fec790e3          	bne	a5,a2,987c <OD_write_1201_additional+0x5a>
    98a0:	7806f693          	andi	a3,a3,1920
    98a4:	dee1                	beqz	a3,987c <OD_write_1201_additional+0x5a>
    98a6:	eff78693          	addi	a3,a5,-257
    98aa:	06c2                	slli	a3,a3,0x10
    98ac:	82c1                	srli	a3,a3,0x10
    98ae:	07f00613          	li	a2,127
    98b2:	fcd675e3          	bgeu	a2,a3,987c <OD_write_1201_additional+0x5a>
    98b6:	a7f78693          	addi	a3,a5,-1409
    98ba:	f7f6f693          	andi	a3,a3,-129
    98be:	06c2                	slli	a3,a3,0x10
    98c0:	82c1                	srli	a3,a3,0x10
    98c2:	07e00613          	li	a2,126
    98c6:	fad67be3          	bgeu	a2,a3,987c <OD_write_1201_additional+0x5a>
    98ca:	92078693          	addi	a3,a5,-1760
    98ce:	06c2                	slli	a3,a3,0x10
    98d0:	82c1                	srli	a3,a3,0x10
    98d2:	467d                	li	a2,31
    98d4:	fad674e3          	bgeu	a2,a3,987c <OD_write_1201_additional+0x5a>
    98d8:	70000693          	li	a3,1792
    98dc:	faf6e0e3          	bltu	a3,a5,987c <OD_write_1201_additional+0x5a>
    98e0:	487c                	lw	a5,84(s0)
    98e2:	04e45683          	lhu	a3,78(s0)
    98e6:	04c45603          	lhu	a2,76(s0)
    98ea:	442c                	lw	a1,72(s0)
    98ec:	8522                	mv	a0,s0
    98ee:	d99ff0ef          	jal	ra,9686 <CO_SDOserver_init_canRxTx>
    98f2:	86d2                	mv	a3,s4
    98f4:	864e                	mv	a2,s3
    98f6:	85ca                	mv	a1,s2
    98f8:	8526                	mv	a0,s1
    98fa:	ef5fe0ef          	jal	ra,87ee <OD_writeOriginal>
    98fe:	b741                	j	987e <OD_write_1201_additional+0x5c>
    9900:	4611                	li	a2,4
    9902:	0068                	addi	a0,sp,12
    9904:	447010ef          	jal	ra,b54a <memcpy>
    9908:	47b2                	lw	a5,12(sp)
    990a:	40000737          	lui	a4,0x40000
    990e:	80070713          	addi	a4,a4,-2048 # 3ffff800 <__freertos_irq_stack_top+0x1fffa800>
    9912:	8f7d                	and	a4,a4,a5
    9914:	f725                	bnez	a4,987c <OD_write_1201_additional+0x5a>
    9916:	0407ce63          	bltz	a5,9972 <OD_write_1201_additional+0x150>
    991a:	4810                	lw	a2,16(s0)
    991c:	01079693          	slli	a3,a5,0x10
    9920:	82c1                	srli	a3,a3,0x10
    9922:	7ff6f713          	andi	a4,a3,2047
    9926:	c611                	beqz	a2,9932 <OD_write_1201_additional+0x110>
    9928:	4870                	lw	a2,84(s0)
    992a:	7ff67613          	andi	a2,a2,2047
    992e:	f4c717e3          	bne	a4,a2,987c <OD_write_1201_additional+0x5a>
    9932:	7806f693          	andi	a3,a3,1920
    9936:	d2b9                	beqz	a3,987c <OD_write_1201_additional+0x5a>
    9938:	eff70693          	addi	a3,a4,-257
    993c:	06c2                	slli	a3,a3,0x10
    993e:	82c1                	srli	a3,a3,0x10
    9940:	07f00613          	li	a2,127
    9944:	f2d67ce3          	bgeu	a2,a3,987c <OD_write_1201_additional+0x5a>
    9948:	a7f70593          	addi	a1,a4,-1409
    994c:	f7f5f593          	andi	a1,a1,-129
    9950:	05c2                	slli	a1,a1,0x10
    9952:	81c1                	srli	a1,a1,0x10
    9954:	07e00693          	li	a3,126
    9958:	f2b6f2e3          	bgeu	a3,a1,987c <OD_write_1201_additional+0x5a>
    995c:	92070693          	addi	a3,a4,-1760
    9960:	06c2                	slli	a3,a3,0x10
    9962:	82c1                	srli	a3,a3,0x10
    9964:	467d                	li	a2,31
    9966:	f0d67be3          	bgeu	a2,a3,987c <OD_write_1201_additional+0x5a>
    996a:	70000693          	li	a3,1792
    996e:	f0e6e7e3          	bltu	a3,a4,987c <OD_write_1201_additional+0x5a>
    9972:	4838                	lw	a4,80(s0)
    9974:	b7bd                	j	98e2 <OD_write_1201_additional+0xc0>
    9976:	4525                	li	a0,9
    9978:	8082                	ret

0000997a <CO_SDOserver_init>:
    997a:	b7df62ef          	jal	t0,4f6 <__riscv_save_10>
    997e:	1141                	addi	sp,sp,-16
    9980:	04015b03          	lhu	s6,64(sp)
    9984:	4496                	lw	s1,68(sp)
    9986:	e509                	bnez	a0,9990 <CO_SDOserver_init+0x16>
    9988:	557d                	li	a0,-1
    998a:	0141                	addi	sp,sp,16
    998c:	ba3f606f          	j	52e <__riscv_restore_10>
    9990:	dde5                	beqz	a1,9988 <CO_SDOserver_init+0xe>
    9992:	dbfd                	beqz	a5,9988 <CO_SDOserver_init+0xe>
    9994:	fe088ae3          	beqz	a7,9988 <CO_SDOserver_init+0xe>
    9998:	89be                	mv	s3,a5
    999a:	3e800793          	li	a5,1000
    999e:	02f70733          	mul	a4,a4,a5
    99a2:	c50c                	sw	a1,8(a0)
    99a4:	a554                	sb	a3,12(a0)
    99a6:	00052a23          	sw	zero,20(a0)
    99aa:	8ac6                	mv	s5,a7
    99ac:	8a42                	mv	s4,a6
    99ae:	8932                	mv	s2,a2
    99b0:	842a                	mv	s0,a0
    99b2:	dd38                	sw	a4,120(a0)
    99b4:	e631                	bnez	a2,9a00 <CO_SDOserver_init+0x86>
    99b6:	01869793          	slli	a5,a3,0x18
    99ba:	87e1                	srai	a5,a5,0x18
    99bc:	fcf056e3          	blez	a5,9988 <CO_SDOserver_init+0xe>
    99c0:	01069493          	slli	s1,a3,0x10
    99c4:	80c1                	srli	s1,s1,0x10
    99c6:	4785                	li	a5,1
    99c8:	60048b93          	addi	s7,s1,1536
    99cc:	c91c                	sw	a5,16(a0)
    99ce:	58048493          	addi	s1,s1,1408
    99d2:	02042e23          	sw	zero,60(s0)
    99d6:	05342423          	sw	s3,72(s0)
    99da:	05441623          	sh	s4,76(s0)
    99de:	05641723          	sh	s6,78(s0)
    99e2:	04042823          	sw	zero,80(s0)
    99e6:	04042a23          	sw	zero,84(s0)
    99ea:	01542023          	sw	s5,0(s0)
    99ee:	87a6                	mv	a5,s1
    99f0:	875e                	mv	a4,s7
    99f2:	86da                	mv	a3,s6
    99f4:	8652                	mv	a2,s4
    99f6:	85ce                	mv	a1,s3
    99f8:	8522                	mv	a0,s0
    99fa:	c8dff0ef          	jal	ra,9686 <CO_SDOserver_init_canRxTx>
    99fe:	b771                	j	998a <CO_SDOserver_init+0x10>
    9a00:	00065c03          	lhu	s8,0(a2)
    9a04:	6785                	lui	a5,0x1
    9a06:	20078793          	addi	a5,a5,512 # 1200 <SetErrorRegiter+0x24>
    9a0a:	04fc1163          	bne	s8,a5,9a4c <CO_SDOserver_init+0xd2>
    9a0e:	01869793          	slli	a5,a3,0x18
    9a12:	87e1                	srai	a5,a5,0x18
    9a14:	f6f05ae3          	blez	a5,9988 <CO_SDOserver_init+0xe>
    9a18:	01069493          	slli	s1,a3,0x10
    9a1c:	4785                	li	a5,1
    9a1e:	80c1                	srli	s1,s1,0x10
    9a20:	60048b93          	addi	s7,s1,1536
    9a24:	c91c                	sw	a5,16(a0)
    9a26:	0070                	addi	a2,sp,12
    9a28:	4705                	li	a4,1
    9a2a:	4691                	li	a3,4
    9a2c:	4585                	li	a1,1
    9a2e:	854a                	mv	a0,s2
    9a30:	c65e                	sw	s7,12(sp)
    9a32:	fcffe0ef          	jal	ra,8a00 <OD_set_value>
    9a36:	58048493          	addi	s1,s1,1408
    9a3a:	4705                	li	a4,1
    9a3c:	4691                	li	a3,4
    9a3e:	0070                	addi	a2,sp,12
    9a40:	4589                	li	a1,2
    9a42:	854a                	mv	a0,s2
    9a44:	c626                	sw	s1,12(sp)
    9a46:	fbbfe0ef          	jal	ra,8a00 <OD_set_value>
    9a4a:	b761                	j	99d2 <CO_SDOserver_init+0x58>
    9a4c:	777d                	lui	a4,0xfffff
    9a4e:	dff70713          	addi	a4,a4,-513 # ffffedff <__freertos_irq_stack_top+0xdfff9dff>
    9a52:	9762                	add	a4,a4,s8
    9a54:	0742                	slli	a4,a4,0x10
    9a56:	8341                	srli	a4,a4,0x10
    9a58:	07e00793          	li	a5,126
    9a5c:	f2e7e6e3          	bltu	a5,a4,9988 <CO_SDOserver_init+0xe>
    9a60:	4705                	li	a4,1
    9a62:	4685                	li	a3,1
    9a64:	00710613          	addi	a2,sp,7
    9a68:	4581                	li	a1,0
    9a6a:	854a                	mv	a0,s2
    9a6c:	f61fe0ef          	jal	ra,89cc <OD_get_value>
    9a70:	4705                	li	a4,1
    9a72:	4691                	li	a3,4
    9a74:	0030                	addi	a2,sp,8
    9a76:	4585                	li	a1,1
    9a78:	8caa                	mv	s9,a0
    9a7a:	854a                	mv	a0,s2
    9a7c:	f51fe0ef          	jal	ra,89cc <OD_get_value>
    9a80:	4705                	li	a4,1
    9a82:	8baa                	mv	s7,a0
    9a84:	4691                	li	a3,4
    9a86:	0070                	addi	a2,sp,12
    9a88:	4589                	li	a1,2
    9a8a:	854a                	mv	a0,s2
    9a8c:	f41fe0ef          	jal	ra,89cc <OD_get_value>
    9a90:	839c                	lbu	a5,7(sp)
    9a92:	4705                	li	a4,1
    9a94:	17f9                	addi	a5,a5,-2
    9a96:	0ff7f793          	andi	a5,a5,255
    9a9a:	00f76863          	bltu	a4,a5,9aaa <CO_SDOserver_init+0x130>
    9a9e:	019bebb3          	or	s7,s7,s9
    9aa2:	00abebb3          	or	s7,s7,a0
    9aa6:	000b8763          	beqz	s7,9ab4 <CO_SDOserver_init+0x13a>
    9aaa:	c099                	beqz	s1,9ab0 <CO_SDOserver_init+0x136>
    9aac:	0184a023          	sw	s8,0(s1)
    9ab0:	5551                	li	a0,-12
    9ab2:	bde1                	j	998a <CO_SDOserver_init+0x10>
    9ab4:	47a2                	lw	a5,8(sp)
    9ab6:	4b81                	li	s7,0
    9ab8:	0007c463          	bltz	a5,9ac0 <CO_SDOserver_init+0x146>
    9abc:	7ff7fb93          	andi	s7,a5,2047
    9ac0:	47b2                	lw	a5,12(sp)
    9ac2:	4481                	li	s1,0
    9ac4:	0007c463          	bltz	a5,9acc <CO_SDOserver_init+0x152>
    9ac8:	7ff7f493          	andi	s1,a5,2047
    9acc:	000087b7          	lui	a5,0x8
    9ad0:	79e78793          	addi	a5,a5,1950 # 879e <OD_readOriginal>
    9ad4:	cc7c                	sw	a5,92(s0)
    9ad6:	0000a7b7          	lui	a5,0xa
    9ada:	82278793          	addi	a5,a5,-2014 # 9822 <OD_write_1201_additional>
    9ade:	d03c                	sw	a5,96(s0)
    9ae0:	cc20                	sw	s0,88(s0)
    9ae2:	05840793          	addi	a5,s0,88
    9ae6:	00f92423          	sw	a5,8(s2)
    9aea:	b5e5                	j	99d2 <CO_SDOserver_init+0x58>

00009aec <CO_SDOserver_process>:
    9aec:	5c050963          	beqz	a0,a0be <CO_SDOserver_process+0x5d2>
    9af0:	a15f62ef          	jal	t0,504 <__riscv_save_4>
    9af4:	491c                	lw	a5,16(a0)
    9af6:	1101                	addi	sp,sp,-32
    9af8:	c802                	sw	zero,16(sp)
    9afa:	842a                	mv	s0,a0
    9afc:	5c078563          	beqz	a5,a0c6 <CO_SDOserver_process+0x5da>
    9b00:	495c                	lw	a5,20(a0)
    9b02:	5d58                	lw	a4,60(a0)
    9b04:	5a079f63          	bnez	a5,a0c2 <CO_SDOserver_process+0x5d6>
    9b08:	5c071463          	bnez	a4,a0d0 <CO_SDOserver_process+0x5e4>
    9b0c:	4501                	li	a0,0
    9b0e:	6105                	addi	sp,sp,32
    9b10:	a29f606f          	j	538 <__riscv_restore_4>
    9b14:	20070463          	beqz	a4,9d1c <CO_SDOserver_process+0x230>
    9b18:	485c                	lw	a5,20(s0)
    9b1a:	e3bd                	bnez	a5,9b80 <CO_SDOserver_process+0x94>
    9b1c:	04044783          	lbu	a5,64(s0)
    9b20:	02000713          	li	a4,32
    9b24:	0f07f693          	andi	a3,a5,240
    9b28:	00e69663          	bne	a3,a4,9b34 <CO_SDOserver_process+0x48>
    9b2c:	47c5                	li	a5,17
    9b2e:	c85c                	sw	a5,20(s0)
    9b30:	4481                	li	s1,0
    9b32:	a809                	j	9b44 <CO_SDOserver_process+0x58>
    9b34:	04000713          	li	a4,64
    9b38:	06e79863          	bne	a5,a4,9ba8 <CO_SDOserver_process+0xbc>
    9b3c:	02100793          	li	a5,33
    9b40:	c85c                	sw	a5,20(s0)
    9b42:	4485                	li	s1,1
    9b44:	47c2                	lw	a5,16(sp)
    9b46:	ef85                	bnez	a5,9b7e <CO_SDOserver_process+0x92>
    9b48:	04244583          	lbu	a1,66(s0)
    9b4c:	04144783          	lbu	a5,65(s0)
    9b50:	4408                	lw	a0,8(s0)
    9b52:	05a2                	slli	a1,a1,0x8
    9b54:	8ddd                	or	a1,a1,a5
    9b56:	04344783          	lbu	a5,67(s0)
    9b5a:	bc0e                	sh	a1,56(s0)
    9b5c:	02f40d23          	sb	a5,58(s0)
    9b60:	ce7fe0ef          	jal	ra,8846 <OD_find>
    9b64:	03a44583          	lbu	a1,58(s0)
    9b68:	4681                	li	a3,0
    9b6a:	01840613          	addi	a2,s0,24
    9b6e:	d49fe0ef          	jal	ra,88b6 <OD_getSub>
    9b72:	c129                	beqz	a0,9bb4 <CO_SDOserver_process+0xc8>
    9b74:	e39fe0ef          	jal	ra,89ac <OD_getSDOabCode>
    9b78:	c82a                	sw	a0,16(sp)
    9b7a:	4785                	li	a5,1
    9b7c:	c85c                	sw	a5,20(s0)
    9b7e:	e4b9                	bnez	s1,9bcc <CO_SDOserver_process+0xe0>
    9b80:	485c                	lw	a5,20(s0)
    9b82:	18078863          	beqz	a5,9d12 <CO_SDOserver_process+0x226>
    9b86:	485c                	lw	a5,20(s0)
    9b88:	4985                	li	s3,1
    9b8a:	19378463          	beq	a5,s3,9d12 <CO_SDOserver_process+0x226>
    9b8e:	485c                	lw	a5,20(s0)
    9b90:	474d                	li	a4,19
    9b92:	24e78463          	beq	a5,a4,9dda <CO_SDOserver_process+0x2ee>
    9b96:	08f76f63          	bltu	a4,a5,9c34 <CO_SDOserver_process+0x148>
    9b9a:	4745                	li	a4,17
    9b9c:	0ce78463          	beq	a5,a4,9c64 <CO_SDOserver_process+0x178>
    9ba0:	050407b7          	lui	a5,0x5040
    9ba4:	0785                	addi	a5,a5,1
    9ba6:	a285                	j	9d06 <CO_SDOserver_process+0x21a>
    9ba8:	050407b7          	lui	a5,0x5040
    9bac:	0785                	addi	a5,a5,1
    9bae:	c83e                	sw	a5,16(sp)
    9bb0:	4785                	li	a5,1
    9bb2:	bfb5                	j	9b2e <CO_SDOserver_process+0x42>
    9bb4:	02844783          	lbu	a5,40(s0)
    9bb8:	0037f713          	andi	a4,a5,3
    9bbc:	e709                	bnez	a4,9bc6 <CO_SDOserver_process+0xda>
    9bbe:	060107b7          	lui	a5,0x6010
    9bc2:	c83e                	sw	a5,16(sp)
    9bc4:	bf5d                	j	9b7a <CO_SDOserver_process+0x8e>
    9bc6:	c0b1                	beqz	s1,9c0a <CO_SDOserver_process+0x11e>
    9bc8:	8b85                	andi	a5,a5,1
    9bca:	cb8d                	beqz	a5,9bfc <CO_SDOserver_process+0x110>
    9bcc:	47c2                	lw	a5,16(sp)
    9bce:	fbcd                	bnez	a5,9b80 <CO_SDOserver_process+0x94>
    9bd0:	0a042223          	sw	zero,164(s0)
    9bd4:	0a042423          	sw	zero,168(s0)
    9bd8:	06042623          	sw	zero,108(s0)
    9bdc:	06042a23          	sw	zero,116(s0)
    9be0:	080c                	addi	a1,sp,16
    9be2:	8522                	mv	a0,s0
    9be4:	b5dff0ef          	jal	ra,9740 <readFromOd.isra.1.constprop.5>
    9be8:	dd41                	beqz	a0,9b80 <CO_SDOserver_process+0x94>
    9bea:	587c                	lw	a5,116(s0)
    9bec:	cf85                	beqz	a5,9c24 <CO_SDOserver_process+0x138>
    9bee:	501c                	lw	a5,32(s0)
    9bf0:	0a442703          	lw	a4,164(s0)
    9bf4:	d43c                	sw	a5,104(s0)
    9bf6:	e385                	bnez	a5,9c16 <CO_SDOserver_process+0x12a>
    9bf8:	d438                	sw	a4,104(s0)
    9bfa:	b759                	j	9b80 <CO_SDOserver_process+0x94>
    9bfc:	060107b7          	lui	a5,0x6010
    9c00:	0785                	addi	a5,a5,1
    9c02:	c83e                	sw	a5,16(sp)
    9c04:	4785                	li	a5,1
    9c06:	c85c                	sw	a5,20(s0)
    9c08:	bfa5                	j	9b80 <CO_SDOserver_process+0x94>
    9c0a:	8b89                	andi	a5,a5,2
    9c0c:	fbb5                	bnez	a5,9b80 <CO_SDOserver_process+0x94>
    9c0e:	060107b7          	lui	a5,0x6010
    9c12:	0789                	addi	a5,a5,2
    9c14:	b7fd                	j	9c02 <CO_SDOserver_process+0x116>
    9c16:	f6e785e3          	beq	a5,a4,9b80 <CO_SDOserver_process+0x94>
    9c1a:	060407b7          	lui	a5,0x6040
    9c1e:	04778793          	addi	a5,a5,71 # 6040047 <_data_lma+0x603254b>
    9c22:	b7c5                	j	9c02 <CO_SDOserver_process+0x116>
    9c24:	02840703          	lb	a4,40(s0)
    9c28:	4781                	li	a5,0
    9c2a:	00074363          	bltz	a4,9c30 <CO_SDOserver_process+0x144>
    9c2e:	501c                	lw	a5,32(s0)
    9c30:	d43c                	sw	a5,104(s0)
    9c32:	b7b9                	j	9b80 <CO_SDOserver_process+0x94>
    9c34:	02100713          	li	a4,33
    9c38:	2ee78063          	beq	a5,a4,9f18 <CO_SDOserver_process+0x42c>
    9c3c:	02300713          	li	a4,35
    9c40:	f6e790e3          	bne	a5,a4,9ba0 <CO_SDOserver_process+0xb4>
    9c44:	04044783          	lbu	a5,64(s0)
    9c48:	06000713          	li	a4,96
    9c4c:	0ef7f693          	andi	a3,a5,239
    9c50:	2ce69763          	bne	a3,a4,9f1e <CO_SDOserver_process+0x432>
    9c54:	07044703          	lbu	a4,112(s0)
    9c58:	8bc1                	andi	a5,a5,16
    9c5a:	18f71f63          	bne	a4,a5,9df8 <CO_SDOserver_process+0x30c>
    9c5e:	02400793          	li	a5,36
    9c62:	a2dd                	j	9e48 <CO_SDOserver_process+0x35c>
    9c64:	04044903          	lbu	s2,64(s0)
    9c68:	00297713          	andi	a4,s2,2
    9c6c:	00197793          	andi	a5,s2,1
    9c70:	12070163          	beqz	a4,9d92 <CO_SDOserver_process+0x2a6>
    9c74:	5004                	lw	s1,32(s0)
    9c76:	c7a5                	beqz	a5,9cde <CO_SDOserver_process+0x1f2>
    9c78:	00295913          	srli	s2,s2,0x2
    9c7c:	00397793          	andi	a5,s2,3
    9c80:	4911                	li	s2,4
    9c82:	40f90933          	sub	s2,s2,a5
    9c86:	864a                	mv	a2,s2
    9c88:	04440593          	addi	a1,s0,68
    9c8c:	0828                	addi	a0,sp,24
    9c8e:	cc02                	sw	zero,24(sp)
    9c90:	00011e23          	sh	zero,28(sp)
    9c94:	0b7010ef          	jal	ra,b54a <memcpy>
    9c98:	02840783          	lb	a5,40(s0)
    9c9c:	0407d963          	bgez	a5,9cee <CO_SDOserver_process+0x202>
    9ca0:	c099                	beqz	s1,9ca6 <CO_SDOserver_process+0x1ba>
    9ca2:	04997b63          	bgeu	s2,s1,9cf8 <CO_SDOserver_process+0x20c>
    9ca6:	fff48793          	addi	a5,s1,-1
    9caa:	4485                	li	s1,1
    9cac:	01278363          	beq	a5,s2,9cb2 <CO_SDOserver_process+0x1c6>
    9cb0:	4489                	li	s1,2
    9cb2:	94ca                	add	s1,s1,s2
    9cb4:	d004                	sw	s1,32(s0)
    9cb6:	ca02                	sw	zero,20(sp)
    9cb8:	f2dfb0ef          	jal	ra,5be4 <vPortEnterCritical>
    9cbc:	585c                	lw	a5,52(s0)
    9cbe:	0854                	addi	a3,sp,20
    9cc0:	8626                	mv	a2,s1
    9cc2:	082c                	addi	a1,sp,24
    9cc4:	01840513          	addi	a0,s0,24
    9cc8:	9782                	jalr	a5
    9cca:	c62a                	sw	a0,12(sp)
    9ccc:	f2ffb0ef          	jal	ra,5bfa <vPortExitCritical>
    9cd0:	4532                	lw	a0,12(sp)
    9cd2:	cd05                	beqz	a0,9d0a <CO_SDOserver_process+0x21e>
    9cd4:	cd9fe0ef          	jal	ra,89ac <OD_getSDOabCode>
    9cd8:	c82a                	sw	a0,16(sp)
    9cda:	4785                	li	a5,1
    9cdc:	a2b5                	j	9e48 <CO_SDOserver_process+0x35c>
    9cde:	fff48793          	addi	a5,s1,-1
    9ce2:	4709                	li	a4,2
    9ce4:	4911                	li	s2,4
    9ce6:	faf760e3          	bltu	a4,a5,9c86 <CO_SDOserver_process+0x19a>
    9cea:	8926                	mv	s2,s1
    9cec:	bf69                	j	9c86 <CO_SDOserver_process+0x19a>
    9cee:	e489                	bnez	s1,9cf8 <CO_SDOserver_process+0x20c>
    9cf0:	03242023          	sw	s2,32(s0)
    9cf4:	84ca                	mv	s1,s2
    9cf6:	b7c1                	j	9cb6 <CO_SDOserver_process+0x1ca>
    9cf8:	fa990fe3          	beq	s2,s1,9cb6 <CO_SDOserver_process+0x1ca>
    9cfc:	060707b7          	lui	a5,0x6070
    9d00:	1524ee63          	bltu	s1,s2,9e5c <CO_SDOserver_process+0x370>
    9d04:	07cd                	addi	a5,a5,19
    9d06:	c83e                	sw	a5,16(sp)
    9d08:	bfc9                	j	9cda <CO_SDOserver_process+0x1ee>
    9d0a:	47c9                	li	a5,18
    9d0c:	c85c                	sw	a5,20(s0)
    9d0e:	4785                	li	a5,1
    9d10:	d87c                	sw	a5,116(s0)
    9d12:	06042e23          	sw	zero,124(s0)
    9d16:	02042e23          	sw	zero,60(s0)
    9d1a:	4601                	li	a2,0
    9d1c:	5c7c                	lw	a5,124(s0)
    9d1e:	5c38                	lw	a4,120(s0)
    9d20:	20e7e363          	bltu	a5,a4,9f26 <CO_SDOserver_process+0x43a>
    9d24:	050407b7          	lui	a5,0x5040
    9d28:	c83e                	sw	a5,16(sp)
    9d2a:	4785                	li	a5,1
    9d2c:	c85c                	sw	a5,20(s0)
    9d2e:	405c                	lw	a5,4(s0)
    9d30:	4511                	li	a0,4
    9d32:	4b98                	lw	a4,16(a5)
    9d34:	dc071de3          	bnez	a4,9b0e <CO_SDOserver_process+0x22>
    9d38:	00578513          	addi	a0,a5,5 # 5040005 <_data_lma+0x5032509>
    9d3c:	4621                	li	a2,8
    9d3e:	4581                	li	a1,0
    9d40:	80ff60ef          	jal	ra,54e <memset>
    9d44:	485c                	lw	a5,20(s0)
    9d46:	4751                	li	a4,20
    9d48:	2ae78e63          	beq	a5,a4,a004 <CO_SDOserver_process+0x518>
    9d4c:	1ef76263          	bltu	a4,a5,9f30 <CO_SDOserver_process+0x444>
    9d50:	4749                	li	a4,18
    9d52:	26e78b63          	beq	a5,a4,9fc8 <CO_SDOserver_process+0x4dc>
    9d56:	485c                	lw	a5,20(s0)
    9d58:	4505                	li	a0,1
    9d5a:	daa79ae3          	bne	a5,a0,9b0e <CO_SDOserver_process+0x22>
    9d5e:	47c2                	lw	a5,16(sp)
    9d60:	4048                	lw	a0,4(s0)
    9d62:	4611                	li	a2,4
    9d64:	cc3e                	sw	a5,24(sp)
    9d66:	f8000793          	li	a5,-128
    9d6a:	b15c                	sb	a5,5(a0)
    9d6c:	3c1e                	lhu	a5,56(s0)
    9d6e:	082c                	addi	a1,sp,24
    9d70:	0525                	addi	a0,a0,9
    9d72:	fef51ea3          	sh	a5,-3(a0)
    9d76:	03a44783          	lbu	a5,58(s0)
    9d7a:	fef50fa3          	sb	a5,-1(a0)
    9d7e:	7cc010ef          	jal	ra,b54a <memcpy>
    9d82:	404c                	lw	a1,4(s0)
    9d84:	4008                	lw	a0,0(s0)
    9d86:	f33fd0ef          	jal	ra,7cb8 <CO_CANsend>
    9d8a:	5559                	li	a0,-10
    9d8c:	00042a23          	sw	zero,20(s0)
    9d90:	bbbd                	j	9b0e <CO_SDOserver_process+0x22>
    9d92:	cf8d                	beqz	a5,9dcc <CO_SDOserver_process+0x2e0>
    9d94:	4611                	li	a2,4
    9d96:	04440593          	addi	a1,s0,68
    9d9a:	0828                	addi	a0,sp,24
    9d9c:	5004                	lw	s1,32(s0)
    9d9e:	7ac010ef          	jal	ra,b54a <memcpy>
    9da2:	47e2                	lw	a5,24(sp)
    9da4:	d43c                	sw	a5,104(s0)
    9da6:	c48d                	beqz	s1,9dd0 <CO_SDOserver_process+0x2e4>
    9da8:	00f4f963          	bgeu	s1,a5,9dba <CO_SDOserver_process+0x2ce>
    9dac:	060707b7          	lui	a5,0x6070
    9db0:	07c9                	addi	a5,a5,18
    9db2:	c83e                	sw	a5,16(sp)
    9db4:	01342a23          	sw	s3,20(s0)
    9db8:	bfa9                	j	9d12 <CO_SDOserver_process+0x226>
    9dba:	0097fb63          	bgeu	a5,s1,9dd0 <CO_SDOserver_process+0x2e4>
    9dbe:	02840783          	lb	a5,40(s0)
    9dc2:	0007c763          	bltz	a5,9dd0 <CO_SDOserver_process+0x2e4>
    9dc6:	060707b7          	lui	a5,0x6070
    9dca:	bf2d                	j	9d04 <CO_SDOserver_process+0x218>
    9dcc:	06042423          	sw	zero,104(s0)
    9dd0:	47c9                	li	a5,18
    9dd2:	c85c                	sw	a5,20(s0)
    9dd4:	06042a23          	sw	zero,116(s0)
    9dd8:	bf2d                	j	9d12 <CO_SDOserver_process+0x226>
    9dda:	04044603          	lbu	a2,64(s0)
    9dde:	0e067793          	andi	a5,a2,224
    9de2:	12079e63          	bnez	a5,9f1e <CO_SDOserver_process+0x432>
    9de6:	07044703          	lbu	a4,112(s0)
    9dea:	00167793          	andi	a5,a2,1
    9dee:	d87c                	sw	a5,116(s0)
    9df0:	01067793          	andi	a5,a2,16
    9df4:	00f70563          	beq	a4,a5,9dfe <CO_SDOserver_process+0x312>
    9df8:	050307b7          	lui	a5,0x5030
    9dfc:	bf5d                	j	9db2 <CO_SDOserver_process+0x2c6>
    9dfe:	0a442503          	lw	a0,164(s0)
    9e02:	8205                	srli	a2,a2,0x1
    9e04:	fff64613          	not	a2,a2
    9e08:	00767493          	andi	s1,a2,7
    9e0c:	08040913          	addi	s2,s0,128
    9e10:	8626                	mv	a2,s1
    9e12:	04140593          	addi	a1,s0,65
    9e16:	954a                	add	a0,a0,s2
    9e18:	732010ef          	jal	ra,b54a <memcpy>
    9e1c:	0a442703          	lw	a4,164(s0)
    9e20:	5470                	lw	a2,108(s0)
    9e22:	501c                	lw	a5,32(s0)
    9e24:	9726                	add	a4,a4,s1
    9e26:	9626                	add	a2,a2,s1
    9e28:	0ae42223          	sw	a4,164(s0)
    9e2c:	d470                	sw	a2,108(s0)
    9e2e:	c399                	beqz	a5,9e34 <CO_SDOserver_process+0x348>
    9e30:	f6c7eee3          	bltu	a5,a2,9dac <CO_SDOserver_process+0x2c0>
    9e34:	5874                	lw	a3,116(s0)
    9e36:	ea99                	bnez	a3,9e4c <CO_SDOserver_process+0x360>
    9e38:	02000793          	li	a5,32
    9e3c:	40e78733          	sub	a4,a5,a4
    9e40:	47a1                	li	a5,8
    9e42:	0ae7f763          	bgeu	a5,a4,9ef0 <CO_SDOserver_process+0x404>
    9e46:	47d1                	li	a5,20
    9e48:	c85c                	sw	a5,20(s0)
    9e4a:	b5e1                	j	9d12 <CO_SDOserver_process+0x226>
    9e4c:	5434                	lw	a3,104(s0)
    9e4e:	ca89                	beqz	a3,9e60 <CO_SDOserver_process+0x374>
    9e50:	00d60863          	beq	a2,a3,9e60 <CO_SDOserver_process+0x374>
    9e54:	060707b7          	lui	a5,0x6070
    9e58:	eac6f6e3          	bgeu	a3,a2,9d04 <CO_SDOserver_process+0x218>
    9e5c:	07c9                	addi	a5,a5,18
    9e5e:	b565                	j	9d06 <CO_SDOserver_process+0x21a>
    9e60:	02840683          	lb	a3,40(s0)
    9e64:	0606dc63          	bgez	a3,9edc <CO_SDOserver_process+0x3f0>
    9e68:	c399                	beqz	a5,9e6e <CO_SDOserver_process+0x382>
    9e6a:	06f67c63          	bgeu	a2,a5,9ee2 <CO_SDOserver_process+0x3f6>
    9e6e:	00270593          	addi	a1,a4,2
    9e72:	02000693          	li	a3,32
    9e76:	06b6e363          	bltu	a3,a1,9edc <CO_SDOserver_process+0x3f0>
    9e7a:	00170693          	addi	a3,a4,1
    9e7e:	0ad42223          	sw	a3,164(s0)
    9e82:	9722                	add	a4,a4,s0
    9e84:	08070023          	sb	zero,128(a4)
    9e88:	00160713          	addi	a4,a2,1
    9e8c:	d478                	sw	a4,108(s0)
    9e8e:	c399                	beqz	a5,9e94 <CO_SDOserver_process+0x3a8>
    9e90:	00f77963          	bgeu	a4,a5,9ea2 <CO_SDOserver_process+0x3b6>
    9e94:	0ab42223          	sw	a1,164(s0)
    9e98:	96a2                	add	a3,a3,s0
    9e9a:	08068023          	sb	zero,128(a3)
    9e9e:	0609                	addi	a2,a2,2
    9ea0:	d470                	sw	a2,108(s0)
    9ea2:	547c                	lw	a5,108(s0)
    9ea4:	d01c                	sw	a5,32(s0)
    9ea6:	cc02                	sw	zero,24(sp)
    9ea8:	d3dfb0ef          	jal	ra,5be4 <vPortEnterCritical>
    9eac:	585c                	lw	a5,52(s0)
    9eae:	0a442603          	lw	a2,164(s0)
    9eb2:	0834                	addi	a3,sp,24
    9eb4:	85ca                	mv	a1,s2
    9eb6:	01840513          	addi	a0,s0,24
    9eba:	9782                	jalr	a5
    9ebc:	c62a                	sw	a0,12(sp)
    9ebe:	d3dfb0ef          	jal	ra,5bfa <vPortExitCritical>
    9ec2:	4532                	lw	a0,12(sp)
    9ec4:	0a042223          	sw	zero,164(s0)
    9ec8:	4485                	li	s1,1
    9eca:	00150793          	addi	a5,a0,1
    9ece:	02f4f663          	bgeu	s1,a5,9efa <CO_SDOserver_process+0x40e>
    9ed2:	adbfe0ef          	jal	ra,89ac <OD_getSDOabCode>
    9ed6:	c82a                	sw	a0,16(sp)
    9ed8:	c844                	sw	s1,20(s0)
    9eda:	bd25                	j	9d12 <CO_SDOserver_process+0x226>
    9edc:	e399                	bnez	a5,9ee2 <CO_SDOserver_process+0x3f6>
    9ede:	d010                	sw	a2,32(s0)
    9ee0:	b7d9                	j	9ea6 <CO_SDOserver_process+0x3ba>
    9ee2:	fcf602e3          	beq	a2,a5,9ea6 <CO_SDOserver_process+0x3ba>
    9ee6:	eec7f0e3          	bgeu	a5,a2,9dc6 <CO_SDOserver_process+0x2da>
    9eea:	060707b7          	lui	a5,0x6070
    9eee:	b7bd                	j	9e5c <CO_SDOserver_process+0x370>
    9ef0:	543c                	lw	a5,104(s0)
    9ef2:	dbd5                	beqz	a5,9ea6 <CO_SDOserver_process+0x3ba>
    9ef4:	fac7f9e3          	bgeu	a5,a2,9ea6 <CO_SDOserver_process+0x3ba>
    9ef8:	bfcd                	j	9eea <CO_SDOserver_process+0x3fe>
    9efa:	587c                	lw	a5,116(s0)
    9efc:	cb89                	beqz	a5,9f0e <CO_SDOserver_process+0x422>
    9efe:	57fd                	li	a5,-1
    9f00:	f4f513e3          	bne	a0,a5,9e46 <CO_SDOserver_process+0x35a>
    9f04:	060707b7          	lui	a5,0x6070
    9f08:	07cd                	addi	a5,a5,19
    9f0a:	c83e                	sw	a5,16(sp)
    9f0c:	b7f1                	j	9ed8 <CO_SDOserver_process+0x3ec>
    9f0e:	fd05                	bnez	a0,9e46 <CO_SDOserver_process+0x35a>
    9f10:	060707b7          	lui	a5,0x6070
    9f14:	07c9                	addi	a5,a5,18
    9f16:	bfd5                	j	9f0a <CO_SDOserver_process+0x41e>
    9f18:	02200793          	li	a5,34
    9f1c:	b735                	j	9e48 <CO_SDOserver_process+0x35c>
    9f1e:	050407b7          	lui	a5,0x5040
    9f22:	0785                	addi	a5,a5,1
    9f24:	b579                	j	9db2 <CO_SDOserver_process+0x2c6>
    9f26:	97b2                	add	a5,a5,a2
    9f28:	dc7c                	sw	a5,124(s0)
    9f2a:	e0e7e2e3          	bltu	a5,a4,9d2e <CO_SDOserver_process+0x242>
    9f2e:	bbdd                	j	9d24 <CO_SDOserver_process+0x238>
    9f30:	02200713          	li	a4,34
    9f34:	0ee78b63          	beq	a5,a4,a02a <CO_SDOserver_process+0x53e>
    9f38:	02400713          	li	a4,36
    9f3c:	e0e79de3          	bne	a5,a4,9d56 <CO_SDOserver_process+0x26a>
    9f40:	080c                	addi	a1,sp,16
    9f42:	8522                	mv	a0,s0
    9f44:	ffcff0ef          	jal	ra,9740 <readFromOd.isra.1.constprop.5>
    9f48:	e00507e3          	beqz	a0,9d56 <CO_SDOserver_process+0x26a>
    9f4c:	07044783          	lbu	a5,112(s0)
    9f50:	4048                	lw	a0,4(s0)
    9f52:	0017b713          	seqz	a4,a5
    9f56:	b15c                	sb	a5,5(a0)
    9f58:	0a842683          	lw	a3,168(s0)
    9f5c:	0a442483          	lw	s1,164(s0)
    9f60:	0712                	slli	a4,a4,0x4
    9f62:	06e40823          	sb	a4,112(s0)
    9f66:	8c95                	sub	s1,s1,a3
    9f68:	4719                	li	a4,6
    9f6a:	00977863          	bgeu	a4,s1,9f7a <CO_SDOserver_process+0x48e>
    9f6e:	5878                	lw	a4,116(s0)
    9f70:	12070363          	beqz	a4,a096 <CO_SDOserver_process+0x5aa>
    9f74:	471d                	li	a4,7
    9f76:	12e49063          	bne	s1,a4,a096 <CO_SDOserver_process+0x5aa>
    9f7a:	471d                	li	a4,7
    9f7c:	8f05                	sub	a4,a4,s1
    9f7e:	0706                	slli	a4,a4,0x1
    9f80:	8fd9                	or	a5,a5,a4
    9f82:	0017e793          	ori	a5,a5,1
    9f86:	b15c                	sb	a5,5(a0)
    9f88:	00042a23          	sw	zero,20(s0)
    9f8c:	4901                	li	s2,0
    9f8e:	08040593          	addi	a1,s0,128
    9f92:	8626                	mv	a2,s1
    9f94:	95b6                	add	a1,a1,a3
    9f96:	0519                	addi	a0,a0,6
    9f98:	5b2010ef          	jal	ra,b54a <memcpy>
    9f9c:	0a842783          	lw	a5,168(s0)
    9fa0:	97a6                	add	a5,a5,s1
    9fa2:	0af42423          	sw	a5,168(s0)
    9fa6:	547c                	lw	a5,108(s0)
    9fa8:	94be                	add	s1,s1,a5
    9faa:	543c                	lw	a5,104(s0)
    9fac:	d464                	sw	s1,108(s0)
    9fae:	10078663          	beqz	a5,a0ba <CO_SDOserver_process+0x5ce>
    9fb2:	0e97fa63          	bgeu	a5,s1,a0a6 <CO_SDOserver_process+0x5ba>
    9fb6:	060707b7          	lui	a5,0x6070
    9fba:	07c9                	addi	a5,a5,18
    9fbc:	c83e                	sw	a5,16(sp)
    9fbe:	4785                	li	a5,1
    9fc0:	c85c                	sw	a5,20(s0)
    9fc2:	d8091ae3          	bnez	s2,9d56 <CO_SDOserver_process+0x26a>
    9fc6:	b699                	j	9b0c <CO_SDOserver_process+0x20>
    9fc8:	404c                	lw	a1,4(s0)
    9fca:	06000793          	li	a5,96
    9fce:	b1dc                	sb	a5,5(a1)
    9fd0:	3c1e                	lhu	a5,56(s0)
    9fd2:	a1fe                	sh	a5,6(a1)
    9fd4:	03a44783          	lbu	a5,58(s0)
    9fd8:	a59c                	sb	a5,8(a1)
    9fda:	4008                	lw	a0,0(s0)
    9fdc:	06042e23          	sw	zero,124(s0)
    9fe0:	cd9fd0ef          	jal	ra,7cb8 <CO_CANsend>
    9fe4:	587c                	lw	a5,116(s0)
    9fe6:	c781                	beqz	a5,9fee <CO_SDOserver_process+0x502>
    9fe8:	00042a23          	sw	zero,20(s0)
    9fec:	b605                	j	9b0c <CO_SDOserver_process+0x20>
    9fee:	06040823          	sb	zero,112(s0)
    9ff2:	06042623          	sw	zero,108(s0)
    9ff6:	0a042223          	sw	zero,164(s0)
    9ffa:	0a042423          	sw	zero,168(s0)
    9ffe:	47cd                	li	a5,19
    a000:	c85c                	sw	a5,20(s0)
    a002:	bb91                	j	9d56 <CO_SDOserver_process+0x26a>
    a004:	07044783          	lbu	a5,112(s0)
    a008:	404c                	lw	a1,4(s0)
    a00a:	0207e713          	ori	a4,a5,32
    a00e:	b1d8                	sb	a4,5(a1)
    a010:	0017b793          	seqz	a5,a5
    a014:	4008                	lw	a0,0(s0)
    a016:	0792                	slli	a5,a5,0x4
    a018:	06f40823          	sb	a5,112(s0)
    a01c:	06042e23          	sw	zero,124(s0)
    a020:	c99fd0ef          	jal	ra,7cb8 <CO_CANsend>
    a024:	587c                	lw	a5,116(s0)
    a026:	dfe1                	beqz	a5,9ffe <CO_SDOserver_process+0x512>
    a028:	b7c1                	j	9fe8 <CO_SDOserver_process+0x4fc>
    a02a:	5430                	lw	a2,104(s0)
    a02c:	478d                	li	a5,3
    a02e:	4048                	lw	a0,4(s0)
    a030:	fff60713          	addi	a4,a2,-1
    a034:	02e7ea63          	bltu	a5,a4,a068 <CO_SDOserver_process+0x57c>
    a038:	4791                	li	a5,4
    a03a:	8f91                	sub	a5,a5,a2
    a03c:	078a                	slli	a5,a5,0x2
    a03e:	0437e793          	ori	a5,a5,67
    a042:	b15c                	sb	a5,5(a0)
    a044:	08040593          	addi	a1,s0,128
    a048:	0525                	addi	a0,a0,9
    a04a:	500010ef          	jal	ra,b54a <memcpy>
    a04e:	4901                	li	s2,0
    a050:	00042a23          	sw	zero,20(s0)
    a054:	3c1e                	lhu	a5,56(s0)
    a056:	404c                	lw	a1,4(s0)
    a058:	a1fe                	sh	a5,6(a1)
    a05a:	03a44783          	lbu	a5,58(s0)
    a05e:	a59c                	sb	a5,8(a1)
    a060:	4008                	lw	a0,0(s0)
    a062:	c57fd0ef          	jal	ra,7cb8 <CO_CANsend>
    a066:	bfb1                	j	9fc2 <CO_SDOserver_process+0x4d6>
    a068:	c21d                	beqz	a2,a08e <CO_SDOserver_process+0x5a2>
    a06a:	cc32                	sw	a2,24(sp)
    a06c:	04100793          	li	a5,65
    a070:	b15c                	sb	a5,5(a0)
    a072:	4611                	li	a2,4
    a074:	082c                	addi	a1,sp,24
    a076:	0525                	addi	a0,a0,9
    a078:	4d2010ef          	jal	ra,b54a <memcpy>
    a07c:	02300793          	li	a5,35
    a080:	06040823          	sb	zero,112(s0)
    a084:	06042e23          	sw	zero,124(s0)
    a088:	c85c                	sw	a5,20(s0)
    a08a:	4905                	li	s2,1
    a08c:	b7e1                	j	a054 <CO_SDOserver_process+0x568>
    a08e:	04000793          	li	a5,64
    a092:	b15c                	sb	a5,5(a0)
    a094:	b7e5                	j	a07c <CO_SDOserver_process+0x590>
    a096:	02300793          	li	a5,35
    a09a:	06042e23          	sw	zero,124(s0)
    a09e:	c85c                	sw	a5,20(s0)
    a0a0:	449d                	li	s1,7
    a0a2:	4905                	li	s2,1
    a0a4:	b5ed                	j	9f8e <CO_SDOserver_process+0x4a2>
    a0a6:	00091a63          	bnez	s2,a0ba <CO_SDOserver_process+0x5ce>
    a0aa:	00f4f863          	bgeu	s1,a5,a0ba <CO_SDOserver_process+0x5ce>
    a0ae:	060707b7          	lui	a5,0x6070
    a0b2:	07cd                	addi	a5,a5,19
    a0b4:	c83e                	sw	a5,16(sp)
    a0b6:	4785                	li	a5,1
    a0b8:	b7a1                	j	a000 <CO_SDOserver_process+0x514>
    a0ba:	404c                	lw	a1,4(s0)
    a0bc:	b755                	j	a060 <CO_SDOserver_process+0x574>
    a0be:	5579                	li	a0,-2
    a0c0:	8082                	ret
    a0c2:	a40599e3          	bnez	a1,9b14 <CO_SDOserver_process+0x28>
    a0c6:	00042a23          	sw	zero,20(s0)
    a0ca:	02042e23          	sw	zero,60(s0)
    a0ce:	bc3d                	j	9b0c <CO_SDOserver_process+0x20>
    a0d0:	d9fd                	beqz	a1,a0c6 <CO_SDOserver_process+0x5da>
    a0d2:	b499                	j	9b18 <CO_SDOserver_process+0x2c>

0000a0d4 <CO_delete>:
    a0d4:	c931                	beqz	a0,a128 <CO_delete+0x54>
    a0d6:	c48f62ef          	jal	t0,51e <__riscv_save_0>
    a0da:	842a                	mv	s0,a0
    a0dc:	4148                	lw	a0,4(a0)
    a0de:	b29fd0ef          	jal	ra,7c06 <CO_CANmodule_disable>
    a0e2:	4448                	lw	a0,12(s0)
    a0e4:	45c010ef          	jal	ra,b540 <free>
    a0e8:	4408                	lw	a0,8(s0)
    a0ea:	456010ef          	jal	ra,b540 <free>
    a0ee:	4048                	lw	a0,4(s0)
    a0f0:	450010ef          	jal	ra,b540 <free>
    a0f4:	5408                	lw	a0,40(s0)
    a0f6:	44a010ef          	jal	ra,b540 <free>
    a0fa:	5048                	lw	a0,36(s0)
    a0fc:	444010ef          	jal	ra,b540 <free>
    a100:	5008                	lw	a0,32(s0)
    a102:	43e010ef          	jal	ra,b540 <free>
    a106:	4c48                	lw	a0,28(s0)
    a108:	438010ef          	jal	ra,b540 <free>
    a10c:	4848                	lw	a0,20(s0)
    a10e:	432010ef          	jal	ra,b540 <free>
    a112:	4c08                	lw	a0,24(s0)
    a114:	42c010ef          	jal	ra,b540 <free>
    a118:	4808                	lw	a0,16(s0)
    a11a:	426010ef          	jal	ra,b540 <free>
    a11e:	8522                	mv	a0,s0
    a120:	420010ef          	jal	ra,b540 <free>
    a124:	c1ef606f          	j	542 <__riscv_restore_0>
    a128:	8082                	ret

0000a12a <CO_new>:
    a12a:	bf4f62ef          	jal	t0,51e <__riscv_save_0>
    a12e:	892e                	mv	s2,a1
    a130:	4505                	li	a0,1
    a132:	02c00593          	li	a1,44
    a136:	3fe010ef          	jal	ra,b534 <calloc>
    a13a:	84aa                	mv	s1,a0
    a13c:	c145                	beqz	a0,a1dc <CO_new+0xb2>
    a13e:	03800593          	li	a1,56
    a142:	4505                	li	a0,1
    a144:	3f0010ef          	jal	ra,b534 <calloc>
    a148:	c888                	sw	a0,16(s1)
    a14a:	cd59                	beqz	a0,a1e8 <CO_new+0xbe>
    a14c:	05000593          	li	a1,80
    a150:	4505                	li	a0,1
    a152:	3e2010ef          	jal	ra,b534 <calloc>
    a156:	c8c8                	sw	a0,20(s1)
    a158:	c959                	beqz	a0,a1ee <CO_new+0xc4>
    a15a:	45a1                	li	a1,8
    a15c:	4545                	li	a0,17
    a15e:	3d6010ef          	jal	ra,b534 <calloc>
    a162:	cc88                	sw	a0,24(s1)
    a164:	c941                	beqz	a0,a1f4 <CO_new+0xca>
    a166:	0ac00593          	li	a1,172
    a16a:	4505                	li	a0,1
    a16c:	3c8010ef          	jal	ra,b534 <calloc>
    a170:	ccc8                	sw	a0,28(s1)
    a172:	c541                	beqz	a0,a1fa <CO_new+0xd0>
    a174:	18000593          	li	a1,384
    a178:	4511                	li	a0,4
    a17a:	3ba010ef          	jal	ra,b534 <calloc>
    a17e:	d088                	sw	a0,32(s1)
    a180:	c141                	beqz	a0,a200 <CO_new+0xd6>
    a182:	18400593          	li	a1,388
    a186:	450d                	li	a0,3
    a188:	3ac010ef          	jal	ra,b534 <calloc>
    a18c:	d0c8                	sw	a0,36(s1)
    a18e:	cd25                	beqz	a0,a206 <CO_new+0xdc>
    a190:	07400593          	li	a1,116
    a194:	4505                	li	a0,1
    a196:	39e010ef          	jal	ra,b534 <calloc>
    a19a:	d488                	sw	a0,40(s1)
    a19c:	c925                	beqz	a0,a20c <CO_new+0xe2>
    a19e:	03800593          	li	a1,56
    a1a2:	4505                	li	a0,1
    a1a4:	390010ef          	jal	ra,b534 <calloc>
    a1a8:	c0c8                	sw	a0,4(s1)
    a1aa:	c52d                	beqz	a0,a214 <CO_new+0xea>
    a1ac:	45b1                	li	a1,12
    a1ae:	451d                	li	a0,7
    a1b0:	384010ef          	jal	ra,b534 <calloc>
    a1b4:	c488                	sw	a0,8(s1)
    a1b6:	c13d                	beqz	a0,a21c <CO_new+0xf2>
    a1b8:	45e1                	li	a1,24
    a1ba:	451d                	li	a0,7
    a1bc:	378010ef          	jal	ra,b534 <calloc>
    a1c0:	c4c8                	sw	a0,12(s1)
    a1c2:	c12d                	beqz	a0,a224 <CO_new+0xfa>
    a1c4:	4785                	li	a5,1
    a1c6:	6405                	lui	s0,0x1
    a1c8:	c09c                	sw	a5,0(s1)
    a1ca:	e1c40413          	addi	s0,s0,-484 # e1c <getOdometr+0x2>
    a1ce:	00090463          	beqz	s2,a1d6 <CO_new+0xac>
    a1d2:	00892023          	sw	s0,0(s2)
    a1d6:	8526                	mv	a0,s1
    a1d8:	b6af606f          	j	542 <__riscv_restore_0>
    a1dc:	4401                	li	s0,0
    a1de:	8526                	mv	a0,s1
    a1e0:	ef5ff0ef          	jal	ra,a0d4 <CO_delete>
    a1e4:	4481                	li	s1,0
    a1e6:	b7e5                	j	a1ce <CO_new+0xa4>
    a1e8:	02c00413          	li	s0,44
    a1ec:	bfcd                	j	a1de <CO_new+0xb4>
    a1ee:	06400413          	li	s0,100
    a1f2:	b7f5                	j	a1de <CO_new+0xb4>
    a1f4:	0b400413          	li	s0,180
    a1f8:	b7dd                	j	a1de <CO_new+0xb4>
    a1fa:	13c00413          	li	s0,316
    a1fe:	b7c5                	j	a1de <CO_new+0xb4>
    a200:	1e800413          	li	s0,488
    a204:	bfe9                	j	a1de <CO_new+0xb4>
    a206:	7e800413          	li	s0,2024
    a20a:	bfd1                	j	a1de <CO_new+0xb4>
    a20c:	6405                	lui	s0,0x1
    a20e:	c7440413          	addi	s0,s0,-908 # c74 <__stack_size+0x8c>
    a212:	b7f1                	j	a1de <CO_new+0xb4>
    a214:	6405                	lui	s0,0x1
    a216:	ce840413          	addi	s0,s0,-792 # ce8 <WriteRegAfterDelay+0x44>
    a21a:	b7d1                	j	a1de <CO_new+0xb4>
    a21c:	6405                	lui	s0,0x1
    a21e:	d2040413          	addi	s0,s0,-736 # d20 <WriteReg+0x1c>
    a222:	bf75                	j	a1de <CO_new+0xb4>
    a224:	6405                	lui	s0,0x1
    a226:	d7440413          	addi	s0,s0,-652 # d74 <vGetBitrate+0x1a>
    a22a:	bf55                	j	a1de <CO_new+0xb4>

0000a22c <CO_CANinit>:
    a22c:	c90d                	beqz	a0,a25e <CO_CANinit+0x32>
    a22e:	af0f62ef          	jal	t0,51e <__riscv_save_0>
    a232:	415c                	lw	a5,4(a0)
    a234:	1141                	addi	sp,sp,-16
    a236:	842a                	mv	s0,a0
    a238:	0007aa23          	sw	zero,20(a5) # 6070014 <_data_lma+0x6062518>
    a23c:	852e                	mv	a0,a1
    a23e:	c632                	sw	a2,12(sp)
    a240:	c42e                	sw	a1,8(sp)
    a242:	889fd0ef          	jal	ra,7aca <CO_CANsetConfigurationMode>
    a246:	4832                	lw	a6,12(sp)
    a248:	45a2                	lw	a1,8(sp)
    a24a:	4458                	lw	a4,12(s0)
    a24c:	4410                	lw	a2,8(s0)
    a24e:	4048                	lw	a0,4(s0)
    a250:	479d                	li	a5,7
    a252:	469d                	li	a3,7
    a254:	8a3fd0ef          	jal	ra,7af6 <CO_CANmodule_init>
    a258:	0141                	addi	sp,sp,16
    a25a:	ae8f606f          	j	542 <__riscv_restore_0>
    a25e:	557d                	li	a0,-1
    a260:	8082                	ret

0000a262 <CO_LSSinit>:
    a262:	c51d                	beqz	a0,a290 <CO_LSSinit+0x2e>
    a264:	abaf62ef          	jal	t0,51e <__riscv_save_0>
    a268:	1141                	addi	sp,sp,-16
    a26a:	7e400793          	li	a5,2020
    a26e:	c23e                	sw	a5,4(sp)
    a270:	4799                	li	a5,6
    a272:	c03e                	sw	a5,0(sp)
    a274:	00452883          	lw	a7,4(a0)
    a278:	5508                	lw	a0,40(a0)
    a27a:	8336                	mv	t1,a3
    a27c:	7e500813          	li	a6,2021
    a280:	86b2                	mv	a3,a2
    a282:	8746                	mv	a4,a7
    a284:	861a                	mv	a2,t1
    a286:	c21fd0ef          	jal	ra,7ea6 <CO_LSSslave_init>
    a28a:	0141                	addi	sp,sp,16
    a28c:	ab6f606f          	j	542 <__riscv_restore_0>
    a290:	557d                	li	a0,-1
    a292:	8082                	ret

0000a294 <CO_CANopenInit>:
    a294:	a62f62ef          	jal	t0,4f6 <__riscv_save_10>
    a298:	1101                	addi	sp,sp,-32
    a29a:	05814483          	lbu	s1,88(sp)
    a29e:	4976                	lw	s2,92(sp)
    a2a0:	e509                	bnez	a0,a2aa <CO_CANopenInit+0x16>
    a2a2:	557d                	li	a0,-1
    a2a4:	6105                	addi	sp,sp,32
    a2a6:	a88f606f          	j	52e <__riscv_restore_10>
    a2aa:	842a                	mv	s0,a0
    a2ac:	89b2                	mv	s3,a2
    a2ae:	8ab6                	mv	s5,a3
    a2b0:	8b3e                	mv	s6,a5
    a2b2:	8c42                	mv	s8,a6
    a2b4:	8bc6                	mv	s7,a7
    a2b6:	e219                	bnez	a2,a2bc <CO_CANopenInit+0x28>
    a2b8:	01452983          	lw	s3,20(a0)
    a2bc:	00042023          	sw	zero,0(s0)
    a2c0:	0ff00793          	li	a5,255
    a2c4:	00f49663          	bne	s1,a5,a2d0 <CO_CANopenInit+0x3c>
    a2c8:	4785                	li	a5,1
    a2ca:	c01c                	sw	a5,0(s0)
    a2cc:	5535                	li	a0,-19
    a2ce:	bfd9                	j	a2a4 <CO_CANopenInit+0x10>
    a2d0:	01849793          	slli	a5,s1,0x18
    a2d4:	87e1                	srai	a5,a5,0x18
    a2d6:	fcf056e3          	blez	a5,a2a2 <CO_CANopenInit+0xe>
    a2da:	81c1a783          	lw	a5,-2020(gp) # 200005c4 <OD>
    a2de:	4801                	li	a6,0
    a2e0:	4745                	li	a4,17
    a2e2:	43d0                	lw	a2,4(a5)
    a2e4:	c24a                	sw	s2,4(sp)
    a2e6:	c026                	sw	s1,0(sp)
    a2e8:	4c14                	lw	a3,24(s0)
    a2ea:	404c                	lw	a1,4(s0)
    a2ec:	4848                	lw	a0,20(s0)
    a2ee:	01860893          	addi	a7,a2,24
    a2f2:	05460793          	addi	a5,a2,84
    a2f6:	0631                	addi	a2,a2,12
    a2f8:	ef9fd0ef          	jal	ra,81f0 <CO_EM_init>
    a2fc:	f545                	bnez	a0,a2a4 <CO_CANopenInit+0x10>
    a2fe:	81c1a783          	lw	a5,-2020(gp) # 200005c4 <OD>
    a302:	00442803          	lw	a6,4(s0)
    a306:	4881                	li	a7,0
    a308:	43cc                	lw	a1,4(a5)
    a30a:	70048793          	addi	a5,s1,1792
    a30e:	c63e                	sw	a5,12(sp)
    a310:	4795                	li	a5,5
    a312:	c43e                	sw	a5,8(sp)
    a314:	c84a                	sw	s2,16(sp)
    a316:	c242                	sw	a6,4(sp)
    a318:	c002                	sw	zero,0(sp)
    a31a:	4808                	lw	a0,16(s0)
    a31c:	87e2                	mv	a5,s8
    a31e:	875a                	mv	a4,s6
    a320:	86a6                	mv	a3,s1
    a322:	864e                	mv	a2,s3
    a324:	06c58593          	addi	a1,a1,108
    a328:	a80fe0ef          	jal	ra,85a8 <CO_NMT_init>
    a32c:	fd25                	bnez	a0,a2a4 <CO_CANopenInit+0x10>
    a32e:	4791                	li	a5,4
    a330:	c03e                	sw	a5,0(sp)
    a332:	c24a                	sw	s2,4(sp)
    a334:	00442883          	lw	a7,4(s0)
    a338:	4c48                	lw	a0,28(s0)
    a33a:	4815                	li	a6,5
    a33c:	87c6                	mv	a5,a7
    a33e:	875e                	mv	a4,s7
    a340:	86a6                	mv	a3,s1
    a342:	4601                	li	a2,0
    a344:	85d6                	mv	a1,s5
    a346:	e34ff0ef          	jal	ra,997a <CO_SDOserver_init>
    a34a:	bfa9                	j	a2a4 <CO_CANopenInit+0x10>

0000a34c <CO_CANopenInitPDO>:
    a34c:	c17d                	beqz	a0,a432 <CO_CANopenInitPDO+0xe6>
    a34e:	9a8f62ef          	jal	t0,4f6 <__riscv_save_10>
    a352:	84aa                	mv	s1,a0
    a354:	411c                	lw	a5,0(a0)
    a356:	01869513          	slli	a0,a3,0x18
    a35a:	8561                	srai	a0,a0,0x18
    a35c:	1141                	addi	sp,sp,-16
    a35e:	00a05763          	blez	a0,a36c <CO_CANopenInitPDO+0x20>
    a362:	5535                	li	a0,-19
    a364:	cb81                	beqz	a5,a374 <CO_CANopenInitPDO+0x28>
    a366:	0141                	addi	sp,sp,16
    a368:	9c6f606f          	j	52e <__riscv_restore_10>
    a36c:	557d                	li	a0,-1
    a36e:	dfe5                	beqz	a5,a366 <CO_CANopenInitPDO+0x1a>
    a370:	5535                	li	a0,-19
    a372:	bfd5                	j	a366 <CO_CANopenInitPDO+0x1a>
    a374:	8a3a                	mv	s4,a4
    a376:	81c1a703          	lw	a4,-2020(gp) # 200005c4 <OD>
    a37a:	01069413          	slli	s0,a3,0x10
    a37e:	8041                	srli	s0,s0,0x10
    a380:	4358                	lw	a4,4(a4)
    a382:	89b2                	mv	s3,a2
    a384:	892e                	mv	s2,a1
    a386:	08470713          	addi	a4,a4,132
    a38a:	20040a93          	addi	s5,s0,512
    a38e:	4501                	li	a0,0
    a390:	8b3e                	mv	s6,a5
    a392:	18000d13          	li	s10,384
    a396:	4c11                	li	s8,4
    a398:	00150b93          	addi	s7,a0,1
    a39c:	03a50533          	mul	a0,a0,s10
    a3a0:	0204a303          	lw	t1,32(s1)
    a3a4:	c052                	sw	s4,0(sp)
    a3a6:	0044a803          	lw	a6,4(s1)
    a3aa:	010b9893          	slli	a7,s7,0x10
    a3ae:	0108d893          	srli	a7,a7,0x10
    a3b2:	03070793          	addi	a5,a4,48
    a3b6:	86d6                	mv	a3,s5
    a3b8:	864a                	mv	a2,s2
    a3ba:	85ce                	mv	a1,s3
    a3bc:	951a                	add	a0,a0,t1
    a3be:	00c70c93          	addi	s9,a4,12
    a3c2:	d0ffe0ef          	jal	ra,90d0 <CO_RPDO_init>
    a3c6:	f145                	bnez	a0,a366 <CO_CANopenInitPDO+0x1a>
    a3c8:	100a8a93          	addi	s5,s5,256
    a3cc:	0ac2                	slli	s5,s5,0x10
    a3ce:	855e                	mv	a0,s7
    a3d0:	010ada93          	srli	s5,s5,0x10
    a3d4:	8766                	mv	a4,s9
    a3d6:	fd8b91e3          	bne	s7,s8,a398 <CO_CANopenInitPDO+0x4c>
    a3da:	81c1a783          	lw	a5,-2020(gp) # 200005c4 <OD>
    a3de:	18040413          	addi	s0,s0,384
    a3e2:	18400c13          	li	s8,388
    a3e6:	43dc                	lw	a5,4(a5)
    a3e8:	4b0d                	li	s6,3
    a3ea:	0e478713          	addi	a4,a5,228
    a3ee:	4781                	li	a5,0
    a3f0:	03878533          	mul	a0,a5,s8
    a3f4:	0244a303          	lw	t1,36(s1)
    a3f8:	c052                	sw	s4,0(sp)
    a3fa:	00178a93          	addi	s5,a5,1
    a3fe:	0044a803          	lw	a6,4(s1)
    a402:	010a9893          	slli	a7,s5,0x10
    a406:	0108d893          	srli	a7,a7,0x10
    a40a:	02470793          	addi	a5,a4,36
    a40e:	86a2                	mv	a3,s0
    a410:	864a                	mv	a2,s2
    a412:	85ce                	mv	a1,s3
    a414:	951a                	add	a0,a0,t1
    a416:	00c70b93          	addi	s7,a4,12
    a41a:	f3dfe0ef          	jal	ra,9356 <CO_TPDO_init>
    a41e:	f521                	bnez	a0,a366 <CO_CANopenInitPDO+0x1a>
    a420:	10040413          	addi	s0,s0,256
    a424:	0442                	slli	s0,s0,0x10
    a426:	87d6                	mv	a5,s5
    a428:	8041                	srli	s0,s0,0x10
    a42a:	875e                	mv	a4,s7
    a42c:	fd6a92e3          	bne	s5,s6,a3f0 <CO_CANopenInitPDO+0xa4>
    a430:	bf1d                	j	a366 <CO_CANopenInitPDO+0x1a>
    a432:	557d                	li	a0,-1
    a434:	8082                	ret

0000a436 <CO_process>:
    a436:	8cef62ef          	jal	t0,504 <__riscv_save_4>
    a43a:	491c                	lw	a5,16(a0)
    a43c:	1101                	addi	sp,sp,-32
    a43e:	842a                	mv	s0,a0
    a440:	8932                	mv	s2,a2
    a442:	89b6                	mv	s3,a3
    a444:	efa9                	bnez	a5,a49e <CO_process+0x68>
    a446:	ce02                	sw	zero,28(sp)
    a448:	4581                	li	a1,0
    a44a:	4048                	lw	a0,4(s0)
    a44c:	c62e                	sw	a1,12(sp)
    a44e:	859fd0ef          	jal	ra,7ca6 <CO_CANmodule_process>
    a452:	5408                	lw	a0,40(s0)
    a454:	af7fd0ef          	jal	ra,7f4a <CO_LSSslave_process>
    a458:	401c                	lw	a5,0(s0)
    a45a:	45b2                	lw	a1,12(sp)
    a45c:	00a034b3          	snez	s1,a0
    a460:	eb9d                	bnez	a5,a496 <CO_process+0x60>
    a462:	4848                	lw	a0,20(s0)
    a464:	86ce                	mv	a3,s3
    a466:	864a                	mv	a2,s2
    a468:	f5ffd0ef          	jal	ra,83c6 <CO_EM_process>
    a46c:	4808                	lw	a0,16(s0)
    a46e:	086c                	addi	a1,sp,28
    a470:	86ce                	mv	a3,s3
    a472:	864a                	mv	a2,s2
    a474:	a20fe0ef          	jal	ra,8694 <CO_NMT_process>
    a478:	47f2                	lw	a5,28(sp)
    a47a:	07f00713          	li	a4,127
    a47e:	84aa                	mv	s1,a0
    a480:	4585                	li	a1,1
    a482:	00e78563          	beq	a5,a4,a48c <CO_process+0x56>
    a486:	17ed                	addi	a5,a5,-5
    a488:	0017b593          	seqz	a1,a5
    a48c:	4c48                	lw	a0,28(s0)
    a48e:	86ce                	mv	a3,s3
    a490:	864a                	mv	a2,s2
    a492:	e5aff0ef          	jal	ra,9aec <CO_SDOserver_process>
    a496:	8526                	mv	a0,s1
    a498:	6105                	addi	sp,sp,32
    a49a:	89ef606f          	j	538 <__riscv_restore_4>
    a49e:	439c                	lw	a5,0(a5)
    a4a0:	07f00713          	li	a4,127
    a4a4:	4585                	li	a1,1
    a4a6:	ce3e                	sw	a5,28(sp)
    a4a8:	fae781e3          	beq	a5,a4,a44a <CO_process+0x14>
    a4ac:	17ed                	addi	a5,a5,-5
    a4ae:	0017b593          	seqz	a1,a5
    a4b2:	bf61                	j	a44a <CO_process+0x14>

0000a4b4 <CO_process_RPDO>:
    a4b4:	411c                	lw	a5,0(a0)
    a4b6:	ef95                	bnez	a5,a4f2 <CO_process_RPDO+0x3e>
    a4b8:	84cf62ef          	jal	t0,504 <__riscv_save_4>
    a4bc:	4918                	lw	a4,16(a0)
    a4be:	c311                	beqz	a4,a4c2 <CO_process_RPDO+0xe>
    a4c0:	431c                	lw	a5,0(a4)
    a4c2:	17ed                	addi	a5,a5,-5
    a4c4:	8a36                	mv	s4,a3
    a4c6:	89b2                	mv	s3,a2
    a4c8:	8aae                	mv	s5,a1
    a4ca:	84aa                	mv	s1,a0
    a4cc:	0017b413          	seqz	s0,a5
    a4d0:	4901                	li	s2,0
    a4d2:	60000b13          	li	s6,1536
    a4d6:	5088                	lw	a0,32(s1)
    a4d8:	8756                	mv	a4,s5
    a4da:	86a2                	mv	a3,s0
    a4dc:	954a                	add	a0,a0,s2
    a4de:	8652                	mv	a2,s4
    a4e0:	85ce                	mv	a1,s3
    a4e2:	18090913          	addi	s2,s2,384
    a4e6:	d5dfe0ef          	jal	ra,9242 <CO_RPDO_process>
    a4ea:	ff6916e3          	bne	s2,s6,a4d6 <CO_process_RPDO+0x22>
    a4ee:	84af606f          	j	538 <__riscv_restore_4>
    a4f2:	8082                	ret

0000a4f4 <CO_process_TPDO>:
    a4f4:	411c                	lw	a5,0(a0)
    a4f6:	ef95                	bnez	a5,a532 <CO_process_TPDO+0x3e>
    a4f8:	80cf62ef          	jal	t0,504 <__riscv_save_4>
    a4fc:	4918                	lw	a4,16(a0)
    a4fe:	c311                	beqz	a4,a502 <CO_process_TPDO+0xe>
    a500:	431c                	lw	a5,0(a4)
    a502:	17ed                	addi	a5,a5,-5
    a504:	8a36                	mv	s4,a3
    a506:	89b2                	mv	s3,a2
    a508:	8aae                	mv	s5,a1
    a50a:	84aa                	mv	s1,a0
    a50c:	0017b413          	seqz	s0,a5
    a510:	4901                	li	s2,0
    a512:	48c00b13          	li	s6,1164
    a516:	50c8                	lw	a0,36(s1)
    a518:	8756                	mv	a4,s5
    a51a:	86a2                	mv	a3,s0
    a51c:	954a                	add	a0,a0,s2
    a51e:	8652                	mv	a2,s4
    a520:	85ce                	mv	a1,s3
    a522:	18490913          	addi	s2,s2,388
    a526:	802ff0ef          	jal	ra,9528 <CO_TPDO_process>
    a52a:	ff6916e3          	bne	s2,s6,a516 <CO_process_TPDO+0x22>
    a52e:	80af606f          	j	538 <__riscv_restore_4>
    a532:	8082                	ret

0000a534 <__addsf3>:
    a534:	1141                	addi	sp,sp,-16
    a536:	00800737          	lui	a4,0x800
    a53a:	177d                	addi	a4,a4,-1
    a53c:	0175d813          	srli	a6,a1,0x17
    a540:	c226                	sw	s1,4(sp)
    a542:	01755493          	srli	s1,a0,0x17
    a546:	00a77333          	and	t1,a4,a0
    a54a:	0ff4f493          	andi	s1,s1,255
    a54e:	00b776b3          	and	a3,a4,a1
    a552:	c04a                	sw	s2,0(sp)
    a554:	0ff87813          	andi	a6,a6,255
    a558:	01f55913          	srli	s2,a0,0x1f
    a55c:	c606                	sw	ra,12(sp)
    a55e:	c422                	sw	s0,8(sp)
    a560:	81fd                	srli	a1,a1,0x1f
    a562:	879a                	mv	a5,t1
    a564:	8526                	mv	a0,s1
    a566:	864a                	mv	a2,s2
    a568:	00331e13          	slli	t3,t1,0x3
    a56c:	00369e93          	slli	t4,a3,0x3
    a570:	410488b3          	sub	a7,s1,a6
    a574:	0eb90a63          	beq	s2,a1,a668 <__addsf3+0x134>
    a578:	0d105063          	blez	a7,a638 <__addsf3+0x104>
    a57c:	14080463          	beqz	a6,a6c4 <__addsf3+0x190>
    a580:	0ff00793          	li	a5,255
    a584:	14f48b63          	beq	s1,a5,a6da <__addsf3+0x1a6>
    a588:	040007b7          	lui	a5,0x4000
    a58c:	00feeeb3          	or	t4,t4,a5
    a590:	47ed                	li	a5,27
    a592:	2917c163          	blt	a5,a7,a814 <__addsf3+0x2e0>
    a596:	02000793          	li	a5,32
    a59a:	411787b3          	sub	a5,a5,a7
    a59e:	00fe97b3          	sll	a5,t4,a5
    a5a2:	011ed8b3          	srl	a7,t4,a7
    a5a6:	00f037b3          	snez	a5,a5
    a5aa:	00f8e7b3          	or	a5,a7,a5
    a5ae:	40fe07b3          	sub	a5,t3,a5
    a5b2:	00579713          	slli	a4,a5,0x5
    a5b6:	18075e63          	bgez	a4,a752 <__addsf3+0x21e>
    a5ba:	04000437          	lui	s0,0x4000
    a5be:	147d                	addi	s0,s0,-1
    a5c0:	8c7d                	and	s0,s0,a5
    a5c2:	8522                	mv	a0,s0
    a5c4:	703000ef          	jal	ra,b4c6 <__clzsi2>
    a5c8:	156d                	addi	a0,a0,-5
    a5ca:	00a417b3          	sll	a5,s0,a0
    a5ce:	1a954863          	blt	a0,s1,a77e <__addsf3+0x24a>
    a5d2:	8d05                	sub	a0,a0,s1
    a5d4:	00150413          	addi	s0,a0,1
    a5d8:	02000713          	li	a4,32
    a5dc:	8f01                	sub	a4,a4,s0
    a5de:	00e79733          	sll	a4,a5,a4
    a5e2:	00e03733          	snez	a4,a4
    a5e6:	0087d7b3          	srl	a5,a5,s0
    a5ea:	8fd9                	or	a5,a5,a4
    a5ec:	4481                	li	s1,0
    a5ee:	0077f713          	andi	a4,a5,7
    a5f2:	c719                	beqz	a4,a600 <__addsf3+0xcc>
    a5f4:	00f7f713          	andi	a4,a5,15
    a5f8:	4691                	li	a3,4
    a5fa:	00d70363          	beq	a4,a3,a600 <__addsf3+0xcc>
    a5fe:	0791                	addi	a5,a5,4
    a600:	00579713          	slli	a4,a5,0x5
    a604:	14075b63          	bgez	a4,a75a <__addsf3+0x226>
    a608:	0485                	addi	s1,s1,1
    a60a:	0ff00713          	li	a4,255
    a60e:	864a                	mv	a2,s2
    a610:	16e48363          	beq	s1,a4,a776 <__addsf3+0x242>
    a614:	079a                	slli	a5,a5,0x6
    a616:	83a5                	srli	a5,a5,0x9
    a618:	0ff4f513          	andi	a0,s1,255
    a61c:	40b2                	lw	ra,12(sp)
    a61e:	4422                	lw	s0,8(sp)
    a620:	07a6                	slli	a5,a5,0x9
    a622:	01751493          	slli	s1,a0,0x17
    a626:	0097d513          	srli	a0,a5,0x9
    a62a:	8d45                	or	a0,a0,s1
    a62c:	067e                	slli	a2,a2,0x1f
    a62e:	4492                	lw	s1,4(sp)
    a630:	4902                	lw	s2,0(sp)
    a632:	8d51                	or	a0,a0,a2
    a634:	0141                	addi	sp,sp,16
    a636:	8082                	ret
    a638:	0a089963          	bnez	a7,a6ea <__addsf3+0x1b6>
    a63c:	00148713          	addi	a4,s1,1
    a640:	0fe77713          	andi	a4,a4,254
    a644:	14071763          	bnez	a4,a792 <__addsf3+0x25e>
    a648:	22049063          	bnez	s1,a868 <__addsf3+0x334>
    a64c:	1e0e0d63          	beqz	t3,a846 <__addsf3+0x312>
    a650:	fc0e86e3          	beqz	t4,a61c <__addsf3+0xe8>
    a654:	41de07b3          	sub	a5,t3,t4
    a658:	00579713          	slli	a4,a5,0x5
    a65c:	22075063          	bgez	a4,a87c <__addsf3+0x348>
    a660:	41ce87b3          	sub	a5,t4,t3
    a664:	892e                	mv	s2,a1
    a666:	b761                	j	a5ee <__addsf3+0xba>
    a668:	0b105c63          	blez	a7,a720 <__addsf3+0x1ec>
    a66c:	08080e63          	beqz	a6,a708 <__addsf3+0x1d4>
    a670:	0ff00793          	li	a5,255
    a674:	06f48363          	beq	s1,a5,a6da <__addsf3+0x1a6>
    a678:	040007b7          	lui	a5,0x4000
    a67c:	00feeeb3          	or	t4,t4,a5
    a680:	47ed                	li	a5,27
    a682:	1f17c963          	blt	a5,a7,a874 <__addsf3+0x340>
    a686:	02000793          	li	a5,32
    a68a:	411787b3          	sub	a5,a5,a7
    a68e:	00fe97b3          	sll	a5,t4,a5
    a692:	011ed8b3          	srl	a7,t4,a7
    a696:	00f037b3          	snez	a5,a5
    a69a:	00f8e7b3          	or	a5,a7,a5
    a69e:	97f2                	add	a5,a5,t3
    a6a0:	00579713          	slli	a4,a5,0x5
    a6a4:	0a075763          	bgez	a4,a752 <__addsf3+0x21e>
    a6a8:	0485                	addi	s1,s1,1
    a6aa:	0ff00713          	li	a4,255
    a6ae:	0ce48463          	beq	s1,a4,a776 <__addsf3+0x242>
    a6b2:	7e0006b7          	lui	a3,0x7e000
    a6b6:	0017d713          	srli	a4,a5,0x1
    a6ba:	16fd                	addi	a3,a3,-1
    a6bc:	8b85                	andi	a5,a5,1
    a6be:	8f75                	and	a4,a4,a3
    a6c0:	8fd9                	or	a5,a5,a4
    a6c2:	b735                	j	a5ee <__addsf3+0xba>
    a6c4:	080e8d63          	beqz	t4,a75e <__addsf3+0x22a>
    a6c8:	18fd                	addi	a7,a7,-1
    a6ca:	41de07b3          	sub	a5,t3,t4
    a6ce:	ee0882e3          	beqz	a7,a5b2 <__addsf3+0x7e>
    a6d2:	0ff00793          	li	a5,255
    a6d6:	eaf49de3          	bne	s1,a5,a590 <__addsf3+0x5c>
    a6da:	08030d63          	beqz	t1,a774 <__addsf3+0x240>
    a6de:	4601                	li	a2,0
    a6e0:	0ff00513          	li	a0,255
    a6e4:	004007b7          	lui	a5,0x400
    a6e8:	bf15                	j	a61c <__addsf3+0xe8>
    a6ea:	40980733          	sub	a4,a6,s1
    a6ee:	e8ed                	bnez	s1,a7e0 <__addsf3+0x2ac>
    a6f0:	140e0263          	beqz	t3,a834 <__addsf3+0x300>
    a6f4:	177d                	addi	a4,a4,-1
    a6f6:	18070863          	beqz	a4,a886 <__addsf3+0x352>
    a6fa:	0ff00793          	li	a5,255
    a6fe:	0ef81963          	bne	a6,a5,a7f0 <__addsf3+0x2bc>
    a702:	892e                	mv	s2,a1
    a704:	8336                	mv	t1,a3
    a706:	bfd1                	j	a6da <__addsf3+0x1a6>
    a708:	040e8b63          	beqz	t4,a75e <__addsf3+0x22a>
    a70c:	18fd                	addi	a7,a7,-1
    a70e:	01de07b3          	add	a5,t3,t4
    a712:	f80887e3          	beqz	a7,a6a0 <__addsf3+0x16c>
    a716:	0ff00793          	li	a5,255
    a71a:	f6f493e3          	bne	s1,a5,a680 <__addsf3+0x14c>
    a71e:	bf75                	j	a6da <__addsf3+0x1a6>
    a720:	08089563          	bnez	a7,a7aa <__addsf3+0x276>
    a724:	0485                	addi	s1,s1,1
    a726:	0fe4f713          	andi	a4,s1,254
    a72a:	12071363          	bnez	a4,a850 <__addsf3+0x31c>
    a72e:	10051763          	bnez	a0,a83c <__addsf3+0x308>
    a732:	140e0f63          	beqz	t3,a890 <__addsf3+0x35c>
    a736:	ee0e83e3          	beqz	t4,a61c <__addsf3+0xe8>
    a73a:	01de07b3          	add	a5,t3,t4
    a73e:	00579713          	slli	a4,a5,0x5
    a742:	4481                	li	s1,0
    a744:	00075763          	bgez	a4,a752 <__addsf3+0x21e>
    a748:	fc000737          	lui	a4,0xfc000
    a74c:	177d                	addi	a4,a4,-1
    a74e:	8ff9                	and	a5,a5,a4
    a750:	4485                	li	s1,1
    a752:	0077f713          	andi	a4,a5,7
    a756:	e8071fe3          	bnez	a4,a5f4 <__addsf3+0xc0>
    a75a:	0037d313          	srli	t1,a5,0x3
    a75e:	0ff00793          	li	a5,255
    a762:	f6f48ce3          	beq	s1,a5,a6da <__addsf3+0x1a6>
    a766:	00931793          	slli	a5,t1,0x9
    a76a:	83a5                	srli	a5,a5,0x9
    a76c:	0ff4f513          	andi	a0,s1,255
    a770:	864a                	mv	a2,s2
    a772:	b56d                	j	a61c <__addsf3+0xe8>
    a774:	864a                	mv	a2,s2
    a776:	0ff00513          	li	a0,255
    a77a:	4781                	li	a5,0
    a77c:	b545                	j	a61c <__addsf3+0xe8>
    a77e:	fc000737          	lui	a4,0xfc000
    a782:	177d                	addi	a4,a4,-1
    a784:	8ff9                	and	a5,a5,a4
    a786:	0077f713          	andi	a4,a5,7
    a78a:	8c89                	sub	s1,s1,a0
    a78c:	e60714e3          	bnez	a4,a5f4 <__addsf3+0xc0>
    a790:	b7e9                	j	a75a <__addsf3+0x226>
    a792:	41de0433          	sub	s0,t3,t4
    a796:	00541793          	slli	a5,s0,0x5
    a79a:	0c07c363          	bltz	a5,a860 <__addsf3+0x32c>
    a79e:	e20412e3          	bnez	s0,a5c2 <__addsf3+0x8e>
    a7a2:	4601                	li	a2,0
    a7a4:	4501                	li	a0,0
    a7a6:	4781                	li	a5,0
    a7a8:	bd95                	j	a61c <__addsf3+0xe8>
    a7aa:	40980733          	sub	a4,a6,s1
    a7ae:	c4ad                	beqz	s1,a818 <__addsf3+0x2e4>
    a7b0:	0ff00793          	li	a5,255
    a7b4:	f4f808e3          	beq	a6,a5,a704 <__addsf3+0x1d0>
    a7b8:	040007b7          	lui	a5,0x4000
    a7bc:	00fe6e33          	or	t3,t3,a5
    a7c0:	47ed                	li	a5,27
    a7c2:	0ce7cc63          	blt	a5,a4,a89a <__addsf3+0x366>
    a7c6:	02000793          	li	a5,32
    a7ca:	8f99                	sub	a5,a5,a4
    a7cc:	00fe17b3          	sll	a5,t3,a5
    a7d0:	00ee5733          	srl	a4,t3,a4
    a7d4:	00f037b3          	snez	a5,a5
    a7d8:	8fd9                	or	a5,a5,a4
    a7da:	97f6                	add	a5,a5,t4
    a7dc:	84c2                	mv	s1,a6
    a7de:	b5c9                	j	a6a0 <__addsf3+0x16c>
    a7e0:	0ff00793          	li	a5,255
    a7e4:	f0f80fe3          	beq	a6,a5,a702 <__addsf3+0x1ce>
    a7e8:	040007b7          	lui	a5,0x4000
    a7ec:	00fe6e33          	or	t3,t3,a5
    a7f0:	47ed                	li	a5,27
    a7f2:	08e7c363          	blt	a5,a4,a878 <__addsf3+0x344>
    a7f6:	02000693          	li	a3,32
    a7fa:	8e99                	sub	a3,a3,a4
    a7fc:	00de16b3          	sll	a3,t3,a3
    a800:	00ee57b3          	srl	a5,t3,a4
    a804:	00d03733          	snez	a4,a3
    a808:	8fd9                	or	a5,a5,a4
    a80a:	40fe87b3          	sub	a5,t4,a5
    a80e:	84c2                	mv	s1,a6
    a810:	892e                	mv	s2,a1
    a812:	b345                	j	a5b2 <__addsf3+0x7e>
    a814:	4785                	li	a5,1
    a816:	bb61                	j	a5ae <__addsf3+0x7a>
    a818:	060e0e63          	beqz	t3,a894 <__addsf3+0x360>
    a81c:	177d                	addi	a4,a4,-1
    a81e:	01de07b3          	add	a5,t3,t4
    a822:	84c2                	mv	s1,a6
    a824:	e6070ee3          	beqz	a4,a6a0 <__addsf3+0x16c>
    a828:	0ff00793          	li	a5,255
    a82c:	f8f81ae3          	bne	a6,a5,a7c0 <__addsf3+0x28c>
    a830:	8336                	mv	t1,a3
    a832:	b565                	j	a6da <__addsf3+0x1a6>
    a834:	8336                	mv	t1,a3
    a836:	84c2                	mv	s1,a6
    a838:	892e                	mv	s2,a1
    a83a:	b715                	j	a75e <__addsf3+0x22a>
    a83c:	ec0e04e3          	beqz	t3,a704 <__addsf3+0x1d0>
    a840:	e80e8de3          	beqz	t4,a6da <__addsf3+0x1a6>
    a844:	bd69                	j	a6de <__addsf3+0x1aa>
    a846:	020e8d63          	beqz	t4,a880 <__addsf3+0x34c>
    a84a:	862e                	mv	a2,a1
    a84c:	87b6                	mv	a5,a3
    a84e:	b3f9                	j	a61c <__addsf3+0xe8>
    a850:	0ff00793          	li	a5,255
    a854:	f2f481e3          	beq	s1,a5,a776 <__addsf3+0x242>
    a858:	01de07b3          	add	a5,t3,t4
    a85c:	8385                	srli	a5,a5,0x1
    a85e:	bdd5                	j	a752 <__addsf3+0x21e>
    a860:	41ce8433          	sub	s0,t4,t3
    a864:	892e                	mv	s2,a1
    a866:	bbb1                	j	a5c2 <__addsf3+0x8e>
    a868:	fc0e1ce3          	bnez	t3,a840 <__addsf3+0x30c>
    a86c:	e60e89e3          	beqz	t4,a6de <__addsf3+0x1aa>
    a870:	892e                	mv	s2,a1
    a872:	bd49                	j	a704 <__addsf3+0x1d0>
    a874:	4785                	li	a5,1
    a876:	b525                	j	a69e <__addsf3+0x16a>
    a878:	4785                	li	a5,1
    a87a:	bf41                	j	a80a <__addsf3+0x2d6>
    a87c:	ec079be3          	bnez	a5,a752 <__addsf3+0x21e>
    a880:	4601                	li	a2,0
    a882:	4781                	li	a5,0
    a884:	bb61                	j	a61c <__addsf3+0xe8>
    a886:	41ce87b3          	sub	a5,t4,t3
    a88a:	84c2                	mv	s1,a6
    a88c:	892e                	mv	s2,a1
    a88e:	b315                	j	a5b2 <__addsf3+0x7e>
    a890:	87b6                	mv	a5,a3
    a892:	b369                	j	a61c <__addsf3+0xe8>
    a894:	8336                	mv	t1,a3
    a896:	84c2                	mv	s1,a6
    a898:	b5d9                	j	a75e <__addsf3+0x22a>
    a89a:	4785                	li	a5,1
    a89c:	bf3d                	j	a7da <__addsf3+0x2a6>

0000a89e <__divsf3>:
    a89e:	7139                	addi	sp,sp,-64
    a8a0:	01755793          	srli	a5,a0,0x17
    a8a4:	d84a                	sw	s2,48(sp)
    a8a6:	d256                	sw	s5,36(sp)
    a8a8:	ce5e                	sw	s7,28(sp)
    a8aa:	00951a93          	slli	s5,a0,0x9
    a8ae:	01f55913          	srli	s2,a0,0x1f
    a8b2:	de06                	sw	ra,60(sp)
    a8b4:	dc22                	sw	s0,56(sp)
    a8b6:	da26                	sw	s1,52(sp)
    a8b8:	d64e                	sw	s3,44(sp)
    a8ba:	d452                	sw	s4,40(sp)
    a8bc:	d05a                	sw	s6,32(sp)
    a8be:	0ff7f793          	andi	a5,a5,255
    a8c2:	009ada93          	srli	s5,s5,0x9
    a8c6:	8bca                	mv	s7,s2
    a8c8:	12078263          	beqz	a5,a9ec <__divsf3+0x14e>
    a8cc:	0ff00713          	li	a4,255
    a8d0:	12e78463          	beq	a5,a4,a9f8 <__divsf3+0x15a>
    a8d4:	0a8e                	slli	s5,s5,0x3
    a8d6:	04000737          	lui	a4,0x4000
    a8da:	00eaeab3          	or	s5,s5,a4
    a8de:	f8178a13          	addi	s4,a5,-127 # 3ffff81 <_data_lma+0x3ff2485>
    a8e2:	4401                	li	s0,0
    a8e4:	4b01                	li	s6,0
    a8e6:	0175d793          	srli	a5,a1,0x17
    a8ea:	00959493          	slli	s1,a1,0x9
    a8ee:	0ff7f793          	andi	a5,a5,255
    a8f2:	80a5                	srli	s1,s1,0x9
    a8f4:	01f5d993          	srli	s3,a1,0x1f
    a8f8:	c7fd                	beqz	a5,a9e6 <__divsf3+0x148>
    a8fa:	0ff00713          	li	a4,255
    a8fe:	02e78763          	beq	a5,a4,a92c <__divsf3+0x8e>
    a902:	048e                	slli	s1,s1,0x3
    a904:	f8178793          	addi	a5,a5,-127
    a908:	04000737          	lui	a4,0x4000
    a90c:	8cd9                	or	s1,s1,a4
    a90e:	40fa0a33          	sub	s4,s4,a5
    a912:	4681                	li	a3,0
    a914:	8c55                	or	s0,s0,a3
    a916:	00003717          	auipc	a4,0x3
    a91a:	f8a70713          	addi	a4,a4,-118 # d8a0 <abortCodes.6833+0x68>
    a91e:	040a                	slli	s0,s0,0x2
    a920:	943a                	add	s0,s0,a4
    a922:	401c                	lw	a5,0(s0)
    a924:	01394933          	xor	s2,s2,s3
    a928:	97ba                	add	a5,a5,a4
    a92a:	8782                	jr	a5
    a92c:	f01a0a13          	addi	s4,s4,-255
    a930:	e8f9                	bnez	s1,aa06 <__divsf3+0x168>
    a932:	4689                	li	a3,2
    a934:	8c55                	or	s0,s0,a3
    a936:	00003717          	auipc	a4,0x3
    a93a:	faa70713          	addi	a4,a4,-86 # d8e0 <abortCodes.6833+0xa8>
    a93e:	040a                	slli	s0,s0,0x2
    a940:	943a                	add	s0,s0,a4
    a942:	401c                	lw	a5,0(s0)
    a944:	01394933          	xor	s2,s2,s3
    a948:	97ba                	add	a5,a5,a4
    a94a:	8782                	jr	a5
    a94c:	4901                	li	s2,0
    a94e:	0ff00713          	li	a4,255
    a952:	004007b7          	lui	a5,0x400
    a956:	00979513          	slli	a0,a5,0x9
    a95a:	50f2                	lw	ra,60(sp)
    a95c:	5462                	lw	s0,56(sp)
    a95e:	01771793          	slli	a5,a4,0x17
    a962:	8125                	srli	a0,a0,0x9
    a964:	097e                	slli	s2,s2,0x1f
    a966:	8d5d                	or	a0,a0,a5
    a968:	01256533          	or	a0,a0,s2
    a96c:	54d2                	lw	s1,52(sp)
    a96e:	5942                	lw	s2,48(sp)
    a970:	59b2                	lw	s3,44(sp)
    a972:	5a22                	lw	s4,40(sp)
    a974:	5a92                	lw	s5,36(sp)
    a976:	5b02                	lw	s6,32(sp)
    a978:	4bf2                	lw	s7,28(sp)
    a97a:	6121                	addi	sp,sp,64
    a97c:	8082                	ret
    a97e:	0ff00713          	li	a4,255
    a982:	4781                	li	a5,0
    a984:	bfc9                	j	a956 <__divsf3+0xb8>
    a986:	8aa6                	mv	s5,s1
    a988:	8bce                	mv	s7,s3
    a98a:	8b36                	mv	s6,a3
    a98c:	4789                	li	a5,2
    a98e:	1afb0b63          	beq	s6,a5,ab44 <__divsf3+0x2a6>
    a992:	478d                	li	a5,3
    a994:	fafb0ce3          	beq	s6,a5,a94c <__divsf3+0xae>
    a998:	4785                	li	a5,1
    a99a:	0afb0a63          	beq	s6,a5,aa4e <__divsf3+0x1b0>
    a99e:	07fa0713          	addi	a4,s4,127
    a9a2:	001bf913          	andi	s2,s7,1
    a9a6:	12e05763          	blez	a4,aad4 <__divsf3+0x236>
    a9aa:	007af793          	andi	a5,s5,7
    a9ae:	c799                	beqz	a5,a9bc <__divsf3+0x11e>
    a9b0:	00faf793          	andi	a5,s5,15
    a9b4:	4691                	li	a3,4
    a9b6:	00d78363          	beq	a5,a3,a9bc <__divsf3+0x11e>
    a9ba:	0a91                	addi	s5,s5,4
    a9bc:	004a9793          	slli	a5,s5,0x4
    a9c0:	0007d963          	bgez	a5,a9d2 <__divsf3+0x134>
    a9c4:	f80007b7          	lui	a5,0xf8000
    a9c8:	17fd                	addi	a5,a5,-1
    a9ca:	00fafab3          	and	s5,s5,a5
    a9ce:	080a0713          	addi	a4,s4,128
    a9d2:	0fe00793          	li	a5,254
    a9d6:	fae7c4e3          	blt	a5,a4,a97e <__divsf3+0xe0>
    a9da:	006a9793          	slli	a5,s5,0x6
    a9de:	83a5                	srli	a5,a5,0x9
    a9e0:	0ff77713          	andi	a4,a4,255
    a9e4:	bf8d                	j	a956 <__divsf3+0xb8>
    a9e6:	e4b9                	bnez	s1,aa34 <__divsf3+0x196>
    a9e8:	4685                	li	a3,1
    a9ea:	b7a9                	j	a934 <__divsf3+0x96>
    a9ec:	020a9463          	bnez	s5,aa14 <__divsf3+0x176>
    a9f0:	4411                	li	s0,4
    a9f2:	4a01                	li	s4,0
    a9f4:	4b05                	li	s6,1
    a9f6:	bdc5                	j	a8e6 <__divsf3+0x48>
    a9f8:	000a9963          	bnez	s5,aa0a <__divsf3+0x16c>
    a9fc:	4421                	li	s0,8
    a9fe:	0ff00a13          	li	s4,255
    aa02:	4b09                	li	s6,2
    aa04:	b5cd                	j	a8e6 <__divsf3+0x48>
    aa06:	468d                	li	a3,3
    aa08:	b731                	j	a914 <__divsf3+0x76>
    aa0a:	4431                	li	s0,12
    aa0c:	0ff00a13          	li	s4,255
    aa10:	4b0d                	li	s6,3
    aa12:	bdd1                	j	a8e6 <__divsf3+0x48>
    aa14:	8556                	mv	a0,s5
    aa16:	c62e                	sw	a1,12(sp)
    aa18:	2af000ef          	jal	ra,b4c6 <__clzsi2>
    aa1c:	ffb50793          	addi	a5,a0,-5
    aa20:	00fa9ab3          	sll	s5,s5,a5
    aa24:	f8a00793          	li	a5,-118
    aa28:	40a78a33          	sub	s4,a5,a0
    aa2c:	4401                	li	s0,0
    aa2e:	4b01                	li	s6,0
    aa30:	45b2                	lw	a1,12(sp)
    aa32:	bd55                	j	a8e6 <__divsf3+0x48>
    aa34:	8526                	mv	a0,s1
    aa36:	291000ef          	jal	ra,b4c6 <__clzsi2>
    aa3a:	ffb50713          	addi	a4,a0,-5
    aa3e:	00aa07b3          	add	a5,s4,a0
    aa42:	00e494b3          	sll	s1,s1,a4
    aa46:	07678a13          	addi	s4,a5,118 # f8000076 <__freertos_irq_stack_top+0xd7ffb076>
    aa4a:	4681                	li	a3,0
    aa4c:	b5e1                	j	a914 <__divsf3+0x76>
    aa4e:	001bf913          	andi	s2,s7,1
    aa52:	4701                	li	a4,0
    aa54:	4781                	li	a5,0
    aa56:	b701                	j	a956 <__divsf3+0xb8>
    aa58:	6641                	lui	a2,0x10
    aa5a:	00549513          	slli	a0,s1,0x5
    aa5e:	167d                	addi	a2,a2,-1
    aa60:	01055793          	srli	a5,a0,0x10
    aa64:	8e69                	and	a2,a2,a0
    aa66:	0a9afa63          	bgeu	s5,s1,ab1a <__divsf3+0x27c>
    aa6a:	02fad5b3          	divu	a1,s5,a5
    aa6e:	1a7d                	addi	s4,s4,-1
    aa70:	86d6                	mv	a3,s5
    aa72:	4701                	li	a4,0
    aa74:	02c58833          	mul	a6,a1,a2
    aa78:	02f6f6b3          	remu	a3,a3,a5
    aa7c:	06c2                	slli	a3,a3,0x10
    aa7e:	8f55                	or	a4,a4,a3
    aa80:	01077b63          	bgeu	a4,a6,aa96 <__divsf3+0x1f8>
    aa84:	972a                	add	a4,a4,a0
    aa86:	fff58693          	addi	a3,a1,-1
    aa8a:	0aa76863          	bltu	a4,a0,ab3a <__divsf3+0x29c>
    aa8e:	0b077663          	bgeu	a4,a6,ab3a <__divsf3+0x29c>
    aa92:	15f9                	addi	a1,a1,-2
    aa94:	972a                	add	a4,a4,a0
    aa96:	41070733          	sub	a4,a4,a6
    aa9a:	02f756b3          	divu	a3,a4,a5
    aa9e:	02f77733          	remu	a4,a4,a5
    aaa2:	02c68ab3          	mul	s5,a3,a2
    aaa6:	01071793          	slli	a5,a4,0x10
    aaaa:	0157fb63          	bgeu	a5,s5,aac0 <__divsf3+0x222>
    aaae:	97aa                	add	a5,a5,a0
    aab0:	fff68713          	addi	a4,a3,-1 # 7dffffff <__freertos_irq_stack_top+0x5dffafff>
    aab4:	08a7e163          	bltu	a5,a0,ab36 <__divsf3+0x298>
    aab8:	0757ff63          	bgeu	a5,s5,ab36 <__divsf3+0x298>
    aabc:	16f9                	addi	a3,a3,-2
    aabe:	97aa                	add	a5,a5,a0
    aac0:	05c2                	slli	a1,a1,0x10
    aac2:	41578ab3          	sub	s5,a5,s5
    aac6:	8dd5                	or	a1,a1,a3
    aac8:	01503ab3          	snez	s5,s5
    aacc:	0155eab3          	or	s5,a1,s5
    aad0:	8bca                	mv	s7,s2
    aad2:	b5f1                	j	a99e <__divsf3+0x100>
    aad4:	4685                	li	a3,1
    aad6:	8e99                	sub	a3,a3,a4
    aad8:	c711                	beqz	a4,aae4 <__divsf3+0x246>
    aada:	466d                	li	a2,27
    aadc:	4701                	li	a4,0
    aade:	4781                	li	a5,0
    aae0:	e6d64be3          	blt	a2,a3,a956 <__divsf3+0xb8>
    aae4:	09ea0a13          	addi	s4,s4,158
    aae8:	014a9a33          	sll	s4,s5,s4
    aaec:	00dad7b3          	srl	a5,s5,a3
    aaf0:	01403ab3          	snez	s5,s4
    aaf4:	0157e7b3          	or	a5,a5,s5
    aaf8:	0077f713          	andi	a4,a5,7
    aafc:	c719                	beqz	a4,ab0a <__divsf3+0x26c>
    aafe:	00f7f713          	andi	a4,a5,15
    ab02:	4691                	li	a3,4
    ab04:	00d70363          	beq	a4,a3,ab0a <__divsf3+0x26c>
    ab08:	0791                	addi	a5,a5,4
    ab0a:	00579713          	slli	a4,a5,0x5
    ab0e:	02074863          	bltz	a4,ab3e <__divsf3+0x2a0>
    ab12:	079a                	slli	a5,a5,0x6
    ab14:	83a5                	srli	a5,a5,0x9
    ab16:	4701                	li	a4,0
    ab18:	bd3d                	j	a956 <__divsf3+0xb8>
    ab1a:	001ad693          	srli	a3,s5,0x1
    ab1e:	02f6d5b3          	divu	a1,a3,a5
    ab22:	01fa9713          	slli	a4,s5,0x1f
    ab26:	8341                	srli	a4,a4,0x10
    ab28:	02c58833          	mul	a6,a1,a2
    ab2c:	b7b1                	j	aa78 <__divsf3+0x1da>
    ab2e:	8bce                	mv	s7,s3
    ab30:	8b36                	mv	s6,a3
    ab32:	4a81                	li	s5,0
    ab34:	bda1                	j	a98c <__divsf3+0xee>
    ab36:	86ba                	mv	a3,a4
    ab38:	b761                	j	aac0 <__divsf3+0x222>
    ab3a:	85b6                	mv	a1,a3
    ab3c:	bfa9                	j	aa96 <__divsf3+0x1f8>
    ab3e:	4705                	li	a4,1
    ab40:	4781                	li	a5,0
    ab42:	bd11                	j	a956 <__divsf3+0xb8>
    ab44:	001bf913          	andi	s2,s7,1
    ab48:	0ff00713          	li	a4,255
    ab4c:	4781                	li	a5,0
    ab4e:	b521                	j	a956 <__divsf3+0xb8>

0000ab50 <__gesf2>:
    ab50:	01755693          	srli	a3,a0,0x17
    ab54:	008007b7          	lui	a5,0x800
    ab58:	17fd                	addi	a5,a5,-1
    ab5a:	0175d613          	srli	a2,a1,0x17
    ab5e:	0ff6f693          	andi	a3,a3,255
    ab62:	0ff00813          	li	a6,255
    ab66:	00a7f8b3          	and	a7,a5,a0
    ab6a:	01f55713          	srli	a4,a0,0x1f
    ab6e:	8fed                	and	a5,a5,a1
    ab70:	0ff67613          	andi	a2,a2,255
    ab74:	81fd                	srli	a1,a1,0x1f
    ab76:	03068163          	beq	a3,a6,ab98 <__gesf2+0x48>
    ab7a:	01060c63          	beq	a2,a6,ab92 <__gesf2+0x42>
    ab7e:	e28d                	bnez	a3,aba0 <__gesf2+0x50>
    ab80:	e211                	bnez	a2,ab84 <__gesf2+0x34>
    ab82:	c3b1                	beqz	a5,abc6 <__gesf2+0x76>
    ab84:	02088e63          	beqz	a7,abc0 <__gesf2+0x70>
    ab88:	04b70563          	beq	a4,a1,abd2 <__gesf2+0x82>
    ab8c:	4505                	li	a0,1
    ab8e:	e71d                	bnez	a4,abbc <__gesf2+0x6c>
    ab90:	8082                	ret
    ab92:	d7f5                	beqz	a5,ab7e <__gesf2+0x2e>
    ab94:	5579                	li	a0,-2
    ab96:	8082                	ret
    ab98:	fe089ee3          	bnez	a7,ab94 <__gesf2+0x44>
    ab9c:	02d60963          	beq	a2,a3,abce <__gesf2+0x7e>
    aba0:	e211                	bnez	a2,aba4 <__gesf2+0x54>
    aba2:	d7ed                	beqz	a5,ab8c <__gesf2+0x3c>
    aba4:	feb714e3          	bne	a4,a1,ab8c <__gesf2+0x3c>
    aba8:	fed642e3          	blt	a2,a3,ab8c <__gesf2+0x3c>
    abac:	00c6c763          	blt	a3,a2,abba <__gesf2+0x6a>
    abb0:	fd17eee3          	bltu	a5,a7,ab8c <__gesf2+0x3c>
    abb4:	4501                	li	a0,0
    abb6:	fcf8fde3          	bgeu	a7,a5,ab90 <__gesf2+0x40>
    abba:	e701                	bnez	a4,abc2 <__gesf2+0x72>
    abbc:	557d                	li	a0,-1
    abbe:	8082                	ret
    abc0:	ddf5                	beqz	a1,abbc <__gesf2+0x6c>
    abc2:	4505                	li	a0,1
    abc4:	8082                	ret
    abc6:	4501                	li	a0,0
    abc8:	fc0892e3          	bnez	a7,ab8c <__gesf2+0x3c>
    abcc:	8082                	ret
    abce:	dbf9                	beqz	a5,aba4 <__gesf2+0x54>
    abd0:	b7d1                	j	ab94 <__gesf2+0x44>
    abd2:	4681                	li	a3,0
    abd4:	bfe1                	j	abac <__gesf2+0x5c>

0000abd6 <__lesf2>:
    abd6:	01755693          	srli	a3,a0,0x17
    abda:	008007b7          	lui	a5,0x800
    abde:	17fd                	addi	a5,a5,-1
    abe0:	0175d613          	srli	a2,a1,0x17
    abe4:	0ff6f693          	andi	a3,a3,255
    abe8:	0ff00813          	li	a6,255
    abec:	00a7f8b3          	and	a7,a5,a0
    abf0:	01f55713          	srli	a4,a0,0x1f
    abf4:	8fed                	and	a5,a5,a1
    abf6:	0ff67613          	andi	a2,a2,255
    abfa:	81fd                	srli	a1,a1,0x1f
    abfc:	03068763          	beq	a3,a6,ac2a <__lesf2+0x54>
    ac00:	01060963          	beq	a2,a6,ac12 <__lesf2+0x3c>
    ac04:	ea85                	bnez	a3,ac34 <__lesf2+0x5e>
    ac06:	ea11                	bnez	a2,ac1a <__lesf2+0x44>
    ac08:	eb89                	bnez	a5,ac1a <__lesf2+0x44>
    ac0a:	4501                	li	a0,0
    ac0c:	00089b63          	bnez	a7,ac22 <__lesf2+0x4c>
    ac10:	8082                	ret
    ac12:	4509                	li	a0,2
    ac14:	fff5                	bnez	a5,ac10 <__lesf2+0x3a>
    ac16:	dae5                	beqz	a3,ac06 <__lesf2+0x30>
    ac18:	a831                	j	ac34 <__lesf2+0x5e>
    ac1a:	02088c63          	beqz	a7,ac52 <__lesf2+0x7c>
    ac1e:	04b70063          	beq	a4,a1,ac5e <__lesf2+0x88>
    ac22:	4505                	li	a0,1
    ac24:	d775                	beqz	a4,ac10 <__lesf2+0x3a>
    ac26:	557d                	li	a0,-1
    ac28:	8082                	ret
    ac2a:	4509                	li	a0,2
    ac2c:	02089863          	bnez	a7,ac5c <__lesf2+0x86>
    ac30:	02d60463          	beq	a2,a3,ac58 <__lesf2+0x82>
    ac34:	e211                	bnez	a2,ac38 <__lesf2+0x62>
    ac36:	d7f5                	beqz	a5,ac22 <__lesf2+0x4c>
    ac38:	feb715e3          	bne	a4,a1,ac22 <__lesf2+0x4c>
    ac3c:	fed643e3          	blt	a2,a3,ac22 <__lesf2+0x4c>
    ac40:	00c6c763          	blt	a3,a2,ac4e <__lesf2+0x78>
    ac44:	fd17efe3          	bltu	a5,a7,ac22 <__lesf2+0x4c>
    ac48:	4501                	li	a0,0
    ac4a:	fcf8f3e3          	bgeu	a7,a5,ac10 <__lesf2+0x3a>
    ac4e:	e319                	bnez	a4,ac54 <__lesf2+0x7e>
    ac50:	bfd9                	j	ac26 <__lesf2+0x50>
    ac52:	d9f1                	beqz	a1,ac26 <__lesf2+0x50>
    ac54:	4505                	li	a0,1
    ac56:	8082                	ret
    ac58:	d3e5                	beqz	a5,ac38 <__lesf2+0x62>
    ac5a:	8082                	ret
    ac5c:	8082                	ret
    ac5e:	4681                	li	a3,0
    ac60:	b7c5                	j	ac40 <__lesf2+0x6a>

0000ac62 <__mulsf3>:
    ac62:	7179                	addi	sp,sp,-48
    ac64:	d422                	sw	s0,40(sp)
    ac66:	01755413          	srli	s0,a0,0x17
    ac6a:	ce4e                	sw	s3,28(sp)
    ac6c:	cc52                	sw	s4,24(sp)
    ac6e:	00951993          	slli	s3,a0,0x9
    ac72:	d606                	sw	ra,44(sp)
    ac74:	d226                	sw	s1,36(sp)
    ac76:	d04a                	sw	s2,32(sp)
    ac78:	ca56                	sw	s5,20(sp)
    ac7a:	c85a                	sw	s6,16(sp)
    ac7c:	0ff47413          	andi	s0,s0,255
    ac80:	0099d993          	srli	s3,s3,0x9
    ac84:	01f55a13          	srli	s4,a0,0x1f
    ac88:	c469                	beqz	s0,ad52 <__mulsf3+0xf0>
    ac8a:	0ff00793          	li	a5,255
    ac8e:	0ef40863          	beq	s0,a5,ad7e <__mulsf3+0x11c>
    ac92:	00399793          	slli	a5,s3,0x3
    ac96:	04000737          	lui	a4,0x4000
    ac9a:	00e7e9b3          	or	s3,a5,a4
    ac9e:	f8140413          	addi	s0,s0,-127 # 3ffff81 <_data_lma+0x3ff2485>
    aca2:	4481                	li	s1,0
    aca4:	4b01                	li	s6,0
    aca6:	0175d713          	srli	a4,a1,0x17
    acaa:	00959a93          	slli	s5,a1,0x9
    acae:	0ff77713          	andi	a4,a4,255
    acb2:	009ada93          	srli	s5,s5,0x9
    acb6:	01f5d913          	srli	s2,a1,0x1f
    acba:	cf45                	beqz	a4,ad72 <__mulsf3+0x110>
    acbc:	0ff00793          	li	a5,255
    acc0:	02f70c63          	beq	a4,a5,acf8 <__mulsf3+0x96>
    acc4:	0a8e                	slli	s5,s5,0x3
    acc6:	f8170713          	addi	a4,a4,-127 # 3ffff81 <_data_lma+0x3ff2485>
    acca:	040007b7          	lui	a5,0x4000
    acce:	00faeab3          	or	s5,s5,a5
    acd2:	943a                	add	s0,s0,a4
    acd4:	4601                	li	a2,0
    acd6:	012a4533          	xor	a0,s4,s2
    acda:	47bd                	li	a5,15
    acdc:	86aa                	mv	a3,a0
    acde:	00140593          	addi	a1,s0,1
    ace2:	1097e063          	bltu	a5,s1,ade2 <__mulsf3+0x180>
    ace6:	00003717          	auipc	a4,0x3
    acea:	c3a70713          	addi	a4,a4,-966 # d920 <abortCodes.6833+0xe8>
    acee:	048a                	slli	s1,s1,0x2
    acf0:	94ba                	add	s1,s1,a4
    acf2:	409c                	lw	a5,0(s1)
    acf4:	97ba                	add	a5,a5,a4
    acf6:	8782                	jr	a5
    acf8:	0ff40413          	addi	s0,s0,255
    acfc:	0c0a9663          	bnez	s5,adc8 <__mulsf3+0x166>
    ad00:	0024e493          	ori	s1,s1,2
    ad04:	4609                	li	a2,2
    ad06:	bfc1                	j	acd6 <__mulsf3+0x74>
    ad08:	4501                	li	a0,0
    ad0a:	0ff00713          	li	a4,255
    ad0e:	004007b7          	lui	a5,0x400
    ad12:	50b2                	lw	ra,44(sp)
    ad14:	5422                	lw	s0,40(sp)
    ad16:	07a6                	slli	a5,a5,0x9
    ad18:	075e                	slli	a4,a4,0x17
    ad1a:	83a5                	srli	a5,a5,0x9
    ad1c:	057e                	slli	a0,a0,0x1f
    ad1e:	8fd9                	or	a5,a5,a4
    ad20:	5492                	lw	s1,36(sp)
    ad22:	5902                	lw	s2,32(sp)
    ad24:	49f2                	lw	s3,28(sp)
    ad26:	4a62                	lw	s4,24(sp)
    ad28:	4ad2                	lw	s5,20(sp)
    ad2a:	4b42                	lw	s6,16(sp)
    ad2c:	8d5d                	or	a0,a0,a5
    ad2e:	6145                	addi	sp,sp,48
    ad30:	8082                	ret
    ad32:	86ca                	mv	a3,s2
    ad34:	89d6                	mv	s3,s5
    ad36:	8b32                	mv	s6,a2
    ad38:	4789                	li	a5,2
    ad3a:	08fb0f63          	beq	s6,a5,add8 <__mulsf3+0x176>
    ad3e:	478d                	li	a5,3
    ad40:	fcfb04e3          	beq	s6,a5,ad08 <__mulsf3+0xa6>
    ad44:	4785                	li	a5,1
    ad46:	8536                	mv	a0,a3
    ad48:	1afb1063          	bne	s6,a5,aee8 <__mulsf3+0x286>
    ad4c:	4701                	li	a4,0
    ad4e:	4781                	li	a5,0
    ad50:	b7c9                	j	ad12 <__mulsf3+0xb0>
    ad52:	04099d63          	bnez	s3,adac <__mulsf3+0x14a>
    ad56:	0175d713          	srli	a4,a1,0x17
    ad5a:	00959a93          	slli	s5,a1,0x9
    ad5e:	0ff77713          	andi	a4,a4,255
    ad62:	4491                	li	s1,4
    ad64:	4401                	li	s0,0
    ad66:	4b05                	li	s6,1
    ad68:	009ada93          	srli	s5,s5,0x9
    ad6c:	01f5d913          	srli	s2,a1,0x1f
    ad70:	f731                	bnez	a4,acbc <__mulsf3+0x5a>
    ad72:	000a9d63          	bnez	s5,ad8c <__mulsf3+0x12a>
    ad76:	0014e493          	ori	s1,s1,1
    ad7a:	4605                	li	a2,1
    ad7c:	bfa9                	j	acd6 <__mulsf3+0x74>
    ad7e:	02099263          	bnez	s3,ada2 <__mulsf3+0x140>
    ad82:	44a1                	li	s1,8
    ad84:	0ff00413          	li	s0,255
    ad88:	4b09                	li	s6,2
    ad8a:	bf31                	j	aca6 <__mulsf3+0x44>
    ad8c:	8556                	mv	a0,s5
    ad8e:	2f25                	jal	b4c6 <__clzsi2>
    ad90:	ffb50793          	addi	a5,a0,-5
    ad94:	8c09                	sub	s0,s0,a0
    ad96:	00fa9ab3          	sll	s5,s5,a5
    ad9a:	f8a40413          	addi	s0,s0,-118
    ad9e:	4601                	li	a2,0
    ada0:	bf1d                	j	acd6 <__mulsf3+0x74>
    ada2:	44b1                	li	s1,12
    ada4:	0ff00413          	li	s0,255
    ada8:	4b0d                	li	s6,3
    adaa:	bdf5                	j	aca6 <__mulsf3+0x44>
    adac:	854e                	mv	a0,s3
    adae:	c62e                	sw	a1,12(sp)
    adb0:	2f19                	jal	b4c6 <__clzsi2>
    adb2:	ffb50793          	addi	a5,a0,-5
    adb6:	f8a00413          	li	s0,-118
    adba:	00f999b3          	sll	s3,s3,a5
    adbe:	8c09                	sub	s0,s0,a0
    adc0:	4481                	li	s1,0
    adc2:	4b01                	li	s6,0
    adc4:	45b2                	lw	a1,12(sp)
    adc6:	b5c5                	j	aca6 <__mulsf3+0x44>
    adc8:	0034e493          	ori	s1,s1,3
    adcc:	460d                	li	a2,3
    adce:	b721                	j	acd6 <__mulsf3+0x74>
    add0:	4789                	li	a5,2
    add2:	86d2                	mv	a3,s4
    add4:	f6fb15e3          	bne	s6,a5,ad3e <__mulsf3+0xdc>
    add8:	8536                	mv	a0,a3
    adda:	0ff00713          	li	a4,255
    adde:	4781                	li	a5,0
    ade0:	bf0d                	j	ad12 <__mulsf3+0xb0>
    ade2:	6341                	lui	t1,0x10
    ade4:	fff30693          	addi	a3,t1,-1 # ffff <_data_lma+0x2503>
    ade8:	0109d613          	srli	a2,s3,0x10
    adec:	010ad893          	srli	a7,s5,0x10
    adf0:	00d9f7b3          	and	a5,s3,a3
    adf4:	00dafab3          	and	s5,s5,a3
    adf8:	03578833          	mul	a6,a5,s5
    adfc:	02f889b3          	mul	s3,a7,a5
    ae00:	01085713          	srli	a4,a6,0x10
    ae04:	03560ab3          	mul	s5,a2,s5
    ae08:	99d6                	add	s3,s3,s5
    ae0a:	974e                	add	a4,a4,s3
    ae0c:	03160633          	mul	a2,a2,a7
    ae10:	01577363          	bgeu	a4,s5,ae16 <__mulsf3+0x1b4>
    ae14:	961a                	add	a2,a2,t1
    ae16:	67c1                	lui	a5,0x10
    ae18:	17fd                	addi	a5,a5,-1
    ae1a:	00f776b3          	and	a3,a4,a5
    ae1e:	00f87833          	and	a6,a6,a5
    ae22:	06c2                	slli	a3,a3,0x10
    ae24:	96c2                	add	a3,a3,a6
    ae26:	00669993          	slli	s3,a3,0x6
    ae2a:	01075793          	srli	a5,a4,0x10
    ae2e:	013039b3          	snez	s3,s3
    ae32:	82e9                	srli	a3,a3,0x1a
    ae34:	97b2                	add	a5,a5,a2
    ae36:	079a                	slli	a5,a5,0x6
    ae38:	00d9e6b3          	or	a3,s3,a3
    ae3c:	00d7e9b3          	or	s3,a5,a3
    ae40:	00499793          	slli	a5,s3,0x4
    ae44:	0007d963          	bgez	a5,ae56 <__mulsf3+0x1f4>
    ae48:	0019d713          	srli	a4,s3,0x1
    ae4c:	0019f793          	andi	a5,s3,1
    ae50:	00f769b3          	or	s3,a4,a5
    ae54:	842e                	mv	s0,a1
    ae56:	07f40713          	addi	a4,s0,127
    ae5a:	04e05063          	blez	a4,ae9a <__mulsf3+0x238>
    ae5e:	0079f793          	andi	a5,s3,7
    ae62:	c799                	beqz	a5,ae70 <__mulsf3+0x20e>
    ae64:	00f9f793          	andi	a5,s3,15
    ae68:	4691                	li	a3,4
    ae6a:	00d78363          	beq	a5,a3,ae70 <__mulsf3+0x20e>
    ae6e:	0991                	addi	s3,s3,4
    ae70:	00499793          	slli	a5,s3,0x4
    ae74:	0007d963          	bgez	a5,ae86 <__mulsf3+0x224>
    ae78:	f80007b7          	lui	a5,0xf8000
    ae7c:	17fd                	addi	a5,a5,-1
    ae7e:	00f9f9b3          	and	s3,s3,a5
    ae82:	08040713          	addi	a4,s0,128
    ae86:	0fe00793          	li	a5,254
    ae8a:	04e7cb63          	blt	a5,a4,aee0 <__mulsf3+0x27e>
    ae8e:	00699793          	slli	a5,s3,0x6
    ae92:	83a5                	srli	a5,a5,0x9
    ae94:	0ff77713          	andi	a4,a4,255
    ae98:	bdad                	j	ad12 <__mulsf3+0xb0>
    ae9a:	4785                	li	a5,1
    ae9c:	40e786b3          	sub	a3,a5,a4
    aea0:	c711                	beqz	a4,aeac <__mulsf3+0x24a>
    aea2:	466d                	li	a2,27
    aea4:	4701                	li	a4,0
    aea6:	4781                	li	a5,0
    aea8:	e6d645e3          	blt	a2,a3,ad12 <__mulsf3+0xb0>
    aeac:	09e40713          	addi	a4,s0,158
    aeb0:	00e99733          	sll	a4,s3,a4
    aeb4:	00e03733          	snez	a4,a4
    aeb8:	00d9d7b3          	srl	a5,s3,a3
    aebc:	8fd9                	or	a5,a5,a4
    aebe:	0077f713          	andi	a4,a5,7
    aec2:	c719                	beqz	a4,aed0 <__mulsf3+0x26e>
    aec4:	00f7f713          	andi	a4,a5,15
    aec8:	4691                	li	a3,4
    aeca:	00d70363          	beq	a4,a3,aed0 <__mulsf3+0x26e>
    aece:	0791                	addi	a5,a5,4
    aed0:	00579713          	slli	a4,a5,0x5
    aed4:	00074c63          	bltz	a4,aeec <__mulsf3+0x28a>
    aed8:	079a                	slli	a5,a5,0x6
    aeda:	83a5                	srli	a5,a5,0x9
    aedc:	4701                	li	a4,0
    aede:	bd15                	j	ad12 <__mulsf3+0xb0>
    aee0:	0ff00713          	li	a4,255
    aee4:	4781                	li	a5,0
    aee6:	b535                	j	ad12 <__mulsf3+0xb0>
    aee8:	842e                	mv	s0,a1
    aeea:	b7b5                	j	ae56 <__mulsf3+0x1f4>
    aeec:	4705                	li	a4,1
    aeee:	4781                	li	a5,0
    aef0:	b50d                	j	ad12 <__mulsf3+0xb0>

0000aef2 <__subsf3>:
    aef2:	00800737          	lui	a4,0x800
    aef6:	1141                	addi	sp,sp,-16
    aef8:	177d                	addi	a4,a4,-1
    aefa:	01755693          	srli	a3,a0,0x17
    aefe:	0175d813          	srli	a6,a1,0x17
    af02:	00a777b3          	and	a5,a4,a0
    af06:	0ff6f693          	andi	a3,a3,255
    af0a:	01f55e93          	srli	t4,a0,0x1f
    af0e:	00b77633          	and	a2,a4,a1
    af12:	c226                	sw	s1,4(sp)
    af14:	c04a                	sw	s2,0(sp)
    af16:	0ff87813          	andi	a6,a6,255
    af1a:	c606                	sw	ra,12(sp)
    af1c:	c422                	sw	s0,8(sp)
    af1e:	0ff00313          	li	t1,255
    af22:	8e3e                	mv	t3,a5
    af24:	8936                	mv	s2,a3
    af26:	84f6                	mv	s1,t4
    af28:	00379f13          	slli	t5,a5,0x3
    af2c:	81fd                	srli	a1,a1,0x1f
    af2e:	00361513          	slli	a0,a2,0x3
    af32:	410688b3          	sub	a7,a3,a6
    af36:	10680263          	beq	a6,t1,b03a <__subsf3+0x148>
    af3a:	0015c593          	xori	a1,a1,1
    af3e:	10be8c63          	beq	t4,a1,b056 <__subsf3+0x164>
    af42:	0d105463          	blez	a7,b00a <__subsf3+0x118>
    af46:	10081063          	bnez	a6,b046 <__subsf3+0x154>
    af4a:	1e050463          	beqz	a0,b132 <__subsf3+0x240>
    af4e:	18fd                	addi	a7,a7,-1
    af50:	40af07b3          	sub	a5,t5,a0
    af54:	02088663          	beqz	a7,af80 <__subsf3+0x8e>
    af58:	0ff00793          	li	a5,255
    af5c:	16f68863          	beq	a3,a5,b0cc <__subsf3+0x1da>
    af60:	47ed                	li	a5,27
    af62:	2917c763          	blt	a5,a7,b1f0 <__subsf3+0x2fe>
    af66:	02000713          	li	a4,32
    af6a:	41170733          	sub	a4,a4,a7
    af6e:	00e51733          	sll	a4,a0,a4
    af72:	011557b3          	srl	a5,a0,a7
    af76:	00e03733          	snez	a4,a4
    af7a:	8fd9                	or	a5,a5,a4
    af7c:	40ff07b3          	sub	a5,t5,a5
    af80:	00579713          	slli	a4,a5,0x5
    af84:	1a075163          	bgez	a4,b126 <__subsf3+0x234>
    af88:	04000437          	lui	s0,0x4000
    af8c:	147d                	addi	s0,s0,-1
    af8e:	8c7d                	and	s0,s0,a5
    af90:	8522                	mv	a0,s0
    af92:	2b15                	jal	b4c6 <__clzsi2>
    af94:	156d                	addi	a0,a0,-5
    af96:	00a417b3          	sll	a5,s0,a0
    af9a:	1b254e63          	blt	a0,s2,b156 <__subsf3+0x264>
    af9e:	41250533          	sub	a0,a0,s2
    afa2:	00150413          	addi	s0,a0,1
    afa6:	02000713          	li	a4,32
    afaa:	8f01                	sub	a4,a4,s0
    afac:	00e79733          	sll	a4,a5,a4
    afb0:	00e03733          	snez	a4,a4
    afb4:	0087d7b3          	srl	a5,a5,s0
    afb8:	8fd9                	or	a5,a5,a4
    afba:	4901                	li	s2,0
    afbc:	0077f713          	andi	a4,a5,7
    afc0:	c719                	beqz	a4,afce <__subsf3+0xdc>
    afc2:	00f7f713          	andi	a4,a5,15
    afc6:	4691                	li	a3,4
    afc8:	00d70363          	beq	a4,a3,afce <__subsf3+0xdc>
    afcc:	0791                	addi	a5,a5,4
    afce:	00579713          	slli	a4,a5,0x5
    afd2:	14075e63          	bgez	a4,b12e <__subsf3+0x23c>
    afd6:	00190693          	addi	a3,s2,1
    afda:	0ff00713          	li	a4,255
    afde:	0014fe93          	andi	t4,s1,1
    afe2:	16e68663          	beq	a3,a4,b14e <__subsf3+0x25c>
    afe6:	079a                	slli	a5,a5,0x6
    afe8:	83a5                	srli	a5,a5,0x9
    afea:	0ff6f693          	andi	a3,a3,255
    afee:	07a6                	slli	a5,a5,0x9
    aff0:	40b2                	lw	ra,12(sp)
    aff2:	4422                	lw	s0,8(sp)
    aff4:	0097d513          	srli	a0,a5,0x9
    aff8:	06de                	slli	a3,a3,0x17
    affa:	01fe9793          	slli	a5,t4,0x1f
    affe:	8d55                	or	a0,a0,a3
    b000:	4492                	lw	s1,4(sp)
    b002:	4902                	lw	s2,0(sp)
    b004:	8d5d                	or	a0,a0,a5
    b006:	0141                	addi	sp,sp,16
    b008:	8082                	ret
    b00a:	0a089263          	bnez	a7,b0ae <__subsf3+0x1bc>
    b00e:	00168713          	addi	a4,a3,1
    b012:	0fe77713          	andi	a4,a4,254
    b016:	14071b63          	bnez	a4,b16c <__subsf3+0x27a>
    b01a:	22069463          	bnez	a3,b242 <__subsf3+0x350>
    b01e:	200f0263          	beqz	t5,b222 <__subsf3+0x330>
    b022:	d571                	beqz	a0,afee <__subsf3+0xfc>
    b024:	40af07b3          	sub	a5,t5,a0
    b028:	00579713          	slli	a4,a5,0x5
    b02c:	22075563          	bgez	a4,b256 <__subsf3+0x364>
    b030:	41e507b3          	sub	a5,a0,t5
    b034:	4901                	li	s2,0
    b036:	84ae                	mv	s1,a1
    b038:	b751                	j	afbc <__subsf3+0xca>
    b03a:	f00500e3          	beqz	a0,af3a <__subsf3+0x48>
    b03e:	0abe8a63          	beq	t4,a1,b0f2 <__subsf3+0x200>
    b042:	fd1054e3          	blez	a7,b00a <__subsf3+0x118>
    b046:	0ff00793          	li	a5,255
    b04a:	08f68163          	beq	a3,a5,b0cc <__subsf3+0x1da>
    b04e:	040007b7          	lui	a5,0x4000
    b052:	8d5d                	or	a0,a0,a5
    b054:	b731                	j	af60 <__subsf3+0x6e>
    b056:	09105e63          	blez	a7,b0f2 <__subsf3+0x200>
    b05a:	08080163          	beqz	a6,b0dc <__subsf3+0x1ea>
    b05e:	0ff00793          	li	a5,255
    b062:	06f68563          	beq	a3,a5,b0cc <__subsf3+0x1da>
    b066:	040007b7          	lui	a5,0x4000
    b06a:	8d5d                	or	a0,a0,a5
    b06c:	47ed                	li	a5,27
    b06e:	1f17c063          	blt	a5,a7,b24e <__subsf3+0x35c>
    b072:	02000713          	li	a4,32
    b076:	41170733          	sub	a4,a4,a7
    b07a:	00e51733          	sll	a4,a0,a4
    b07e:	011557b3          	srl	a5,a0,a7
    b082:	00e03733          	snez	a4,a4
    b086:	8fd9                	or	a5,a5,a4
    b088:	97fa                	add	a5,a5,t5
    b08a:	00579713          	slli	a4,a5,0x5
    b08e:	08075c63          	bgez	a4,b126 <__subsf3+0x234>
    b092:	0905                	addi	s2,s2,1
    b094:	0ff00713          	li	a4,255
    b098:	0ae90b63          	beq	s2,a4,b14e <__subsf3+0x25c>
    b09c:	7e0006b7          	lui	a3,0x7e000
    b0a0:	0017d713          	srli	a4,a5,0x1
    b0a4:	16fd                	addi	a3,a3,-1
    b0a6:	8b85                	andi	a5,a5,1
    b0a8:	8f75                	and	a4,a4,a3
    b0aa:	8fd9                	or	a5,a5,a4
    b0ac:	bf01                	j	afbc <__subsf3+0xca>
    b0ae:	40d80733          	sub	a4,a6,a3
    b0b2:	10069563          	bnez	a3,b1bc <__subsf3+0x2ca>
    b0b6:	140f0d63          	beqz	t5,b210 <__subsf3+0x31e>
    b0ba:	177d                	addi	a4,a4,-1
    b0bc:	1a070363          	beqz	a4,b262 <__subsf3+0x370>
    b0c0:	0ff00793          	li	a5,255
    b0c4:	10f81463          	bne	a6,a5,b1cc <__subsf3+0x2da>
    b0c8:	84ae                	mv	s1,a1
    b0ca:	8e32                	mv	t3,a2
    b0cc:	060e0f63          	beqz	t3,b14a <__subsf3+0x258>
    b0d0:	4e81                	li	t4,0
    b0d2:	0ff00693          	li	a3,255
    b0d6:	004007b7          	lui	a5,0x400
    b0da:	bf11                	j	afee <__subsf3+0xfc>
    b0dc:	c939                	beqz	a0,b132 <__subsf3+0x240>
    b0de:	18fd                	addi	a7,a7,-1
    b0e0:	00af07b3          	add	a5,t5,a0
    b0e4:	fa0883e3          	beqz	a7,b08a <__subsf3+0x198>
    b0e8:	0ff00793          	li	a5,255
    b0ec:	f8f690e3          	bne	a3,a5,b06c <__subsf3+0x17a>
    b0f0:	bff1                	j	b0cc <__subsf3+0x1da>
    b0f2:	08089963          	bnez	a7,b184 <__subsf3+0x292>
    b0f6:	00168913          	addi	s2,a3,1 # 7e000001 <__freertos_irq_stack_top+0x5dffb001>
    b0fa:	0fe97713          	andi	a4,s2,254
    b0fe:	12071663          	bnez	a4,b22a <__subsf3+0x338>
    b102:	10069b63          	bnez	a3,b218 <__subsf3+0x326>
    b106:	160f0363          	beqz	t5,b26c <__subsf3+0x37a>
    b10a:	ee0502e3          	beqz	a0,afee <__subsf3+0xfc>
    b10e:	00af07b3          	add	a5,t5,a0
    b112:	00579713          	slli	a4,a5,0x5
    b116:	4901                	li	s2,0
    b118:	00075763          	bgez	a4,b126 <__subsf3+0x234>
    b11c:	fc000737          	lui	a4,0xfc000
    b120:	177d                	addi	a4,a4,-1
    b122:	8ff9                	and	a5,a5,a4
    b124:	4905                	li	s2,1
    b126:	0077f713          	andi	a4,a5,7
    b12a:	e8071ce3          	bnez	a4,afc2 <__subsf3+0xd0>
    b12e:	0037de13          	srli	t3,a5,0x3
    b132:	0ff00793          	li	a5,255
    b136:	f8f90be3          	beq	s2,a5,b0cc <__subsf3+0x1da>
    b13a:	009e1793          	slli	a5,t3,0x9
    b13e:	83a5                	srli	a5,a5,0x9
    b140:	0ff97693          	andi	a3,s2,255
    b144:	0014fe93          	andi	t4,s1,1
    b148:	b55d                	j	afee <__subsf3+0xfc>
    b14a:	0014fe93          	andi	t4,s1,1
    b14e:	0ff00693          	li	a3,255
    b152:	4781                	li	a5,0
    b154:	bd69                	j	afee <__subsf3+0xfc>
    b156:	fc000737          	lui	a4,0xfc000
    b15a:	177d                	addi	a4,a4,-1
    b15c:	8ff9                	and	a5,a5,a4
    b15e:	0077f713          	andi	a4,a5,7
    b162:	40a90933          	sub	s2,s2,a0
    b166:	e4071ee3          	bnez	a4,afc2 <__subsf3+0xd0>
    b16a:	b7d1                	j	b12e <__subsf3+0x23c>
    b16c:	40af0433          	sub	s0,t5,a0
    b170:	00541793          	slli	a5,s0,0x5
    b174:	0c07c363          	bltz	a5,b23a <__subsf3+0x348>
    b178:	e0041ce3          	bnez	s0,af90 <__subsf3+0x9e>
    b17c:	4e81                	li	t4,0
    b17e:	4681                	li	a3,0
    b180:	4781                	li	a5,0
    b182:	b5b5                	j	afee <__subsf3+0xfc>
    b184:	40d80733          	sub	a4,a6,a3
    b188:	c6b5                	beqz	a3,b1f4 <__subsf3+0x302>
    b18a:	0ff00793          	li	a5,255
    b18e:	f2f80ee3          	beq	a6,a5,b0ca <__subsf3+0x1d8>
    b192:	040007b7          	lui	a5,0x4000
    b196:	00ff6f33          	or	t5,t5,a5
    b19a:	47ed                	li	a5,27
    b19c:	0ce7cd63          	blt	a5,a4,b276 <__subsf3+0x384>
    b1a0:	02000793          	li	a5,32
    b1a4:	8f99                	sub	a5,a5,a4
    b1a6:	00ff17b3          	sll	a5,t5,a5
    b1aa:	00ef5733          	srl	a4,t5,a4
    b1ae:	00f037b3          	snez	a5,a5
    b1b2:	8f5d                	or	a4,a4,a5
    b1b4:	00a707b3          	add	a5,a4,a0
    b1b8:	8942                	mv	s2,a6
    b1ba:	bdc1                	j	b08a <__subsf3+0x198>
    b1bc:	0ff00793          	li	a5,255
    b1c0:	f0f804e3          	beq	a6,a5,b0c8 <__subsf3+0x1d6>
    b1c4:	040007b7          	lui	a5,0x4000
    b1c8:	00ff6f33          	or	t5,t5,a5
    b1cc:	47ed                	li	a5,27
    b1ce:	08e7c263          	blt	a5,a4,b252 <__subsf3+0x360>
    b1d2:	02000793          	li	a5,32
    b1d6:	8f99                	sub	a5,a5,a4
    b1d8:	00ff17b3          	sll	a5,t5,a5
    b1dc:	00ef5733          	srl	a4,t5,a4
    b1e0:	00f037b3          	snez	a5,a5
    b1e4:	8fd9                	or	a5,a5,a4
    b1e6:	40f507b3          	sub	a5,a0,a5
    b1ea:	8942                	mv	s2,a6
    b1ec:	84ae                	mv	s1,a1
    b1ee:	bb49                	j	af80 <__subsf3+0x8e>
    b1f0:	4785                	li	a5,1
    b1f2:	b369                	j	af7c <__subsf3+0x8a>
    b1f4:	060f0e63          	beqz	t5,b270 <__subsf3+0x37e>
    b1f8:	177d                	addi	a4,a4,-1
    b1fa:	00af07b3          	add	a5,t5,a0
    b1fe:	8942                	mv	s2,a6
    b200:	e80705e3          	beqz	a4,b08a <__subsf3+0x198>
    b204:	0ff00793          	li	a5,255
    b208:	f8f819e3          	bne	a6,a5,b19a <__subsf3+0x2a8>
    b20c:	8e32                	mv	t3,a2
    b20e:	bd7d                	j	b0cc <__subsf3+0x1da>
    b210:	8e32                	mv	t3,a2
    b212:	8942                	mv	s2,a6
    b214:	84ae                	mv	s1,a1
    b216:	bf31                	j	b132 <__subsf3+0x240>
    b218:	ea0f09e3          	beqz	t5,b0ca <__subsf3+0x1d8>
    b21c:	ea0508e3          	beqz	a0,b0cc <__subsf3+0x1da>
    b220:	bd45                	j	b0d0 <__subsf3+0x1de>
    b222:	cd0d                	beqz	a0,b25c <__subsf3+0x36a>
    b224:	8eae                	mv	t4,a1
    b226:	87b2                	mv	a5,a2
    b228:	b3d9                	j	afee <__subsf3+0xfc>
    b22a:	0ff00793          	li	a5,255
    b22e:	f2f900e3          	beq	s2,a5,b14e <__subsf3+0x25c>
    b232:	00af07b3          	add	a5,t5,a0
    b236:	8385                	srli	a5,a5,0x1
    b238:	b5fd                	j	b126 <__subsf3+0x234>
    b23a:	41e50433          	sub	s0,a0,t5
    b23e:	84ae                	mv	s1,a1
    b240:	bb81                	j	af90 <__subsf3+0x9e>
    b242:	fc0f1de3          	bnez	t5,b21c <__subsf3+0x32a>
    b246:	e80505e3          	beqz	a0,b0d0 <__subsf3+0x1de>
    b24a:	84ae                	mv	s1,a1
    b24c:	bdbd                	j	b0ca <__subsf3+0x1d8>
    b24e:	4785                	li	a5,1
    b250:	bd25                	j	b088 <__subsf3+0x196>
    b252:	4785                	li	a5,1
    b254:	bf49                	j	b1e6 <__subsf3+0x2f4>
    b256:	4901                	li	s2,0
    b258:	ec0797e3          	bnez	a5,b126 <__subsf3+0x234>
    b25c:	4e81                	li	t4,0
    b25e:	4781                	li	a5,0
    b260:	b379                	j	afee <__subsf3+0xfc>
    b262:	41e507b3          	sub	a5,a0,t5
    b266:	8942                	mv	s2,a6
    b268:	84ae                	mv	s1,a1
    b26a:	bb19                	j	af80 <__subsf3+0x8e>
    b26c:	87b2                	mv	a5,a2
    b26e:	b341                	j	afee <__subsf3+0xfc>
    b270:	8e32                	mv	t3,a2
    b272:	8942                	mv	s2,a6
    b274:	bd7d                	j	b132 <__subsf3+0x240>
    b276:	4705                	li	a4,1
    b278:	bf35                	j	b1b4 <__subsf3+0x2c2>

0000b27a <__fixsfsi>:
    b27a:	00800637          	lui	a2,0x800
    b27e:	01755713          	srli	a4,a0,0x17
    b282:	fff60793          	addi	a5,a2,-1 # 7fffff <_data_lma+0x7f2503>
    b286:	0ff77713          	andi	a4,a4,255
    b28a:	07e00593          	li	a1,126
    b28e:	00a7f6b3          	and	a3,a5,a0
    b292:	01f55793          	srli	a5,a0,0x1f
    b296:	00e5fc63          	bgeu	a1,a4,b2ae <__fixsfsi+0x34>
    b29a:	09d00593          	li	a1,157
    b29e:	00e5fa63          	bgeu	a1,a4,b2b2 <__fixsfsi+0x38>
    b2a2:	80000537          	lui	a0,0x80000
    b2a6:	fff54513          	not	a0,a0
    b2aa:	953e                	add	a0,a0,a5
    b2ac:	8082                	ret
    b2ae:	4501                	li	a0,0
    b2b0:	8082                	ret
    b2b2:	09500593          	li	a1,149
    b2b6:	8ed1                	or	a3,a3,a2
    b2b8:	00e5cd63          	blt	a1,a4,b2d2 <__fixsfsi+0x58>
    b2bc:	09600613          	li	a2,150
    b2c0:	40e60733          	sub	a4,a2,a4
    b2c4:	00e6d733          	srl	a4,a3,a4
    b2c8:	40e00533          	neg	a0,a4
    b2cc:	f3f5                	bnez	a5,b2b0 <__fixsfsi+0x36>
    b2ce:	853a                	mv	a0,a4
    b2d0:	8082                	ret
    b2d2:	f6a70713          	addi	a4,a4,-150 # fbffff6a <__freertos_irq_stack_top+0xdbffaf6a>
    b2d6:	00e69733          	sll	a4,a3,a4
    b2da:	b7fd                	j	b2c8 <__fixsfsi+0x4e>

0000b2dc <__fixunssfsi>:
    b2dc:	01755713          	srli	a4,a0,0x17
    b2e0:	00800637          	lui	a2,0x800
    b2e4:	fff60793          	addi	a5,a2,-1 # 7fffff <_data_lma+0x7f2503>
    b2e8:	0ff77713          	andi	a4,a4,255
    b2ec:	07e00593          	li	a1,126
    b2f0:	00a7f6b3          	and	a3,a5,a0
    b2f4:	01f55793          	srli	a5,a0,0x1f
    b2f8:	4501                	li	a0,0
    b2fa:	00e5f463          	bgeu	a1,a4,b302 <__fixunssfsi+0x26>
    b2fe:	c399                	beqz	a5,b304 <__fixunssfsi+0x28>
    b300:	8082                	ret
    b302:	8082                	ret
    b304:	09e00793          	li	a5,158
    b308:	557d                	li	a0,-1
    b30a:	fee7ebe3          	bltu	a5,a4,b300 <__fixunssfsi+0x24>
    b30e:	09500593          	li	a1,149
    b312:	00c6e7b3          	or	a5,a3,a2
    b316:	00e5d763          	bge	a1,a4,b324 <__fixunssfsi+0x48>
    b31a:	f6a70713          	addi	a4,a4,-150
    b31e:	00e79533          	sll	a0,a5,a4
    b322:	8082                	ret
    b324:	09600513          	li	a0,150
    b328:	40e50733          	sub	a4,a0,a4
    b32c:	00e7d533          	srl	a0,a5,a4
    b330:	8082                	ret

0000b332 <__floatsisf>:
    b332:	1141                	addi	sp,sp,-16
    b334:	c606                	sw	ra,12(sp)
    b336:	c422                	sw	s0,8(sp)
    b338:	c226                	sw	s1,4(sp)
    b33a:	cd0d                	beqz	a0,b374 <__floatsisf+0x42>
    b33c:	41f55793          	srai	a5,a0,0x1f
    b340:	00a7c433          	xor	s0,a5,a0
    b344:	8c1d                	sub	s0,s0,a5
    b346:	84aa                	mv	s1,a0
    b348:	8522                	mv	a0,s0
    b34a:	2ab5                	jal	b4c6 <__clzsi2>
    b34c:	09e00793          	li	a5,158
    b350:	40a78733          	sub	a4,a5,a0
    b354:	09600793          	li	a5,150
    b358:	80fd                	srli	s1,s1,0x1f
    b35a:	02e7cc63          	blt	a5,a4,b392 <__floatsisf+0x60>
    b35e:	46a1                	li	a3,8
    b360:	0ff77793          	andi	a5,a4,255
    b364:	00a6d563          	bge	a3,a0,b36e <__floatsisf+0x3c>
    b368:	1561                	addi	a0,a0,-8
    b36a:	00a41433          	sll	s0,s0,a0
    b36e:	0426                	slli	s0,s0,0x9
    b370:	8025                	srli	s0,s0,0x9
    b372:	a021                	j	b37a <__floatsisf+0x48>
    b374:	4481                	li	s1,0
    b376:	4781                	li	a5,0
    b378:	4401                	li	s0,0
    b37a:	0426                	slli	s0,s0,0x9
    b37c:	00945513          	srli	a0,s0,0x9
    b380:	40b2                	lw	ra,12(sp)
    b382:	4422                	lw	s0,8(sp)
    b384:	07de                	slli	a5,a5,0x17
    b386:	04fe                	slli	s1,s1,0x1f
    b388:	8d5d                	or	a0,a0,a5
    b38a:	8d45                	or	a0,a0,s1
    b38c:	4492                	lw	s1,4(sp)
    b38e:	0141                	addi	sp,sp,16
    b390:	8082                	ret
    b392:	09900793          	li	a5,153
    b396:	00e7dd63          	bge	a5,a4,b3b0 <__floatsisf+0x7e>
    b39a:	01b50793          	addi	a5,a0,27 # 8000001b <__freertos_irq_stack_top+0x5fffb01b>
    b39e:	4695                	li	a3,5
    b3a0:	00f417b3          	sll	a5,s0,a5
    b3a4:	8e89                	sub	a3,a3,a0
    b3a6:	00d45433          	srl	s0,s0,a3
    b3aa:	00f037b3          	snez	a5,a5
    b3ae:	8c5d                	or	s0,s0,a5
    b3b0:	4795                	li	a5,5
    b3b2:	00a7d663          	bge	a5,a0,b3be <__floatsisf+0x8c>
    b3b6:	ffb50793          	addi	a5,a0,-5
    b3ba:	00f41433          	sll	s0,s0,a5
    b3be:	fc0006b7          	lui	a3,0xfc000
    b3c2:	16fd                	addi	a3,a3,-1
    b3c4:	00747793          	andi	a5,s0,7
    b3c8:	00d47633          	and	a2,s0,a3
    b3cc:	c385                	beqz	a5,b3ec <__floatsisf+0xba>
    b3ce:	00f47793          	andi	a5,s0,15
    b3d2:	4591                	li	a1,4
    b3d4:	00b78c63          	beq	a5,a1,b3ec <__floatsisf+0xba>
    b3d8:	0611                	addi	a2,a2,4
    b3da:	00561793          	slli	a5,a2,0x5
    b3de:	0007d763          	bgez	a5,b3ec <__floatsisf+0xba>
    b3e2:	09f00793          	li	a5,159
    b3e6:	8e75                	and	a2,a2,a3
    b3e8:	40a78733          	sub	a4,a5,a0
    b3ec:	00661413          	slli	s0,a2,0x6
    b3f0:	8025                	srli	s0,s0,0x9
    b3f2:	0ff77793          	andi	a5,a4,255
    b3f6:	b751                	j	b37a <__floatsisf+0x48>

0000b3f8 <__floatunsisf>:
    b3f8:	1141                	addi	sp,sp,-16
    b3fa:	c606                	sw	ra,12(sp)
    b3fc:	c422                	sw	s0,8(sp)
    b3fe:	cd15                	beqz	a0,b43a <__floatunsisf+0x42>
    b400:	842a                	mv	s0,a0
    b402:	20d1                	jal	b4c6 <__clzsi2>
    b404:	09e00793          	li	a5,158
    b408:	40a78733          	sub	a4,a5,a0
    b40c:	09600793          	li	a5,150
    b410:	04e7c063          	blt	a5,a4,b450 <__floatunsisf+0x58>
    b414:	46a1                	li	a3,8
    b416:	0ff77793          	andi	a5,a4,255
    b41a:	00a6d563          	bge	a3,a0,b424 <__floatunsisf+0x2c>
    b41e:	1561                	addi	a0,a0,-8
    b420:	00a41433          	sll	s0,s0,a0
    b424:	0426                	slli	s0,s0,0x9
    b426:	8025                	srli	s0,s0,0x9
    b428:	0426                	slli	s0,s0,0x9
    b42a:	00945513          	srli	a0,s0,0x9
    b42e:	40b2                	lw	ra,12(sp)
    b430:	4422                	lw	s0,8(sp)
    b432:	07de                	slli	a5,a5,0x17
    b434:	8d5d                	or	a0,a0,a5
    b436:	0141                	addi	sp,sp,16
    b438:	8082                	ret
    b43a:	4401                	li	s0,0
    b43c:	0426                	slli	s0,s0,0x9
    b43e:	00945513          	srli	a0,s0,0x9
    b442:	40b2                	lw	ra,12(sp)
    b444:	4422                	lw	s0,8(sp)
    b446:	4781                	li	a5,0
    b448:	07de                	slli	a5,a5,0x17
    b44a:	8d5d                	or	a0,a0,a5
    b44c:	0141                	addi	sp,sp,16
    b44e:	8082                	ret
    b450:	09900793          	li	a5,153
    b454:	00e7dd63          	bge	a5,a4,b46e <__floatunsisf+0x76>
    b458:	01b50793          	addi	a5,a0,27
    b45c:	4695                	li	a3,5
    b45e:	00f417b3          	sll	a5,s0,a5
    b462:	8e89                	sub	a3,a3,a0
    b464:	00f037b3          	snez	a5,a5
    b468:	00d45433          	srl	s0,s0,a3
    b46c:	8c5d                	or	s0,s0,a5
    b46e:	4795                	li	a5,5
    b470:	00a7d663          	bge	a5,a0,b47c <__floatunsisf+0x84>
    b474:	ffb50793          	addi	a5,a0,-5
    b478:	00f41433          	sll	s0,s0,a5
    b47c:	fc0006b7          	lui	a3,0xfc000
    b480:	16fd                	addi	a3,a3,-1
    b482:	00747793          	andi	a5,s0,7
    b486:	00d47633          	and	a2,s0,a3
    b48a:	c385                	beqz	a5,b4aa <__floatunsisf+0xb2>
    b48c:	00f47793          	andi	a5,s0,15
    b490:	4591                	li	a1,4
    b492:	00b78c63          	beq	a5,a1,b4aa <__floatunsisf+0xb2>
    b496:	0611                	addi	a2,a2,4
    b498:	00561793          	slli	a5,a2,0x5
    b49c:	0007d763          	bgez	a5,b4aa <__floatunsisf+0xb2>
    b4a0:	09f00793          	li	a5,159
    b4a4:	8e75                	and	a2,a2,a3
    b4a6:	40a78733          	sub	a4,a5,a0
    b4aa:	00661413          	slli	s0,a2,0x6
    b4ae:	8025                	srli	s0,s0,0x9
    b4b0:	0426                	slli	s0,s0,0x9
    b4b2:	00945513          	srli	a0,s0,0x9
    b4b6:	40b2                	lw	ra,12(sp)
    b4b8:	4422                	lw	s0,8(sp)
    b4ba:	0ff77793          	andi	a5,a4,255
    b4be:	07de                	slli	a5,a5,0x17
    b4c0:	8d5d                	or	a0,a0,a5
    b4c2:	0141                	addi	sp,sp,16
    b4c4:	8082                	ret

0000b4c6 <__clzsi2>:
    b4c6:	67c1                	lui	a5,0x10
    b4c8:	02f57c63          	bgeu	a0,a5,b500 <__clzsi2+0x3a>
    b4cc:	0ff00793          	li	a5,255
    b4d0:	02000713          	li	a4,32
    b4d4:	00a7eb63          	bltu	a5,a0,b4ea <__clzsi2+0x24>
    b4d8:	00002797          	auipc	a5,0x2
    b4dc:	48878793          	addi	a5,a5,1160 # d960 <__clz_tab>
    b4e0:	97aa                	add	a5,a5,a0
    b4e2:	2388                	lbu	a0,0(a5)
    b4e4:	40a70533          	sub	a0,a4,a0
    b4e8:	8082                	ret
    b4ea:	8121                	srli	a0,a0,0x8
    b4ec:	00002797          	auipc	a5,0x2
    b4f0:	47478793          	addi	a5,a5,1140 # d960 <__clz_tab>
    b4f4:	97aa                	add	a5,a5,a0
    b4f6:	2388                	lbu	a0,0(a5)
    b4f8:	4761                	li	a4,24
    b4fa:	40a70533          	sub	a0,a4,a0
    b4fe:	8082                	ret
    b500:	010007b7          	lui	a5,0x1000
    b504:	00f56d63          	bltu	a0,a5,b51e <__clzsi2+0x58>
    b508:	8161                	srli	a0,a0,0x18
    b50a:	00002797          	auipc	a5,0x2
    b50e:	45678793          	addi	a5,a5,1110 # d960 <__clz_tab>
    b512:	97aa                	add	a5,a5,a0
    b514:	2388                	lbu	a0,0(a5)
    b516:	4721                	li	a4,8
    b518:	40a70533          	sub	a0,a4,a0
    b51c:	8082                	ret
    b51e:	8141                	srli	a0,a0,0x10
    b520:	00002797          	auipc	a5,0x2
    b524:	44078793          	addi	a5,a5,1088 # d960 <__clz_tab>
    b528:	97aa                	add	a5,a5,a0
    b52a:	2388                	lbu	a0,0(a5)
    b52c:	4741                	li	a4,16
    b52e:	40a70533          	sub	a0,a4,a0
    b532:	8082                	ret

0000b534 <calloc>:
    b534:	83018793          	addi	a5,gp,-2000 # 200005d8 <_impure_ptr>
    b538:	862e                	mv	a2,a1
    b53a:	85aa                	mv	a1,a0
    b53c:	4388                	lw	a0,0(a5)
    b53e:	a211                	j	b642 <_calloc_r>

0000b540 <free>:
    b540:	83018793          	addi	a5,gp,-2000 # 200005d8 <_impure_ptr>
    b544:	85aa                	mv	a1,a0
    b546:	4388                	lw	a0,0(a5)
    b548:	a205                	j	b668 <_free_r>

0000b54a <memcpy>:
    b54a:	00a5c7b3          	xor	a5,a1,a0
    b54e:	8b8d                	andi	a5,a5,3
    b550:	00c50733          	add	a4,a0,a2
    b554:	e781                	bnez	a5,b55c <memcpy+0x12>
    b556:	478d                	li	a5,3
    b558:	00c7ed63          	bltu	a5,a2,b572 <memcpy+0x28>
    b55c:	87aa                	mv	a5,a0
    b55e:	08e57e63          	bgeu	a0,a4,b5fa <memcpy+0xb0>
    b562:	2194                	lbu	a3,0(a1)
    b564:	0785                	addi	a5,a5,1
    b566:	0585                	addi	a1,a1,1
    b568:	fed78fa3          	sb	a3,-1(a5)
    b56c:	fee7ebe3          	bltu	a5,a4,b562 <memcpy+0x18>
    b570:	8082                	ret
    b572:	00357693          	andi	a3,a0,3
    b576:	87aa                	mv	a5,a0
    b578:	ca89                	beqz	a3,b58a <memcpy+0x40>
    b57a:	2194                	lbu	a3,0(a1)
    b57c:	0785                	addi	a5,a5,1
    b57e:	0585                	addi	a1,a1,1
    b580:	fed78fa3          	sb	a3,-1(a5)
    b584:	0037f693          	andi	a3,a5,3
    b588:	bfc5                	j	b578 <memcpy+0x2e>
    b58a:	ffc77693          	andi	a3,a4,-4
    b58e:	fe068613          	addi	a2,a3,-32 # fbffffe0 <__freertos_irq_stack_top+0xdbffafe0>
    b592:	06c7f063          	bgeu	a5,a2,b5f2 <memcpy+0xa8>
    b596:	0005a383          	lw	t2,0(a1)
    b59a:	0045a283          	lw	t0,4(a1)
    b59e:	0085af83          	lw	t6,8(a1)
    b5a2:	00c5af03          	lw	t5,12(a1)
    b5a6:	0105ae83          	lw	t4,16(a1)
    b5aa:	0145ae03          	lw	t3,20(a1)
    b5ae:	0185a303          	lw	t1,24(a1)
    b5b2:	01c5a883          	lw	a7,28(a1)
    b5b6:	02458593          	addi	a1,a1,36
    b5ba:	0077a023          	sw	t2,0(a5)
    b5be:	ffc5a803          	lw	a6,-4(a1)
    b5c2:	0057a223          	sw	t0,4(a5)
    b5c6:	01f7a423          	sw	t6,8(a5)
    b5ca:	01e7a623          	sw	t5,12(a5)
    b5ce:	01d7a823          	sw	t4,16(a5)
    b5d2:	01c7aa23          	sw	t3,20(a5)
    b5d6:	0067ac23          	sw	t1,24(a5)
    b5da:	0117ae23          	sw	a7,28(a5)
    b5de:	02478793          	addi	a5,a5,36
    b5e2:	ff07ae23          	sw	a6,-4(a5)
    b5e6:	b775                	j	b592 <memcpy+0x48>
    b5e8:	4190                	lw	a2,0(a1)
    b5ea:	0791                	addi	a5,a5,4
    b5ec:	0591                	addi	a1,a1,4
    b5ee:	fec7ae23          	sw	a2,-4(a5)
    b5f2:	fed7ebe3          	bltu	a5,a3,b5e8 <memcpy+0x9e>
    b5f6:	f6e7e6e3          	bltu	a5,a4,b562 <memcpy+0x18>
    b5fa:	8082                	ret

0000b5fc <memmove>:
    b5fc:	04a5f163          	bgeu	a1,a0,b63e <memmove+0x42>
    b600:	00c586b3          	add	a3,a1,a2
    b604:	02d57d63          	bgeu	a0,a3,b63e <memmove+0x42>
    b608:	fff64593          	not	a1,a2
    b60c:	4781                	li	a5,0
    b60e:	17fd                	addi	a5,a5,-1
    b610:	00f59363          	bne	a1,a5,b616 <memmove+0x1a>
    b614:	8082                	ret
    b616:	00f68733          	add	a4,a3,a5
    b61a:	00074803          	lbu	a6,0(a4)
    b61e:	00c78733          	add	a4,a5,a2
    b622:	972a                	add	a4,a4,a0
    b624:	01070023          	sb	a6,0(a4)
    b628:	b7dd                	j	b60e <memmove+0x12>
    b62a:	00f58733          	add	a4,a1,a5
    b62e:	2314                	lbu	a3,0(a4)
    b630:	00f50733          	add	a4,a0,a5
    b634:	0785                	addi	a5,a5,1
    b636:	a314                	sb	a3,0(a4)
    b638:	fef619e3          	bne	a2,a5,b62a <memmove+0x2e>
    b63c:	8082                	ret
    b63e:	4781                	li	a5,0
    b640:	bfe5                	j	b638 <memmove+0x3c>

0000b642 <_calloc_r>:
    b642:	02c58633          	mul	a2,a1,a2
    b646:	1101                	addi	sp,sp,-32
    b648:	cc22                	sw	s0,24(sp)
    b64a:	ce06                	sw	ra,28(sp)
    b64c:	85b2                	mv	a1,a2
    b64e:	c632                	sw	a2,12(sp)
    b650:	2875                	jal	b70c <_malloc_r>
    b652:	842a                	mv	s0,a0
    b654:	c509                	beqz	a0,b65e <_calloc_r+0x1c>
    b656:	4632                	lw	a2,12(sp)
    b658:	4581                	li	a1,0
    b65a:	ef5f40ef          	jal	ra,54e <memset>
    b65e:	8522                	mv	a0,s0
    b660:	40f2                	lw	ra,28(sp)
    b662:	4462                	lw	s0,24(sp)
    b664:	6105                	addi	sp,sp,32
    b666:	8082                	ret

0000b668 <_free_r>:
    b668:	c1cd                	beqz	a1,b70a <_free_r+0xa2>
    b66a:	ffc5a783          	lw	a5,-4(a1)
    b66e:	1141                	addi	sp,sp,-16
    b670:	c422                	sw	s0,8(sp)
    b672:	c606                	sw	ra,12(sp)
    b674:	c226                	sw	s1,4(sp)
    b676:	ffc58413          	addi	s0,a1,-4
    b67a:	0007d363          	bgez	a5,b680 <_free_r+0x18>
    b67e:	943e                	add	s0,s0,a5
    b680:	84aa                	mv	s1,a0
    b682:	2121                	jal	ba8a <__malloc_lock>
    b684:	95018793          	addi	a5,gp,-1712 # 200006f8 <__malloc_free_list>
    b688:	439c                	lw	a5,0(a5)
    b68a:	eb99                	bnez	a5,b6a0 <_free_r+0x38>
    b68c:	00042223          	sw	zero,4(s0) # 4000004 <_data_lma+0x3ff2508>
    b690:	9481a823          	sw	s0,-1712(gp) # 200006f8 <__malloc_free_list>
    b694:	4422                	lw	s0,8(sp)
    b696:	40b2                	lw	ra,12(sp)
    b698:	8526                	mv	a0,s1
    b69a:	4492                	lw	s1,4(sp)
    b69c:	0141                	addi	sp,sp,16
    b69e:	a6fd                	j	ba8c <__malloc_unlock>
    b6a0:	00f47e63          	bgeu	s0,a5,b6bc <_free_r+0x54>
    b6a4:	4014                	lw	a3,0(s0)
    b6a6:	00d40733          	add	a4,s0,a3
    b6aa:	00e79663          	bne	a5,a4,b6b6 <_free_r+0x4e>
    b6ae:	4398                	lw	a4,0(a5)
    b6b0:	43dc                	lw	a5,4(a5)
    b6b2:	9736                	add	a4,a4,a3
    b6b4:	c018                	sw	a4,0(s0)
    b6b6:	c05c                	sw	a5,4(s0)
    b6b8:	bfe1                	j	b690 <_free_r+0x28>
    b6ba:	87ba                	mv	a5,a4
    b6bc:	43d8                	lw	a4,4(a5)
    b6be:	c319                	beqz	a4,b6c4 <_free_r+0x5c>
    b6c0:	fee47de3          	bgeu	s0,a4,b6ba <_free_r+0x52>
    b6c4:	4394                	lw	a3,0(a5)
    b6c6:	00d78633          	add	a2,a5,a3
    b6ca:	00861f63          	bne	a2,s0,b6e8 <_free_r+0x80>
    b6ce:	4010                	lw	a2,0(s0)
    b6d0:	96b2                	add	a3,a3,a2
    b6d2:	c394                	sw	a3,0(a5)
    b6d4:	00d78633          	add	a2,a5,a3
    b6d8:	fac71ee3          	bne	a4,a2,b694 <_free_r+0x2c>
    b6dc:	4310                	lw	a2,0(a4)
    b6de:	4358                	lw	a4,4(a4)
    b6e0:	96b2                	add	a3,a3,a2
    b6e2:	c394                	sw	a3,0(a5)
    b6e4:	c3d8                	sw	a4,4(a5)
    b6e6:	b77d                	j	b694 <_free_r+0x2c>
    b6e8:	00c47563          	bgeu	s0,a2,b6f2 <_free_r+0x8a>
    b6ec:	47b1                	li	a5,12
    b6ee:	c09c                	sw	a5,0(s1)
    b6f0:	b755                	j	b694 <_free_r+0x2c>
    b6f2:	4010                	lw	a2,0(s0)
    b6f4:	00c406b3          	add	a3,s0,a2
    b6f8:	00d71663          	bne	a4,a3,b704 <_free_r+0x9c>
    b6fc:	4314                	lw	a3,0(a4)
    b6fe:	4358                	lw	a4,4(a4)
    b700:	96b2                	add	a3,a3,a2
    b702:	c014                	sw	a3,0(s0)
    b704:	c058                	sw	a4,4(s0)
    b706:	c3c0                	sw	s0,4(a5)
    b708:	b771                	j	b694 <_free_r+0x2c>
    b70a:	8082                	ret

0000b70c <_malloc_r>:
    b70c:	1101                	addi	sp,sp,-32
    b70e:	ca26                	sw	s1,20(sp)
    b710:	00358493          	addi	s1,a1,3
    b714:	98f1                	andi	s1,s1,-4
    b716:	ce06                	sw	ra,28(sp)
    b718:	cc22                	sw	s0,24(sp)
    b71a:	c84a                	sw	s2,16(sp)
    b71c:	c64e                	sw	s3,12(sp)
    b71e:	04a1                	addi	s1,s1,8
    b720:	47b1                	li	a5,12
    b722:	04f4f163          	bgeu	s1,a5,b764 <_malloc_r+0x58>
    b726:	44b1                	li	s1,12
    b728:	04b4e063          	bltu	s1,a1,b768 <_malloc_r+0x5c>
    b72c:	892a                	mv	s2,a0
    b72e:	2eb1                	jal	ba8a <__malloc_lock>
    b730:	95018793          	addi	a5,gp,-1712 # 200006f8 <__malloc_free_list>
    b734:	4398                	lw	a4,0(a5)
    b736:	843a                	mv	s0,a4
    b738:	e031                	bnez	s0,b77c <_malloc_r+0x70>
    b73a:	95418793          	addi	a5,gp,-1708 # 200006fc <__malloc_sbrk_start>
    b73e:	439c                	lw	a5,0(a5)
    b740:	e791                	bnez	a5,b74c <_malloc_r+0x40>
    b742:	4581                	li	a1,0
    b744:	854a                	mv	a0,s2
    b746:	28c9                	jal	b818 <_sbrk_r>
    b748:	94a1aa23          	sw	a0,-1708(gp) # 200006fc <__malloc_sbrk_start>
    b74c:	85a6                	mv	a1,s1
    b74e:	854a                	mv	a0,s2
    b750:	20e1                	jal	b818 <_sbrk_r>
    b752:	59fd                	li	s3,-1
    b754:	07351763          	bne	a0,s3,b7c2 <_malloc_r+0xb6>
    b758:	47b1                	li	a5,12
    b75a:	00f92023          	sw	a5,0(s2)
    b75e:	854a                	mv	a0,s2
    b760:	2635                	jal	ba8c <__malloc_unlock>
    b762:	a029                	j	b76c <_malloc_r+0x60>
    b764:	fc04d2e3          	bgez	s1,b728 <_malloc_r+0x1c>
    b768:	47b1                	li	a5,12
    b76a:	c11c                	sw	a5,0(a0)
    b76c:	4501                	li	a0,0
    b76e:	40f2                	lw	ra,28(sp)
    b770:	4462                	lw	s0,24(sp)
    b772:	44d2                	lw	s1,20(sp)
    b774:	4942                	lw	s2,16(sp)
    b776:	49b2                	lw	s3,12(sp)
    b778:	6105                	addi	sp,sp,32
    b77a:	8082                	ret
    b77c:	401c                	lw	a5,0(s0)
    b77e:	8f85                	sub	a5,a5,s1
    b780:	0207ce63          	bltz	a5,b7bc <_malloc_r+0xb0>
    b784:	46ad                	li	a3,11
    b786:	00f6f663          	bgeu	a3,a5,b792 <_malloc_r+0x86>
    b78a:	c01c                	sw	a5,0(s0)
    b78c:	943e                	add	s0,s0,a5
    b78e:	c004                	sw	s1,0(s0)
    b790:	a031                	j	b79c <_malloc_r+0x90>
    b792:	405c                	lw	a5,4(s0)
    b794:	02871263          	bne	a4,s0,b7b8 <_malloc_r+0xac>
    b798:	94f1a823          	sw	a5,-1712(gp) # 200006f8 <__malloc_free_list>
    b79c:	854a                	mv	a0,s2
    b79e:	24fd                	jal	ba8c <__malloc_unlock>
    b7a0:	00b40513          	addi	a0,s0,11
    b7a4:	00440793          	addi	a5,s0,4
    b7a8:	9961                	andi	a0,a0,-8
    b7aa:	40f50733          	sub	a4,a0,a5
    b7ae:	d361                	beqz	a4,b76e <_malloc_r+0x62>
    b7b0:	943a                	add	s0,s0,a4
    b7b2:	8f89                	sub	a5,a5,a0
    b7b4:	c01c                	sw	a5,0(s0)
    b7b6:	bf65                	j	b76e <_malloc_r+0x62>
    b7b8:	c35c                	sw	a5,4(a4)
    b7ba:	b7cd                	j	b79c <_malloc_r+0x90>
    b7bc:	8722                	mv	a4,s0
    b7be:	4040                	lw	s0,4(s0)
    b7c0:	bfa5                	j	b738 <_malloc_r+0x2c>
    b7c2:	00350413          	addi	s0,a0,3
    b7c6:	9871                	andi	s0,s0,-4
    b7c8:	fc8503e3          	beq	a0,s0,b78e <_malloc_r+0x82>
    b7cc:	40a405b3          	sub	a1,s0,a0
    b7d0:	854a                	mv	a0,s2
    b7d2:	2099                	jal	b818 <_sbrk_r>
    b7d4:	fb351de3          	bne	a0,s3,b78e <_malloc_r+0x82>
    b7d8:	b741                	j	b758 <_malloc_r+0x4c>

0000b7da <iprintf>:
    b7da:	7139                	addi	sp,sp,-64
    b7dc:	da3e                	sw	a5,52(sp)
    b7de:	d22e                	sw	a1,36(sp)
    b7e0:	d432                	sw	a2,40(sp)
    b7e2:	d636                	sw	a3,44(sp)
    b7e4:	d83a                	sw	a4,48(sp)
    b7e6:	dc42                	sw	a6,56(sp)
    b7e8:	de46                	sw	a7,60(sp)
    b7ea:	83018793          	addi	a5,gp,-2000 # 200005d8 <_impure_ptr>
    b7ee:	cc22                	sw	s0,24(sp)
    b7f0:	4380                	lw	s0,0(a5)
    b7f2:	ca26                	sw	s1,20(sp)
    b7f4:	ce06                	sw	ra,28(sp)
    b7f6:	84aa                	mv	s1,a0
    b7f8:	c409                	beqz	s0,b802 <iprintf+0x28>
    b7fa:	4c1c                	lw	a5,24(s0)
    b7fc:	e399                	bnez	a5,b802 <iprintf+0x28>
    b7fe:	8522                	mv	a0,s0
    b800:	2a11                	jal	b914 <__sinit>
    b802:	440c                	lw	a1,8(s0)
    b804:	1054                	addi	a3,sp,36
    b806:	8626                	mv	a2,s1
    b808:	8522                	mv	a0,s0
    b80a:	c636                	sw	a3,12(sp)
    b80c:	24ed                	jal	baf6 <_vfiprintf_r>
    b80e:	40f2                	lw	ra,28(sp)
    b810:	4462                	lw	s0,24(sp)
    b812:	44d2                	lw	s1,20(sp)
    b814:	6121                	addi	sp,sp,64
    b816:	8082                	ret

0000b818 <_sbrk_r>:
    b818:	1141                	addi	sp,sp,-16
    b81a:	c422                	sw	s0,8(sp)
    b81c:	842a                	mv	s0,a0
    b81e:	852e                	mv	a0,a1
    b820:	1fff8797          	auipc	a5,0x1fff8
    b824:	8807ac23          	sw	zero,-1896(a5) # 200030b8 <errno>
    b828:	c606                	sw	ra,12(sp)
    b82a:	936fc0ef          	jal	ra,7960 <_sbrk>
    b82e:	57fd                	li	a5,-1
    b830:	00f51963          	bne	a0,a5,b842 <_sbrk_r+0x2a>
    b834:	1fff8797          	auipc	a5,0x1fff8
    b838:	88478793          	addi	a5,a5,-1916 # 200030b8 <errno>
    b83c:	439c                	lw	a5,0(a5)
    b83e:	c391                	beqz	a5,b842 <_sbrk_r+0x2a>
    b840:	c01c                	sw	a5,0(s0)
    b842:	40b2                	lw	ra,12(sp)
    b844:	4422                	lw	s0,8(sp)
    b846:	0141                	addi	sp,sp,16
    b848:	8082                	ret

0000b84a <strlen>:
    b84a:	87aa                	mv	a5,a0
    b84c:	0785                	addi	a5,a5,1
    b84e:	fff7c703          	lbu	a4,-1(a5)
    b852:	ff6d                	bnez	a4,b84c <strlen+0x2>
    b854:	40a78533          	sub	a0,a5,a0
    b858:	157d                	addi	a0,a0,-1
    b85a:	8082                	ret

0000b85c <std>:
    b85c:	1141                	addi	sp,sp,-16
    b85e:	c422                	sw	s0,8(sp)
    b860:	c606                	sw	ra,12(sp)
    b862:	842a                	mv	s0,a0
    b864:	a54e                	sh	a1,12(a0)
    b866:	a572                	sh	a2,14(a0)
    b868:	00052023          	sw	zero,0(a0)
    b86c:	00052223          	sw	zero,4(a0)
    b870:	00052423          	sw	zero,8(a0)
    b874:	06052223          	sw	zero,100(a0)
    b878:	00052823          	sw	zero,16(a0)
    b87c:	00052a23          	sw	zero,20(a0)
    b880:	00052c23          	sw	zero,24(a0)
    b884:	4621                	li	a2,8
    b886:	4581                	li	a1,0
    b888:	05c50513          	addi	a0,a0,92
    b88c:	cc3f40ef          	jal	ra,54e <memset>
    b890:	00001797          	auipc	a5,0x1
    b894:	8a078793          	addi	a5,a5,-1888 # c130 <__sread>
    b898:	d05c                	sw	a5,36(s0)
    b89a:	00001797          	auipc	a5,0x1
    b89e:	8c278793          	addi	a5,a5,-1854 # c15c <__swrite>
    b8a2:	d41c                	sw	a5,40(s0)
    b8a4:	00001797          	auipc	a5,0x1
    b8a8:	90078793          	addi	a5,a5,-1792 # c1a4 <__sseek>
    b8ac:	d45c                	sw	a5,44(s0)
    b8ae:	00001797          	auipc	a5,0x1
    b8b2:	92678793          	addi	a5,a5,-1754 # c1d4 <__sclose>
    b8b6:	d000                	sw	s0,32(s0)
    b8b8:	d81c                	sw	a5,48(s0)
    b8ba:	40b2                	lw	ra,12(sp)
    b8bc:	4422                	lw	s0,8(sp)
    b8be:	0141                	addi	sp,sp,16
    b8c0:	8082                	ret

0000b8c2 <_cleanup_r>:
    b8c2:	00001597          	auipc	a1,0x1
    b8c6:	c6e58593          	addi	a1,a1,-914 # c530 <_fflush_r>
    b8ca:	aa99                	j	ba20 <_fwalk_reent>

0000b8cc <__sfmoreglue>:
    b8cc:	1141                	addi	sp,sp,-16
    b8ce:	c226                	sw	s1,4(sp)
    b8d0:	06800613          	li	a2,104
    b8d4:	fff58493          	addi	s1,a1,-1
    b8d8:	02c484b3          	mul	s1,s1,a2
    b8dc:	c04a                	sw	s2,0(sp)
    b8de:	892e                	mv	s2,a1
    b8e0:	c422                	sw	s0,8(sp)
    b8e2:	c606                	sw	ra,12(sp)
    b8e4:	07448593          	addi	a1,s1,116
    b8e8:	e25ff0ef          	jal	ra,b70c <_malloc_r>
    b8ec:	842a                	mv	s0,a0
    b8ee:	cd01                	beqz	a0,b906 <__sfmoreglue+0x3a>
    b8f0:	00052023          	sw	zero,0(a0)
    b8f4:	01252223          	sw	s2,4(a0)
    b8f8:	0531                	addi	a0,a0,12
    b8fa:	c408                	sw	a0,8(s0)
    b8fc:	06848613          	addi	a2,s1,104
    b900:	4581                	li	a1,0
    b902:	c4df40ef          	jal	ra,54e <memset>
    b906:	8522                	mv	a0,s0
    b908:	40b2                	lw	ra,12(sp)
    b90a:	4422                	lw	s0,8(sp)
    b90c:	4492                	lw	s1,4(sp)
    b90e:	4902                	lw	s2,0(sp)
    b910:	0141                	addi	sp,sp,16
    b912:	8082                	ret

0000b914 <__sinit>:
    b914:	4d1c                	lw	a5,24(a0)
    b916:	e7a5                	bnez	a5,b97e <__sinit+0x6a>
    b918:	1141                	addi	sp,sp,-16
    b91a:	c606                	sw	ra,12(sp)
    b91c:	c422                	sw	s0,8(sp)
    b91e:	00000797          	auipc	a5,0x0
    b922:	fa478793          	addi	a5,a5,-92 # b8c2 <_cleanup_r>
    b926:	d51c                	sw	a5,40(a0)
    b928:	86818793          	addi	a5,gp,-1944 # 20000610 <_global_impure_ptr>
    b92c:	439c                	lw	a5,0(a5)
    b92e:	04052423          	sw	zero,72(a0)
    b932:	04052623          	sw	zero,76(a0)
    b936:	04052823          	sw	zero,80(a0)
    b93a:	00f51463          	bne	a0,a5,b942 <__sinit+0x2e>
    b93e:	4785                	li	a5,1
    b940:	cd1c                	sw	a5,24(a0)
    b942:	842a                	mv	s0,a0
    b944:	2835                	jal	b980 <__sfp>
    b946:	c048                	sw	a0,4(s0)
    b948:	8522                	mv	a0,s0
    b94a:	281d                	jal	b980 <__sfp>
    b94c:	c408                	sw	a0,8(s0)
    b94e:	8522                	mv	a0,s0
    b950:	2805                	jal	b980 <__sfp>
    b952:	c448                	sw	a0,12(s0)
    b954:	4048                	lw	a0,4(s0)
    b956:	4601                	li	a2,0
    b958:	4591                	li	a1,4
    b95a:	f03ff0ef          	jal	ra,b85c <std>
    b95e:	4408                	lw	a0,8(s0)
    b960:	4605                	li	a2,1
    b962:	45a5                	li	a1,9
    b964:	ef9ff0ef          	jal	ra,b85c <std>
    b968:	4448                	lw	a0,12(s0)
    b96a:	4609                	li	a2,2
    b96c:	45c9                	li	a1,18
    b96e:	eefff0ef          	jal	ra,b85c <std>
    b972:	4785                	li	a5,1
    b974:	cc1c                	sw	a5,24(s0)
    b976:	40b2                	lw	ra,12(sp)
    b978:	4422                	lw	s0,8(sp)
    b97a:	0141                	addi	sp,sp,16
    b97c:	8082                	ret
    b97e:	8082                	ret

0000b980 <__sfp>:
    b980:	1141                	addi	sp,sp,-16
    b982:	86818793          	addi	a5,gp,-1944 # 20000610 <_global_impure_ptr>
    b986:	c226                	sw	s1,4(sp)
    b988:	4384                	lw	s1,0(a5)
    b98a:	c04a                	sw	s2,0(sp)
    b98c:	c606                	sw	ra,12(sp)
    b98e:	4c9c                	lw	a5,24(s1)
    b990:	c422                	sw	s0,8(sp)
    b992:	892a                	mv	s2,a0
    b994:	e781                	bnez	a5,b99c <__sfp+0x1c>
    b996:	8526                	mv	a0,s1
    b998:	f7dff0ef          	jal	ra,b914 <__sinit>
    b99c:	04848493          	addi	s1,s1,72
    b9a0:	4480                	lw	s0,8(s1)
    b9a2:	40dc                	lw	a5,4(s1)
    b9a4:	17fd                	addi	a5,a5,-1
    b9a6:	0007d663          	bgez	a5,b9b2 <__sfp+0x32>
    b9aa:	409c                	lw	a5,0(s1)
    b9ac:	cfb9                	beqz	a5,ba0a <__sfp+0x8a>
    b9ae:	4084                	lw	s1,0(s1)
    b9b0:	bfc5                	j	b9a0 <__sfp+0x20>
    b9b2:	00c41703          	lh	a4,12(s0)
    b9b6:	e739                	bnez	a4,ba04 <__sfp+0x84>
    b9b8:	77c1                	lui	a5,0xffff0
    b9ba:	0785                	addi	a5,a5,1
    b9bc:	06042223          	sw	zero,100(s0)
    b9c0:	00042023          	sw	zero,0(s0)
    b9c4:	00042223          	sw	zero,4(s0)
    b9c8:	00042423          	sw	zero,8(s0)
    b9cc:	c45c                	sw	a5,12(s0)
    b9ce:	00042823          	sw	zero,16(s0)
    b9d2:	00042a23          	sw	zero,20(s0)
    b9d6:	00042c23          	sw	zero,24(s0)
    b9da:	4621                	li	a2,8
    b9dc:	4581                	li	a1,0
    b9de:	05c40513          	addi	a0,s0,92
    b9e2:	b6df40ef          	jal	ra,54e <memset>
    b9e6:	02042a23          	sw	zero,52(s0)
    b9ea:	02042c23          	sw	zero,56(s0)
    b9ee:	04042423          	sw	zero,72(s0)
    b9f2:	04042623          	sw	zero,76(s0)
    b9f6:	8522                	mv	a0,s0
    b9f8:	40b2                	lw	ra,12(sp)
    b9fa:	4422                	lw	s0,8(sp)
    b9fc:	4492                	lw	s1,4(sp)
    b9fe:	4902                	lw	s2,0(sp)
    ba00:	0141                	addi	sp,sp,16
    ba02:	8082                	ret
    ba04:	06840413          	addi	s0,s0,104
    ba08:	bf71                	j	b9a4 <__sfp+0x24>
    ba0a:	4591                	li	a1,4
    ba0c:	854a                	mv	a0,s2
    ba0e:	ebfff0ef          	jal	ra,b8cc <__sfmoreglue>
    ba12:	c088                	sw	a0,0(s1)
    ba14:	fd49                	bnez	a0,b9ae <__sfp+0x2e>
    ba16:	47b1                	li	a5,12
    ba18:	00f92023          	sw	a5,0(s2)
    ba1c:	4401                	li	s0,0
    ba1e:	bfe1                	j	b9f6 <__sfp+0x76>

0000ba20 <_fwalk_reent>:
    ba20:	7179                	addi	sp,sp,-48
    ba22:	d422                	sw	s0,40(sp)
    ba24:	d04a                	sw	s2,32(sp)
    ba26:	cc52                	sw	s4,24(sp)
    ba28:	ca56                	sw	s5,20(sp)
    ba2a:	c85a                	sw	s6,16(sp)
    ba2c:	c65e                	sw	s7,12(sp)
    ba2e:	d606                	sw	ra,44(sp)
    ba30:	d226                	sw	s1,36(sp)
    ba32:	ce4e                	sw	s3,28(sp)
    ba34:	8a2a                	mv	s4,a0
    ba36:	8aae                	mv	s5,a1
    ba38:	04850413          	addi	s0,a0,72
    ba3c:	4901                	li	s2,0
    ba3e:	4b05                	li	s6,1
    ba40:	5bfd                	li	s7,-1
    ba42:	ec09                	bnez	s0,ba5c <_fwalk_reent+0x3c>
    ba44:	50b2                	lw	ra,44(sp)
    ba46:	5422                	lw	s0,40(sp)
    ba48:	854a                	mv	a0,s2
    ba4a:	5492                	lw	s1,36(sp)
    ba4c:	5902                	lw	s2,32(sp)
    ba4e:	49f2                	lw	s3,28(sp)
    ba50:	4a62                	lw	s4,24(sp)
    ba52:	4ad2                	lw	s5,20(sp)
    ba54:	4b42                	lw	s6,16(sp)
    ba56:	4bb2                	lw	s7,12(sp)
    ba58:	6145                	addi	sp,sp,48
    ba5a:	8082                	ret
    ba5c:	4404                	lw	s1,8(s0)
    ba5e:	00442983          	lw	s3,4(s0)
    ba62:	19fd                	addi	s3,s3,-1
    ba64:	0009d463          	bgez	s3,ba6c <_fwalk_reent+0x4c>
    ba68:	4000                	lw	s0,0(s0)
    ba6a:	bfe1                	j	ba42 <_fwalk_reent+0x22>
    ba6c:	24de                	lhu	a5,12(s1)
    ba6e:	00fb7b63          	bgeu	s6,a5,ba84 <_fwalk_reent+0x64>
    ba72:	00e49783          	lh	a5,14(s1)
    ba76:	01778763          	beq	a5,s7,ba84 <_fwalk_reent+0x64>
    ba7a:	85a6                	mv	a1,s1
    ba7c:	8552                	mv	a0,s4
    ba7e:	9a82                	jalr	s5
    ba80:	00a96933          	or	s2,s2,a0
    ba84:	06848493          	addi	s1,s1,104
    ba88:	bfe9                	j	ba62 <_fwalk_reent+0x42>

0000ba8a <__malloc_lock>:
    ba8a:	8082                	ret

0000ba8c <__malloc_unlock>:
    ba8c:	8082                	ret

0000ba8e <__sfputc_r>:
    ba8e:	461c                	lw	a5,8(a2)
    ba90:	17fd                	addi	a5,a5,-1
    ba92:	c61c                	sw	a5,8(a2)
    ba94:	0007d963          	bgez	a5,baa6 <__sfputc_r+0x18>
    ba98:	4e18                	lw	a4,24(a2)
    ba9a:	00e7c563          	blt	a5,a4,baa4 <__sfputc_r+0x16>
    ba9e:	47a9                	li	a5,10
    baa0:	00f59363          	bne	a1,a5,baa6 <__sfputc_r+0x18>
    baa4:	af1d                	j	c1da <__swbuf_r>
    baa6:	421c                	lw	a5,0(a2)
    baa8:	852e                	mv	a0,a1
    baaa:	00178713          	addi	a4,a5,1 # ffff0001 <__freertos_irq_stack_top+0xdffeb001>
    baae:	c218                	sw	a4,0(a2)
    bab0:	a38c                	sb	a1,0(a5)
    bab2:	8082                	ret

0000bab4 <__sfputs_r>:
    bab4:	1101                	addi	sp,sp,-32
    bab6:	cc22                	sw	s0,24(sp)
    bab8:	ca26                	sw	s1,20(sp)
    baba:	c84a                	sw	s2,16(sp)
    babc:	c64e                	sw	s3,12(sp)
    babe:	c452                	sw	s4,8(sp)
    bac0:	ce06                	sw	ra,28(sp)
    bac2:	892a                	mv	s2,a0
    bac4:	89ae                	mv	s3,a1
    bac6:	8432                	mv	s0,a2
    bac8:	00d604b3          	add	s1,a2,a3
    bacc:	5a7d                	li	s4,-1
    bace:	00941463          	bne	s0,s1,bad6 <__sfputs_r+0x22>
    bad2:	4501                	li	a0,0
    bad4:	a809                	j	bae6 <__sfputs_r+0x32>
    bad6:	200c                	lbu	a1,0(s0)
    bad8:	864e                	mv	a2,s3
    bada:	854a                	mv	a0,s2
    badc:	fb3ff0ef          	jal	ra,ba8e <__sfputc_r>
    bae0:	0405                	addi	s0,s0,1
    bae2:	ff4516e3          	bne	a0,s4,bace <__sfputs_r+0x1a>
    bae6:	40f2                	lw	ra,28(sp)
    bae8:	4462                	lw	s0,24(sp)
    baea:	44d2                	lw	s1,20(sp)
    baec:	4942                	lw	s2,16(sp)
    baee:	49b2                	lw	s3,12(sp)
    baf0:	4a22                	lw	s4,8(sp)
    baf2:	6105                	addi	sp,sp,32
    baf4:	8082                	ret

0000baf6 <_vfiprintf_r>:
    baf6:	7135                	addi	sp,sp,-160
    baf8:	cd22                	sw	s0,152(sp)
    bafa:	cb26                	sw	s1,148(sp)
    bafc:	c94a                	sw	s2,144(sp)
    bafe:	c74e                	sw	s3,140(sp)
    bb00:	cf06                	sw	ra,156(sp)
    bb02:	c552                	sw	s4,136(sp)
    bb04:	c356                	sw	s5,132(sp)
    bb06:	c15a                	sw	s6,128(sp)
    bb08:	dede                	sw	s7,124(sp)
    bb0a:	dce2                	sw	s8,120(sp)
    bb0c:	dae6                	sw	s9,116(sp)
    bb0e:	89aa                	mv	s3,a0
    bb10:	84ae                	mv	s1,a1
    bb12:	8932                	mv	s2,a2
    bb14:	8436                	mv	s0,a3
    bb16:	c509                	beqz	a0,bb20 <_vfiprintf_r+0x2a>
    bb18:	4d1c                	lw	a5,24(a0)
    bb1a:	e399                	bnez	a5,bb20 <_vfiprintf_r+0x2a>
    bb1c:	df9ff0ef          	jal	ra,b914 <__sinit>
    bb20:	00002797          	auipc	a5,0x2
    bb24:	f6078793          	addi	a5,a5,-160 # da80 <__sf_fake_stdin>
    bb28:	0cf49963          	bne	s1,a5,bbfa <_vfiprintf_r+0x104>
    bb2c:	0049a483          	lw	s1,4(s3)
    bb30:	24de                	lhu	a5,12(s1)
    bb32:	8ba1                	andi	a5,a5,8
    bb34:	c7ed                	beqz	a5,bc1e <_vfiprintf_r+0x128>
    bb36:	489c                	lw	a5,16(s1)
    bb38:	c3fd                	beqz	a5,bc1e <_vfiprintf_r+0x128>
    bb3a:	02000793          	li	a5,32
    bb3e:	02f104a3          	sb	a5,41(sp)
    bb42:	03000793          	li	a5,48
    bb46:	d202                	sw	zero,36(sp)
    bb48:	02f10523          	sb	a5,42(sp)
    bb4c:	c622                	sw	s0,12(sp)
    bb4e:	02500b93          	li	s7,37
    bb52:	00002a97          	auipc	s5,0x2
    bb56:	f6ea8a93          	addi	s5,s5,-146 # dac0 <__sf_fake_stdout+0x20>
    bb5a:	4c05                	li	s8,1
    bb5c:	4b29                	li	s6,10
    bb5e:	844a                	mv	s0,s2
    bb60:	201c                	lbu	a5,0(s0)
    bb62:	c399                	beqz	a5,bb68 <_vfiprintf_r+0x72>
    bb64:	0d779f63          	bne	a5,s7,bc42 <_vfiprintf_r+0x14c>
    bb68:	41240cb3          	sub	s9,s0,s2
    bb6c:	000c8e63          	beqz	s9,bb88 <_vfiprintf_r+0x92>
    bb70:	86e6                	mv	a3,s9
    bb72:	864a                	mv	a2,s2
    bb74:	85a6                	mv	a1,s1
    bb76:	854e                	mv	a0,s3
    bb78:	f3dff0ef          	jal	ra,bab4 <__sfputs_r>
    bb7c:	57fd                	li	a5,-1
    bb7e:	1ef50163          	beq	a0,a5,bd60 <_vfiprintf_r+0x26a>
    bb82:	5692                	lw	a3,36(sp)
    bb84:	96e6                	add	a3,a3,s9
    bb86:	d236                	sw	a3,36(sp)
    bb88:	201c                	lbu	a5,0(s0)
    bb8a:	1c078b63          	beqz	a5,bd60 <_vfiprintf_r+0x26a>
    bb8e:	57fd                	li	a5,-1
    bb90:	00140913          	addi	s2,s0,1
    bb94:	c802                	sw	zero,16(sp)
    bb96:	ce02                	sw	zero,28(sp)
    bb98:	ca3e                	sw	a5,20(sp)
    bb9a:	cc02                	sw	zero,24(sp)
    bb9c:	040109a3          	sb	zero,83(sp)
    bba0:	d482                	sw	zero,104(sp)
    bba2:	00094583          	lbu	a1,0(s2)
    bba6:	4615                	li	a2,5
    bba8:	8556                	mv	a0,s5
    bbaa:	30b000ef          	jal	ra,c6b4 <memchr>
    bbae:	00190413          	addi	s0,s2,1
    bbb2:	47c2                	lw	a5,16(sp)
    bbb4:	e949                	bnez	a0,bc46 <_vfiprintf_r+0x150>
    bbb6:	0107f713          	andi	a4,a5,16
    bbba:	c709                	beqz	a4,bbc4 <_vfiprintf_r+0xce>
    bbbc:	02000713          	li	a4,32
    bbc0:	04e109a3          	sb	a4,83(sp)
    bbc4:	0087f713          	andi	a4,a5,8
    bbc8:	c709                	beqz	a4,bbd2 <_vfiprintf_r+0xdc>
    bbca:	02b00713          	li	a4,43
    bbce:	04e109a3          	sb	a4,83(sp)
    bbd2:	00094683          	lbu	a3,0(s2)
    bbd6:	02a00713          	li	a4,42
    bbda:	06e68e63          	beq	a3,a4,bc56 <_vfiprintf_r+0x160>
    bbde:	47f2                	lw	a5,28(sp)
    bbe0:	844a                	mv	s0,s2
    bbe2:	4681                	li	a3,0
    bbe4:	4625                	li	a2,9
    bbe6:	2018                	lbu	a4,0(s0)
    bbe8:	00140593          	addi	a1,s0,1
    bbec:	fd070713          	addi	a4,a4,-48
    bbf0:	0ae67663          	bgeu	a2,a4,bc9c <_vfiprintf_r+0x1a6>
    bbf4:	caad                	beqz	a3,bc66 <_vfiprintf_r+0x170>
    bbf6:	ce3e                	sw	a5,28(sp)
    bbf8:	a0bd                	j	bc66 <_vfiprintf_r+0x170>
    bbfa:	00002797          	auipc	a5,0x2
    bbfe:	ea678793          	addi	a5,a5,-346 # daa0 <__sf_fake_stdout>
    bc02:	00f49563          	bne	s1,a5,bc0c <_vfiprintf_r+0x116>
    bc06:	0089a483          	lw	s1,8(s3)
    bc0a:	b71d                	j	bb30 <_vfiprintf_r+0x3a>
    bc0c:	00002797          	auipc	a5,0x2
    bc10:	e5478793          	addi	a5,a5,-428 # da60 <__sf_fake_stderr>
    bc14:	f0f49ee3          	bne	s1,a5,bb30 <_vfiprintf_r+0x3a>
    bc18:	00c9a483          	lw	s1,12(s3)
    bc1c:	bf11                	j	bb30 <_vfiprintf_r+0x3a>
    bc1e:	85a6                	mv	a1,s1
    bc20:	854e                	mv	a0,s3
    bc22:	2575                	jal	c2ce <__swsetup_r>
    bc24:	d919                	beqz	a0,bb3a <_vfiprintf_r+0x44>
    bc26:	557d                	li	a0,-1
    bc28:	40fa                	lw	ra,156(sp)
    bc2a:	446a                	lw	s0,152(sp)
    bc2c:	44da                	lw	s1,148(sp)
    bc2e:	494a                	lw	s2,144(sp)
    bc30:	49ba                	lw	s3,140(sp)
    bc32:	4a2a                	lw	s4,136(sp)
    bc34:	4a9a                	lw	s5,132(sp)
    bc36:	4b0a                	lw	s6,128(sp)
    bc38:	5bf6                	lw	s7,124(sp)
    bc3a:	5c66                	lw	s8,120(sp)
    bc3c:	5cd6                	lw	s9,116(sp)
    bc3e:	610d                	addi	sp,sp,160
    bc40:	8082                	ret
    bc42:	0405                	addi	s0,s0,1
    bc44:	bf31                	j	bb60 <_vfiprintf_r+0x6a>
    bc46:	41550533          	sub	a0,a0,s5
    bc4a:	00ac1533          	sll	a0,s8,a0
    bc4e:	8fc9                	or	a5,a5,a0
    bc50:	c83e                	sw	a5,16(sp)
    bc52:	8922                	mv	s2,s0
    bc54:	b7b9                	j	bba2 <_vfiprintf_r+0xac>
    bc56:	4732                	lw	a4,12(sp)
    bc58:	00470693          	addi	a3,a4,4
    bc5c:	4318                	lw	a4,0(a4)
    bc5e:	c636                	sw	a3,12(sp)
    bc60:	02074763          	bltz	a4,bc8e <_vfiprintf_r+0x198>
    bc64:	ce3a                	sw	a4,28(sp)
    bc66:	2018                	lbu	a4,0(s0)
    bc68:	02e00793          	li	a5,46
    bc6c:	04f71d63          	bne	a4,a5,bcc6 <_vfiprintf_r+0x1d0>
    bc70:	3018                	lbu	a4,1(s0)
    bc72:	02a00793          	li	a5,42
    bc76:	02f71b63          	bne	a4,a5,bcac <_vfiprintf_r+0x1b6>
    bc7a:	47b2                	lw	a5,12(sp)
    bc7c:	0409                	addi	s0,s0,2
    bc7e:	00478713          	addi	a4,a5,4
    bc82:	439c                	lw	a5,0(a5)
    bc84:	c63a                	sw	a4,12(sp)
    bc86:	0207c163          	bltz	a5,bca8 <_vfiprintf_r+0x1b2>
    bc8a:	ca3e                	sw	a5,20(sp)
    bc8c:	a82d                	j	bcc6 <_vfiprintf_r+0x1d0>
    bc8e:	40e00733          	neg	a4,a4
    bc92:	0027e793          	ori	a5,a5,2
    bc96:	ce3a                	sw	a4,28(sp)
    bc98:	c83e                	sw	a5,16(sp)
    bc9a:	b7f1                	j	bc66 <_vfiprintf_r+0x170>
    bc9c:	036787b3          	mul	a5,a5,s6
    bca0:	4685                	li	a3,1
    bca2:	842e                	mv	s0,a1
    bca4:	97ba                	add	a5,a5,a4
    bca6:	b781                	j	bbe6 <_vfiprintf_r+0xf0>
    bca8:	57fd                	li	a5,-1
    bcaa:	b7c5                	j	bc8a <_vfiprintf_r+0x194>
    bcac:	0405                	addi	s0,s0,1
    bcae:	ca02                	sw	zero,20(sp)
    bcb0:	4681                	li	a3,0
    bcb2:	4781                	li	a5,0
    bcb4:	4625                	li	a2,9
    bcb6:	2018                	lbu	a4,0(s0)
    bcb8:	00140593          	addi	a1,s0,1
    bcbc:	fd070713          	addi	a4,a4,-48
    bcc0:	06e67663          	bgeu	a2,a4,bd2c <_vfiprintf_r+0x236>
    bcc4:	f2f9                	bnez	a3,bc8a <_vfiprintf_r+0x194>
    bcc6:	200c                	lbu	a1,0(s0)
    bcc8:	460d                	li	a2,3
    bcca:	00002517          	auipc	a0,0x2
    bcce:	dfe50513          	addi	a0,a0,-514 # dac8 <__sf_fake_stdout+0x28>
    bcd2:	1e3000ef          	jal	ra,c6b4 <memchr>
    bcd6:	cd11                	beqz	a0,bcf2 <_vfiprintf_r+0x1fc>
    bcd8:	00002797          	auipc	a5,0x2
    bcdc:	df078793          	addi	a5,a5,-528 # dac8 <__sf_fake_stdout+0x28>
    bce0:	8d1d                	sub	a0,a0,a5
    bce2:	04000793          	li	a5,64
    bce6:	00a797b3          	sll	a5,a5,a0
    bcea:	4542                	lw	a0,16(sp)
    bcec:	0405                	addi	s0,s0,1
    bcee:	8d5d                	or	a0,a0,a5
    bcf0:	c82a                	sw	a0,16(sp)
    bcf2:	200c                	lbu	a1,0(s0)
    bcf4:	4619                	li	a2,6
    bcf6:	00002517          	auipc	a0,0x2
    bcfa:	dd650513          	addi	a0,a0,-554 # dacc <__sf_fake_stdout+0x2c>
    bcfe:	00140913          	addi	s2,s0,1
    bd02:	02b10423          	sb	a1,40(sp)
    bd06:	1af000ef          	jal	ra,c6b4 <memchr>
    bd0a:	c135                	beqz	a0,bd6e <_vfiprintf_r+0x278>
    bd0c:	ffff4797          	auipc	a5,0xffff4
    bd10:	2f478793          	addi	a5,a5,756 # 0 <_sinit>
    bd14:	e795                	bnez	a5,bd40 <_vfiprintf_r+0x24a>
    bd16:	4742                	lw	a4,16(sp)
    bd18:	47b2                	lw	a5,12(sp)
    bd1a:	10077713          	andi	a4,a4,256
    bd1e:	cf09                	beqz	a4,bd38 <_vfiprintf_r+0x242>
    bd20:	0791                	addi	a5,a5,4
    bd22:	c63e                	sw	a5,12(sp)
    bd24:	5792                	lw	a5,36(sp)
    bd26:	97d2                	add	a5,a5,s4
    bd28:	d23e                	sw	a5,36(sp)
    bd2a:	bd15                	j	bb5e <_vfiprintf_r+0x68>
    bd2c:	036787b3          	mul	a5,a5,s6
    bd30:	4685                	li	a3,1
    bd32:	842e                	mv	s0,a1
    bd34:	97ba                	add	a5,a5,a4
    bd36:	b741                	j	bcb6 <_vfiprintf_r+0x1c0>
    bd38:	079d                	addi	a5,a5,7
    bd3a:	9be1                	andi	a5,a5,-8
    bd3c:	07a1                	addi	a5,a5,8
    bd3e:	b7d5                	j	bd22 <_vfiprintf_r+0x22c>
    bd40:	0078                	addi	a4,sp,12
    bd42:	00000697          	auipc	a3,0x0
    bd46:	d7268693          	addi	a3,a3,-654 # bab4 <__sfputs_r>
    bd4a:	8626                	mv	a2,s1
    bd4c:	080c                	addi	a1,sp,16
    bd4e:	854e                	mv	a0,s3
    bd50:	00000097          	auipc	ra,0x0
    bd54:	000000e7          	jalr	zero # 0 <_sinit>
    bd58:	57fd                	li	a5,-1
    bd5a:	8a2a                	mv	s4,a0
    bd5c:	fcf514e3          	bne	a0,a5,bd24 <_vfiprintf_r+0x22e>
    bd60:	24de                	lhu	a5,12(s1)
    bd62:	0407f793          	andi	a5,a5,64
    bd66:	ec0790e3          	bnez	a5,bc26 <_vfiprintf_r+0x130>
    bd6a:	5512                	lw	a0,36(sp)
    bd6c:	bd75                	j	bc28 <_vfiprintf_r+0x132>
    bd6e:	0078                	addi	a4,sp,12
    bd70:	00000697          	auipc	a3,0x0
    bd74:	d4468693          	addi	a3,a3,-700 # bab4 <__sfputs_r>
    bd78:	8626                	mv	a2,s1
    bd7a:	080c                	addi	a1,sp,16
    bd7c:	854e                	mv	a0,s3
    bd7e:	2a01                	jal	be8e <_printf_i>
    bd80:	bfe1                	j	bd58 <_vfiprintf_r+0x262>

0000bd82 <_printf_common>:
    bd82:	7179                	addi	sp,sp,-48
    bd84:	ca56                	sw	s5,20(sp)
    bd86:	499c                	lw	a5,16(a1)
    bd88:	8aba                	mv	s5,a4
    bd8a:	4598                	lw	a4,8(a1)
    bd8c:	d422                	sw	s0,40(sp)
    bd8e:	d226                	sw	s1,36(sp)
    bd90:	ce4e                	sw	s3,28(sp)
    bd92:	cc52                	sw	s4,24(sp)
    bd94:	d606                	sw	ra,44(sp)
    bd96:	d04a                	sw	s2,32(sp)
    bd98:	c85a                	sw	s6,16(sp)
    bd9a:	c65e                	sw	s7,12(sp)
    bd9c:	89aa                	mv	s3,a0
    bd9e:	842e                	mv	s0,a1
    bda0:	84b2                	mv	s1,a2
    bda2:	8a36                	mv	s4,a3
    bda4:	00e7d363          	bge	a5,a4,bdaa <_printf_common+0x28>
    bda8:	87ba                	mv	a5,a4
    bdaa:	c09c                	sw	a5,0(s1)
    bdac:	04344703          	lbu	a4,67(s0)
    bdb0:	c319                	beqz	a4,bdb6 <_printf_common+0x34>
    bdb2:	0785                	addi	a5,a5,1
    bdb4:	c09c                	sw	a5,0(s1)
    bdb6:	401c                	lw	a5,0(s0)
    bdb8:	0207f793          	andi	a5,a5,32
    bdbc:	c781                	beqz	a5,bdc4 <_printf_common+0x42>
    bdbe:	409c                	lw	a5,0(s1)
    bdc0:	0789                	addi	a5,a5,2
    bdc2:	c09c                	sw	a5,0(s1)
    bdc4:	00042903          	lw	s2,0(s0)
    bdc8:	00697913          	andi	s2,s2,6
    bdcc:	00091a63          	bnez	s2,bde0 <_printf_common+0x5e>
    bdd0:	01940b13          	addi	s6,s0,25
    bdd4:	5bfd                	li	s7,-1
    bdd6:	445c                	lw	a5,12(s0)
    bdd8:	4098                	lw	a4,0(s1)
    bdda:	8f99                	sub	a5,a5,a4
    bddc:	04f94c63          	blt	s2,a5,be34 <_printf_common+0xb2>
    bde0:	401c                	lw	a5,0(s0)
    bde2:	04344683          	lbu	a3,67(s0)
    bde6:	0207f793          	andi	a5,a5,32
    bdea:	00d036b3          	snez	a3,a3
    bdee:	eba5                	bnez	a5,be5e <_printf_common+0xdc>
    bdf0:	04340613          	addi	a2,s0,67
    bdf4:	85d2                	mv	a1,s4
    bdf6:	854e                	mv	a0,s3
    bdf8:	9a82                	jalr	s5
    bdfa:	57fd                	li	a5,-1
    bdfc:	04f50363          	beq	a0,a5,be42 <_printf_common+0xc0>
    be00:	401c                	lw	a5,0(s0)
    be02:	4611                	li	a2,4
    be04:	4098                	lw	a4,0(s1)
    be06:	8b99                	andi	a5,a5,6
    be08:	4454                	lw	a3,12(s0)
    be0a:	4481                	li	s1,0
    be0c:	00c79763          	bne	a5,a2,be1a <_printf_common+0x98>
    be10:	40e684b3          	sub	s1,a3,a4
    be14:	0004d363          	bgez	s1,be1a <_printf_common+0x98>
    be18:	4481                	li	s1,0
    be1a:	441c                	lw	a5,8(s0)
    be1c:	4818                	lw	a4,16(s0)
    be1e:	00f75463          	bge	a4,a5,be26 <_printf_common+0xa4>
    be22:	8f99                	sub	a5,a5,a4
    be24:	94be                	add	s1,s1,a5
    be26:	4901                	li	s2,0
    be28:	0469                	addi	s0,s0,26
    be2a:	5b7d                	li	s6,-1
    be2c:	05249863          	bne	s1,s2,be7c <_printf_common+0xfa>
    be30:	4501                	li	a0,0
    be32:	a809                	j	be44 <_printf_common+0xc2>
    be34:	4685                	li	a3,1
    be36:	865a                	mv	a2,s6
    be38:	85d2                	mv	a1,s4
    be3a:	854e                	mv	a0,s3
    be3c:	9a82                	jalr	s5
    be3e:	01751e63          	bne	a0,s7,be5a <_printf_common+0xd8>
    be42:	557d                	li	a0,-1
    be44:	50b2                	lw	ra,44(sp)
    be46:	5422                	lw	s0,40(sp)
    be48:	5492                	lw	s1,36(sp)
    be4a:	5902                	lw	s2,32(sp)
    be4c:	49f2                	lw	s3,28(sp)
    be4e:	4a62                	lw	s4,24(sp)
    be50:	4ad2                	lw	s5,20(sp)
    be52:	4b42                	lw	s6,16(sp)
    be54:	4bb2                	lw	s7,12(sp)
    be56:	6145                	addi	sp,sp,48
    be58:	8082                	ret
    be5a:	0905                	addi	s2,s2,1
    be5c:	bfad                	j	bdd6 <_printf_common+0x54>
    be5e:	00d40733          	add	a4,s0,a3
    be62:	03000613          	li	a2,48
    be66:	04c701a3          	sb	a2,67(a4)
    be6a:	04544703          	lbu	a4,69(s0)
    be6e:	00168793          	addi	a5,a3,1
    be72:	97a2                	add	a5,a5,s0
    be74:	0689                	addi	a3,a3,2
    be76:	04e781a3          	sb	a4,67(a5)
    be7a:	bf9d                	j	bdf0 <_printf_common+0x6e>
    be7c:	4685                	li	a3,1
    be7e:	8622                	mv	a2,s0
    be80:	85d2                	mv	a1,s4
    be82:	854e                	mv	a0,s3
    be84:	9a82                	jalr	s5
    be86:	fb650ee3          	beq	a0,s6,be42 <_printf_common+0xc0>
    be8a:	0905                	addi	s2,s2,1
    be8c:	b745                	j	be2c <_printf_common+0xaa>

0000be8e <_printf_i>:
    be8e:	7179                	addi	sp,sp,-48
    be90:	d422                	sw	s0,40(sp)
    be92:	d226                	sw	s1,36(sp)
    be94:	d04a                	sw	s2,32(sp)
    be96:	ce4e                	sw	s3,28(sp)
    be98:	d606                	sw	ra,44(sp)
    be9a:	cc52                	sw	s4,24(sp)
    be9c:	ca56                	sw	s5,20(sp)
    be9e:	c85a                	sw	s6,16(sp)
    bea0:	89b6                	mv	s3,a3
    bea2:	2d94                	lbu	a3,24(a1)
    bea4:	06900793          	li	a5,105
    bea8:	8932                	mv	s2,a2
    beaa:	84aa                	mv	s1,a0
    beac:	842e                	mv	s0,a1
    beae:	04358613          	addi	a2,a1,67
    beb2:	02f68d63          	beq	a3,a5,beec <_printf_i+0x5e>
    beb6:	06d7e263          	bltu	a5,a3,bf1a <_printf_i+0x8c>
    beba:	05800793          	li	a5,88
    bebe:	18f68663          	beq	a3,a5,c04a <_printf_i+0x1bc>
    bec2:	00d7ed63          	bltu	a5,a3,bedc <_printf_i+0x4e>
    bec6:	20068e63          	beqz	a3,c0e2 <_printf_i+0x254>
    beca:	04300793          	li	a5,67
    bece:	0af68e63          	beq	a3,a5,bf8a <_printf_i+0xfc>
    bed2:	04240a93          	addi	s5,s0,66
    bed6:	04d40123          	sb	a3,66(s0)
    beda:	a0c9                	j	bf9c <_printf_i+0x10e>
    bedc:	06300793          	li	a5,99
    bee0:	0af68563          	beq	a3,a5,bf8a <_printf_i+0xfc>
    bee4:	06400793          	li	a5,100
    bee8:	fef695e3          	bne	a3,a5,bed2 <_printf_i+0x44>
    beec:	401c                	lw	a5,0(s0)
    beee:	4308                	lw	a0,0(a4)
    bef0:	0807f693          	andi	a3,a5,128
    bef4:	00450593          	addi	a1,a0,4
    bef8:	c6c5                	beqz	a3,bfa0 <_printf_i+0x112>
    befa:	411c                	lw	a5,0(a0)
    befc:	c30c                	sw	a1,0(a4)
    befe:	0007d863          	bgez	a5,bf0e <_printf_i+0x80>
    bf02:	02d00713          	li	a4,45
    bf06:	40f007b3          	neg	a5,a5
    bf0a:	04e401a3          	sb	a4,67(s0)
    bf0e:	00002697          	auipc	a3,0x2
    bf12:	bc668693          	addi	a3,a3,-1082 # dad4 <__sf_fake_stdout+0x34>
    bf16:	4729                	li	a4,10
    bf18:	a865                	j	bfd0 <_printf_i+0x142>
    bf1a:	07000793          	li	a5,112
    bf1e:	16f68263          	beq	a3,a5,c082 <_printf_i+0x1f4>
    bf22:	02d7e563          	bltu	a5,a3,bf4c <_printf_i+0xbe>
    bf26:	06e00793          	li	a5,110
    bf2a:	18f68963          	beq	a3,a5,c0bc <_printf_i+0x22e>
    bf2e:	06f00793          	li	a5,111
    bf32:	faf690e3          	bne	a3,a5,bed2 <_printf_i+0x44>
    bf36:	400c                	lw	a1,0(s0)
    bf38:	431c                	lw	a5,0(a4)
    bf3a:	0805f813          	andi	a6,a1,128
    bf3e:	00478513          	addi	a0,a5,4
    bf42:	06080763          	beqz	a6,bfb0 <_printf_i+0x122>
    bf46:	c308                	sw	a0,0(a4)
    bf48:	439c                	lw	a5,0(a5)
    bf4a:	a885                	j	bfba <_printf_i+0x12c>
    bf4c:	07500793          	li	a5,117
    bf50:	fef683e3          	beq	a3,a5,bf36 <_printf_i+0xa8>
    bf54:	07800793          	li	a5,120
    bf58:	12f68963          	beq	a3,a5,c08a <_printf_i+0x1fc>
    bf5c:	07300793          	li	a5,115
    bf60:	f6f699e3          	bne	a3,a5,bed2 <_printf_i+0x44>
    bf64:	431c                	lw	a5,0(a4)
    bf66:	41d0                	lw	a2,4(a1)
    bf68:	4581                	li	a1,0
    bf6a:	00478693          	addi	a3,a5,4
    bf6e:	c314                	sw	a3,0(a4)
    bf70:	0007aa83          	lw	s5,0(a5)
    bf74:	8556                	mv	a0,s5
    bf76:	2f3d                	jal	c6b4 <memchr>
    bf78:	c501                	beqz	a0,bf80 <_printf_i+0xf2>
    bf7a:	41550533          	sub	a0,a0,s5
    bf7e:	c048                	sw	a0,4(s0)
    bf80:	405c                	lw	a5,4(s0)
    bf82:	c81c                	sw	a5,16(s0)
    bf84:	040401a3          	sb	zero,67(s0)
    bf88:	a861                	j	c020 <_printf_i+0x192>
    bf8a:	431c                	lw	a5,0(a4)
    bf8c:	04240a93          	addi	s5,s0,66
    bf90:	00478693          	addi	a3,a5,4
    bf94:	439c                	lw	a5,0(a5)
    bf96:	c314                	sw	a3,0(a4)
    bf98:	04f40123          	sb	a5,66(s0)
    bf9c:	4785                	li	a5,1
    bf9e:	b7d5                	j	bf82 <_printf_i+0xf4>
    bfa0:	0407f693          	andi	a3,a5,64
    bfa4:	411c                	lw	a5,0(a0)
    bfa6:	c30c                	sw	a1,0(a4)
    bfa8:	dab9                	beqz	a3,befe <_printf_i+0x70>
    bfaa:	07c2                	slli	a5,a5,0x10
    bfac:	87c1                	srai	a5,a5,0x10
    bfae:	bf81                	j	befe <_printf_i+0x70>
    bfb0:	0405f593          	andi	a1,a1,64
    bfb4:	c308                	sw	a0,0(a4)
    bfb6:	d9c9                	beqz	a1,bf48 <_printf_i+0xba>
    bfb8:	239e                	lhu	a5,0(a5)
    bfba:	06f00713          	li	a4,111
    bfbe:	0ee68763          	beq	a3,a4,c0ac <_printf_i+0x21e>
    bfc2:	00002697          	auipc	a3,0x2
    bfc6:	b1268693          	addi	a3,a3,-1262 # dad4 <__sf_fake_stdout+0x34>
    bfca:	4729                	li	a4,10
    bfcc:	040401a3          	sb	zero,67(s0)
    bfd0:	404c                	lw	a1,4(s0)
    bfd2:	c40c                	sw	a1,8(s0)
    bfd4:	0005c563          	bltz	a1,bfde <_printf_i+0x150>
    bfd8:	4008                	lw	a0,0(s0)
    bfda:	996d                	andi	a0,a0,-5
    bfdc:	c008                	sw	a0,0(s0)
    bfde:	e399                	bnez	a5,bfe4 <_printf_i+0x156>
    bfe0:	8ab2                	mv	s5,a2
    bfe2:	cd89                	beqz	a1,bffc <_printf_i+0x16e>
    bfe4:	8ab2                	mv	s5,a2
    bfe6:	02e7f5b3          	remu	a1,a5,a4
    bfea:	1afd                	addi	s5,s5,-1
    bfec:	95b6                	add	a1,a1,a3
    bfee:	218c                	lbu	a1,0(a1)
    bff0:	00ba8023          	sb	a1,0(s5)
    bff4:	02e7d5b3          	divu	a1,a5,a4
    bff8:	0ce7f063          	bgeu	a5,a4,c0b8 <_printf_i+0x22a>
    bffc:	47a1                	li	a5,8
    bffe:	00f71e63          	bne	a4,a5,c01a <_printf_i+0x18c>
    c002:	401c                	lw	a5,0(s0)
    c004:	8b85                	andi	a5,a5,1
    c006:	cb91                	beqz	a5,c01a <_printf_i+0x18c>
    c008:	4058                	lw	a4,4(s0)
    c00a:	481c                	lw	a5,16(s0)
    c00c:	00e7c763          	blt	a5,a4,c01a <_printf_i+0x18c>
    c010:	03000793          	li	a5,48
    c014:	fefa8fa3          	sb	a5,-1(s5)
    c018:	1afd                	addi	s5,s5,-1
    c01a:	41560633          	sub	a2,a2,s5
    c01e:	c810                	sw	a2,16(s0)
    c020:	874e                	mv	a4,s3
    c022:	86ca                	mv	a3,s2
    c024:	0070                	addi	a2,sp,12
    c026:	85a2                	mv	a1,s0
    c028:	8526                	mv	a0,s1
    c02a:	d59ff0ef          	jal	ra,bd82 <_printf_common>
    c02e:	5a7d                	li	s4,-1
    c030:	0b451d63          	bne	a0,s4,c0ea <_printf_i+0x25c>
    c034:	557d                	li	a0,-1
    c036:	50b2                	lw	ra,44(sp)
    c038:	5422                	lw	s0,40(sp)
    c03a:	5492                	lw	s1,36(sp)
    c03c:	5902                	lw	s2,32(sp)
    c03e:	49f2                	lw	s3,28(sp)
    c040:	4a62                	lw	s4,24(sp)
    c042:	4ad2                	lw	s5,20(sp)
    c044:	4b42                	lw	s6,16(sp)
    c046:	6145                	addi	sp,sp,48
    c048:	8082                	ret
    c04a:	04d582a3          	sb	a3,69(a1)
    c04e:	00002697          	auipc	a3,0x2
    c052:	a8668693          	addi	a3,a3,-1402 # dad4 <__sf_fake_stdout+0x34>
    c056:	400c                	lw	a1,0(s0)
    c058:	4308                	lw	a0,0(a4)
    c05a:	0805f813          	andi	a6,a1,128
    c05e:	411c                	lw	a5,0(a0)
    c060:	0511                	addi	a0,a0,4
    c062:	02080d63          	beqz	a6,c09c <_printf_i+0x20e>
    c066:	c308                	sw	a0,0(a4)
    c068:	0015f713          	andi	a4,a1,1
    c06c:	c701                	beqz	a4,c074 <_printf_i+0x1e6>
    c06e:	0205e593          	ori	a1,a1,32
    c072:	c00c                	sw	a1,0(s0)
    c074:	4741                	li	a4,16
    c076:	fbb9                	bnez	a5,bfcc <_printf_i+0x13e>
    c078:	400c                	lw	a1,0(s0)
    c07a:	fdf5f593          	andi	a1,a1,-33
    c07e:	c00c                	sw	a1,0(s0)
    c080:	b7b1                	j	bfcc <_printf_i+0x13e>
    c082:	419c                	lw	a5,0(a1)
    c084:	0207e793          	ori	a5,a5,32
    c088:	c19c                	sw	a5,0(a1)
    c08a:	07800793          	li	a5,120
    c08e:	04f402a3          	sb	a5,69(s0)
    c092:	00002697          	auipc	a3,0x2
    c096:	a5668693          	addi	a3,a3,-1450 # dae8 <__sf_fake_stdout+0x48>
    c09a:	bf75                	j	c056 <_printf_i+0x1c8>
    c09c:	0405f813          	andi	a6,a1,64
    c0a0:	c308                	sw	a0,0(a4)
    c0a2:	fc0803e3          	beqz	a6,c068 <_printf_i+0x1da>
    c0a6:	07c2                	slli	a5,a5,0x10
    c0a8:	83c1                	srli	a5,a5,0x10
    c0aa:	bf7d                	j	c068 <_printf_i+0x1da>
    c0ac:	00002697          	auipc	a3,0x2
    c0b0:	a2868693          	addi	a3,a3,-1496 # dad4 <__sf_fake_stdout+0x34>
    c0b4:	4721                	li	a4,8
    c0b6:	bf19                	j	bfcc <_printf_i+0x13e>
    c0b8:	87ae                	mv	a5,a1
    c0ba:	b735                	j	bfe6 <_printf_i+0x158>
    c0bc:	4194                	lw	a3,0(a1)
    c0be:	431c                	lw	a5,0(a4)
    c0c0:	49cc                	lw	a1,20(a1)
    c0c2:	0806f813          	andi	a6,a3,128
    c0c6:	00478513          	addi	a0,a5,4
    c0ca:	00080663          	beqz	a6,c0d6 <_printf_i+0x248>
    c0ce:	c308                	sw	a0,0(a4)
    c0d0:	439c                	lw	a5,0(a5)
    c0d2:	c38c                	sw	a1,0(a5)
    c0d4:	a039                	j	c0e2 <_printf_i+0x254>
    c0d6:	c308                	sw	a0,0(a4)
    c0d8:	0406f693          	andi	a3,a3,64
    c0dc:	439c                	lw	a5,0(a5)
    c0de:	daf5                	beqz	a3,c0d2 <_printf_i+0x244>
    c0e0:	a38e                	sh	a1,0(a5)
    c0e2:	00042823          	sw	zero,16(s0)
    c0e6:	8ab2                	mv	s5,a2
    c0e8:	bf25                	j	c020 <_printf_i+0x192>
    c0ea:	4814                	lw	a3,16(s0)
    c0ec:	8656                	mv	a2,s5
    c0ee:	85ca                	mv	a1,s2
    c0f0:	8526                	mv	a0,s1
    c0f2:	9982                	jalr	s3
    c0f4:	f54500e3          	beq	a0,s4,c034 <_printf_i+0x1a6>
    c0f8:	401c                	lw	a5,0(s0)
    c0fa:	8b89                	andi	a5,a5,2
    c0fc:	e78d                	bnez	a5,c126 <_printf_i+0x298>
    c0fe:	47b2                	lw	a5,12(sp)
    c100:	4448                	lw	a0,12(s0)
    c102:	f2f55ae3          	bge	a0,a5,c036 <_printf_i+0x1a8>
    c106:	853e                	mv	a0,a5
    c108:	b73d                	j	c036 <_printf_i+0x1a8>
    c10a:	4685                	li	a3,1
    c10c:	8656                	mv	a2,s5
    c10e:	85ca                	mv	a1,s2
    c110:	8526                	mv	a0,s1
    c112:	9982                	jalr	s3
    c114:	f36500e3          	beq	a0,s6,c034 <_printf_i+0x1a6>
    c118:	0a05                	addi	s4,s4,1
    c11a:	445c                	lw	a5,12(s0)
    c11c:	4732                	lw	a4,12(sp)
    c11e:	8f99                	sub	a5,a5,a4
    c120:	fefa45e3          	blt	s4,a5,c10a <_printf_i+0x27c>
    c124:	bfe9                	j	c0fe <_printf_i+0x270>
    c126:	4a01                	li	s4,0
    c128:	01940a93          	addi	s5,s0,25
    c12c:	5b7d                	li	s6,-1
    c12e:	b7f5                	j	c11a <_printf_i+0x28c>

0000c130 <__sread>:
    c130:	1141                	addi	sp,sp,-16
    c132:	c422                	sw	s0,8(sp)
    c134:	842e                	mv	s0,a1
    c136:	00e59583          	lh	a1,14(a1)
    c13a:	c606                	sw	ra,12(sp)
    c13c:	2b41                	jal	c6cc <_read_r>
    c13e:	00054963          	bltz	a0,c150 <__sread+0x20>
    c142:	487c                	lw	a5,84(s0)
    c144:	97aa                	add	a5,a5,a0
    c146:	c87c                	sw	a5,84(s0)
    c148:	40b2                	lw	ra,12(sp)
    c14a:	4422                	lw	s0,8(sp)
    c14c:	0141                	addi	sp,sp,16
    c14e:	8082                	ret
    c150:	245e                	lhu	a5,12(s0)
    c152:	777d                	lui	a4,0xfffff
    c154:	177d                	addi	a4,a4,-1
    c156:	8ff9                	and	a5,a5,a4
    c158:	a45e                	sh	a5,12(s0)
    c15a:	b7fd                	j	c148 <__sread+0x18>

0000c15c <__swrite>:
    c15c:	25de                	lhu	a5,12(a1)
    c15e:	1101                	addi	sp,sp,-32
    c160:	cc22                	sw	s0,24(sp)
    c162:	ca26                	sw	s1,20(sp)
    c164:	c84a                	sw	s2,16(sp)
    c166:	c64e                	sw	s3,12(sp)
    c168:	ce06                	sw	ra,28(sp)
    c16a:	1007f793          	andi	a5,a5,256
    c16e:	84aa                	mv	s1,a0
    c170:	842e                	mv	s0,a1
    c172:	8932                	mv	s2,a2
    c174:	89b6                	mv	s3,a3
    c176:	c791                	beqz	a5,c182 <__swrite+0x26>
    c178:	00e59583          	lh	a1,14(a1)
    c17c:	4689                	li	a3,2
    c17e:	4601                	li	a2,0
    c180:	2921                	jal	c598 <_lseek_r>
    c182:	245e                	lhu	a5,12(s0)
    c184:	777d                	lui	a4,0xfffff
    c186:	177d                	addi	a4,a4,-1
    c188:	8ff9                	and	a5,a5,a4
    c18a:	a45e                	sh	a5,12(s0)
    c18c:	00e41583          	lh	a1,14(s0)
    c190:	4462                	lw	s0,24(sp)
    c192:	40f2                	lw	ra,28(sp)
    c194:	86ce                	mv	a3,s3
    c196:	864a                	mv	a2,s2
    c198:	49b2                	lw	s3,12(sp)
    c19a:	4942                	lw	s2,16(sp)
    c19c:	8526                	mv	a0,s1
    c19e:	44d2                	lw	s1,20(sp)
    c1a0:	6105                	addi	sp,sp,32
    c1a2:	a8dd                	j	c298 <_write_r>

0000c1a4 <__sseek>:
    c1a4:	1141                	addi	sp,sp,-16
    c1a6:	c422                	sw	s0,8(sp)
    c1a8:	842e                	mv	s0,a1
    c1aa:	00e59583          	lh	a1,14(a1)
    c1ae:	c606                	sw	ra,12(sp)
    c1b0:	26e5                	jal	c598 <_lseek_r>
    c1b2:	57fd                	li	a5,-1
    c1b4:	245a                	lhu	a4,12(s0)
    c1b6:	00f51a63          	bne	a0,a5,c1ca <__sseek+0x26>
    c1ba:	77fd                	lui	a5,0xfffff
    c1bc:	17fd                	addi	a5,a5,-1
    c1be:	8ff9                	and	a5,a5,a4
    c1c0:	a45e                	sh	a5,12(s0)
    c1c2:	40b2                	lw	ra,12(sp)
    c1c4:	4422                	lw	s0,8(sp)
    c1c6:	0141                	addi	sp,sp,16
    c1c8:	8082                	ret
    c1ca:	6785                	lui	a5,0x1
    c1cc:	8fd9                	or	a5,a5,a4
    c1ce:	a45e                	sh	a5,12(s0)
    c1d0:	c868                	sw	a0,84(s0)
    c1d2:	bfc5                	j	c1c2 <__sseek+0x1e>

0000c1d4 <__sclose>:
    c1d4:	00e59583          	lh	a1,14(a1)
    c1d8:	aadd                	j	c3ce <_close_r>

0000c1da <__swbuf_r>:
    c1da:	1101                	addi	sp,sp,-32
    c1dc:	cc22                	sw	s0,24(sp)
    c1de:	ca26                	sw	s1,20(sp)
    c1e0:	c84a                	sw	s2,16(sp)
    c1e2:	ce06                	sw	ra,28(sp)
    c1e4:	c64e                	sw	s3,12(sp)
    c1e6:	84aa                	mv	s1,a0
    c1e8:	892e                	mv	s2,a1
    c1ea:	8432                	mv	s0,a2
    c1ec:	c509                	beqz	a0,c1f6 <__swbuf_r+0x1c>
    c1ee:	4d1c                	lw	a5,24(a0)
    c1f0:	e399                	bnez	a5,c1f6 <__swbuf_r+0x1c>
    c1f2:	f22ff0ef          	jal	ra,b914 <__sinit>
    c1f6:	00002797          	auipc	a5,0x2
    c1fa:	88a78793          	addi	a5,a5,-1910 # da80 <__sf_fake_stdin>
    c1fe:	06f41763          	bne	s0,a5,c26c <__swbuf_r+0x92>
    c202:	40c0                	lw	s0,4(s1)
    c204:	4c1c                	lw	a5,24(s0)
    c206:	c41c                	sw	a5,8(s0)
    c208:	245e                	lhu	a5,12(s0)
    c20a:	8ba1                	andi	a5,a5,8
    c20c:	c3c1                	beqz	a5,c28c <__swbuf_r+0xb2>
    c20e:	481c                	lw	a5,16(s0)
    c210:	cfb5                	beqz	a5,c28c <__swbuf_r+0xb2>
    c212:	481c                	lw	a5,16(s0)
    c214:	4008                	lw	a0,0(s0)
    c216:	0ff97993          	andi	s3,s2,255
    c21a:	0ff97913          	andi	s2,s2,255
    c21e:	8d1d                	sub	a0,a0,a5
    c220:	485c                	lw	a5,20(s0)
    c222:	00f54663          	blt	a0,a5,c22e <__swbuf_r+0x54>
    c226:	85a2                	mv	a1,s0
    c228:	8526                	mv	a0,s1
    c22a:	2619                	jal	c530 <_fflush_r>
    c22c:	e525                	bnez	a0,c294 <__swbuf_r+0xba>
    c22e:	441c                	lw	a5,8(s0)
    c230:	0505                	addi	a0,a0,1
    c232:	17fd                	addi	a5,a5,-1
    c234:	c41c                	sw	a5,8(s0)
    c236:	401c                	lw	a5,0(s0)
    c238:	00178713          	addi	a4,a5,1
    c23c:	c018                	sw	a4,0(s0)
    c23e:	01378023          	sb	s3,0(a5)
    c242:	485c                	lw	a5,20(s0)
    c244:	00a78863          	beq	a5,a0,c254 <__swbuf_r+0x7a>
    c248:	245e                	lhu	a5,12(s0)
    c24a:	8b85                	andi	a5,a5,1
    c24c:	cb81                	beqz	a5,c25c <__swbuf_r+0x82>
    c24e:	47a9                	li	a5,10
    c250:	00f91663          	bne	s2,a5,c25c <__swbuf_r+0x82>
    c254:	85a2                	mv	a1,s0
    c256:	8526                	mv	a0,s1
    c258:	2ce1                	jal	c530 <_fflush_r>
    c25a:	ed0d                	bnez	a0,c294 <__swbuf_r+0xba>
    c25c:	40f2                	lw	ra,28(sp)
    c25e:	4462                	lw	s0,24(sp)
    c260:	854a                	mv	a0,s2
    c262:	44d2                	lw	s1,20(sp)
    c264:	4942                	lw	s2,16(sp)
    c266:	49b2                	lw	s3,12(sp)
    c268:	6105                	addi	sp,sp,32
    c26a:	8082                	ret
    c26c:	00002797          	auipc	a5,0x2
    c270:	83478793          	addi	a5,a5,-1996 # daa0 <__sf_fake_stdout>
    c274:	00f41463          	bne	s0,a5,c27c <__swbuf_r+0xa2>
    c278:	4480                	lw	s0,8(s1)
    c27a:	b769                	j	c204 <__swbuf_r+0x2a>
    c27c:	00001797          	auipc	a5,0x1
    c280:	7e478793          	addi	a5,a5,2020 # da60 <__sf_fake_stderr>
    c284:	f8f410e3          	bne	s0,a5,c204 <__swbuf_r+0x2a>
    c288:	44c0                	lw	s0,12(s1)
    c28a:	bfad                	j	c204 <__swbuf_r+0x2a>
    c28c:	85a2                	mv	a1,s0
    c28e:	8526                	mv	a0,s1
    c290:	283d                	jal	c2ce <__swsetup_r>
    c292:	d141                	beqz	a0,c212 <__swbuf_r+0x38>
    c294:	597d                	li	s2,-1
    c296:	b7d9                	j	c25c <__swbuf_r+0x82>

0000c298 <_write_r>:
    c298:	1141                	addi	sp,sp,-16
    c29a:	c422                	sw	s0,8(sp)
    c29c:	842a                	mv	s0,a0
    c29e:	852e                	mv	a0,a1
    c2a0:	85b2                	mv	a1,a2
    c2a2:	8636                	mv	a2,a3
    c2a4:	1fff7797          	auipc	a5,0x1fff7
    c2a8:	e007aa23          	sw	zero,-492(a5) # 200030b8 <errno>
    c2ac:	c606                	sw	ra,12(sp)
    c2ae:	e74fb0ef          	jal	ra,7922 <_write>
    c2b2:	57fd                	li	a5,-1
    c2b4:	00f51963          	bne	a0,a5,c2c6 <_write_r+0x2e>
    c2b8:	1fff7797          	auipc	a5,0x1fff7
    c2bc:	e0078793          	addi	a5,a5,-512 # 200030b8 <errno>
    c2c0:	439c                	lw	a5,0(a5)
    c2c2:	c391                	beqz	a5,c2c6 <_write_r+0x2e>
    c2c4:	c01c                	sw	a5,0(s0)
    c2c6:	40b2                	lw	ra,12(sp)
    c2c8:	4422                	lw	s0,8(sp)
    c2ca:	0141                	addi	sp,sp,16
    c2cc:	8082                	ret

0000c2ce <__swsetup_r>:
    c2ce:	1141                	addi	sp,sp,-16
    c2d0:	83018793          	addi	a5,gp,-2000 # 200005d8 <_impure_ptr>
    c2d4:	c226                	sw	s1,4(sp)
    c2d6:	4384                	lw	s1,0(a5)
    c2d8:	c422                	sw	s0,8(sp)
    c2da:	c04a                	sw	s2,0(sp)
    c2dc:	c606                	sw	ra,12(sp)
    c2de:	892a                	mv	s2,a0
    c2e0:	842e                	mv	s0,a1
    c2e2:	c491                	beqz	s1,c2ee <__swsetup_r+0x20>
    c2e4:	4c9c                	lw	a5,24(s1)
    c2e6:	e781                	bnez	a5,c2ee <__swsetup_r+0x20>
    c2e8:	8526                	mv	a0,s1
    c2ea:	e2aff0ef          	jal	ra,b914 <__sinit>
    c2ee:	00001797          	auipc	a5,0x1
    c2f2:	79278793          	addi	a5,a5,1938 # da80 <__sf_fake_stdin>
    c2f6:	02f41b63          	bne	s0,a5,c32c <__swsetup_r+0x5e>
    c2fa:	40c0                	lw	s0,4(s1)
    c2fc:	00c41703          	lh	a4,12(s0)
    c300:	01071793          	slli	a5,a4,0x10
    c304:	83c1                	srli	a5,a5,0x10
    c306:	0087f693          	andi	a3,a5,8
    c30a:	eab5                	bnez	a3,c37e <__swsetup_r+0xb0>
    c30c:	0107f693          	andi	a3,a5,16
    c310:	ee95                	bnez	a3,c34c <__swsetup_r+0x7e>
    c312:	47a5                	li	a5,9
    c314:	00f92023          	sw	a5,0(s2)
    c318:	04076713          	ori	a4,a4,64
    c31c:	a45a                	sh	a4,12(s0)
    c31e:	557d                	li	a0,-1
    c320:	40b2                	lw	ra,12(sp)
    c322:	4422                	lw	s0,8(sp)
    c324:	4492                	lw	s1,4(sp)
    c326:	4902                	lw	s2,0(sp)
    c328:	0141                	addi	sp,sp,16
    c32a:	8082                	ret
    c32c:	00001797          	auipc	a5,0x1
    c330:	77478793          	addi	a5,a5,1908 # daa0 <__sf_fake_stdout>
    c334:	00f41463          	bne	s0,a5,c33c <__swsetup_r+0x6e>
    c338:	4480                	lw	s0,8(s1)
    c33a:	b7c9                	j	c2fc <__swsetup_r+0x2e>
    c33c:	00001797          	auipc	a5,0x1
    c340:	72478793          	addi	a5,a5,1828 # da60 <__sf_fake_stderr>
    c344:	faf41ce3          	bne	s0,a5,c2fc <__swsetup_r+0x2e>
    c348:	44c0                	lw	s0,12(s1)
    c34a:	bf4d                	j	c2fc <__swsetup_r+0x2e>
    c34c:	8b91                	andi	a5,a5,4
    c34e:	c785                	beqz	a5,c376 <__swsetup_r+0xa8>
    c350:	584c                	lw	a1,52(s0)
    c352:	c991                	beqz	a1,c366 <__swsetup_r+0x98>
    c354:	04440793          	addi	a5,s0,68
    c358:	00f58563          	beq	a1,a5,c362 <__swsetup_r+0x94>
    c35c:	854a                	mv	a0,s2
    c35e:	b0aff0ef          	jal	ra,b668 <_free_r>
    c362:	02042a23          	sw	zero,52(s0)
    c366:	245e                	lhu	a5,12(s0)
    c368:	00042223          	sw	zero,4(s0)
    c36c:	fdb7f793          	andi	a5,a5,-37
    c370:	a45e                	sh	a5,12(s0)
    c372:	481c                	lw	a5,16(s0)
    c374:	c01c                	sw	a5,0(s0)
    c376:	245e                	lhu	a5,12(s0)
    c378:	0087e793          	ori	a5,a5,8
    c37c:	a45e                	sh	a5,12(s0)
    c37e:	481c                	lw	a5,16(s0)
    c380:	eb99                	bnez	a5,c396 <__swsetup_r+0xc8>
    c382:	245e                	lhu	a5,12(s0)
    c384:	20000713          	li	a4,512
    c388:	2807f793          	andi	a5,a5,640
    c38c:	00e78563          	beq	a5,a4,c396 <__swsetup_r+0xc8>
    c390:	85a2                	mv	a1,s0
    c392:	854a                	mv	a0,s2
    c394:	2479                	jal	c622 <__smakebuf_r>
    c396:	245e                	lhu	a5,12(s0)
    c398:	0017f713          	andi	a4,a5,1
    c39c:	c31d                	beqz	a4,c3c2 <__swsetup_r+0xf4>
    c39e:	485c                	lw	a5,20(s0)
    c3a0:	00042423          	sw	zero,8(s0)
    c3a4:	40f007b3          	neg	a5,a5
    c3a8:	cc1c                	sw	a5,24(s0)
    c3aa:	481c                	lw	a5,16(s0)
    c3ac:	4501                	li	a0,0
    c3ae:	fbad                	bnez	a5,c320 <__swsetup_r+0x52>
    c3b0:	00c41783          	lh	a5,12(s0)
    c3b4:	0807f713          	andi	a4,a5,128
    c3b8:	d725                	beqz	a4,c320 <__swsetup_r+0x52>
    c3ba:	0407e793          	ori	a5,a5,64
    c3be:	a45e                	sh	a5,12(s0)
    c3c0:	bfb9                	j	c31e <__swsetup_r+0x50>
    c3c2:	8b89                	andi	a5,a5,2
    c3c4:	4701                	li	a4,0
    c3c6:	e391                	bnez	a5,c3ca <__swsetup_r+0xfc>
    c3c8:	4858                	lw	a4,20(s0)
    c3ca:	c418                	sw	a4,8(s0)
    c3cc:	bff9                	j	c3aa <__swsetup_r+0xdc>

0000c3ce <_close_r>:
    c3ce:	1141                	addi	sp,sp,-16
    c3d0:	c422                	sw	s0,8(sp)
    c3d2:	842a                	mv	s0,a0
    c3d4:	852e                	mv	a0,a1
    c3d6:	1fff7797          	auipc	a5,0x1fff7
    c3da:	ce07a123          	sw	zero,-798(a5) # 200030b8 <errno>
    c3de:	c606                	sw	ra,12(sp)
    c3e0:	2649                	jal	c762 <_close>
    c3e2:	57fd                	li	a5,-1
    c3e4:	00f51963          	bne	a0,a5,c3f6 <_close_r+0x28>
    c3e8:	1fff7797          	auipc	a5,0x1fff7
    c3ec:	cd078793          	addi	a5,a5,-816 # 200030b8 <errno>
    c3f0:	439c                	lw	a5,0(a5)
    c3f2:	c391                	beqz	a5,c3f6 <_close_r+0x28>
    c3f4:	c01c                	sw	a5,0(s0)
    c3f6:	40b2                	lw	ra,12(sp)
    c3f8:	4422                	lw	s0,8(sp)
    c3fa:	0141                	addi	sp,sp,16
    c3fc:	8082                	ret

0000c3fe <__sflush_r>:
    c3fe:	25de                	lhu	a5,12(a1)
    c400:	1101                	addi	sp,sp,-32
    c402:	cc22                	sw	s0,24(sp)
    c404:	ca26                	sw	s1,20(sp)
    c406:	ce06                	sw	ra,28(sp)
    c408:	c84a                	sw	s2,16(sp)
    c40a:	c64e                	sw	s3,12(sp)
    c40c:	0087f713          	andi	a4,a5,8
    c410:	84aa                	mv	s1,a0
    c412:	842e                	mv	s0,a1
    c414:	ef61                	bnez	a4,c4ec <__sflush_r+0xee>
    c416:	41d8                	lw	a4,4(a1)
    c418:	00e04d63          	bgtz	a4,c432 <__sflush_r+0x34>
    c41c:	41b8                	lw	a4,64(a1)
    c41e:	00e04a63          	bgtz	a4,c432 <__sflush_r+0x34>
    c422:	4501                	li	a0,0
    c424:	40f2                	lw	ra,28(sp)
    c426:	4462                	lw	s0,24(sp)
    c428:	44d2                	lw	s1,20(sp)
    c42a:	4942                	lw	s2,16(sp)
    c42c:	49b2                	lw	s3,12(sp)
    c42e:	6105                	addi	sp,sp,32
    c430:	8082                	ret
    c432:	5458                	lw	a4,44(s0)
    c434:	d77d                	beqz	a4,c422 <__sflush_r+0x24>
    c436:	0004a903          	lw	s2,0(s1)
    c43a:	01379693          	slli	a3,a5,0x13
    c43e:	0004a023          	sw	zero,0(s1)
    c442:	0606dc63          	bgez	a3,c4ba <__sflush_r+0xbc>
    c446:	4870                	lw	a2,84(s0)
    c448:	245e                	lhu	a5,12(s0)
    c44a:	8b91                	andi	a5,a5,4
    c44c:	c799                	beqz	a5,c45a <__sflush_r+0x5c>
    c44e:	405c                	lw	a5,4(s0)
    c450:	8e1d                	sub	a2,a2,a5
    c452:	585c                	lw	a5,52(s0)
    c454:	c399                	beqz	a5,c45a <__sflush_r+0x5c>
    c456:	403c                	lw	a5,64(s0)
    c458:	8e1d                	sub	a2,a2,a5
    c45a:	545c                	lw	a5,44(s0)
    c45c:	500c                	lw	a1,32(s0)
    c45e:	4681                	li	a3,0
    c460:	8526                	mv	a0,s1
    c462:	9782                	jalr	a5
    c464:	57fd                	li	a5,-1
    c466:	245a                	lhu	a4,12(s0)
    c468:	00f51d63          	bne	a0,a5,c482 <__sflush_r+0x84>
    c46c:	4094                	lw	a3,0(s1)
    c46e:	47f5                	li	a5,29
    c470:	06d7e963          	bltu	a5,a3,c4e2 <__sflush_r+0xe4>
    c474:	204007b7          	lui	a5,0x20400
    c478:	0785                	addi	a5,a5,1
    c47a:	00d7d7b3          	srl	a5,a5,a3
    c47e:	8b85                	andi	a5,a5,1
    c480:	c3ad                	beqz	a5,c4e2 <__sflush_r+0xe4>
    c482:	481c                	lw	a5,16(s0)
    c484:	00042223          	sw	zero,4(s0)
    c488:	c01c                	sw	a5,0(s0)
    c48a:	01371793          	slli	a5,a4,0x13
    c48e:	0007d863          	bgez	a5,c49e <__sflush_r+0xa0>
    c492:	57fd                	li	a5,-1
    c494:	00f51463          	bne	a0,a5,c49c <__sflush_r+0x9e>
    c498:	409c                	lw	a5,0(s1)
    c49a:	e391                	bnez	a5,c49e <__sflush_r+0xa0>
    c49c:	c868                	sw	a0,84(s0)
    c49e:	584c                	lw	a1,52(s0)
    c4a0:	0124a023          	sw	s2,0(s1)
    c4a4:	ddbd                	beqz	a1,c422 <__sflush_r+0x24>
    c4a6:	04440793          	addi	a5,s0,68
    c4aa:	00f58563          	beq	a1,a5,c4b4 <__sflush_r+0xb6>
    c4ae:	8526                	mv	a0,s1
    c4b0:	9b8ff0ef          	jal	ra,b668 <_free_r>
    c4b4:	02042a23          	sw	zero,52(s0)
    c4b8:	b7ad                	j	c422 <__sflush_r+0x24>
    c4ba:	500c                	lw	a1,32(s0)
    c4bc:	4601                	li	a2,0
    c4be:	4685                	li	a3,1
    c4c0:	8526                	mv	a0,s1
    c4c2:	9702                	jalr	a4
    c4c4:	57fd                	li	a5,-1
    c4c6:	862a                	mv	a2,a0
    c4c8:	f8f510e3          	bne	a0,a5,c448 <__sflush_r+0x4a>
    c4cc:	409c                	lw	a5,0(s1)
    c4ce:	dfad                	beqz	a5,c448 <__sflush_r+0x4a>
    c4d0:	4775                	li	a4,29
    c4d2:	00e78563          	beq	a5,a4,c4dc <__sflush_r+0xde>
    c4d6:	4759                	li	a4,22
    c4d8:	04e79363          	bne	a5,a4,c51e <__sflush_r+0x120>
    c4dc:	0124a023          	sw	s2,0(s1)
    c4e0:	b789                	j	c422 <__sflush_r+0x24>
    c4e2:	04076713          	ori	a4,a4,64
    c4e6:	a45a                	sh	a4,12(s0)
    c4e8:	557d                	li	a0,-1
    c4ea:	bf2d                	j	c424 <__sflush_r+0x26>
    c4ec:	0105a983          	lw	s3,16(a1)
    c4f0:	f20989e3          	beqz	s3,c422 <__sflush_r+0x24>
    c4f4:	0005a903          	lw	s2,0(a1)
    c4f8:	8b8d                	andi	a5,a5,3
    c4fa:	0135a023          	sw	s3,0(a1)
    c4fe:	41390933          	sub	s2,s2,s3
    c502:	4701                	li	a4,0
    c504:	e391                	bnez	a5,c508 <__sflush_r+0x10a>
    c506:	49d8                	lw	a4,20(a1)
    c508:	c418                	sw	a4,8(s0)
    c50a:	f1205ce3          	blez	s2,c422 <__sflush_r+0x24>
    c50e:	541c                	lw	a5,40(s0)
    c510:	500c                	lw	a1,32(s0)
    c512:	86ca                	mv	a3,s2
    c514:	864e                	mv	a2,s3
    c516:	8526                	mv	a0,s1
    c518:	9782                	jalr	a5
    c51a:	00a04763          	bgtz	a0,c528 <__sflush_r+0x12a>
    c51e:	245e                	lhu	a5,12(s0)
    c520:	0407e793          	ori	a5,a5,64
    c524:	a45e                	sh	a5,12(s0)
    c526:	b7c9                	j	c4e8 <__sflush_r+0xea>
    c528:	99aa                	add	s3,s3,a0
    c52a:	40a90933          	sub	s2,s2,a0
    c52e:	bff1                	j	c50a <__sflush_r+0x10c>

0000c530 <_fflush_r>:
    c530:	499c                	lw	a5,16(a1)
    c532:	c3ad                	beqz	a5,c594 <_fflush_r+0x64>
    c534:	1101                	addi	sp,sp,-32
    c536:	cc22                	sw	s0,24(sp)
    c538:	ce06                	sw	ra,28(sp)
    c53a:	842a                	mv	s0,a0
    c53c:	c519                	beqz	a0,c54a <_fflush_r+0x1a>
    c53e:	4d1c                	lw	a5,24(a0)
    c540:	e789                	bnez	a5,c54a <_fflush_r+0x1a>
    c542:	c62e                	sw	a1,12(sp)
    c544:	bd0ff0ef          	jal	ra,b914 <__sinit>
    c548:	45b2                	lw	a1,12(sp)
    c54a:	00001797          	auipc	a5,0x1
    c54e:	53678793          	addi	a5,a5,1334 # da80 <__sf_fake_stdin>
    c552:	00f59c63          	bne	a1,a5,c56a <_fflush_r+0x3a>
    c556:	404c                	lw	a1,4(s0)
    c558:	00c59783          	lh	a5,12(a1)
    c55c:	c79d                	beqz	a5,c58a <_fflush_r+0x5a>
    c55e:	8522                	mv	a0,s0
    c560:	4462                	lw	s0,24(sp)
    c562:	40f2                	lw	ra,28(sp)
    c564:	6105                	addi	sp,sp,32
    c566:	e99ff06f          	j	c3fe <__sflush_r>
    c56a:	00001797          	auipc	a5,0x1
    c56e:	53678793          	addi	a5,a5,1334 # daa0 <__sf_fake_stdout>
    c572:	00f59463          	bne	a1,a5,c57a <_fflush_r+0x4a>
    c576:	440c                	lw	a1,8(s0)
    c578:	b7c5                	j	c558 <_fflush_r+0x28>
    c57a:	00001797          	auipc	a5,0x1
    c57e:	4e678793          	addi	a5,a5,1254 # da60 <__sf_fake_stderr>
    c582:	fcf59be3          	bne	a1,a5,c558 <_fflush_r+0x28>
    c586:	444c                	lw	a1,12(s0)
    c588:	bfc1                	j	c558 <_fflush_r+0x28>
    c58a:	40f2                	lw	ra,28(sp)
    c58c:	4462                	lw	s0,24(sp)
    c58e:	4501                	li	a0,0
    c590:	6105                	addi	sp,sp,32
    c592:	8082                	ret
    c594:	4501                	li	a0,0
    c596:	8082                	ret

0000c598 <_lseek_r>:
    c598:	1141                	addi	sp,sp,-16
    c59a:	c422                	sw	s0,8(sp)
    c59c:	842a                	mv	s0,a0
    c59e:	852e                	mv	a0,a1
    c5a0:	85b2                	mv	a1,a2
    c5a2:	8636                	mv	a2,a3
    c5a4:	1fff7797          	auipc	a5,0x1fff7
    c5a8:	b007aa23          	sw	zero,-1260(a5) # 200030b8 <errno>
    c5ac:	c606                	sw	ra,12(sp)
    c5ae:	22d5                	jal	c792 <_lseek>
    c5b0:	57fd                	li	a5,-1
    c5b2:	00f51963          	bne	a0,a5,c5c4 <_lseek_r+0x2c>
    c5b6:	1fff7797          	auipc	a5,0x1fff7
    c5ba:	b0278793          	addi	a5,a5,-1278 # 200030b8 <errno>
    c5be:	439c                	lw	a5,0(a5)
    c5c0:	c391                	beqz	a5,c5c4 <_lseek_r+0x2c>
    c5c2:	c01c                	sw	a5,0(s0)
    c5c4:	40b2                	lw	ra,12(sp)
    c5c6:	4422                	lw	s0,8(sp)
    c5c8:	0141                	addi	sp,sp,16
    c5ca:	8082                	ret

0000c5cc <__swhatbuf_r>:
    c5cc:	7119                	addi	sp,sp,-128
    c5ce:	daa6                	sw	s1,116(sp)
    c5d0:	84ae                	mv	s1,a1
    c5d2:	00e59583          	lh	a1,14(a1)
    c5d6:	dca2                	sw	s0,120(sp)
    c5d8:	de86                	sw	ra,124(sp)
    c5da:	8432                	mv	s0,a2
    c5dc:	0005db63          	bgez	a1,c5f2 <__swhatbuf_r+0x26>
    c5e0:	24de                	lhu	a5,12(s1)
    c5e2:	0006a023          	sw	zero,0(a3)
    c5e6:	0807f793          	andi	a5,a5,128
    c5ea:	e39d                	bnez	a5,c610 <__swhatbuf_r+0x44>
    c5ec:	40000793          	li	a5,1024
    c5f0:	a015                	j	c614 <__swhatbuf_r+0x48>
    c5f2:	0830                	addi	a2,sp,24
    c5f4:	c636                	sw	a3,12(sp)
    c5f6:	2229                	jal	c700 <_fstat_r>
    c5f8:	46b2                	lw	a3,12(sp)
    c5fa:	fe0543e3          	bltz	a0,c5e0 <__swhatbuf_r+0x14>
    c5fe:	4772                	lw	a4,28(sp)
    c600:	67bd                	lui	a5,0xf
    c602:	8ff9                	and	a5,a5,a4
    c604:	7779                	lui	a4,0xffffe
    c606:	97ba                	add	a5,a5,a4
    c608:	0017b793          	seqz	a5,a5
    c60c:	c29c                	sw	a5,0(a3)
    c60e:	bff9                	j	c5ec <__swhatbuf_r+0x20>
    c610:	04000793          	li	a5,64
    c614:	c01c                	sw	a5,0(s0)
    c616:	50f6                	lw	ra,124(sp)
    c618:	5466                	lw	s0,120(sp)
    c61a:	54d6                	lw	s1,116(sp)
    c61c:	4501                	li	a0,0
    c61e:	6109                	addi	sp,sp,128
    c620:	8082                	ret

0000c622 <__smakebuf_r>:
    c622:	25de                	lhu	a5,12(a1)
    c624:	1101                	addi	sp,sp,-32
    c626:	cc22                	sw	s0,24(sp)
    c628:	ce06                	sw	ra,28(sp)
    c62a:	ca26                	sw	s1,20(sp)
    c62c:	c84a                	sw	s2,16(sp)
    c62e:	8b89                	andi	a5,a5,2
    c630:	842e                	mv	s0,a1
    c632:	cf89                	beqz	a5,c64c <__smakebuf_r+0x2a>
    c634:	04740793          	addi	a5,s0,71
    c638:	c01c                	sw	a5,0(s0)
    c63a:	c81c                	sw	a5,16(s0)
    c63c:	4785                	li	a5,1
    c63e:	c85c                	sw	a5,20(s0)
    c640:	40f2                	lw	ra,28(sp)
    c642:	4462                	lw	s0,24(sp)
    c644:	44d2                	lw	s1,20(sp)
    c646:	4942                	lw	s2,16(sp)
    c648:	6105                	addi	sp,sp,32
    c64a:	8082                	ret
    c64c:	0074                	addi	a3,sp,12
    c64e:	0030                	addi	a2,sp,8
    c650:	84aa                	mv	s1,a0
    c652:	f7bff0ef          	jal	ra,c5cc <__swhatbuf_r>
    c656:	45a2                	lw	a1,8(sp)
    c658:	892a                	mv	s2,a0
    c65a:	8526                	mv	a0,s1
    c65c:	8b0ff0ef          	jal	ra,b70c <_malloc_r>
    c660:	e919                	bnez	a0,c676 <__smakebuf_r+0x54>
    c662:	00c41783          	lh	a5,12(s0)
    c666:	2007f713          	andi	a4,a5,512
    c66a:	fb79                	bnez	a4,c640 <__smakebuf_r+0x1e>
    c66c:	9bf1                	andi	a5,a5,-4
    c66e:	0027e793          	ori	a5,a5,2
    c672:	a45e                	sh	a5,12(s0)
    c674:	b7c1                	j	c634 <__smakebuf_r+0x12>
    c676:	fffff797          	auipc	a5,0xfffff
    c67a:	24c78793          	addi	a5,a5,588 # b8c2 <_cleanup_r>
    c67e:	d49c                	sw	a5,40(s1)
    c680:	245e                	lhu	a5,12(s0)
    c682:	c008                	sw	a0,0(s0)
    c684:	c808                	sw	a0,16(s0)
    c686:	0807e793          	ori	a5,a5,128
    c68a:	a45e                	sh	a5,12(s0)
    c68c:	47a2                	lw	a5,8(sp)
    c68e:	c85c                	sw	a5,20(s0)
    c690:	47b2                	lw	a5,12(sp)
    c692:	cb99                	beqz	a5,c6a8 <__smakebuf_r+0x86>
    c694:	00e41583          	lh	a1,14(s0)
    c698:	8526                	mv	a0,s1
    c69a:	2861                	jal	c732 <_isatty_r>
    c69c:	c511                	beqz	a0,c6a8 <__smakebuf_r+0x86>
    c69e:	245e                	lhu	a5,12(s0)
    c6a0:	9bf1                	andi	a5,a5,-4
    c6a2:	0017e793          	ori	a5,a5,1
    c6a6:	a45e                	sh	a5,12(s0)
    c6a8:	245e                	lhu	a5,12(s0)
    c6aa:	00f96933          	or	s2,s2,a5
    c6ae:	01241623          	sh	s2,12(s0)
    c6b2:	b779                	j	c640 <__smakebuf_r+0x1e>

0000c6b4 <memchr>:
    c6b4:	0ff5f593          	andi	a1,a1,255
    c6b8:	962a                	add	a2,a2,a0
    c6ba:	00c51463          	bne	a0,a2,c6c2 <memchr+0xe>
    c6be:	4501                	li	a0,0
    c6c0:	8082                	ret
    c6c2:	211c                	lbu	a5,0(a0)
    c6c4:	feb78ee3          	beq	a5,a1,c6c0 <memchr+0xc>
    c6c8:	0505                	addi	a0,a0,1
    c6ca:	bfc5                	j	c6ba <memchr+0x6>

0000c6cc <_read_r>:
    c6cc:	1141                	addi	sp,sp,-16
    c6ce:	c422                	sw	s0,8(sp)
    c6d0:	842a                	mv	s0,a0
    c6d2:	852e                	mv	a0,a1
    c6d4:	85b2                	mv	a1,a2
    c6d6:	8636                	mv	a2,a3
    c6d8:	1fff7797          	auipc	a5,0x1fff7
    c6dc:	9e07a023          	sw	zero,-1568(a5) # 200030b8 <errno>
    c6e0:	c606                	sw	ra,12(sp)
    c6e2:	20c1                	jal	c7a2 <_read>
    c6e4:	57fd                	li	a5,-1
    c6e6:	00f51963          	bne	a0,a5,c6f8 <_read_r+0x2c>
    c6ea:	1fff7797          	auipc	a5,0x1fff7
    c6ee:	9ce78793          	addi	a5,a5,-1586 # 200030b8 <errno>
    c6f2:	439c                	lw	a5,0(a5)
    c6f4:	c391                	beqz	a5,c6f8 <_read_r+0x2c>
    c6f6:	c01c                	sw	a5,0(s0)
    c6f8:	40b2                	lw	ra,12(sp)
    c6fa:	4422                	lw	s0,8(sp)
    c6fc:	0141                	addi	sp,sp,16
    c6fe:	8082                	ret

0000c700 <_fstat_r>:
    c700:	1141                	addi	sp,sp,-16
    c702:	c422                	sw	s0,8(sp)
    c704:	842a                	mv	s0,a0
    c706:	852e                	mv	a0,a1
    c708:	85b2                	mv	a1,a2
    c70a:	1fff7797          	auipc	a5,0x1fff7
    c70e:	9a07a723          	sw	zero,-1618(a5) # 200030b8 <errno>
    c712:	c606                	sw	ra,12(sp)
    c714:	28b9                	jal	c772 <_fstat>
    c716:	57fd                	li	a5,-1
    c718:	00f51963          	bne	a0,a5,c72a <_fstat_r+0x2a>
    c71c:	1fff7797          	auipc	a5,0x1fff7
    c720:	99c78793          	addi	a5,a5,-1636 # 200030b8 <errno>
    c724:	439c                	lw	a5,0(a5)
    c726:	c391                	beqz	a5,c72a <_fstat_r+0x2a>
    c728:	c01c                	sw	a5,0(s0)
    c72a:	40b2                	lw	ra,12(sp)
    c72c:	4422                	lw	s0,8(sp)
    c72e:	0141                	addi	sp,sp,16
    c730:	8082                	ret

0000c732 <_isatty_r>:
    c732:	1141                	addi	sp,sp,-16
    c734:	c422                	sw	s0,8(sp)
    c736:	842a                	mv	s0,a0
    c738:	852e                	mv	a0,a1
    c73a:	1fff7797          	auipc	a5,0x1fff7
    c73e:	9607af23          	sw	zero,-1666(a5) # 200030b8 <errno>
    c742:	c606                	sw	ra,12(sp)
    c744:	283d                	jal	c782 <_isatty>
    c746:	57fd                	li	a5,-1
    c748:	00f51963          	bne	a0,a5,c75a <_isatty_r+0x28>
    c74c:	1fff7797          	auipc	a5,0x1fff7
    c750:	96c78793          	addi	a5,a5,-1684 # 200030b8 <errno>
    c754:	439c                	lw	a5,0(a5)
    c756:	c391                	beqz	a5,c75a <_isatty_r+0x28>
    c758:	c01c                	sw	a5,0(s0)
    c75a:	40b2                	lw	ra,12(sp)
    c75c:	4422                	lw	s0,8(sp)
    c75e:	0141                	addi	sp,sp,16
    c760:	8082                	ret

0000c762 <_close>:
    c762:	05800793          	li	a5,88
    c766:	1fff7717          	auipc	a4,0x1fff7
    c76a:	94f72923          	sw	a5,-1710(a4) # 200030b8 <errno>
    c76e:	557d                	li	a0,-1
    c770:	8082                	ret

0000c772 <_fstat>:
    c772:	05800793          	li	a5,88
    c776:	1fff7717          	auipc	a4,0x1fff7
    c77a:	94f72123          	sw	a5,-1726(a4) # 200030b8 <errno>
    c77e:	557d                	li	a0,-1
    c780:	8082                	ret

0000c782 <_isatty>:
    c782:	05800793          	li	a5,88
    c786:	1fff7717          	auipc	a4,0x1fff7
    c78a:	92f72923          	sw	a5,-1742(a4) # 200030b8 <errno>
    c78e:	4501                	li	a0,0
    c790:	8082                	ret

0000c792 <_lseek>:
    c792:	05800793          	li	a5,88
    c796:	1fff7717          	auipc	a4,0x1fff7
    c79a:	92f72123          	sw	a5,-1758(a4) # 200030b8 <errno>
    c79e:	557d                	li	a0,-1
    c7a0:	8082                	ret

0000c7a2 <_read>:
    c7a2:	05800793          	li	a5,88
    c7a6:	1fff7717          	auipc	a4,0x1fff7
    c7aa:	90f72923          	sw	a5,-1774(a4) # 200030b8 <errno>
    c7ae:	557d                	li	a0,-1
    c7b0:	8082                	ret
	...

0000c7b4 <CalPoint>:
    c7b4:	0082 0059 0078 0071 006e 006e 0064 00bb     ..Y.x.q.n.n.d...
    c7c4:	005a 00f3 0050 0143 0046 01b4 003c 0254     Z...P.C.F...<.T.
    c7d4:	0032 0342 0028 0497 001e 06ab 0014 09c4     2.B.(...........
    c7e4:	000a 0ed0 0000 1708 fff6 24b5 ffec 3c66     ...........$..f<
    c7f4:	ffe2 6602 ffd8 b101                         ...f....

0000c7fc <bitrate_table>:
    c7fc:	03e8 007d 01f4 00fa 007d 007d 0032 0014     ..}.....}.}.2...

0000c80c <seg_const>:
    c80c:	0336 003f 02f3 00f3 0006 00db 00cf 00e6     6.?.............
    c81c:	00ed 0000 0000 4120 6666 4066 0ebe 0000     ...... Afff@....
    c82c:	0ebe 0000 0ebe 0000 0ebe 0000 0ebe 0000     ................
    c83c:	0ebe 0000 0ebe 0000 0ebe 0000 0ebe 0000     ................
    c84c:	0ebe 0000 0ebe 0000 0ebe 0000 0ebe 0000     ................
    c85c:	0ebe 0000 0ed0 0000 0ed0 0000 0ed0 0000     ................
    c86c:	0ede 0000 0ede 0000 0ede 0000 0f1a 0000     ................
    c87c:	0f32 0000 0f6c 0000 0f7a 0000 0fc8 0000     2...l...z.......
    c88c:	0f82 0000 0f86 0000 0f8e 0000 0f98 0000     ................

0000c89c <MenuStateCross>:
    c89c:	0003 0000 0005 0000 0007 0000 0008 0000     ................
    c8ac:	0009 0000                                   ....

0000c8b0 <dm>:
    c8b0:	6e6d 006d 0000 5000 0673 0000 0000 7350     mnm....Ps.....Ps
    c8c0:	005b 0000 7700 5406 0006 0000 0677 5b54     [....w.T....w.T[
    c8d0:	0000 7700 5406 004f 0000 776d 793e 0000     ...w.TO...mw>y..
	...
    c8e8:	7679 7806 0000 0000 0000 447a 0000 3d80     yv.x......zD...=
    c8f8:	5555 3fd5 4067 3a53 8000 453b da74 40a0     UU.?g@S:..;Et..@
    c908:	cccd 3e4c 6666 3f66 0000 3f00 0000 40e0     ..L>fff?...?...@
    c918:	2268 0000 2282 0000 228c 0000 22a6 0000     h"..."..."..."..
    c928:	22b2 0000 22ce 0000 22dc 0000               ."..."..."..

0000c934 <Brigth>:
    c934:	0000 0002 0003 0005 0008 0064 00c8 012c     ..........d...,.
    c944:	0190 01f4 0258 02bc 0320 0384 03e9 0000     ....X... .......

0000c954 <DigitMask>:
    c954:	063f 4f5b 6d66 077d 6f7f 0000               ?.[Ofm}..o..

0000c960 <offset_mask>:
    c960:	0202 0101 0000 0202 0101 0000 0002 0000     ................

0000c970 <step_mask>:
    c970:	0300 0300 0300 0609 0a0d 090c 060c 0000     ................

0000c980 <OD_ADC1_CAL_extension>:
    c980:	0000 0000 2aaa 0000 2be8 0000 0000 0000     .....*...+......

0000c990 <OD_ADC2_CAL_extension>:
    c990:	0000 0000 2aba 0000 2bf8 0000 0000 0000     .....*...+......

0000c9a0 <OD_ADC3_CAL_extension>:
    c9a0:	0000 0000 2aca 0000 2c08 0000 0000 0000     .....*...,......

0000c9b0 <OD_AIN_RPM_extension>:
    c9b0:	0000 0000 2d22 0000 87ee 0000 0000 0000     ...."-..........

0000c9c0 <OD_BAR_extension>:
    c9c0:	0000 0000 2d9e 0000 275c 0000 0000 0000     .....-..\'......

0000c9d0 <OD_BOARD_SETTINGS_extension>:
    c9d0:	0000 0000 29fa 0000 2690 0000 0000 0000     .....)...&......

0000c9e0 <OD_DASH_PARAM_extension>:
    c9e0:	0000 0000 2dc6 0000 2860 0000 0000 0000     .....-..`(......

0000c9f0 <OD_DIN_extension>:
    c9f0:	0000 0000 262e 0000 0000 0000 0000 0000     .....&..........

0000ca00 <OD_MENU_MAP_extension>:
    ca00:	0000 0000 2d48 0000 27da 0000 0000 0000     ....H-...'......

0000ca10 <OD_MENU_SETUP_extension>:
    ca10:	0000 0000 2ada 0000 264a 0000 0000 0000     .....*..J&......

0000ca20 <OD_RGB10_extension>:
    ca20:	0000 0000 2cda 0000 29a2 0000 0000 0000     .....,...)......

0000ca30 <OD_RGB11_extension>:
    ca30:	0000 0000 2cec 0000 29b8 0000 0000 0000     .....,...)......

0000ca40 <OD_RGB12_extension>:
    ca40:	0000 0000 2cfe 0000 29ce 0000 0000 0000     .....,...)......

0000ca50 <OD_RGB13_extension>:
    ca50:	0000 0000 2d10 0000 29e4 0000 0000 0000     .....-...)......

0000ca60 <OD_RGB1_extension>:
    ca60:	0000 0000 2c3a 0000 28de 0000 0000 0000     ....:,...(......

0000ca70 <OD_RGB2_extension>:
    ca70:	0000 0000 2c4a 0000 28f2 0000 0000 0000     ....J,...(......

0000ca80 <OD_RGB3_extension>:
    ca80:	0000 0000 2c5c 0000 2908 0000 0000 0000     ....\,...)......

0000ca90 <OD_RGB4_extension>:
    ca90:	0000 0000 2c6e 0000 291e 0000 0000 0000     ....n,...)......

0000caa0 <OD_RGB5_extension>:
    caa0:	0000 0000 2c80 0000 2934 0000 0000 0000     .....,..4)......

0000cab0 <OD_RGB6_extension>:
    cab0:	0000 0000 2c92 0000 294a 0000 0000 0000     .....,..J)......

0000cac0 <OD_RGB7_extension>:
    cac0:	0000 0000 2ca4 0000 2960 0000 0000 0000     .....,..`)......

0000cad0 <OD_RGB8_extension>:
    cad0:	0000 0000 2cb6 0000 2976 0000 0000 0000     .....,..v)......

0000cae0 <OD_RGB9_extension>:
    cae0:	0000 0000 2cc8 0000 298c 0000 0000 0000     .....,...)......

0000caf0 <OD_RGBMAP_extension>:
    caf0:	0000 0000 260c 0000 25dc 0000 0000 0000     .....&...%......

0000cb00 <OD_RPMCONFIG_extension>:
    cb00:	0000 0000 2d74 0000 278c 0000 0000 0000     ....t-...'......

0000cb10 <OD_SEG_extension>:
    cb10:	0000 0000 2e12 0000 2718 0000 0000 0000     .........'......

0000cb20 <OD_VRegiters_extension>:
    cb20:	0000 0000 879e 0000 280a 0000 0000 0000     .........(......
    cb30:	7250 636f 7365 5473 7361 006b 6143 4f6e     ProcessTask.CanO
    cb40:	6570 506e 7265 6f69 6964 0063 6143 4f6e     penPeriodic.CanO
    cb50:	6570 506e 6f72 6563 7373 6154 6b73 0000     penProcessTask..
    cb60:	6e49 7570 7374 6154 6b73 0000 6544 5466     InputsTask..DefT
    cb70:	7361 006b 126f 3a03 0000 4270 0000 3f80     ask.o..:..pB...?

0000cb80 <ADC_chennel_ref>:
    cb80:	0100 0302 0504 0706 0908 0b0a 0d0c 0f0e     ................
    cb90:	1110 0000                                   ....

0000cb94 <PERIPH_MASK>:
    cb94:	0004 0000 0008 0000 0010 0000 4f66 0000     ............fO..
    cba4:	4f78 0000 4fa6 0000 4fb6 0000 4fca 0000     xO...O...O...O..
    cbb4:	4fd4 0000 503a 0000 504a 0000 5090 0000     .O..:P..JP...P..
    cbc4:	50b8 0000 4f94 0000 507c 0000               .P...O..|P..

0000cbd0 <timers>:
    cbd0:	2c00 4001 0000 4000 0400 4000 0800 4000     .,.@...@...@...@
    cbe0:	0000 0000 2e2e 462f 6572 5265 4f54 2f53     ....../FreeRTOS/
    cbf0:	6f70 7472 6261 656c 4d2f 6d65 614d 676e     portable/MemMang
    cc00:	682f 6165 5f70 2e34 0063 0000 7265 2072     /heap_4.c...err 
    cc10:	7461 6c20 6e69 2065 6425 6f20 2066 6966     at line %d of fi
    cc20:	656c 2220 7325 2e22 0d20 200a 0000 0000     le "%s". .. ....
    cc30:	2e2e 462f 6572 5265 4f54 2f53 6f70 7472     ../FreeRTOS/port
    cc40:	6261 656c 472f 4343 522f 5349 2d43 2f56     able/GCC/RISC-V/
    cc50:	6f70 7472 632e 0000 2e2e 462f 6572 5265     port.c..../FreeR
    cc60:	4f54 2f53 7571 7565 2e65 0063 74d6 0000     TOS/queue.c..t..
    cc70:	74cc 0000 74ec 0000 74fe 0000 74f8 0000     .t...t...t...t..
    cc80:	7684 0000 767a 0000 7698 0000 76aa 0000     .v..zv...v...v..
    cc90:	76a4 0000 2e2e 462f 6572 5265 4f54 2f53     .v..../FreeRTOS/
    cca0:	6174 6b73 2e73 0063 4449 454c 0000 0000     tasks.c.IDLE....
    ccb0:	0000 4380                                   ...C

0000ccb4 <ODObjs>:
    ccb4:	0400 2000 0041 0000 0004 0000 032c 2000     ... A.......,.. 
    ccc4:	0001 0000 0001 0000 0000 0000 0000 0000     ................
    ccd4:	4103 0000 0004 0000 0004 0000 0404 2000     .A............. 
    cce4:	0081 0000 000b 0000 0410 2000 0081 0000     ........... ....
    ccf4:	0004 0000 0415 2000 0081 0000 0004 0000     ....... ........
    cd04:	032d 2000 0083 0000 000e 0000 05c8 2000     -.. ........... 
    cd14:	0040 0000 0004 0000 05cc 2000 0043 0000     @.......... C...
    cd24:	0002 0000 05ce 2000 0043 0000 0002 0000     ....... C.......
    cd34:	041c 2000 0100 0000 0001 0000 0420 2000     ... ........ .. 
    cd44:	4101 0000 0004 0000 0424 2000 4102 0000     .A......$.. .A..
    cd54:	0004 0000 0428 2000 4103 0000 0004 0000     ....(.. .A......
    cd64:	042c 2000 4104 0000 0004 0000 033c 2000     ,.. .A......<.. 
    cd74:	0100 0000 0001 0000 0340 2000 4301 0000     ........@.. .C..
    cd84:	0004 0000 0344 2000 0302 0000 0001 0000     ....D.. ........
    cd94:	0346 2000 4305 0000 0002 0000 0430 2000     F.. .C......0.. 
    cda4:	0100 0000 0001 0000 0434 2000 4301 0000     ........4.. .C..
    cdb4:	0004 0000 0438 2000 0302 0000 0001 0000     ....8.. ........
    cdc4:	043a 2000 4305 0000 0002 0000 043c 2000     :.. .C......<.. 
    cdd4:	0100 0000 0001 0000 0440 2000 4301 0000     ........@.. .C..
    cde4:	0004 0000 0444 2000 0302 0000 0001 0000     ....D.. ........
    cdf4:	0446 2000 4305 0000 0002 0000 0448 2000     F.. .C......H.. 
    ce04:	0100 0000 0001 0000 044c 2000 4301 0000     ........L.. .C..
    ce14:	0004 0000 0450 2000 0302 0000 0001 0000     ....P.. ........
    ce24:	0452 2000 4305 0000 0002 0000 0348 2000     R.. .C......H.. 
    ce34:	0300 0000 0001 0000 034c 2000 4301 0000     ........L.. .C..
    ce44:	0004 0000 0350 2000 4302 0000 0004 0000     ....P.. .C......
    ce54:	0354 2000 4303 0000 0004 0000 0358 2000     T.. .C......X.. 
    ce64:	4304 0000 0004 0000 035c 2000 4305 0000     .C......\.. .C..
    ce74:	0004 0000 0360 2000 4306 0000 0004 0000     ....`.. .C......
    ce84:	0364 2000 4307 0000 0004 0000 0368 2000     d.. .C......h.. 
    ce94:	4308 0000 0004 0000 0454 2000 0300 0000     .C......T.. ....
    cea4:	0001 0000 0458 2000 4301 0000 0004 0000     ....X.. .C......
    ceb4:	045c 2000 4302 0000 0004 0000 0460 2000     \.. .C......`.. 
    cec4:	4303 0000 0004 0000 0464 2000 4304 0000     .C......d.. .C..
    ced4:	0004 0000 0468 2000 4305 0000 0004 0000     ....h.. .C......
    cee4:	046c 2000 4306 0000 0004 0000 0470 2000     l.. .C......p.. 
    cef4:	4307 0000 0004 0000 0474 2000 4308 0000     .C......t.. .C..
    cf04:	0004 0000 0478 2000 0300 0000 0001 0000     ....x.. ........
    cf14:	047c 2000 4301 0000 0004 0000 0480 2000     |.. .C......... 
    cf24:	4302 0000 0004 0000 0484 2000 4303 0000     .C......... .C..
    cf34:	0004 0000 0488 2000 4304 0000 0004 0000     ....... .C......
    cf44:	048c 2000 4305 0000 0004 0000 0490 2000     ... .C......... 
    cf54:	4306 0000 0004 0000 0494 2000 4307 0000     .C......... .C..
    cf64:	0004 0000 0498 2000 4308 0000 0004 0000     ....... .C......
    cf74:	049c 2000 0300 0000 0001 0000 04a0 2000     ... ........... 
    cf84:	4301 0000 0004 0000 04a4 2000 4302 0000     .C......... .C..
    cf94:	0004 0000 04a8 2000 4303 0000 0004 0000     ....... .C......
    cfa4:	04ac 2000 4304 0000 0004 0000 04b0 2000     ... .C......... 
    cfb4:	4305 0000 0004 0000 04b4 2000 4306 0000     .C......... .C..
    cfc4:	0004 0000 04b8 2000 4307 0000 0004 0000     ....... .C......
    cfd4:	04bc 2000 4308 0000 0004 0000 04c0 2000     ... .C......... 
    cfe4:	0100 0000 0001 0000 04c4 2000 4301 0000     ........... .C..
    cff4:	0004 0000 04c8 2000 0302 0000 0001 0000     ....... ........
    d004:	04ca 2000 4303 0000 0002 0000 04cc 2000     ... .C......... 
    d014:	4305 0000 0002 0000 04ce 2000 0306 0000     .C......... ....
    d024:	0001 0000 02c4 2000 0100 0000 0001 0000     ....... ........
    d034:	02c8 2000 4301 0000 0004 0000 02cc 2000     ... .C......... 
    d044:	0302 0000 0001 0000 02ce 2000 4303 0000     ........... .C..
    d054:	0002 0000 02d0 2000 4305 0000 0002 0000     ....... .C......
    d064:	02d2 2000 0306 0000 0001 0000 02d4 2000     ... ........... 
    d074:	0100 0000 0001 0000 02d8 2000 4301 0000     ........... .C..
    d084:	0004 0000 02dc 2000 0302 0000 0001 0000     ....... ........
    d094:	02de 2000 4303 0000 0002 0000 02e0 2000     ... .C......... 
    d0a4:	4305 0000 0002 0000 02e2 2000 0306 0000     .C......... ....
    d0b4:	0001 0000 04d0 2000 0300 0000 0001 0000     ....... ........
    d0c4:	04d4 2000 4301 0000 0004 0000 04d8 2000     ... .C......... 
    d0d4:	4302 0000 0004 0000 04dc 2000 4303 0000     .C......... .C..
    d0e4:	0004 0000 04e0 2000 4304 0000 0004 0000     ....... .C......
    d0f4:	04e4 2000 4305 0000 0004 0000 04e8 2000     ... .C......... 
    d104:	4306 0000 0004 0000 04ec 2000 4307 0000     .C......... .C..
    d114:	0004 0000 04f0 2000 4308 0000 0004 0000     ....... .C......
    d124:	02e4 2000 0300 0000 0001 0000 02e8 2000     ... ........... 
    d134:	4301 0000 0004 0000 02ec 2000 4302 0000     .C......... .C..
    d144:	0004 0000 02f0 2000 4303 0000 0004 0000     ....... .C......
    d154:	02f4 2000 4304 0000 0004 0000 02f8 2000     ... .C......... 
    d164:	4305 0000 0004 0000 02fc 2000 4306 0000     .C......... .C..
    d174:	0004 0000 0300 2000 4307 0000 0004 0000     ....... .C......
    d184:	0304 2000 4308 0000 0004 0000 0308 2000     ... .C......... 
    d194:	0300 0000 0001 0000 030c 2000 4301 0000     ........... .C..
    d1a4:	0004 0000 0310 2000 4302 0000 0004 0000     ....... .C......
    d1b4:	0314 2000 4303 0000 0004 0000 0318 2000     ... .C......... 
    d1c4:	4304 0000 0004 0000 031c 2000 4305 0000     .C......... .C..
    d1d4:	0004 0000 0320 2000 4306 0000 0004 0000     .... .. .C......
    d1e4:	0324 2000 4307 0000 0004 0000 0328 2000     $.. .C......(.. 
    d1f4:	4308 0000 0004 0000 036c 2000 0100 0000     .C......l.. ....
    d204:	0001 0000 0000 0000 0a01 0000 0001 0000     ................
    d214:	0000 0000 0a02 0000 0001 0000 0000 0000     ................
    d224:	0a03 0000 0001 0000 0000 0000 0a04 0000     ................
    d234:	0001 0000 0000 0000 0a05 0000 0001 0000     ................
    d244:	0000 0000 0a06 0000 0001 0000 0000 0000     ................
    d254:	0a07 0000 0001 0000 0000 0000 0a08 0000     ................
    d264:	0001 0000 0000 0000 0a09 0000 0001 0000     ................
    d274:	0000 0000 0a0a 0000 0001 0000 0000 0000     ................
    d284:	0a0b 0000 0001 0000 0000 0000 0a0c 0000     ................
    d294:	0001 0000 0000 0000 0a0d 0000 0001 0000     ................
    d2a4:	0000 0000 0a0e 0000 0001 0000 0000 0000     ................
    d2b4:	4a0f 0000 0002 0000 0000 0000 4a10 0000     .J...........J..
    d2c4:	0002 0000 0000 0000 4a11 0000 0002 0000     .........J......
    d2d4:	0000 0000 4a12 0000 0004 0000 036d 2000     .....J......m.. 
    d2e4:	0000 0000 4301 0000 0004 0000 0004 0000     .....C..........
    d2f4:	036e 2000 0000 0000 4501 0000 0002 0000     n.. .....E......
    d304:	0002 0000 04f4 2000 0000 0000 0501 0000     ....... ........
    d314:	0001 0000 0001 0000 04f5 2000 0000 0000     ........... ....
    d324:	4b01 0000 0002 0000 0002 0000 04f6 2000     .K............. 
    d334:	0000 0000 0301 0000 0001 0000 0001 0000     ................
    d344:	04f7 2000 0000 0000 4301 0000 0002 0000     ... .....C......
    d354:	0002 0000 04f8 2000 0000 0000 4301 0000     ....... .....C..
    d364:	0002 0000 0002 0000 04f9 2000 0000 0000     ........... ....
    d374:	4301 0000 0002 0000 0002 0000 04fa 2000     .C............. 
    d384:	0000 0000 4301 0000 0002 0000 0002 0000     .....C..........
    d394:	04fb 2000 0000 0000 4301 0000 0002 0000     ... .....C......
    d3a4:	0002 0000 04fc 2000 0000 0000 4301 0000     ....... .....C..
    d3b4:	0002 0000 0002 0000 04fd 2000 0000 0000     ........... ....
    d3c4:	4301 0000 0002 0000 0002 0000 04fe 2000     .C............. 
    d3d4:	0000 0000 4301 0000 0002 0000 0002 0000     .....C..........
    d3e4:	04ff 2000 0000 0000 4301 0000 0002 0000     ... .....C......
    d3f4:	0002 0000 0500 2000 0000 0000 4301 0000     ....... .....C..
    d404:	0002 0000 0002 0000 0501 2000 0000 0000     ........... ....
    d414:	4301 0000 0002 0000 0002 0000 0502 2000     .C............. 
    d424:	0000 0000 4301 0000 0002 0000 0002 0000     .....C..........
    d434:	0503 2000 0000 0000 4301 0000 0002 0000     ... .....C......
    d444:	0002 0000 0504 2000 0000 0000 4301 0000     ....... .....C..
    d454:	0002 0000 0002 0000 0505 2000 0506 2000     ........... ... 
    d464:	4301 0000 0002 0000 0002 0000 0514 2000     .C............. 
    d474:	0518 2000 4301 0000 0004 0000 0004 0000     ... .C..........
    d484:	0540 2000 0000 0000 0301 0000 0001 0000     @.. ............
    d494:	0001 0000 036f 2000 0100 0000 0001 0000     ....o.. ........
    d4a4:	0000 0000 0301 0000 0001 0000 0000 0000     ................
    d4b4:	0302 0000 0001 0000 0000 0000 0303 0000     ................
    d4c4:	0001 0000 0000 0000 0304 0000 0001 0000     ................
    d4d4:	0370 2000 0100 0000 0001 0000 0371 2000     p.. ........q.. 
    d4e4:	0301 0000 0001 0000 0372 2000 4302 0000     ........r.. .C..
    d4f4:	0002 0000 0374 2000 4303 0000 0004 0000     ....t.. .C......
    d504:	0378 2000 4304 0000 0002 0000 037a 2000     x.. .C......z.. 
    d514:	4305 0000 0002 0000 037c 2000 4306 0000     .C......|.. .C..
    d524:	0002 0000 037e 2000 4307 0000 0002 0000     ....~.. .C......
    d534:	0380 2000 4308 0000 0002 0000 0382 2000     ... .C......... 
    d544:	4309 0000 0002 0000 0384 2000 430a 0000     .C......... .C..
    d554:	0002 0000 0386 2000 430b 0000 0002 0000     ....... .C......
    d564:	0388 2000 430c 0000 0002 0000 038a 2000     ... .C......... 
    d574:	430d 0000 0002 0000 038c 2000 430e 0000     .C......... .C..
    d584:	0002 0000 038e 2000 430f 0000 0002 0000     ....... .C......
    d594:	0390 2000 4310 0000 0002 0000 0392 2000     ... .C......... 
    d5a4:	4311 0000 0002 0000 0394 2000 4312 0000     .C......... .C..
    d5b4:	0002 0000 0396 2000 4313 0000 0002 0000     ....... .C......
    d5c4:	0398 2000 4314 0000 0002 0000 039a 2000     ... .C......... 
    d5d4:	4315 0000 0002 0000 039c 2000 4316 0000     .C......... .C..
    d5e4:	0002 0000 03a0 2000 0100 0000 0001 0000     ....... ........
    d5f4:	03a1 2000 0301 0000 0001 0000 03a2 2000     ... ........... 
    d604:	4302 0000 0002 0000 03a4 2000 4303 0000     .C......... .C..
    d614:	0004 0000 03a8 2000 4304 0000 0002 0000     ....... .C......
    d624:	03aa 2000 4305 0000 0002 0000 03ac 2000     ... .C......... 
    d634:	4306 0000 0002 0000 03ae 2000 4307 0000     .C......... .C..
    d644:	0002 0000 03b0 2000 4308 0000 0002 0000     ....... .C......
    d654:	03b2 2000 4309 0000 0002 0000 03b4 2000     ... .C......... 
    d664:	430a 0000 0002 0000 03b6 2000 430b 0000     .C......... .C..
    d674:	0002 0000 03b8 2000 430c 0000 0002 0000     ....... .C......
    d684:	03ba 2000 430d 0000 0002 0000 03bc 2000     ... .C......... 
    d694:	430e 0000 0002 0000 03be 2000 430f 0000     .C......... .C..
    d6a4:	0002 0000 03c0 2000 4310 0000 0002 0000     ....... .C......
    d6b4:	03c2 2000 4311 0000 0002 0000 03c4 2000     ... .C......... 
    d6c4:	4312 0000 0002 0000 03c6 2000 4313 0000     .C......... .C..
    d6d4:	0002 0000 03c8 2000 4314 0000 0002 0000     ....... .C......
    d6e4:	03ca 2000 4315 0000 0002 0000 03cc 2000     ... .C......... 
    d6f4:	4316 0000 0002 0000 03d0 2000 0100 0000     .C......... ....
    d704:	0001 0000 03d1 2000 0301 0000 0001 0000     ....... ........
    d714:	03d2 2000 4302 0000 0002 0000 03d4 2000     ... .C......... 
    d724:	4303 0000 0004 0000 03d8 2000 4304 0000     .C......... .C..
    d734:	0002 0000 03da 2000 4305 0000 0002 0000     ....... .C......
    d744:	03dc 2000 4306 0000 0002 0000 03de 2000     ... .C......... 
    d754:	4307 0000 0002 0000 03e0 2000 4308 0000     .C......... .C..
    d764:	0002 0000 03e2 2000 4309 0000 0002 0000     ....... .C......
    d774:	03e4 2000 430a 0000 0002 0000 03e6 2000     ... .C......... 
    d784:	430b 0000 0002 0000 03e8 2000 430c 0000     .C......... .C..
    d794:	0002 0000 03ea 2000 430d 0000 0002 0000     ....... .C......
    d7a4:	03ec 2000 430e 0000 0002 0000 03ee 2000     ... .C......... 
    d7b4:	430f 0000 0002 0000 03f0 2000 4310 0000     .C......... .C..
    d7c4:	0002 0000 03f2 2000 4311 0000 0002 0000     ....... .C......
    d7d4:	03f4 2000 4312 0000 0002 0000 03f6 2000     ... .C......... 
    d7e4:	4313 0000 0002 0000 03f8 2000 4314 0000     .C......... .C..
    d7f4:	0002 0000 03fa 2000 4315 0000 0002 0000     ....... .C......
    d804:	03fc 2000 4316 0000 0002 0000 0541 2000     ... .C......A.. 
    d814:	0000 0000 4301 0000 0002 0000 0002 0000     .....C..........

0000d824 <CO_LSS_bitTimingTableLookup>:
    d824:	03e8 0320 01f4 00fa 007d 0000 0032 0014     .. .....}...2...
    d834:	000a 0000                                   ....

0000d838 <abortCodes.6833>:
    d838:	0000 0000 0005 0504 0000 0601 0001 0601     ................
    d848:	0002 0601 0000 0602 0041 0604 0042 0604     ........A...B...
    d858:	0043 0604 0047 0604 0000 0606 0010 0607     C...G...........
    d868:	0012 0607 0013 0607 0011 0609 0030 0609     ............0...
    d878:	0031 0609 0032 0609 0036 0609 0023 060a     1...2...6...#...
    d888:	0000 0800 0020 0800 0021 0800 0022 0800     .... ...!..."...
    d898:	0023 0800 0024 0800 d1b8 ffff d0de ffff     #...$...........
    d8a8:	d1b2 ffff d0e6 ffff d1b2 ffff d0ac ffff     ................
    d8b8:	d1b2 ffff d0e6 ffff d0de ffff d0de ffff     ................
    d8c8:	d0ac ffff d0e6 ffff d0ec ffff d0ec ffff     ................
    d8d8:	d0ec ffff d0ac ffff d09e ffff d09e ffff     ................
    d8e8:	d172 ffff d24e ffff d172 ffff d06c ffff     r...N...r...l...
    d8f8:	d172 ffff d24e ffff d09e ffff d09e ffff     r...N...........
    d908:	d06c ffff d24e ffff d0ac ffff d0ac ffff     l...N...........
    d918:	d0ac ffff d06c ffff d4c2 ffff d414 ffff     ....l...........
    d928:	d414 ffff d412 ffff d418 ffff d418 ffff     ................
    d938:	d3e8 ffff d412 ffff d418 ffff d3e8 ffff     ................
    d948:	d418 ffff d412 ffff d4b0 ffff d4b0 ffff     ................
    d958:	d4b0 ffff d3e8 ffff                         ........

0000d960 <__clz_tab>:
    d960:	0100 0202 0303 0303 0404 0404 0404 0404     ................
    d970:	0505 0505 0505 0505 0505 0505 0505 0505     ................
    d980:	0606 0606 0606 0606 0606 0606 0606 0606     ................
    d990:	0606 0606 0606 0606 0606 0606 0606 0606     ................
    d9a0:	0707 0707 0707 0707 0707 0707 0707 0707     ................
    d9b0:	0707 0707 0707 0707 0707 0707 0707 0707     ................
    d9c0:	0707 0707 0707 0707 0707 0707 0707 0707     ................
    d9d0:	0707 0707 0707 0707 0707 0707 0707 0707     ................
    d9e0:	0808 0808 0808 0808 0808 0808 0808 0808     ................
    d9f0:	0808 0808 0808 0808 0808 0808 0808 0808     ................
    da00:	0808 0808 0808 0808 0808 0808 0808 0808     ................
    da10:	0808 0808 0808 0808 0808 0808 0808 0808     ................
    da20:	0808 0808 0808 0808 0808 0808 0808 0808     ................
    da30:	0808 0808 0808 0808 0808 0808 0808 0808     ................
    da40:	0808 0808 0808 0808 0808 0808 0808 0808     ................
    da50:	0808 0808 0808 0808 0808 0808 0808 0808     ................

0000da60 <__sf_fake_stderr>:
	...

0000da80 <__sf_fake_stdin>:
	...

0000daa0 <__sf_fake_stdout>:
	...
    dac0:	2d23 2b30 0020 0000 6c68 004c 6665 4567     #-0+ ...hlL.efgE
    dad0:	4746 0000 3130 3332 3534 3736 3938 4241     FG..0123456789AB
    dae0:	4443 4645 0000 0000 3130 3332 3534 3736     CDEF....01234567
    daf0:	3938 6261 6463 6665 0000 0000               89abcdef....
